(lp0
S"ACCO Brands Corporation To Acquire Esselte Group Holdings AB PR Newswire  - Oct 24, 2016 LAKE ZURICH, Ill., Oct. 24, 2016 /PRNewswire/ -- ACCO Brands Corporation , one of the world's largest designers, marketers and manufacturers of branded business, academic and consumer products, today announced that it has signed a&nbsp;...ACCO Brands Corporation  Up on Earnings Beat, Acquisition - Scibility MediaFitch: ACCO's Acquisition of Esselte Rating-Neutral; Expects to Rate New Term ... - Business Wire "
p1
aS"ACCO Brands Corporation Prices Offering Of $400 Million 5.25% Senior Unsecured ... PR Newswire  - Dec 8, 2016 8, 2016 /PRNewswire/ -- ACCO Brands Corporation , one of the world's largest designers, marketers and manufacturers of branded business, academic and consumer products, today announced that it priced a private offering of $400 million in&nbsp;..."
p2
aS'Market Survey: Checking on Shares of ACCO Brands Corporation  Rives Journal - 7 hours ago ACCO Brands Corporation  currently has a Gross Margin  ratio of 0.249504. Robert Novy-Marx has provided investors with insights on finding high-quality value stocks.ACCO Brands Co.  Director George V. Bayly Sells 30000 Shares - Sports PerspectivesAcco Brands Corporation  Receives An Update From Brokers - The De Soto Edge'
p3
aS'Investor Focus: Watching Shares of ACCO Brands Corporation  Baldwin Journal - 9 hours ago ACCO Brands Corporation  currently has a 6 month price index of 1.34058. The six month price index is simply measured by dividing the current share price by the share price six months ago.'
p4
aS"ACCO Brands Corporation  Reports In-Line Q4 EPS StreetInsider.com - Feb 22, 2017 ACCO Brands Corporation  reported Q4 EPS of $0.30, in-line with the analyst estimate of $0.30. Revenue for the quarter came in at $437.6 million versus the consensus estimate of $431.31 million.Acco Brands Corporation  Breaks into New 52-Week High on February 23 Session - Equities.comACCO Brands'  CEO Boris Elisman on Q4 2016 Results - Earnings Call ... - Seeking Alpha"
p5
aS'ACCO Brands completes Esselte Group acquisition Seeking Alpha - Feb 1, 2017 ACCO Brands Corporation  announces that it completed the acquisition of Esselte Group Holdings. The company says the deal will improves its scale and enhances its position as an industry leader in Europe.ACCO Brands Completes Acquisition Of Esselte Group Holdings AB - Yahoo Finance'
p6
aS'Equity Watch: Checking on the Levels for ACCO Brands Corp  Baxter Review - 13 hours ago At the time of writing, the 14-day ADX for ACCO Brands Corp  is standing at 13.35. Many chart analysts believe that an ADX reading over 25 would suggest a strong trend.'
p7
aS"ACCO Brands : Should Value Investors Pick this Stock? March 16, 2017 Zacks.com - Mar 16, 2017 Right now, ACCO Brands has a P/S ratio of about 0.93. This is significantly lower than the S&amp;P 500 average, which comes in at 3.09 right now.ACCO Brands Corporation's  stock price is Worth at $13.20 while ends ... - Hot Stocks PointZacks: ACCO Brands Co.  Given $16.00 Consensus Target Price by Analysts - Chaffey Breeze"
p8
aS"Is It Time to go for Avangrid, Inc. , ACCO Brands Corporation ? StockNewsJournal - Mar 24, 2017 ACCO Brands Corporation , maintained return on investment for the last twelve months at 5.87, higher than what Reuters data shows regarding industry's average.Technical Roundup On Two Stocks: Bojangles', Inc. , ACCO Brands ... - Post AnalystEnvestnet Asset Management Inc. Reduces Position in ACCO Brands Co.  - The Cerbat Gem"
p9
aS'Acco Brands Corporation  Moves Lower on Volume Spike for February 28 Equities.com - Feb 28, 2017 Acco Brands Corporation  traded on unusually high volume on Feb. 28, as the stock lost 3.6% to close at $13.40. On the day, Acco Brands Corporation saw 939,405 shares trade hands on 4,891 trades. Considering that the stock averages only a daily&nbsp;...Acco Brands Corporation  Shares Bought by Federated Investors Inc. PA - The Cerbat GemThe Acco Brands Corporation  Releases FY17 Earnings Guidance - DailyQuint'
p10
a.