(lp0
S"Institutional Ownership Update on Arch Capital Group Ltd.  Midway Monitor - 9 hours ago Arch Capital Group Ltd. 's stock has been a favorite of smart money aka institutions, as of late. Institutions are currently holders of 88.50% of the shares.Insider Selling: Arch Capital Group Ltd.  CFO Sells 5635 Shares of Stock - Chaffey Breeze"
p1
aS"S&amp;P Lowers Outlook on Arch Capital Group Ltd  to Negative Amid United ... StreetInsider.com - Aug 17, 2016 S&amp;P Global Ratings said it affirmed its 'A-' long-term counterparty credit rating on Arch Capital Group Ltd.  as well as its counterparty credit and financial strength ratings on its operating subsidiaries.Arch Capital Group Ltd. to Acquire United Guaranty Corporation - Business Wire AIG to sell unit to Arch Capital for $3.4 billion - Reuters UK"
p2
aS'Arch Capital Group Ltd.  to Ring The Nasdaq Stock Market Opening ... GlobeNewswire  - Feb 10, 2017 Arch Capital Group Ltd. , a Bermuda public limited liability company, will visit the Nasdaq MarketSite in Times Square in celebration of its recent closing of the acquisition of United Guaranty Corporation.Arch Capital Group Ltd.  to Release Earnings on Monday - Sports Perspectives'
p3
aS'Arch Capital Group Ltd. Announces Resignation of Deanna Mulligan from the ... Yahoo Finance - Feb 24, 2017 Arch Capital Group Ltd. [NASDAQ:ACGL] today announced that Deanna Mulligan, CEO of The Guardian Life Insurance Company of America, had resigned from its Board of Directors because of a potential future conflict of interest.Arch Capital Group Ltd.  Position Boosted by State Street Corp - The Cerbat Gem'
p4
aS'Arch Capital Group Reaches Analyst Target Price Nasdaq - Jan 11, 2017 In recent trading, shares of Arch Capital Group Ltd  have crossed above the average analyst 12-month target price of $85.60, changing hands for $86.31/share.'
p5
aS'Stock Watch on Arch Capital Group Ltd.  Aiken Advocate - 20 hours ago These recommendations land on a simplified scale provided by Zacks Research. Using data provided from various analysts, shares of Arch Capital Group Ltd.  are presently listed with an ABR of 2.36. This number is using a recommendation&nbsp;...'
p6
aS'Arch Capital Group Ltd.  Files An 8-K Other Events Market Exclusive - Jan 9, 2017 Arch Capital Group Ltd. , together with its co-sponsor Kelso &amp; Co. , today launched Premia Reinsurance Ltd.Credit Suisse Group Upgrades Arch Capital Group Ltd.  to Outperform - Sports PerspectivesArch Insurance Group Names Parsons Vice President in California - Insurance Journal'
p7
aS'Arch Capital Group Ltd. Reports 2016 Second Quarter Results Business Wire  - Jul 27, 2016 HAMILTON, Bermuda----Arch Capital Group Ltd.  reports that net income available to Arch common shareholders for the 2016 second quarter was $205.6 million, or $1.65 per share, compared to $110.3 million, or $0.88&nbsp;...'
p8
aS'Arch Capital Group Ltd. Announces $950 Million Public Offering of Senior Notes Business Wire  - Nov 29, 2016 HAMILTON, Bermuda----Arch Capital Group Ltd. [NASDAQ:ACGL] announced today that the pricing of an offering of $500,000,000 aggregate principal amount of 4.011% senior notes due 2026  and $450,000,000 aggregate&nbsp;...Brokers Issue New Targets On Arch Capital Group Ltd.  - Fiscal Standard'
p9
aS'Arch Capital Group Ltd. Reports 2016 Fourth Quarter Results Business Wire  - Feb 13, 2017 HAMILTON, Bermuda----Arch Capital Group Ltd.  reports that net income available to Arch common shareholders for the 2016 fourth quarter was $62.4 million, or $0.50 per share, compared to $53.1 million, or $0.42 per&nbsp;...3 Stocks to Watch on Tuesday: General Motors Company , Arch Capital Group ... - NasdaqArch Capital Group Ltd.  Releases Earnings Results, Beats Expectations ... - Highland Mirror'
p10
a.