(lp0
S'Agree Realty Corporation  Ex-Dividend Date Scheduled for March 29, 2017 Nasdaq - 17 hours ago Agree Realty Corporation  will begin trading ex-dividend on March 29, 2017. A cash dividend payment of $0.495 per share is scheduled to be paid on April 14, 2017.'
p1
aS'Agree Realty Announces First Quarter 2017 Earnings Release Date and Conference ... PR Newswire  - Mar 27, 2017 BLOOMFIELD HILLS, Mich., March 27, 2017 /PRNewswire/ -- Agree Realty Corporation   today announced that it will release its first quarter 2017 operating results after the market closes on Monday, April 24, 2017.'
p2
aS'BRIEF-Agree Realty Corp reports Q4 FFO per share $0.64 Reuters - Feb 23, 2017 Feb 23 Agree Realty Corp: * Agree Realty Corporation reports fourth quarter and full year 2016 results. * Q4 adjusted FFO per share $0.63.'
p3
aS'State Street Corp Has $30059000 Stake in Agree Realty Co.  The Cerbat Gem - 18 hours ago Agree Realty logo State Street Corp raised its stake in Agree Realty Co.  by 17.4% during the fourth quarter, according to its most recent disclosure with the SEC.Agree Realty Co.  Upgraded to Buy at Zacks Investment Research - Chaffey BreezeAgree Realty Co. - Receive News &amp; Ratings Daily - BBNS'
p4
aS"Is Small-Cap Gem Agree Realty Really A Short Candidate? C'mon Man Seeking Alpha - Oct 28, 2016 On Oct. 26th SA contributor Dane Bowler published a PRO article: &quot;Agree Realty - The Short Thesis,&quot; which contains his views regarding valuation, portfolio quality and corporate governance. I shared with Dane that I would be writing a rebuttal since I ..."
p5
aS'Price Alert: Agree Realty Corporation  Stock Nears Resistance ... CML News - 19 hours ago Price Alert: Agree Realty Corporation  has now crossed into technical strength -- watch the technical oscillators for momentum gaps.'
p6
aS'Agree Realty Corporation  Moves Lower on Volume Spike for March 22 Equities.com - Mar 22, 2017 Agree Realty Corporation  traded on unusually high volume on Mar. 22, as the stock lost 1.15% to close at $47.31. On the day, Agree Realty Corporation saw 408,668 shares trade hands on 2,178 trades. Considering that the stock averages only a daily&nbsp;...Large Inflow of Money Witnessed in Agree Realty Corporation  - Highland MirrorDividend Disbursement Of Agree Realty Corporation  At $0.495 - Equities Focus'
p7
aS'Net-Lease REIT Agree Realty: Why This Small-Cap Gem Will Continue To Shine Seeking Alpha - Jul 29, 2016 The net-lease REITs, which include DGI blue-chips Realty Income and National Retail Properties, have outperformed the broader REIT sector and S&amp;P 500.'
p8
aS'Net-Lease REIT Agree Realty Is Now Outperforming Realty Income Seeking Alpha - Apr 28, 2016 In-house site selection and development capabilities give Agree Realty insights into bricks and mortar, as well as omnichannel retail trends.'
p9
aS'Ex-Dividend Reminder: Park Hotels &amp; Resorts, Agree Realty and DCT Industrial Trust Nasdaq - Mar 27, 2017 Looking at the universe of stocks we cover at Dividend Channel , on 3/29/17, Park Hotels &amp; Resorts Inc , Agree Realty Corp. , and DCT Industrial Trust Inc  will all trade ex-dividend for their respective upcoming&nbsp;...'
p10
a.