(lp0
S"Allied Motion Technologies, Inc.  Ex-Dividend Date Scheduled for March ... Nasdaq - Mar 13, 2017 Allied Motion Technologies, Inc.  will begin trading ex-dividend on March 14, 2017. A cash dividend payment of $0.025 per share is scheduled to be paid on March 29, 2017.Allied Motion Technologies'  CEO Dick Warzala on Q4 2016 Results ... - Seeking AlphaAllied Motion posts 4Q profit - Yahoo Finance"
p1
aS'Allied Motion Technologies Inc. AMOT  Wall Street Journal - Feb 11, 2011 Allied Motion Technologies Inc. AMOT . search. View All companies. AT CLOSE 4:00 PM EDT 03/27/17. $19.89 USD; -0.26 -1.29%. Volume 31,612. AFTER HOURS 4:59 PM EDT 03/27/17. $19.89 0.00 0.00%. AFTER HOURS Vol 100. Volume&nbsp;...'
p2
aS'Market View: Watching the Numbers for Allied Motion Technologies Inc. (NASDAQ ... The Standard - 14 hours ago Allied Motion Technologies Inc.  has an EV  of 242391. Enterprise Value measures the complete value of a specific company.'
p3
aS'Allied Motion Technologies  Jumps: Stock Rises by 5.8% Yahoo Finance - Feb 16, 2017 Allied Motion Technologies Inc.AMOT was a big mover last session, as the company saw its shares rise nearly 6% on the day. The move came on solid volume too with far more shares changing hands than in a normal session.'
p4
aS'Allied Motion Technologies Signs Purchase Agreement to Acquire German Drive ... GlobeNewswire  - Dec 23, 2015 AMHERST, N.Y., Dec. 23, 2015  -- Allied Motion Technologies Inc. , a global designer and manufacturer of motion control products, announced today that it has signed an agreement to acquire 100% of the stock of&nbsp;...Allied Motion  to Acquire Heidrive GmbH in ~$22M Deal - StreetInsider.com'
p5
aS'Allied Motion Technologies Inc. to Acquire Globe Motors, Inc. EON: Enhanced Online News  - Aug 22, 2013 AMHERST, N.Y.----Allied Motion Technologies Inc.  announced today that it has entered into a definitive agreement to acquire all of the outstanding shares of Globe Motors, Inc. from Safran USA, Inc., on a cash free, debt&nbsp;...'
p6
aS'Allied Motion Technologies Inc.  Moves Lower on Volume Spike for March 07 Equities.com - Mar 7, 2017 Allied Motion Technologies Inc.  traded on unusually high volume on Mar. 07, as the stock lost 3.37% to close at $23.82.'
p7
aS'Allied Motion Technologies: An Accretive Acquisition Opportunity Seeking Alpha - Nov 29, 2013 A unique special situations play that can offer investors huge rewards going forward is a company called Allied Motion Technologies . The company just recently acquired an enterprise that was around the same size. The attractiveness of the&nbsp;...'
p8
aS'Allied Motion Technologies Inc.  Moves Higher on Volume Spike for March 03 Equities.com - Mar 3, 2017 Allied Motion Technologies Inc.  traded on unusually high volume on Mar. 03, as the stock gained 2.61% to close at $24.75.Stock Returns: Allied Motion Technologies Inc  versus Hydrogenics ... - CML NewsAllied Motion Technologies, Inc.  Plans Quarterly Dividend of $0.03 - The Cerbat Gem'
p9
aS'Allied Motion Technologies Inc.: Allied Motion Announces Fourth Quarter and ... The Wall Street Transcript - Mar 2, 2017 28, 2017  -- Allied Motion Technologies Inc.  , a global designer and manufacturer of motion control products and solutions, announced that it will release its fourth quarter and full year 2016 results before the&nbsp;...'
p10
a.