(lp0
S'American National Insurance Company Announces Filing Extension for Form 10-K GlobeNewswire  - Mar 1, 2017 GALVESTON, Texas, March 01, 2017  -- American National Insurance Company   filed a Form 12b-25 Notification of Late Filing with the U.S.'
p1
aS'American National Insurance Company  Ex-Dividend Date Scheduled for ... Nasdaq - Mar 8, 2017 American National Insurance Company  will begin trading ex-dividend on March 09, 2017. A cash dividend payment of $0.82 per share is scheduled to be paid on March 17, 2017.American National Insurance Company  Posts Basic Consolidated EPS ... - Equities Focus'
p2
aS'US Bancorp  Stake Held by American National Insurance Co. TX The Cerbat Gem - 16 hours ago U.S. Bancorp logo American National Insurance Co. TX maintained its position in U.S. Bancorp  during the fourth quarter, according to its most recent disclosure with the Securities and Exchange Commission .'
p3
aS'American National Insurance posts 4Q profit Yahoo Finance - Feb 28, 2017 GALVESTON, Texas  _ American National Insurance Co.  on Monday reported fourth-quarter profit of $59.8 million. The Galveston, Texas-based company said it had profit of $2.22 per share.American National Insurance Company  Stock Technicals at Critical ... - CML News'
p4
aS'United Parcel Service, Inc.  Stake Held by American National Insurance Co. TX Chaffey Breeze - 16 hours ago United Parcel Service logo American National Insurance Co. TX continued to hold its position in shares of United Parcel Service, Inc.  during the fourth quarter, according to its most recent 13F filing with the Securities and Exchange ...'
p5
aS"American National Insurance Company  Reaches $115.22 Formed H&amp;S, Last ... Herald KS - Mar 27, 2017 American National Insurance Company  formed H&amp;S with $109.46 target or 5.00% below today's $115.22 share price."
p6
aS'American National Insurance Company  Moves Lower on Volume Spike for ... Equities.com - Mar 17, 2017 American National Insurance Company  traded on unusually high volume on Mar. 17, as the stock lost 0.05% to close at $116.94.Next Weeks Broker Price Targets For American National Insurance Company ... - Fiscal Standard'
p7
aS'Latest Stocks: The American National Insurance Co. TX Has $8682000 Position in ... Petro Global News 24 - Mar 27, 2017 American National Insurance Co. TX continued to hold its position in Walgreens Boots Alliance Inc  during the fourth quarter, according to its most recent 13F filing with the SEC.Walgreens Boots Alliance Inc - Receive News &amp; Ratings Daily - BBNS'
p8
aS'Mondelez International Inc  Stake Held by American National Insurance Co. TX Chaffey Breeze - Mar 24, 2017 Mondelez International logo American National Insurance Co. TX held its position in Mondelez International Inc  during the fourth quarter, according to its most recent disclosure with the Securities and Exchange Commission .American National Registered Investment Advisor Inc. Has $923000 Stake in ... - The Cerbat Gem'
p9
aS'Successful Earnings Option Trading: American National Insurance Company ... CML News - Mar 16, 2017 As we look at American National Insurance Company we note that a short put is one of the most common implementations of an option strategy, but the analysis completed when employing the short put often times lacks the necessary rigor especially&nbsp;...'
p10
a.