(lp0
S'American Pacific Corporation To Be Acquired By HIG PR Newswire  - Jan 10, 2014 10, 2014 /PRNewswire/ -- American Pacific Corporation   today announced that it has entered into a definitive merger agreement to be acquired by investment funds managed by H.I.San Francisco investment firm buying American Pacific Corp. - Las Vegas Review-JournalWhy American Pacific Corp  is Exploding on Friday - TheStreet.com'
p1
aS'Huntsman Family Investments to Acquire American Pacific Corporation Specialty ... PR Newswire  - Nov 16, 2015 SALT LAKE CITY, Nov. 16, 2015 /PRNewswire/ -- Huntsman Family Investments and its affiliates  announced today that it has entered into a definitive agreement to acquire American Pacific Corporation Specialty Chemicals (the &quot;Company&quot; or&nbsp;...Jon Huntsman Sr. Returns to Private Equity with Rocket Fuel Deal - Fortune'
p2
aS'HIG Capital Announces Successful Completion Of Cash Tender Offer For Shares Of ... PR Newswire  - Feb 27, 2014 MIAMI and LAS VEGAS, Feb. 27, 2014 /PRNewswire/ -- American Pacific Corporation   and H.I.'
p3
aS'Huntsman to buy American Pacific Corporation Specialty Chemicals from HIG Chemicals Technology - Nov 17, 2015 US-based private equity farm Huntsman Family Investments and its affiliates have entered into an agreement to buy American Pacific Corporation Specialty Chemicals from HIG Capital for an undisclosed amount. American Pacific Corporation Specialty&nbsp;...'
p4
aS'American Pacific Announces New Director Nominee and Agreement With Stockholder ... PR Newswire  - Jan 14, 2013 LAS VEGAS, Jan. 14, 2013 /PRNewswire/ -- American Pacific Corporation  today announced that it will nominate Ian Haft, an executive experienced in finance and investments, for election to its board of directors at the upcoming 2013&nbsp;...'
p5
aS'American Pacific Reports Fiscal 2013 Results; Provides Outlook For Fiscal 2014 PR Newswire  - Dec 12, 2013 12, 2013 /PRNewswire/ -- American Pacific Corporation   today reported financial results for its fiscal year and fourth quarter ended September 30, 2013.'
p6
aS'DataVerify Announces Adoption of its DRIVE Verification Platform by American ... Business Wire  - Dec 1, 2016 LOUIS----DataVerify, a leading provider of risk mitigation services, is pleased to announce the adoption of their DRIVE platform by American Pacific Mortgage Corporation , a top ten mortgage banker in the western United States.'
p7
aS'American Pacific Mortgage Corporation promotes Michael Pankow to Executive ... PR Web  - Feb 7, 2017 American Pacific Mortgage Corporation , a top-15 independent mortgage bank, has promoted Michael Pankow to Executive Vice President of National Production.'
p8
aS'American Pacific Mortgage Announces 20th Anniversary PR Web  - Dec 7, 2016 &quot;Since 1996, the mortgage industry and our company have gone through a lot of regulatory changes ... One thing that has never changed is our unwavering commitment to support our branch managers and loan officers.'
p9
aS'American Pacific Mortgage arrives in Sandpoint Bonner County Daily Bee - Feb 9, 2017 American Pacific Mortgage Corporation is celebrating its 20th year as a leading mortgage banking company in the western United States.'
p10
a.