(lp0
S"Why Could ASB Bancorp Inc  Not Be As Efficient As Its Industry In The ... Simply Wall St - Mar 6, 2017 ASB Bancorp Inc  generated a 1.3% ROE in the last year, compared to its industry's 9.83% ROE. But the profitability ratio, often called 'the mother of all ratios', reflects a company's performance both on its income statement and balance ..."
p1
aS"With An ROE Of 1.3%, Has ASB Bancorp Inc's  Management Done A Good Job? Simply Wall St - Mar 18, 2017 ASB Bancorp Inc's  1.3% ROE over the past year fell short of the performance averaged by the industry, which delivered 9.79% ROE in the same period."
p2
aS'ASB Bancorp, Inc. Names New Director PR Newswire  - Sep 19, 2014 ASHEVILLE, N.C., Sept. 19, 2014 /PRNewswire/ -- ASB Bancorp, Inc.  , the holding company for Asheville Savings Bank, S.S.'
p3
aS"Top Positive Mover of Friday: ASB Bancorp, Inc.'s  stock price finalizes ... WsNews 4investors - Mar 20, 2017 ASB Bancorp, Inc.  stock price escalated 10.79% to finalize at $36.95 throughout previous buying and selling session."
p4
aS"Firefly Value Partners Goes Activist On ASB Bancorp Inc. ; Carlson ... Insider Monkey  - Aug 5, 2015 A new 13D filing with the SEC revealed that Firefly Value Partners, managed by Ryan Heslop and Ariel Warszawski, currently owns 421,770 shares of ASB Bancorp Inc. , which represent 9.6% of the company's outstanding common stock.Asheville Savings Bank investor requests sale of bank - Asheville Citizen-Times"
p5
aS"ASB Bancorp's Top Stakeholders Demand a Sale TheStreet.com - Aug 28, 2015 The largest single bloc of ASB shares -- 10.5 -- is held by its employees. New York-based hedge fund Firefly Value Partners is next with a 9.6% stake, followed by activist investor Lawrence B. Seidman, who holds a 6% stake."
p6
aS'Telecom Italia SpA   Reaches $9.17 After 5.00% Gap Up; Asb Bancorp ... NormanObserver.com - Mar 27, 2017 ASB Bancorp, Inc. is the holding company for Asheville Savings Bank . The company has market cap of $128.98 million.'
p7
aS'Stock Returns: Associated Banc-Corp  is Beating Customers Bancorp ... CML News - Mar 21, 2017 This is a snapshot to compare the stock returns for Associated Banc-Corp  versus Customers Bancorp Inc  .Associated Banc Corp  Given Hold Rating at Keefe, Bruyette &amp; Woods - Chaffey Breeze'
p8
aS'Stock Returns: East West Bancorp Inc  is Beating Associated Banc ... CML News - Mar 3, 2017 This is a snapshot to compare the stock returns for Associated Banc-Corp  versus East West Bancorp Inc  .'
p9
aS'Keefe Bruyette Woods Reiterates $24.00 PT On Associated Banc , Reiterates ... Herald KS - Mar 27, 2017 Capstone Asset Mngmt has invested 0.01% in Associated Banc Corp . Wesbanco Bancorp Inc has invested 0.07% of its portfolio in Associated Banc Corp . Renaissance Tech Ltd Limited Liability Company holds 0.01% of its portfolio&nbsp;...'
p10
a.