(lp0
S'ATMOS ENERGY CORPORATION  Files An 8-K Other Events Market Exclusive - 9 hours ago Atmos Energy Corporation is engaged primarily in the regulated natural gas distribution and pipeline businesses, as well as other nonregulated natural gas businesses.Atmos Energy Corporation  Holding Above The Trend Line - Melville ReviewAtmos Energy Corporation  Value Score in Focus - TCT'
p1
aS'Atmos Energy Corporation Announces Departure of Bret J. Eckert as Senior Vice ... Yahoo Finance - Jan 19, 2017 Atmos Energy Corporation  today announced that Bret J. Eckert will be leaving the company as Senior Vice President and Chief Financial Officer to pursue other opportunities, effective February 1, 2017.Atmos Energy Corporation Names Christopher T. Forsythe Chief Financial Officer - Business Wire '
p2
aS"CenterPoint Energy signs agreement with subsidiary of Atmos Energy Corporation ... PR Newswire  - Oct 31, 2016 HOUSTON, Oct. 31, 2016 /PRNewswire/ -- CenterPoint Energy Services, Inc. , an indirect, wholly-owned subsidiary of CenterPoint Energy, Inc. , announced that it had signed an agreement under which CES will acquire Atmos Energy's&nbsp;...CenterPoint Energy to buy nonregulated gas marketing subsidiary from Dallas co. - Houston Business Journal"
p3
aS'Atmos Energy Corporation  Ex-Dividend Date Scheduled for November 23, 2016 Nasdaq - Nov 22, 2016 Atmos Energy Corporation  will begin trading ex-dividend on November 23, 2016. A cash dividend payment of $0.45 per share is scheduled to be paid on December 12, 2016.'
p4
aS'Stock Returns: Atmos Energy Corporation  versus New Jersey Resources ... CML News - Mar 20, 2017 This is a snapshot to compare the stock returns for Atmos Energy Corporation  versus New Jersey Resources Corporation  .Atmos Energy Corporation  Moves Higher on Volume Spike for March 17 - Equities.comNorges Bank Invests $49349000 in Atmos Energy Co.  - Chaffey Breeze'
p5
aS'PT Review for Atmos Energy Corporation  Shares Aiken Advocate - 9 hours ago Using data provided from various analysts, shares of Atmos Energy Corporation  are presently listed with an ABR of 1.91.'
p6
aS'Ex-Dividend Reminder: Tractor Supply, Great Plains Energy and Atmos Energy Corp. Nasdaq - Feb 21, 2017 Looking at the universe of stocks we cover at Dividend Channel , on 2/23/17, Tractor Supply Co. , Great Plains Energy Inc , and Atmos Energy Corp.  will all trade ex-dividend for their respective upcoming&nbsp;...'
p7
aS'Stock Returns: Atmos Energy Corporation  is Beating Suburban Propane ... CML News - Mar 27, 2017 This is a snapshot to compare the stock returns for Atmos Energy Corporation  versus Suburban Propane Partners, L.P.'
p8
aS"Atmos Energy Corporation Announces Retirement of Thomas C. Meredith from Board ... Business Wire  - Feb 9, 2017 Atmos Energy Corporation, headquartered in Dallas, is the country's largest natural-gas-only distributor, serving over three million natural gas distribution customers in over 1,400 communities in eight states from the Blue Ridge Mountains in the East ..."
p9
aS"Atmos Energy Corporation Announces the Retirement of Senior Vice President ... Business Wire  - Nov 3, 2016 DALLAS----Atmos Energy Corporation  said today that effective December 31, 2016, Marvin L. Sweetin, Senior Vice President, Safety and Enterprise Services will retire to take a more active role in his family's businesses."
p10
a.