(lp0
S"Featured Stock: Activision Blizzard, Inc.  HugoPress - 16 hours ago Hilliard Lyons Downgrades Activision Blizzard, Inc. 's stock to Underperform with no specific Price Target.Diversification Will Pay Dividends For Activision - Seeking AlphaActivision Blizzard, Inc. closed with a change of 0.37% in the Previous ... - Free Observer"
p1
aS"Lookout for Price Target? Activision Blizzard, Inc. , Wal-Mart Stores ... StockNewsJournal - 18 hours ago Investors who are keeping close eye on the stock of Activision Blizzard, Inc.  established that the company was able to keep return on investment at 7.04 in the trailing twelve month while Reuters data showed that industry's average stands ..."
p2
aS'How Activision Blizzard, Inc.  And Its Technical Chart Is Making Things ... NY Stock News - 15 hours ago Activision Blizzard, Inc.  has created a compelling message for traders in the most recent trading. That message has grown stronger as the technical chart setup has developed into a more composite picture for the stock.'
p3
aS'Ex-Dividend Reminder: TowneBank, CBL &amp; Associates Properties and Activision ... Nasdaq - Mar 24, 2017 Looking at the universe of stocks we cover at Dividend Channel , on 3/28/17, TowneBank , CBL &amp; Associates Properties Inc , and Activision Blizzard, Inc.  will all trade ex-dividend for their respective upcoming&nbsp;...'
p4
aS'Activision Blizzard: Right In The Range Seeking Alpha - Mar 20, 2017 Activision Blizzard managed to achieve a strong growth in revenue that is mainly attributed to the rise in subscription and licensing revenue.Taking a Look at the Data Behind Activision Blizzard, Inc.  - StockNewsJournalActivision Blizzard, Inc. closed with a change of 0.21% in the Previous ... - Free Observer'
p5
aS"Why Shares of Activision Blizzard, Inc. Jumped 12% in February Motley Fool - Mar 7, 2017 Shares of Activision Blizzard, Inc.  had another great month in February, rising 12.2%, according to data provided by S&amp;P Global Market Intelligence, after reporting strong earnings to end 2016.Long Activision! - Seeking AlphaActivision Blizzard Recognized on Fortune's 100 Best Companies to Work For ... - Yahoo Finance"
p6
aS'The New Reality Of Video Games Benzinga - Mar 24, 2017 Activision Blizzard, Inc.  is one of the largest video game companies and posted a strong quarter at the end of 2016, with a 112 percent rise in sales and 315 percent rise in earnings per share year over year.Top Gaming Stocks to Invest in for 2017 - Profit Confidential'
p7
aS"Activision Blizzard, Inc.  A $100mn Revenue Base Case Smrt Stck Nws - 15 hours ago Morgan Stanley's $720mn rev bull case shows how eSports could be worth $11 per Activision Blizzard, Inc.  share."
p8
aS"Activision Blizzard, Inc.'s Overwatch Is Killing It Motley Fool - Mar 2, 2017 Activision Blizzard has pounced quickly on the momentum of the game with creative ideas for downloadable content, and the big announcement of Overwatch League to capitalize on the growing opportunity in eSports."
p9
aS'How much upside really exists in ConocoPhillips  and Activision Blizzard ... USA Commerce Daily - 13 hours ago Shares of ConocoPhillips  observed rebound of 18.65% since bottoming out at $38.19 on Apr. 05, 2016. Meanwhile, due to an ongoing pressure which caused a decline of almost -3.42% in the past five days, the stock price is now down -11.19%&nbsp;...'
p10
a.