(lp0
S'Auburn National Bancorporation, Inc.  Ex-Dividend Date Scheduled for ... Nasdaq - Mar 7, 2017 Auburn National Bancorporation, Inc.  will begin trading ex-dividend on March 08, 2017. A cash dividend payment of $0.23 per share is scheduled to be paid on March 27, 2017.Insider Trading Activity Auburn National Bancorporation Inc (NASDAQ:AUBN ... - Market Exclusive'
p1
aS'Auburn National Bancorporation, Inc. Reports Record Full Year Net Earnings of ... GlobeNewswire  - Jan 23, 2017 AUBURN, Ala., Jan. 23, 2017  -- Auburn National Bancorporation  reported record net earnings of $8.2 million, or $2.24 per share for the full year 2016, compared to $7.9 million, or $2.16 per share, for the full year 2015.'
p2
aS'Auburn National Bancorporation, Inc. Appoints Two New Directors GlobeNewswire  - Feb 11, 2016 AUBURN, Ala., Feb. 11, 2016  -- Auburn National Bancorporation, Inc.  , the parent company of AuburnBank , announced that Amy Murphy, CPA, and Dr.'
p3
aS'EPS for Magal Security Systems Ltd.   Expected At $0.00; Auburn ... Herald KS - 20 hours ago Banc Funds Co Llc holds 0.15% of its portfolio in Auburn National Bancorporation Inc for 115,811 shares. Lincoln National Corp owns 16,055 shares or 0.03% of their US portfolio.'
p4
aS'Vice Chairman Dr. Emil Wright to Retire After 40 Years of Service GlobeNewswire  - Nov 19, 2012 AUBURN, Ala., Nov. 19, 2012  -- The Board of Directors of Auburn National Bancorporation, Inc.   today announced that current Vice Chairman, Dr.'
p5
aS"Insider Trading at Auburn National Bancorporation Inc? Sports Perspectives - Mar 8, 2017 Auburn National Bancorporation logo Auburn National Bancorporation Inc  insider C Wayne Alderman sold 1,000 shares of the firm's stock in a transaction that occurred on Monday, March 6th."
p6
aS'The Insider Selling: Auburn National Bancorporation Inc  Insider Sells ... Petro Global News 24 - Mar 6, 2017 Auburn National Bancorporation Inc  insider C Wayne Alderman sold 1,000 shares of the stock in a transaction on Monday, March 6th.'
p7
aS"The Auburn National Bancorporation Inc  Insider Sells $32820.00 in Stock DailyQuint - Mar 10, 2017 Auburn National Bancorporation Inc  insider C Wayne Alderman sold 1,000 shares of the business's stock in a transaction that occurred on Monday, March 6th."
p8
aS'The Auburn National Bancorporation, Inc.  Increases Dividend to $0.23 ... DailyQuint - Feb 16, 2017 Auburn National Bancorporation, Inc.  declared a quarterly dividend on Wednesday, February 15th. Shareholders of record on Friday, March 10th will be paid a dividend of 0.23 per share by the financial services provider on Monday, March&nbsp;...'
p9
aS'Auburn National Bancorporation Inc  Plans Quarterly Dividend of $0.23 BBNS - Mar 3, 2017 Auburn National Bancorporation logo Auburn National Bancorporation Inc  declared a quarterly dividend on Wednesday, February 15th.'
p10
a.