(lp0
S'Weighing Up Aoxing Pharmaceutical Company Inc  Insider Financial - Jul 19, 2016 One company that fits this profile is Aoxing Pharmaceutical Company Inc . The company is registered in California, but pretty much its entire operations take place in China, and all of its revenues derive from the latter.'
p1
aS"Figuring Out Aoxing Pharmaceutical's Future Seeking Alpha - Dec 29, 2015 Aoxing Pharmaceutical  is one of those Chinese drug companies that wanted a US stock market listing. Such listings are a smart move if a thriving foreign company wants to raise capital here or expand operations beyond its home country."
p2
aS'Achaogen Inc versus Aoxing Pharmaceutical Company Inc Head to Head Compare CML News - Mar 27, 2017 Aoxing Pharmaceutical Company Inc has a substantially higher fundamental rating then Achaogen Inc which has an impact on the head-to-head comparison.'
p3
aS"Aoxing Pharmaceutical Reports 2016 Results  Investopedia - Oct 6, 2016 The company reported annual revenues for the year ending June 30 of $32,329,525. That's a 26.9% increase from revenues for the same period ending June 30, 2015."
p4
aS'Aoxing Pharmaceutical Company Inc  Stock Technicals Hit Extreme Weakness CML News - Mar 12, 2017 This is a technical analysis stock rating for Aoxing Pharmaceutical Company Inc  . The company has a one bull technical rating which indicates extreme weakness.'
p5
aS'Aoxing Pharma Appoints Dr. James Chen as Chief Financial Officer PR Newswire  - Feb 1, 2016 1, 2016 /PRNewswire/ -- Aoxing Pharmaceutical Company, Inc.  , a specialty pharmaceutical company focusing on research, development, manufacturing, and distribution of narcotic, pain-management, addiction treatment&nbsp;...'
p6
aS'Stock Returns: Aoxing Pharmaceutical Company Inc  versus VIVUS Inc ... CML News - Jan 31, 2017 This is a snapshot to compare the stock returns for Aoxing Pharmaceutical Company Inc  versus VIVUS Inc  .'
p7
aS"Aoxing Pharmaceutical  Stock Plummeting to Reverse Yesterday's Gains TheStreet.com - Jun 10, 2015 &quot;We rate AOXING PHARMACEUTICAL CO INC  a SELL. This is driven by a few notable weaknesses, which we believe should have a greater impact than any strengths, and could make it more difficult for investors to achieve positive results compared to&nbsp;..."
p8
aS'Aoxing Pharmaceutical Company Inc versus Orexigen Therapeutics Inc Head to ... CML News - Mar 24, 2017 Aoxing Pharmaceutical Company Inc has a substantially higher fundamental rating then Orexigen Therapeutics Inc which has an impact on the head-to-head comparison.'
p9
aS"Aoxing Pharma inaugurates government funded drug research center in China Proactive Investors USA & Canada - Dec 4, 2015 Construction of the Center was funded by the Reform and Development Commission of Hebei Province in China along with Aoxing Pharma's Chinese subsidiary, with a total investment of US$2.15mln, the Jersey City, New Jersey-based company said in a&nbsp;..."
p10
a.