(lp0
S'Brunswick Corporation : Brunswick Innovation Laboratory to Open In Research ... GlobeNewswire  - 19 hours ago LAKE FOREST, Ill. March 28, 2017 - Brunswick Corporation  today announced it will soon open the Brunswick Innovation Laboratory in the Research Park at the University of Illinois at Urbana-Champaign.'
p1
aS'Brunswick Corporation : Crestliner Unveils New PT 18 Bass Boat At Bassmaster ... GlobeNewswire  - Mar 20, 2017 OTSEGO, Minn., March 20, 2017 - Expanding on its incredibly popular PT line, Crestliner introduces the new PT 18, a premium bass boat with abundant onboard space and impressive fishing features that will continue to set the standard in bass fishing.'
p2
aS'Brunswick Corporation : Three Brunswick Employees Recognized for Excellence in ... Yahoo Finance - Mar 1, 2017 LAKE FOREST, Ill. March 1, 2017 - Brunswick Corporation  today announced that three employees have been selected among 130 recipients to receive the Women in Manufacturing STEP  Ahead&nbsp;...'
p3
aS'Brunswick Corporation : Crestliner Receives Tenth Consecutive NMMA Customer ... GlobeNewswire  - Mar 14, 2017 OTSEGO, Minn., March 14, 2017 - Crestliner received its tenth-straight Customer Satisfaction Index  award from the National Marine Manufacturers Association  at the recent Progressive Insurance Miami International Boat Show.'
p4
aS'Big Banks Continue to be Large Stakeholders in Brunswick Corporation  Midway Monitor - 12 hours ago Based on the lastest quarterly filings, institutions continue to be large stakeholders in Brunswick Corporation . The big banks are holding 98.60% of the shares while company insiders are clinging to 1.00%.'
p5
aS"Buy, Sell or Hold? Analysts Approach: Olin Corporation , Brunswick ... The USA Commerce - 18 hours ago Shares of Olin Corporation  surged 0.03% to $32.78. During the trading on 03/27/2017, Company's stock ranged from $32.90 to $31.79."
p6
aS'Brunswick: Reliable For The Future Even At Current Prices Seeking Alpha - Mar 18, 2017 Brunswick Corporation, founded in 1907, is a leading global designer, manufacturer, and marketer of a range of recreational products that includes marine engines, boats, fitness equipment, and active recreation products.Brunswick Co.  Receives $65.88 Average PT from Analysts - The Cerbat Gem'
p7
aS'Stock Levels in View for Brunswick Corporation  Rives Journal - 14 hours ago Brunswick Corporation  currently has a Gross Margin  ratio of 0.372972. Robert Novy-Marx has provided investors with insights on finding high-quality value stocks.'
p8
aS"Analyst's Predictions on Brunswick Corporation , Armstrong World ... StockNewsJournal - Mar 24, 2017 Investors who are keeping close eye on the stock of Brunswick Corporation  established that the company was able to keep return on investment at 12.02 in the trailing twelve month while Reuters data showed that industry's average stands at 1 ..."
p9
aS'Buy/Sell Signals for Brunswick Corporation  and Mercury Systems, Inc.  USA Commerce Daily - 22 hours ago Shares of Brunswick Corporation  are making a strong comeback as they have jumped 48.34% since bottoming out at $41.19 on Jun. 27, 2016.'
p10
a.