(lp0
S"Insider Selling: Blucora Inc  Director Sells $165300.00 in Stock BNB Daily  - Mar 27, 2017 Blucora logo Blucora Inc  Director Andrew Miles Snyder sold 10,000 shares of the business's stock in a transaction that occurred on Tuesday, March 21st.Insider Selling: Blucora Inc  Director Sells 30000 Shares of Stock - Chaffey Breeze"
p1
aS'Insider Trading Activity Blucora Inc   Director Sold 20000 ... Market Exclusive - Mar 25, 2017 On 10/8/2012 James Voelker, Director, sold 69,187 with an average share price of $18.00 per share and the total transaction amounting to $1,245,366.00.'
p2
aS'Blucora Inc Risk Points versus Technology CML News - Mar 22, 2017 This is a scatter plot analysis of the critical risk points from the option market for Blucora Inc  compared to its own past and the Technology ETF.'
p3
aS'Blucora Inc.  Breaks into New 52-Week High on March 21 Session Equities.com - Mar 21, 2017 Shares of Blucora Inc.  broke into a new 52-week high yesterday, hitting a peak of $16.80. Shares closed at $16.50 after opening at $16.50 for a move of 0%.The Public Sector Pension Investment Board Has $416000 Stake in Blucora Inc  - Petro Global News 24'
p4
aS"Blucora's Share Price  Looks A Bit Optimistic Seeking Alpha - Feb 20, 2017 Blucora has executed an impressive turnaround; the stock has tripled in less than a year, and the transformation to a two-business financial services play is complete.Blucora Inc  PT Raised to $19.00 - The Cerbat Gem"
p5
aS'Blucora Inc.  Moves Lower on Volume Spike for March 24 Equities.com - Mar 24, 2017 Blucora Inc.  traded on unusually high volume on Mar. 24, as the stock lost 1.41% to close at $17.50. On the day, Blucora Inc. saw 667,136 shares trade hands on 4,232 trades. Considering that the stock averages only a daily volume of 387,681 ...Insider Trading at Blucora Inc? - BBNSAndrew Miles Snyder Sells 10000 Shares of Blucora Inc  Stock - Chaffey Breeze'
p6
aS'Blucora Appoints Amazon Executive Sanjay Baskaran President of TaxAct GlobeNewswire  - Jan 12, 2017 BELLEVUE, Wash., Jan. 12, 2017  -- Blucora, Inc. , a leading provider of technology-enabled financial solutions, today announced that Sanjay Baskaran has been named President of TaxAct, effective January 30.'
p7
aS'Blucora Inc.  Breaks into New 52-Week High on March 23 Session Equities.com - Mar 23, 2017 Shares of Blucora Inc.  broke into a new 52-week high yesterday, hitting a peak of $17.83. Shares closed at $17.75 after opening at $16.85 for a move of 5.03%.'
p8
aS'Blucora Completes Sale of Monoprice to YFC - BonEagle Electronic Co., Ltd GlobeNewswire  - Nov 17, 2016 BELLEVUE, Wash., Nov. 17, 2016  -- Blucora, Inc. , a leading provider of technology-enabled financial solutions to consumers, small businesses and tax professionals, today announced that it has completed the sale of&nbsp;...'
p9
aS'Blucora Enters Into Definitive Agreement to Sell Monoprice GlobeNewswire  - Nov 15, 2016 BELLEVUE, Wash., Nov. 14, 2016  -- Blucora, Inc. , a leading provider of technology-enabled financial solutions to consumers, small businesses and tax professionals, today announced that it has entered into a&nbsp;...Blucora: After Q3, The Gains Should Slow - Seeking AlphaBRIEF-Blucora to sell Monoprice to YFC Boneagle Electronic for $40 mln - Reuters'
p10
a.