(lp0
S"Bright Horizons Acquires Asquith Day Nurseries &amp; Pre-Schools, Unites UK ... PR Newswire  - Nov 10, 2016 WATERTOWN, Mass., Nov. 10, 2016 /PRNewswire/ -- Bright Horizons Family Solutions Inc.  announced today that it has acquired Asquith Day Nurseries &amp; Pre-Schools, one of the UK's leading providers of high-quality child care and early years&nbsp;..."
p1
aS'Bright Horizons Family Solutions Reports Fourth Quarter and Full Year 2015 ... PR Newswire  - Feb 8, 2016 BOSTON, Feb. 8, 2016 /PRNewswire/ -- Bright Horizons Family Solutions Inc. , a leading provider of high-quality child care, early education and other services designed to help employers and families better address the challenges of work ...'
p2
aS'Analysts Place Consensus Target on Bright Horizons Family Solutions Inc. (NYSE ... Aiken Advocate - 16 hours ago Equity analysts have a short-term target price of $75.25 on shares of Bright Horizons Family Solutions Inc. . This consensus data is compiled by Zacks Research.'
p3
aS'Insider Trading Activity Bright Horizons Family Solutions Inc (NYSE:BFAM ... Market Exclusive - Mar 24, 2017 On 1/30/2013 Stephen I Dreier, Insider, bought 2,500 with an average share price of $22.00 per share and the total transaction amounting to $55,000.00.'
p4
aS'Why Bright Horizons Family Solutions  Could Be an Impressive Growth Stock Nasdaq - Mar 7, 2017 One such company that might be well-positioned for future earnings growth is Bright Horizons Family Solutions Inc. BFAM .This firm, which is in the Schools industry, saw EPS growth of 14.7%last year, and is looking great for this year too.Bright Horizons Family Solutions Inc  Stock Technicals at Critical ... - CML News'
p5
aS'Bright Horizons Acquires Hildebrandt Learning Centers PR Newswire  - May 19, 2015 About Bright Horizons Family Solutions Inc. Bright Horizons Family Solutions is a leading provider of high-quality child care, early education and other services designed to help employers and families better address the challenges of work and life.'
p6
aS'Interview - James Tugendhat, MD Bright Horizons Nursery World  - Nov 28, 2016 The addition of Asquith brings the total number of UK nurseries owned by Bright Horizons to 304, providing 24,242 childcare places.'
p7
aS'Bright Horizons Family Solutions  Q4 2016 Results - Earnings Call Transcript Seeking Alpha - Feb 10, 2017 Elizabeth J. Boland - Bright Horizons Family Solutions, Inc. Thank you, Dave. Hi, everyone. Thanks for joining us today.'
p8
aS"Moody's assigns a B1 rating to Bright Horizons' amended revolver; outlook stable Moodys.com   - Feb 3, 2016 New York, February 03, 2016 -- Moody's Investors Service assigned a B1 rating to Bright Horizons Family Solutions LLC's  upsized and extended $225 million first lien revolving credit facility due 2019. In the same rating action ..."
p9
aS"When's the Best Time to Start a Family? New Study Says: Ask the Boss! PR Newswire  - Oct 17, 2016 The third annual report in the Modern Family Index  series, commissioned by Bright Horizons Family Solutions , further examines the crossroads new moms and dads continue to face as they take on the dual role of new parent and&nbsp;..."
p10
a.