(lp0
S'BankFinancial Corporation  Shares Sold by JPMorgan Chase &amp; Co. Petro Global News 24 - Jan 29, 2017 JPMorgan Chase &amp; Co. cut its position in BankFinancial Corporation  by 16.3% during the third quarter, Holdings Channel reports.Next Weeks Broker Price Targets For BankFinancial Corporation  - Fiscal StandardBankFinancial Co. - Receive News &amp; Ratings Daily - BBNS'
p1
aS'BankFinancial Corporation versus Riverview Bancorp Inc Head to Head Compare CML News - 17 hours ago Riverview Bancorp Inc has a higher fundamental rating then BankFinancial Corporation which has an impact on the head-to-head comparison.'
p2
aS'Stock Returns: Stonegate Mortgage Corporation  is Beating ... CML News - Mar 27, 2017 This is a snapshot to compare the stock returns for BankFinancial Corporation  versus Stonegate Mortgage Corporation  .'
p3
aS'State Bank Financial Corporation.  Ex-Dividend Date Scheduled for March ... Nasdaq - Mar 1, 2017 State Bank Financial Corporation.  will begin trading ex-dividend on March 02, 2017. A cash dividend payment of $0.14 per share is scheduled to be paid on March 14, 2017.Brokerages Set State Bank Financial Corporation.  PT at $26.33 - Chaffey BreezeState Bank Financial Corporation.  to Issue Quarterly Dividend of $0.14 ... - BBNS'
p4
aS'Stock Returns: State Bank Financial Corporation  versus TCF ... CML News - Mar 23, 2017 This is a snapshot to compare the stock returns for State Bank Financial Corporation  versus TCF Financial Corporation  .State Bank Financial Corporation.  Moves Lower on Volume Spike for March 24 - Equities.comState Bank Financial Corp  Receives Consensus Rating of Hold from ... - Sports Perspectives'
p5
aS'BankFinancial Corporation  Moves Higher on Volume Spike for March 24 Equities.com - Mar 24, 2017 BankFinancial Corporation  traded on unusually high volume on Mar. 24, as the stock gained 0.07% to close at $14.29. On the day, BankFinancial Corporation saw 48,566 shares trade hands on 285 trades. Considering that the stock averages only a&nbsp;...Broker Changes For BankFinancial Corporation  - NewsDenInsider Selling: BankFinancial Co.  Insider Sells $72750.00 in Stock - Chaffey Breeze'
p6
aS'Stock Alert: State Bank Financial Corporation Stock Volatility Hits A Lowered ... CML News - Mar 27, 2017 Before we cover the full analysis we make a quick alert here that State Bank Financial Corporation  has seen its stock price move at a weakened level.'
p7
aS'Stock Returns: BankFinancial Corporation  is Beating ESSA Bancorp ... CML News - Mar 12, 2017 This is a snapshot to compare the stock returns for BankFinancial Corporation  versus ESSA Bancorp Inc  .BankFinancial Corp.  Stake Held by PL Capital Advisors LLC - Petro Global News 24'
p8
aS'State Bank Financial Corporation.  Plunges 6.62% on March 21 Equities.com - Mar 21, 2017 State Bank Financial Corporation.  had a rough trading day for Tuesday March 21 as shares tumbled 6.62%, or a loss of $-1.75 per share, to close at $24.70.'
p9
aS'Price Alert: BankFinancial Corporation  Stock Nears Resistance ... CML News - Mar 20, 2017 Price Alert: BankFinancial Corporation  has now crossed into technical strength -- watch the technical oscillators for momentum gaps.'
p10
a.