(lp0
S'Bob Evans Farms Inc.  Breaks into New 52-Week High on March 28 Session Equities.com - 9 hours ago Shares of Bob Evans Farms Inc.  broke into a new 52-week high yesterday, hitting a peak of $63.91. Shares closed at $63.87 after opening at $62.82 for a move of 2.05%.Watching the Levels for Bob Evans Farms, Inc.  - Rives JournalBob Evans Farms Inc  Raised to Buy at Zacks Investment Research - The Cerbat Gem'
p1
aS'URG in talks to potentially acquire Bob Evans Farm Gallipolis Daily Tribune - Mar 24, 2017 GALLIPOLIS - With the fate of the Bob Evans Farm in question after Bob Evans Farms, Inc., announced in January it would be splitting its restaurant and frozen foods divisions, Rio Grande Community College and University of Rio Grande President Dr.Bob Evans Farms Inc.  Moves Lower on Volume Spike for March 23 - Equities.comHot Stocks Among Investors: Bob Evans Farms, Inc. , Applied ... - Post Analyst'
p2
aS"3 Reasons Momentum Stock Investors Will Love Bob Evans Farms  March 28, 2017 Zacks.com - 18 hours ago This method discovered several great candidates for momentum-oriented investors, but today let's focus in on Bob Evans Farms, Inc.  as this stock is looking especially impressive right now. And while there are numerous ways in which&nbsp;..."
p3
aS'Bob Evans Farms to sell restaurants and buy potatoes, stock soars MarketWatch - Jan 24, 2017 Bob Evans Farms Inc. BOBE, +0.00% announced a pair of acquisitions Tuesday along with an executive change meant to focus the company on grocery store sales, and shares jumped 10% in late trading.'
p4
aS'Bob Evans food products thriving with split from restaurants looming Columbus Business First - Mar 8, 2017 Now that sides are the main dish at Bob Evans Farms Inc., attention turns to that future. The New Albany-based company released its third quarter sales Wednesday and held its first quarterly conference call with stock analysts since announcing plans in&nbsp;...Bob Evans Farms, Inc.  Ex-Dividend Date Scheduled for March 09, 2017 - NasdaqBob Evans Farms raises fiscal 2017 outlook, even as profit and sales fall ... - MarketWatch'
p5
aS'Why Bob Evans Farms, Inc. Stock Slipped 15% Last Month Motley Fool - Jul 7, 2016 What: Shares of Bob Evans Farms, Inc.  lost 15% in June as the casual dining chain delivered an underwhelming fourth-quarter earnings report and outlook for fiscal 2017.'
p6
aS"Bob Evans Declares Quarterly Dividend GlobeNewswire  - Feb 28, 2017 NEW ALBANY, Ohio, Feb. 28, 2017  -- Bob Evans Farms, Inc.  today announced its board of directors approved a quarterly cash dividend of $0.34 per share on the company's outstanding common stock.Bob Evans Farms Inc  to Issue $0.34 Quarterly Dividend - The Cerbat GemBob Evans Restaurant to offer all-day brunch - Nation's Restaurant News"
p7
aS'Michigan Bob Evans restaurants part of $565 million proposed sale MLive.com - Jan 27, 2017 ANN ARBOR, MI - Bob Evans restaurants across the United States, including Michigan, could switch hands after the company announced changes to its business structure and a possible sale of its more than 500 locations.Bob Evans Farms transforms itself from a restaurant chain to a food manufacturer - PotatoProBob Evans restaurants to be sold; area locations to remain open - Uniontown Herald Standard'
p8
aS"Bob Evans Farms' Story: Is There Any Value Left For Shareholders? ValueWalk - Feb 9, 2017 Despite positive coverage in the media about reportedly successful activist investor campaign at Bob Evans Farms Inc, I think one can hardly call this a success.Bob Evans Farms, Inc.  Stock Rating Lowered by Zacks Investment Research - The Cerbat GemWhy activists are targeting restaurants - Nation's Restaurant News"
p9
aS"Bob Evans Farms, Inc.  Ex-Dividend Date Scheduled for December 08, 2016 Nasdaq - Dec 7, 2016 Bob Evans Farms, Inc.  will begin trading ex-dividend on December 08, 2016. A cash dividend payment of $0.34 per share is scheduled to be paid on December 23, 2016.Bob Evans Farms'  CEO Saed Mohseni on Q2 2017 Results - Earnings Call ... - Seeking AlphaIs a breakup in store for Bob Evans? - Food Business News "
p10
a.