(lp0
S'Bruker and Oxford Instruments Announce Acquisition of Oxford Instruments ... PR Newswire  - Nov 17, 2016 17, 2016 /PRNewswire/ -- Oxford Instruments plc  and Bruker Energy and Supercon Technologies, Inc. , a subsidiary of Bruker Corporation , today announced that they have closed the acquisition of Oxford Instruments&nbsp;...'
p1
aS'Lookout for Price Target? Bruker Corporation , Organovo Holdings, Inc ... StockNewsJournal - 18 hours ago Bruker Corporation  have shown a high EPS growth of 11.40% in the last 5 years and has earnings decline of 57.60% yoy.Between The Numbers: Genesis Energy, LP , Bruker Corporation  - USA Commerce DailyJanney Montgomery Scott downgraded Bruker Corporation  from Buy to ... - Breaking Finance News'
p2
aS'Bruker Announces Acquisition of Nanoindenting Leader Hysitron PR Newswire  - Jan 24, 2017 BILLERICA, Mass., Jan. 24, 2017 /PRNewswire/ -- Bruker today announced that it has acquired Hysitron, Inc., a technology leader in the development, manufacture, and sale of nanomechanical test instrumentation.Bruker buys nanomechanical gear maker Hysitron - Seeking Alpha'
p3
aS"Bruker Corporation to Present at Investor Conferences PR Newswire  - Feb 27, 2017 A live audio webcast of both presentations will be available on the Investor section of the Company's website at http://ir.bruker."
p4
aS'Bruker Announces Acquisition of Nucleic Acid Testing  Assays and ... PR Newswire  - Nov 2, 2016 BILLERICA, Mass., Nov. 2, 2016 /PRNewswire/ -- Bruker today announced a technology acquisition in support of its microbiology business and its world-leading MALDI Biotyper microbial identification platform.'
p5
aS'Bruker Announces Unique and Comprehensive Workflows For Biopharmaceutical ... PR Newswire  - Jan 24, 2017 WASHINGTON, Jan. 24, 2017 /PRNewswire/ -- At the CASSS CMC Strategy Forum and WCBP 2017 , Bruker today announced the release of new Biopharma Compass 2.0  software that automates biopharmaceutical&nbsp;...'
p6
aS"Alcami Invests in Bruker's D8 DISCOVER HTS System for High-Throughput X-Ray ... PR Newswire  - Mar 3, 2017 WEERT, Netherlands and KARLSRUHE, Germany, March 3, 2017 /PRNewswire/ -- Alcami, a leading provider of custom development and manufacturing services for the pharmaceutical and biotechnology industries, and Bruker AXS, one of the world's&nbsp;..."
p7
aS'Bruker Announces Acquisition of SCiLS GmbH to Advance MALDI Imaging Software ... PR Newswire  - Jan 4, 2017 BREMEN, Germany, Jan. 4, 2017 /PRNewswire/ -- Bruker today announced the acquisition of SCiLS GmbH in Bremen, Germany. SCiLS develops innovative software tools such as statistical analysis software, sophisticated visualization viewers, and secure&nbsp;...'
p8
aS'Bruker Introduces the new TRACER 5i Handheld XRF Elemental Analyzer System for ... PR Newswire  - Sep 15, 2016 15, 2016 /PRNewswire/ -- Bruker today introduces the new TRACER 5i handheld X-ray fluorescence  elemental analyzer.'
p9
aS'Bruker Reports Fourth Quarter and Fiscal Year 2016 Financial Results PR Newswire  - Feb 13, 2017 Bruker will host a conference call and webcast to discuss its financial results, business outlook, and related corporate and financial matters today at 4:45 p.m. Eastern Time. To listen to the webcast, investors can go to http://ir.bruker.com and click ...Bruker Corporation  Moves Lower on Volume Spike for February 15 - Equities.comBruker  Q4 2016 Results - Earnings Call Transcript - Seeking Alpha'
p10
a.