(lp0
S'Smart Money Still Has Faith in BorgWarner Inc.  Midway Monitor - 8 hours ago Based on the lastest quarterly filings, institutions continue to be large stakeholders in BorgWarner Inc. . The big banks are holding 96.60% of the shares while company insiders are clinging to 0.50%.Latest Stocks: The BorgWarner Inc.  Upgraded at Deutsche Bank AG - Petro Global News 24BorgWarner Inc.  Receives Consensus Recommendation of Hold from Brokerages - Sports Perspectives'
p1
aS'What Analysts are Predicting For Cadence Design Systems, Inc. (CDNS ... The USA Commerce - 19 hours ago While trading at volume below than average, BorgWarner Inc.  previous 52-week high was $44.24 and moved up 12.68% over the same period, trading at a volume of 1.54 million.'
p2
aS'Will BorgWarner Inc  Continue To Underperform Its Industry? Simply Wall St - Mar 22, 2017 With a ROE of 4.6%, BorgWarner Inc  could hardly match the performance of its industry, which averaged a ROE of 22.73%.BorgWarner Inc.  Moves Higher on Volume Spike for March 22 - Equities.com'
p3
aS'SHAREHOLDER ALERT: Purcell Julie &amp; Lefkowitz LLP is Investigating BorgWarner ... Yahoo Finance - Mar 17, 2017 NEW YORK, NY / ACCESSWIRE / March 17, 2017 / Purcell Julie &amp; Lefkowitz LLP, a class action law firm dedicated to representing shareholders nationwide, is investigating a potential breach of fiduciary duty claim involving the board of directors of&nbsp;...'
p4
aS"Today's Brokerage Rating: BorgWarner Inc. , Radian Group Inc.  StockNewsJournal - Mar 20, 2017 ROI deals with the invested cash in the company and the return the investor realize on that money based on the net profit of the business."
p5
aS"BorgWarner Inc.  Dips 4.06% for March 21 Equities.com - Mar 21, 2017 Among the S&amp;P 500's biggest fallers on Tuesday March 21 was BorgWarner Inc. . The stock experienced a 4.06% decline to $40.84 with 1.85 million shares changing hands."
p6
aS'BorgWarner  Up 2.8% Since Earnings Report: Can It Continue? Nasdaq - Mar 23, 2017 A month has gone by since the last earnings report for BorgWarner Inc. BWA . Shares have added about 2.8% in that time frame, underperforming the market.'
p7
aS'Today Analysts Focus on BorgWarner Inc. , Clovis Oncology, Inc.  StockNewsJournal - Mar 24, 2017 ROI deals with the invested cash in the company and the return the investor realize on that money based on the net profit of the business.'
p8
aS'Occidental Petroleum Corporation  &amp; BorgWarner Inc. (NYSE:BWA ... Daily News Journal - 17 hours ago On Monday, Shares of Occidental Petroleum Corporation  gained 0.06% to $62.87. The share price is trading in a range of $62.10 - 62.99.'
p9
aS'Investors are Watching Shares of BorgWarner Inc.  Providence Standard - 28 minutes ago Active investors may be taking a second look at shares of BorgWarner Inc. . Checking in on some levels, the six month price index is currently at 1.19230.'
p10
a.