(lp0
S'Ex-Dividend Reminder: Boston Properties, LaSalle Hotel Properties and AGNC ... Nasdaq - Mar 27, 2017 Looking at the universe of stocks we cover at Dividend Channel , on 3/29/17, Boston Properties Inc , LaSalle Hotel Properties , and AGNC Investment Corp  will all trade ex-dividend for their respective upcoming&nbsp;...'
p1
aS'Institutional Ownership Update on Boston Properties, Inc.  Midway Monitor - 8 hours ago Based on the lastest quarterly filings, institutions continue to be large stakeholders in Boston Properties, Inc. .Price Objective Update on Boston Properties, Inc.  - Aiken AdvocateBoston Properties, Inc.  to pay $0.75 on Apr 28, 2017; SUNSET CAPITAL ... - Herald KS'
p2
aS"Average Brokerage Rating Of Boston Properties, Inc. , Ventas, Inc.  The USA Commerce - Mar 27, 2017 Shares of Boston Properties, Inc.  dropped -1.02% to $132.48. During the trading on 03/24/2017, Company's stock ranged from $134.35 to $132.02."
p3
aS"Boston Properties Said to Enter LA Market With Office Deal Bloomberg - May 19, 2016 Boston Properties Inc. agreed to buy a 50 percent stake in a Los Angeles-area office complex from Blackstone Group LP for about $500 million, marking the real estate investment trust's first purchase in southern California, according to a person with&nbsp;...Boston Properties makes LA debut with $500M-plus play - The Real Deal Magazine"
p4
aS'Boston Properties Inc.: Boston Properties Declares Regular Quarterly Dividends The Wall Street Transcript - Mar 16, 2017 16, 2017-- Boston Properties, Inc. , a real estate investment trust, announced today that its Board of Directors declared a regular quarterly cash dividend of $0.75 per share of common stock for the period January 1, 2017 to March 31, 2017&nbsp;...Insider Trading Activity Boston Properties, Inc.   Insider Sold ... - Market ExclusiveBryan Koop Sold 3835 shares of Boston Properties, Inc.  in an Insider ... - Herald KS'
p5
aS'Market Update on Shares of Boston Properties Inc  Midway Monitor - 8 hours ago Investors may want to examine some technical indicators when studying a stock. Currently, the 14-day Commodity Channel Index  for Boston Properties Inc  is sitting at -66.15. CCI is an indicator used in technical analysis that was designed by&nbsp;...'
p6
aS"The search is over for Marriott International's new headquarters. The winner is... Washington Business Journal - Jan 20, 2017 Marriott International Inc. has tapped Boston Properties Inc. and The Bernstein Cos. to build its new home at a site just north of the Bethesda Metro station, capping one of the most highly watched corporate headquarters searches in Greater Washington.Marriott Reveals Downtown Bethesda Headquarters Site - BethesdaMagazine.comAfter Two-Year Search, Marriott Picks Downtown Bethesda Site for $600M ... - CoStar Group"
p7
aS'Boston Properties  Shares Cross Below 200 DMA Nasdaq - Mar 11, 2017 In trading on Friday, shares of Boston Properties Inc  crossed below their 200 day moving average of $131.32, changing hands as low as $130.91 per share.Notable Stock to Monitor: Boston Properties, Inc.  - Is storiesLarge Cap REIT  Office: Boston Properties, Inc.  - Twin County News'
p8
aS'Why Boston Properties Is Now A Top Pick At RBC Benzinga - Jan 3, 2017 RBC Capital Markets upgraded Boston-based REIT, Boston Properties, Inc , from an Outperform rating to a coveted Top Pick of 2017.'
p9
aS"BRIEF-Boston Properties prices $1 bln offering of senior unsecured notes Reuters - Aug 8, 2016 CHICAGO, March 18 A U.S. judge formally approved Peabody Energy Corp's plan to emerge from bankruptcy late Friday after the coal producer struck a settlement with the U.S."
p10
a.