(lp0
S"Is the Cabela's Inc and Bass Pro Shops Merger Doomed to Failure? Motley Fool - Mar 10, 2017 In this segment from Industry Focus: Consumer Goods, host Vincent Shen is joined by Fool.com contributor Daniel Kline as they update investors on the state of the the $4.5 billion merger between privately-held Bass Pro Shops and Cabela's  as&nbsp;..."
p1
aS"Bass Pro Shop's $5.5 Billion Deal for Cabela's Inc Is Falling Apart Motley Fool - Feb 8, 2017 The wheels look like they're coming off the merger between Bass Pro Shops and Cabela's . It appears the hurdles for successfully navigating the regulatory landscape are more hazardous than originally believed."
p2
aS"Cabela's Inc.: Worth Waiting For The Buyout? Seeking Alpha - Nov 11, 2016 Cabela's Inc. has a buyout offer of $65.50 cash from Bass Pro Shops that will be completed in 6 to 9 months. Cabela's Inc. does not pay a dividend but has been growing its business by opening new stores each year at the rate of around 10%/year. Cabela ..."
p3
aS"Regulators raise concerns over Bass Pro Shops, Cabela's merger MarketWatch - Dec 30, 2016 Federal regulators raised questions over Bass Pro Shops' $4.5 billion deal to buy fellow outdoor-sports gear retailer Cabela's Inc., sending shares of Cabela's lower. In a regulatory filing Friday, Cabela's CAB, -0.24% said the Federal Trade Commission ...FTC seeks more info on Bass Pro-Cabela's deal - ReutersCabela's Tumbles After Warning That Bass Pro Deal Faces Scrutiny - Bloomberg"
p4
aS"Cabela's Inc. Announces Fourth Quarter and Full Year 2016 Results Yahoo Finance - Feb 16, 2017 Cabela's Incorporated  today reported financial results for the fourth quarter and fiscal year ended December 31, 2016."
p5
aS'Guggenheim Capital LLC Acquires 23090 Shares of Cabelas Inc  BBNS - 17 hours ago Cabelas logo Guggenheim Capital LLC raised its position in Cabelas Inc  by 85.3% during the fourth quarter, according to its most recent disclosure with the Securities and Exchange Commission.Latest Stocks: The Renaissance Technologies LLC Takes Position in Cabelas Inc ... - Petro Global News 24'
p6
aS"Cabela's Inc. Shares Slide Further On Weak Q4 SGB Media    - Feb 16, 2017 Shares of Cabela's Inc., already down this year due to concerns over the completion of its merger with Bass Pro, slid some more on Thursday after the hunt &amp; fish specialist reported fourth-quarter earnings that came in short of expectations.Cabela's profit dented by falling same-store sales - MarketWatch"
p7
aS'Renaissance Technologies LLC Takes Position in Cabelas Inc  Chaffey Breeze - Mar 27, 2017 Cabelas logo Renaissance Technologies LLC purchased a new stake in shares of Cabelas Inc  during the fourth quarter, according to its most recent Form 13F filing with the Securities and Exchange Commission.'
p8
aS'Cabelas Inc  Sees Significant Drop in Short Interest BNB Daily  - Mar 23, 2017 Cabelas logo Cabelas Inc  was the recipient of a large drop in short interest during the month of February. As of February 28th, there was short interest totalling 1,741,150 shares, a drop of 42.8% from the February 15th total of 3,045,078 ...'
p9
aS"Answer Man: Cabela's is hooked but not landed Post-Bulletin - Mar 13, 2017 8 story was, &quot;Bass Pro Shop's $5.5 billion deal for Cabela's Inc. is falling apart.&quot; The column says the Federal Trade Commission has sought more information, delaying the closing and complicating the sale of Cabela's financial unit to another company."
p10
a.