(lp0
S'Carbonite Announces Proposed Private Offering of $125 Million of Convertible ... GlobeNewswire  - 11 hours ago BOSTON, March 28, 2017  -- Carbonite, Inc.   announced today that it intends to offer, subject to market and other conditions, $125 million aggregate principal amount of Convertible Senior&nbsp;...Carbonite, Inc.  Files An 8-K Regulation FD Disclosure - Market Exclusive47 hedge funds buy Carbonite, Inc.  for the first time - Post Analyst'
p1
aS'Insider Trading Activity Carbonite Inc   CFO Sold 6141 shares of ... Market Exclusive - 1 hour ago On 11/26/2012 Richard Surace, SVP, sold 4,950 with an average share price of $9.29 per share and the total transaction amounting to $45,985.50.'
p2
aS'7 Reasons I Bought Carbonite Inc. Stock Motley Fool - Aug 26, 2016 I recently highlighted Carbonite , a small-cap player in the cloud backup market, as a promising growth stock to buy in August.'
p3
aS"Why Carbonite Inc. Stock Soared Today Motley Fool - Aug 2, 2016 So what: Carbonite reported second-quarter revenue of $53.4 million, up 57% year over year and about $9 million higher than the average analyst estimate.3 Key Takeaways From Carbonite Inc. 's 2Q Report - Scibility Media"
p4
aS'Carbonite Acquires Double-Take Software GlobeNewswire  - Jan 31, 2017 BOSTON, Jan. 31, 2017  -- Carbonite, Inc. , a leading provider of data protection solutions for small and midsize businesses, today announced it has acquired Double-Take Software, an affiliate of Vision Solutions, Inc.Clearlake-backed Vision exits Double-Take Software - PE Hub  Carbonite buys tech firm with Southborough roots for $65M - Boston Business Journal'
p5
aS"Carbonite Acquires Double-Take Software For A Cheap $65 Million Seeking Alpha - Feb 2, 2017 Data backup services company Carbonite has acquired Double-Take Software for $65 million in a cash and stock deal. Double-Take will expand Carbonite's market and services offerings for a low deal multiple. The technology integration and sales team&nbsp;..."
p6
aS'Market View: Checking on the Technicals for Carbonite, Inc.  The Standard - 16 hours ago Tracking shares of Carbonite, Inc. , the company has a current EV  of 557448. Enterprise Value measures the total value of a specific company.'
p7
aS'Carbonite to Present at the JMP Securities Technology Conference on Monday ... GlobeNewswire  - Aug 24, 2016 BOSTON, Feb. 06, 2017  -- Carbonite, Inc.  a leading provider of data protection solutions for small and midsize businesses today announced its upcoming participation at the JMP Securities Technology conference in&nbsp;...'
p8
aS"Traders Spotlight: Carbonite, Inc.'s  stock price is at $19.80 on volume ... WsNews 4investors - 17 hours ago Carbonite, Inc.  stock price distance from twenty day simple moving average slumped at -0.58% while its distance from fifty day simple moving average raised 3.85% along with 27.63% above distance from two hundred simple moving averages."
p9
aS"Carbonite launches fund to help close tech skills gap in Boston Boston Business Journal - 21 hours ago One of the area's biggest tech firms, Boston-based Carbonite Inc., will announce a new charitable fund focused on closing the technology skills gap in Greater Boston.Carbonite creates charitable fund for technology education - The Boston Globe"
p10
a.