(lp0
S'Meta Financial Group Inc.  Chairman J Tyler Haahr Sells 5000 Shares Sports Perspectives - Mar 27, 2017 Meta Financial Group logo Meta Financial Group Inc.  Chairman J Tyler Haahr sold 5,000 shares of Meta Financial Group stock in a transaction dated Monday, March 6th.Latest Stocks: The Brokerages Set $109.33 Price Target for Meta Financial ... - Petro Global News 24AQR Capital Management LLC Sells 493 Shares of Meta Financial Group Inc.  - Chaffey Breeze'
p1
aS'Stock Returns: Bank Mutual Corporation  versus Meta Financial ... CML News - 11 hours ago This is a snapshot to compare the stock returns for Bank Mutual Corporation  versus Meta Financial Group Inc  .EPS Projection Of Meta Financial Group, Inc.  At $1.04 - RealistInvestor.com'
p2
aS'Meta Financial Group, Inc.  Ex-Dividend Date Scheduled for March 03, 2017 Nasdaq - Mar 2, 2017 Meta Financial Group, Inc.  will begin trading ex-dividend on March 03, 2017. A cash dividend payment of $0.13 per share is scheduled to be paid on April 03, 2017.Meta Financial Group Inc.  to Issue Quarterly Dividend of $0.13 on April 3rd - Chaffey BreezeMeta Financial Group Inc.  Position Lowered by Putnam Investments LLC - Community Financial News'
p3
aS'Meta Financial Group, Inc. Announces Pricing of $75 Million Subordinated Notes GlobeNewswire  - Aug 11, 2016 SIOUX FALLS, S.D., Aug. 11, 2016  -- Meta Financial Group, Inc.  , parent company of MetaBank  based in Sioux Falls, S.D., today announced it had set the price for the public offering of&nbsp;...'
p4
aS'Meta Financial Group, Inc. Reports Results for 2016 Fiscal Fourth Quarter and ... GlobeNewswire  - Oct 25, 2016 On October 3, 2016, Meta announced it had signed a definitive agreement with privately-held Drake Enterprises, Ltd. and its wholly-owned subsidiary, EPS Financial LLC , for MetaBank to acquire substantially all of the assets and certain&nbsp;...'
p5
aS'Meta Financial Group, Inc. Announces Cindy Smith as Executive Vice President ... PR Newswire  - Nov 4, 2015 4, 2015 /PRNewswire/ -- Meta Financial Group, Inc.   announced today that Cindy Smith will assume the position of Executive Vice President, Head of Technology and Operations for the Company.'
p6
aS'Stock Returns: NMI Holdings Inc  is Beating Meta Financial Group ... CML News - Mar 27, 2017 This is a snapshot to compare the stock returns for Meta Financial Group Inc  versus NMI Holdings Inc  .'
p7
aS'Meta Financial Group Inc.  Moves Higher on Volume Spike for March 07 Equities.com - Mar 7, 2017 Meta Financial Group Inc.  traded on unusually high volume on Mar. 07, as the stock gained 4.45% to close at $89.25. On the day, Meta Financial Group Inc. saw 149,490 shares trade hands on 1,197 trades. Considering that the stock averages only a&nbsp;...META FINANCIAL GROUP, INC.  Files An 8-K Regulation FD Disclosure - Market ExclusiveMeta Financial Group Inc.  Chairman Sells $424000.00 in Stock - Sports Perspectives'
p8
aS'Meta Financial Group  to Acquire Assets of EPS Financial for $42.5M StreetInsider.com - Oct 3, 2016 Meta Financial Group, Inc.  announced today that it and its bank subsidiary, MetaBank, have signed a definitive agreement with privately-held Drake Enterprises, Ltd.EPS Financial of Easton to be purchased by MetaBank for $42.5 million - Allentown Morning CallMeta announces $42 million acquisition - Sioux Falls Argus Leader'
p9
aS'Stock Returns: Meta Financial Group Inc  versus Northfield ... CML News - Feb 27, 2017 This is a snapshot to compare the stock returns for Meta Financial Group Inc  versus Northfield Bancorp Inc   .'
p10
a.