(lp0
S"Cavium Inc. Talks Chip Manufacturing Tech Motley Fool - Mar 10, 2017 Cavium  is emerging as one of the two major ARM-based server chip vendors alongside wireless giant Qualcomm .Microsoft Pledges to Use ARM Server Chips, Threatening Intel's Dominance - BloombergIs Second Generation the Charm for ARM? - EnterpriseTech"
p1
aS"Cavium Inc.'s Thunder X2 Aims for Microsoft Corporation's Cloud Motley Fool - Mar 9, 2017 Data center chipmaker Cavium  announced on March 8 that it is &quot;collaborating with Microsoft  on evaluating and enabling a variety of cloud workloads running on [its] flagship Thunder X2 ARMv8-A Data Center processor for&nbsp;...Cavium Inc.  Breaks into New 52-Week High on March 08 Session - Equities.com"
p2
aS'Cavium, Inc. Commences Exchange Offer to Acquire QLogic Corporation PR Newswire  - Jul 13, 2016 SAN JOSE, Calif., July 13, 2016 /PRNewswire/ -- Cavium, Inc.  , a leading provider of semiconductor products that enable intelligent processing for enterprise, data center, cloud, wired and wireless networking, today announced ...'
p3
aS"Cavium Announces Financial Results for Q4 2016 PR Newswire  - Feb 1, 2017 1, 2017 /PRNewswire/ -- Cavium, Inc. , a leading provider of semiconductor products that enable intelligent processing for enterprise, data center, cloud, wired and wireless networking, today announced financial results for the fourth ...Cavium Inc  Releases Earnings Results, Beats Expectations By $0.02 EPS - Highland MirrorCavium Slips Despite Q4 Beat - Barron's "
p4
aS'Cavium Announces Expansion of OCTEON Fusion-M Baseband Products PR Newswire  - Feb 27, 2017 SAN JOSE, Calif. and BARCELONA, Spain, Feb. 27, 2017 /PRNewswire/ -- Cavium, Inc., , a leading provider of semiconductor products that enable secure and intelligent processing for enterprise, data center, wired and wireless networking,&nbsp;...Cavium Joins Telecom Infra Project to Enable OpenCellular Access to LTE, LTE-A ... - Yahoo Finance'
p5
aS"BRIEF-Cavium Inc on March 20, 2017 entered into amendment no. 1 to credit ... Reuters - Mar 22, 2017 Reuters is the news and media division of Thomson Reuters. Thomson Reuters is the world's largest international multimedia news agency, providing investing news, world news, business news, technology news, headline news, small business news, news&nbsp;..."
p6
aS'Cavium Inc  Heffx Trading Outlook Live Trading News - Feb 27, 2017 During the past 10 bars, there have been 4 white candles and 6 black candles for a net of 2 black candles. During the past 50 bars, there have been 25 white candles and 25 black candles.'
p7
aS'Cavium Inc.  Breaks into New 52-Week High on March 23 Session Equities.com - Mar 23, 2017 Shares of Cavium Inc.  broke into a new 52-week high yesterday, hitting a peak of $73.01. Shares closed at $71.26 after opening at $71.34 for a move of -0.34%.'
p8
aS'Cavium FastLinQ Ethernet First to Achieve Microsoft Windows Server SDDC ... Yahoo Finance - Mar 27, 2017 SAN JOSE, Calif., March 27, 2017 /PRNewswire/ -- Today, Cavium, Inc. , a leading provider of semiconductor products that enable secure and intelligent processing for enterprise and cloud data centers, announced that its FastLinQ QL45000 Series of&nbsp;...'
p9
aS'Cavium Inc.  Breaks into New 52-Week High on March 16 Session Equities.com - Mar 16, 2017 Shares of Cavium Inc.  broke into a new 52-week high yesterday, hitting a peak of $72.59. Shares closed at $72.16 after opening at $72.05 for a move of -0.25%.'
p10
a.