(lp0
S'Crown Holdings Inc.  Moves Lower on Volume Spike for March 27 Equities.com - Mar 27, 2017 Crown Holdings Inc.  traded on unusually high volume on Mar. 27, as the stock lost 0.06% to close at $52.51. On the day, Crown Holdings Inc. saw 1.26 million shares trade hands on 11,116 trades. Considering that the stock averages only a daily&nbsp;...Institutional Investors Continue to Own the Majority of Company Shares: Crown ... - Midway MonitorCrown Holdings, Inc.  Quarterly EPS Forecast At $0.7 - RealistInvestor.com'
p1
aS'Crown Holdings, Inc. Announces Senior Management Changes PR Newswire  - Feb 6, 2017 PHILADELPHIA, Feb. 6, 2017 /PRNewswire/ -- Crown Holdings, Inc.  announced that Gerard H. Gifford, 61, has been appointed Executive Vice President and Chief Operating Officer effective April 1, 2017.'
p2
aS'Estimating the fair value of Crown Holdings Inc  Simply Wall St - Mar 22, 2017 How far off is Crown Holdings  to its intrinsic value? I am going to take a look now using a method called discounted cash flow or DCF.'
p3
aS'Crown Holdings Inc. Reveals 2% Increase In Q4 Bottom Line Nasdaq - Feb 2, 2017  - Crown Holdings Inc.  revealed a profit for its fourth quarter that climbed compared to the same period last year.'
p4
aS"Crown Holdings, Inc. Reports Fourth Quarter 2016 Results PR Newswire  - Feb 2, 2017 The Company does not intend to review or revise any particular forward-looking statement in light of future events. Crown Holdings, Inc., through its subsidiaries, is a leading supplier of packaging products to consumer marketing companies around the ...Crown Holdings'  CEO Timothy Donahue on Q4 2016 Results - Earnings Call ... - Seeking AlphaCrown Holdings  Releases Earnings Results, Reports EPS of $0.71 EPS - Highland Mirror"
p5
aS'Crown Holdings Announces Pricing Of Senior Notes PR Newswire  - Sep 8, 2016 PHILADELPHIA, Sept. 8, 2016 /PRNewswire/ -- Crown Holdings, Inc.  announced today that it has priced its private placement of 600 million principal amount of 2.625% senior unsecured notes due 2024, issued at par by Crown European&nbsp;...'
p6
aS'Risk Malaise Alert in Option Market: Crown Holdings Inc Implied Price Swing ... CML News - 10 hours ago Before we dive into any analysis we simply note that Crown Holdings Inc  risk is actually priced pretty low by the option market as of right now.'
p7
aS"Crown Holdings, Inc. Elects Rose Lee To Its Board Of Directors PR Newswire  - Jul 29, 2016 PHILADELPHIA, July 29, 2016 /PRNewswire/ -- Crown Holdings, Inc.  announced today that manufacturing industry executive Rose Lee has been elected to the Company's Board of Directors."
p8
aS'Crown Holdings Inc.  Moves Lower on Volume Spike for March 24 Equities.com - Mar 24, 2017 Crown Holdings Inc.  traded on unusually high volume on Mar. 24, as the stock lost 1.46% to close at $52.54. On the day, Crown Holdings Inc. saw 1.27 million shares trade hands on 10,260 trades. Considering that the stock averages only a daily&nbsp;...'
p9
aS"Why Analysts put forward these two stocks: Crown Holdings, Inc. , NextEra ... The USA Commerce - Mar 23, 2017 Shares of Crown Holdings, Inc.  surged 0.43% to $53.33. During the trading on 03/22/2017, Company's stock ranged from $53.41 to $52.80."
p10
a.