(lp0
S'City Holding Company  Lowered to Hold at Zacks Investment Research BNB Daily  - 20 hours ago Zacks Investment Research cut shares of City Holding Company  from a buy rating to a hold rating in a research report released on Wednesday morning.'
p1
aS'State Street Corp Buys 34302 Shares of City Holding Company  The Cerbat Gem - 19 hours ago City Holding Company logo State Street Corp increased its stake in shares of City Holding Company  by 8.7% during the fourth quarter, according to its most recent 13F filing with the Securities and Exchange Commission .Brokerages Anticipate City Holding Company  to Post $0.81 Earnings Per Share - Sports Perspectives'
p2
aS'City Holding Company  Plunges 5.98% on March 21 Equities.com - Mar 21, 2017 City Holding Company  had a rough trading day for Tuesday March 21 as shares tumbled 5.98%, or a loss of $-3.89 per share, to close at $61.18.City Holding Company  Stake Raised by Guggenheim Capital LLC - Chaffey BreezeCity Holding Company  Reviewed By Analysts - The De Soto Edge'
p3
aS'Analyst Activity  DA Davidson Initiates Coverage On City Holding Company ... Market Exclusive - Mar 7, 2017 On 3/31/2016 City Holding Company announced a Quarterly dividend of $0.43 with an ex dividend date of 4/13/2016 which will be payable on 4/29/2016.DA Davidson Initiates Coverage on City Holding Company  - The Cerbat GemCity Holding Company  Receives Consensus Recommendation of Hold from ... - Chaffey Breeze'
p4
aS'City Holding Company  Rating Lowered to Hold at Zacks Investment Research The Cerbat Gem - Mar 24, 2017 City Holding Company logo City Holding Company  was downgraded by Zacks Investment Research from a buy rating to a hold rating in a research note issued on Wednesday.The City Holding Company  Downgraded by Zacks Investment Research - Petro Global News 24City Holding Company  Downgraded by Zacks Investment Research to Hold - Chaffey Breeze'
p5
aS'Stock Alert and Holding Pattern: City Holding Company Stock Volatility Hits An ... CML News - Mar 24, 2017 Before we cover the full analysis we make a quick alert here that City Holding Company  has seen its stock price move at an elevated level.'
p6
aS'City Holding Company  Daily Sentiment At 0 Markets Daily - Mar 20, 2017 City Holding Company  has been given a 0 daily sentiment score. This dataset comprises average sentiment and impact scores figured on all articles linked to City Holding Company , published in preceding 24 hours.'
p7
aS'City Holding Company Stock Volatility Hits A Tumbling Low CML News - Mar 8, 2017 This is a proprietary realized volatility rating created by Capital Market Laboratories  based on a large number of data interactions for City Holding Company  . We examine the little used gem of daily stock volatility over a 20 ...'
p8
aS'City Holding Company  Broker Price Targets For The Coming Week Fiscal Standard - Mar 27, 2017 Recently analysts working for various investment brokerages have changed their ratings and price targets on shares of City Holding Company . According to the the latest analyst ratings which have been released, 0 brokers have issued a&nbsp;...In Volatile Markets Do Analysts Think You Should Buy City Holding Company ... - The De Soto Edge'
p9
aS"City Holding Company  At $62.18 Forms Top; Fenimore Asset Management Has ... HuronReport - Mar 27, 2017 City Holding Company  formed multiple top with $64.67 target or 4.00% above today's $62.18 share price. City Holding Company  has $973.15 million valuation. The stock increased 0.42% or $0.26 on March 24, reaching $62.18. About shares&nbsp;..."
p10
a.