(lp0
S"Taking a Look at the Data Behind Cigna Corporation  StockNewsJournal - Mar 27, 2017 Cigna Corporation  is an interesting player in the Healthcare space, with a focus on Health Care Plans. The stock has been active on the tape, currently trading at $145.82, down from yesterday's close by -2.25%.Smart Money Still Has Faith in Cigna Corporation  - Midway MonitorWhere Cigna Corporation  Stands on ABR? - TWN"
p1
aS'Risk Malaise Alert in Option Market: Cigna Corporation Implied Price Swing ... CML News - 9 hours ago Before we dive into any analysis we simply note that Cigna Corporation  risk is actually priced pretty low by the option market as of right now.'
p2
aS"Taking a Look at the Chart for Cigna Corporation  The USA Commerce - 14 hours ago We have gathered the technical data on Cigna Corporation , and see some interesting trends in the stock's behavior of late."
p3
aS'Buy/Sell Signals for Cigna Corp  and Realty Income Corporation  USA Commerce Daily - 17 hours ago Shares of Cigna Corporation  are on a recovery track as they have regained 26.99% since bottoming out at $115.03 on Nov. 01, 2016.'
p4
aS'Cigna Corporation  Files An 8-K Other Events Market Exclusive - Mar 24, 2017 On March 15, 2017, David M. Cordani, President and Chief Executive Officer of Cigna Corporation , adopted a stock trading plan designed to comply with Rule 10b5-1 of the Securities Exchange Act of 1934, as amended.'
p5
aS'Are Cigna Corporation  Stock Technicals Favorable? USA Commerce Daily - Mar 27, 2017 With all other things going on, Cigna Corporation  has been on a run - rising 6.41 percent in just three months. It looks like traders are happy with the stock.'
p6
aS'Cigna CEO Received $21.9 Million in 2016 Hartford Courant - Mar 18, 2017 The Courant calculates compensation as the sum of salary, bonuses, value gained on the exercise of stock options and the vesting of stock awards, and the value of perquisites, such as the 401 match and use of corporate aircraft. As a result of ...'
p7
aS'Cigna Foundation Announces $100000 Grant to St. Louis Pediatric Asthma Clinic Yahoo Finance - Mar 27, 2017 The Cigna Foundation, founded in 1962, is a private foundation funded by contributions from Cigna Corporation  and its subsidiaries.'
p8
aS'Today Analysts Focus on Ellie Mae, Inc. , Cigna Corporation  StockNewsJournal - Mar 24, 2017 Cigna Corporation , at its latest closing price of $149.18, it has a price-to-book ratio of 2.81, compared to an industry average at 3.07.'
p9
aS"Investors Alert: Cigna Corporation's  stock price is now Worth at $146.04 ... Hot Stocks Point - 15 hours ago Cigna Corporation  stock price ended its day with gain 0.15% and finalized at the price of $146.04. During its last trading session, Stock traded with the total exchanged volume of 2 million shares."
p10
a.