(lp0
S"Clearwater Paper to lay off 85 in Neenah Appleton Post Crescent - Nov 29, 2016 SPOKANE, Wash. - Clearwater Paper Corporation announced Tuesday it will permanently shut down two of the company's highest cost tissue machines Dec. 31 at its Neenah facility, eliminating 85 of its 400 employees.Clearwater Paper laying off 85 workers in Neenah - Fox11online.com"
p1
aS'Clearwater Paper expands premium paper products The Spokesman-Review - Feb 9, 2017 Clearwater Paper Corp. will build a new tissue machine for producing premium and ultra-premium toilet paper, paper towels and napkins at its facility in Shelby, North Carolina.Clearwater Paper to add 180 jobs, $330M investment at Shelby tissue facility - Charlotte Business JournalClearwater Paper Announces Second Tissue Machine and Converting Facility in ... - Business Wire '
p2
aS"Clearwater Paper Corp. CLW  Wall Street Journal - Feb 11, 2011 P/E Ratio : The Price to Earnings  ratio, a key valuation measure, is calculated by dividing the stock's most recent closing price by the sum of the diluted earnings per share from continuing operations for the trailing 12 month period ..."
p3
aS'Fire departments work through night fighting Clearwater Paper blaze Shelby Star - Jan 29, 2017 SHELBY - Firefighters worked for nearly 12 hours to extinguish a fire at Clearwater Paper Corp. at 687 Washburn Switch Road, Shelby, that began just before 6 p.m.Chief: Blaze began in Clearwater Paper storage area - Gaston GazetteInvestigation underway after fire breaks out at Shelby paper mill - WSOC Charlotte'
p4
aS"Clearwater Paper ordered to pay $235000 to whistleblower The Seattle Times - Apr 22, 2016 BOISE, Idaho  - A federal judge has ordered Clearwater Paper Corp. to pay a former employee $235,000 after ruling the company fired him for filing a report with a federal agency about unsafe working conditions at the company's sawmill in Lewiston,&nbsp;..."
p5
aS'Clearwater Paper settles pollution case for $1.1 million The Spokesman Review - Jun 10, 2015 Clearwater Paper Corp. has agreed to pay $1.1 million to settle allegations of federal Clean Air Act violations at its Lewiston mill.'
p6
aS"Clearwater Paper In A Paperless World? Seeking Alpha - Sep 11, 2015 Let's all take a moment to remember that Dunder Mifflin classic commercial jingle, &quot;Dunder Mifflin: The People Person's Paper People&quot;. Clearwater Paper doesn't just sell paperboard. It's also in the tissue paper business. With a P/E of 396 and a ..."
p7
aS'UPDATE: Two-alarm fire at Clearwater Paper in North Las Vegas is out KTNV Las Vegas - Nov 14, 2016 NORTH LAS VEGAS  -- North Las Vegas firefighters responded to a two-alarm fire on Monday morning at the Clearwater Paper Corp. building at 3901 Donna Street near North 5th Street and East Alexander Road. The fire began in the rafters in the&nbsp;...Firefighters control blaze at North Las Vegas paper factory - Las Vegas Review-Journal'
p8
aS'Idaho judge orders Clearwater Paper to pay whistleblower $234751 Idaho Statesman - Apr 22, 2016 CORRECTION: Clearwater Paper Corp. did not have the opportunity for a timely response to this story because the Statesman used an incorrect email address to reach out to a company spokesman.'
p9
aS'In brief: Clearwater Paper invests $160 million in digester construction The Spokesman Review - Sep 9, 2015 Clearwater Paper Corp. will invest $160 million in its Lewiston mill during the construction of a continuous pulp digester.Clearwater Paper Corporation Expands Mill In Lewiston, Idaho - Area Development Online'
p10
a.