(lp0
S'Price Michael F Has $4489000 Stake in Clifton Bancorp Inc.  Petro Global News 24 - Jan 24, 2017 Price Michael F held its position in shares of Clifton Bancorp Inc.  during the third quarter, according to its most recent filing with the Securities and Exchange Commission .'
p1
aS'Two Sigma Investments LP Buys 18327 Shares of Clifton Bancorp Inc.  The Cerbat Gem - 16 hours ago Clifton Bancorp logo Two Sigma Investments LP increased its position in Clifton Bancorp Inc.  by 57.4% during the fourth quarter, according to its most recent 13F filing with the SEC.'
p2
aS'Clifton Bancorp Inc.  Moves Lower on Volume Spike for March 22 Equities.com - Mar 22, 2017 Clifton Bancorp Inc.  traded on unusually high volume on Mar. 22, as the stock lost 0.06% to close at $15.57. On the day, Clifton Bancorp Inc. saw 99,517 shares trade hands on 899 trades. Considering that the stock averages only a daily volume of&nbsp;...'
p3
aS'Traders Take Note: Clifton Bancorp Inc  Stock Drops, Weakness in ... CML News - Mar 22, 2017 Take Note: Clifton Bancorp Inc  has hit some technical weakness in its momentum, and while it has not broken down all the way through support -- watch the key levels that we discuss below and further, watch the stochastics and technical&nbsp;...'
p4
aS'Clifton Bancorp Inc. Announces Expansion into Hoboken, New Jersey Business Wire  - Mar 18, 2015 CLIFTON, N.J.----Clifton Bancorp Inc. , the holding company for Clifton Savings Bank, today announced its plans to open a new banking office in Hoboken, New Jersey.'
p5
aS'Clifton Bancorp Inc. Announces Appointment of Tricia Cademartori Hrotko to ... Business Wire  - Apr 3, 2014 CLIFTON, N.J.----Clifton Bancorp Inc. , the parent company of Clifton Savings Bank, today announced the appointment of Tricia Cademartori Hrotko to the position of Executive Vice President, Chief Revenue Officer.'
p6
aS'Stock Returns: TrustCo Bank Corp NY  is Beating Clifton Bancorp ... CML News - Mar 19, 2017 This is a snapshot to compare the stock returns for Clifton Bancorp Inc  versus TrustCo Bank Corp NY  .'
p7
aS'Clifton Bancorp Inc.  Daily Sentiment At 0.31 Markets Daily - Mar 23, 2017 Clifton Bancorp Inc.  has been given a 0.31 daily sentiment score. This dataset comprises average sentiment and impact scores figured on all articles linked to Clifton Bancorp Inc. , published in preceding 24 hours.'
p8
aS'Stock Returns: Clifton Bancorp Inc  versus United Community ... CML News - Feb 8, 2017 This is a snapshot to compare the stock returns for Clifton Bancorp Inc  versus United Community Financial Corp.'
p9
aS'Stock Returns: Meta Financial Group Inc  versus Clifton Bancorp ... CML News - Mar 1, 2017 This is a snapshot to compare the stock returns for Meta Financial Group Inc  versus Clifton Bancorp Inc  .'
p10
a.