(lp0
S'Latest Commvault Systems Inc.  to Release Earnings on Wednesday Petro Global News 24 - Feb 1, 2017 Commvault Systems Inc.  is set to post its Q317 quarterly earnings results on Wednesday, January 25th. Analysts expect Commvault Systems to post earnings of $0.26 per share and revenue of $163.61 million for the quarter.CommVault Systems, Inc.  Receives An Update From Brokers - The De Soto Edge1-Year Price Target Of CommVault Systems, Inc.  At $61.142 - Enterprise Leader'
p1
aS"Why CommVault Systems, Inc. Popped Today Motley Fool - Jan 27, 2016 In addition, he insisted that, with key elements of the company's transformation now complete, CommVault is now in a position to focus on maximizing revenue and earnings growth in the coming fiscal year.Commvault Announces Global Customer Momentum - PR Newswire "
p2
aS'Commvault and CloudWave Bring Streamlined Cloud Backup and Recovery to ... PR Newswire  - Feb 21, 2017 21, 2017 /PRNewswire/ -- HIMSS17 -- Commvault , a global leader in enterprise backup, recovery, archive and the cloud for the healthcare market, today announced that its Commvault Data Platform was selected by CloudWave to power its new ...Commvault Sees Growing Healthcare Industry Demand for Powerful Holistic Data ... - Yahoo FinanceCommvault and TeraRecon Announce Development of a Hyper-performance Multi ... - IT Business Net'
p3
aS"CommVault Systems Inc.: Commvault Partners with Pure Storage to Give Customers ... The Wall Street Transcript - Mar 8, 2017 Testing and reference architectures between Cisco and Commvault make extending FlashStack snapshot protection easy and efficient with backup onto Cisco's Unified Computing System  as part of the converged infrastructure stack."
p4
aS'Equity Watch for Commvault Systems, Inc.  Rives Journal - 12 hours ago Commvault Systems, Inc.  currently has a Gross Margin  ratio of 0.717845. Robert Novy-Marx has provided investors with insights on finding high-quality value stocks.'
p5
aS"CommVault Systems Inc.  Is Losing Ground After Q3 Report Nasdaq - Jan 25, 2017  - CommVault Systems Inc.  reported third quarter EPS of $0.28 Wednesday morning, which was flat with the prior year result.CommVault Systems'  CEO Robert Hammer on Q3 2017 Results - Earnings Call ... - Seeking AlphaCommvault Systems'  Buy Rating Reiterated at BTIG Research - Sports Perspectives"
p6
aS'Robbins Arroyo LLP: Commvault Systems, Inc.  Misled Shareholders ... Yahoo Finance - Nov 2, 2016 Shareholder rights law firm Robbins Arroyo LLP announces that a second amended class action complaint was filed against Commvault Systems, Inc.  in the U.S. District Court for the District of New Jersey. The complaint is brought on behalf of all&nbsp;...'
p7
aS'Commvault Systems, Inc.  to Ring The Nasdaq Stock Market Closing ... GlobeNewswire  - Sep 21, 2016 Commvault Systems, Inc. , a global leader in enterprise backup, recovery, archive and the cloud, will visit the Nasdaq MarketSite in Times Square.'
p8
aS'Harwood Feffer LLP Announces Investigation of Commvault Systems, Inc. PR Newswire  - Nov 3, 2016 NEW YORK, Nov. 3, 2016 /PRNewswire/ -- Harwood Feffer LLP  is investigating potential claims against the board of directors of Commvault Systems, Inc.  , concerning whether the board has&nbsp;...'
p9
aS"Commvault Announces Commvault GO 2017, The Industry's Leading Event Dedicated ... PR Newswire  - Dec 21, 2016 21, 2016 /PRNewswire/ -- Commvault , a global leader in data protection and information management solutions, today announced its second annual customer conference, Commvault GO 2017, will be held November 6-8, 2017 in Washington D.C ..."
p10
a.