(lp0
S'Edenbrook Capital, Llc. is Buying Digitalglobe Inc.  Shares Small Cap Exclusive  - Mar 28, 2017 In a just published Form 13, filed with the US Securities and Exchange Commission , Digitalglobe Inc.  reported that Edenbrook Capital, Llc.Latest Stocks: The DigitalGlobe Inc  Given Consensus Recommendation of ... - Petro Global News 24Renaissance Technologies LLC Reduces Stake in DigitalGlobe Inc  - Chaffey Breeze'
p1
aS"DigitalGlobe, Inc. Finds a Worthy Suitor Motley Fool - Feb 27, 2017 DigitalGlobe has agreed to let Canadian satellite company MacDonald Dettwiler &amp; Associates  acquire it in a cash and stock deal worth $35 per share, representing an 18% premium to DigitalGlobe's unaffected price as of Feb. 16, the day before&nbsp;...DigitalGlobe Inc  Moves Higher on Volume Spike for February 27 - Equities.com"
p2
aS"Why DigitalGlobe, Inc. Stock Popped Today Motley Fool - Feb 17, 2017 According to a report  from The Wall Street Journal this afternoon, which cited &quot;people familiar with the matter,&quot; DigitalGlobe has fielded interest from a &quot;number of possible buyers.&quot; But now, the sources say, the company is ...DigitalGlobe in buyout talks with Canadian satellite company MacDonald Dettwiler - MarketWatchColorado's DigitalGlobe is in advanced talks to sell to Canadian company ... - 9NEWS.com"
p3
aS'DIGITALGLOBE, INC. SHAREHOLDER ALERT: Former SEC Attorney Willie Briscoe ... Yahoo Finance - Mar 1, 2017 Former United States Securities and Exchange Commission attorney Willie Briscoe is investigating potential claims against the Board of Directors of DigitalGlobe, Inc.   concerning the acquisition by MacDonald, Dettwiler and ...'
p4
aS'Why to Keeping Eye on DigitalGlobe, Inc. , Catabasis Pharmaceuticals, Inc ... StockNewsJournal - Mar 23, 2017 DigitalGlobe, Inc.  have shown a high EPS growth of 20.60% in the last 5 years and has earnings decline of 30.20% yoy.'
p5
aS"DigitalGlobe, Inc.  Earnings &amp; Valuation in Perspective TCT - 7 hours ago The EBITDA Yield for DigitalGlobe, Inc.  is 12.03%. This number is calculated by dividing a company's earnings before interest, taxes, depreciation and amortization by the company's enterprise value."
p6
aS'DigitalGlobe, Inc.  QI Value Update on the Stock Business Review - Mar 28, 2017 DigitalGlobe, Inc.  has a Q.i. Value of 35.00000. The purpose of the Q.i. Value is to help identify companies that are the most undervalued.'
p7
aS'Average Brokerage Rating Of DigitalGlobe, Inc. , Texas Capital Bancshares ... The USA Commerce - Mar 22, 2017 DigitalGlobe, Inc.  share price decreased in the last trading session with a previous 52-week high of $35.95.'
p8
aS'Analysts Set DigitalGlobe Inc  Price Target at $29.08 The Cerbat Gem - Mar 25, 2017 DigitalGlobe logo Shares of DigitalGlobe Inc  have earned an average rating of Hold from the nine brokerages that are currently covering the firm.Stock Tracker: Earnings &amp; Estimates for DigitalGlobe, Inc  - Aiken AdvocateDigitalGlobe, Inc  Stake Lowered by Franklin Resources Inc. - Sports Perspectives'
p9
aS'DigitalGlobe, Inc  EPS Projection At $0.115 RealistInvestor.com - Mar 20, 2017 DigitalGlobe, Inc  is likely to account earnings of $0.115 for prior quarter, which can come on 2017-04-26.'
p10
a.