(lp0
S'Donegal Group Inc. Announces First Quarter 2017 Webcast Yahoo Finance - Mar 21, 2017 MARIETTA, Pa., March 21, 2017  -- Donegal Group Inc.   announced that the Company plans to hold a live webcast on Wednesday, April 19, 2017, at 11:00AM Eastern Time, to discuss its results for the first quarter ended&nbsp;...'
p1
aS'Donegal Group Inc. Announces 2016 Fourth Quarter and Full Year Results GlobeNewswire  - Feb 17, 2017 Kevin G. Burke, President and Chief Executive Officer of Donegal Group Inc., stated, Donegal Group reported strong fourth quarter and full year of 2016 underwriting results, highlighted by increases in both net income and operating income, with annual&nbsp;...Donegal Group posts 179.9% surge in Q4 net profits - LancasterOnline'
p2
aS'Donegal Group Inc. and Donegal Mutual Insurance Company Purchase Shepard Shares GlobeNewswire  - Dec 22, 2015 MARIETTA, Pa., Dec. 22, 2015  -- Donegal Group Inc.    today reported that it, along with Donegal Mutual Insurance Company , the holder of majority voting control of DGI,&nbsp;...Donegal Group critic sells stake for $70M, agrees to let firm alone - LancasterOnlineDissident shareholder in Bradenton sells stock for $70M - Tampa Bay Business Journal '
p3
aS'Donegal Group Inc. Class A Common Stock  Moves Lower on Volume Spike ... Equities.com - Mar 20, 2017 Donegal Group Inc. Class A Common Stock  traded on unusually high volume on Mar. 20, as the stock lost 3.15% to close at $17.53.Donegal Group Inc. : How technical indicators have come out? - Post AnalystDonegal Group, Inc.  Broker Price Targets For The Coming Week - Fiscal Standard'
p4
aS'Donegal Group Inc. Announces Kevin G. Burke Appointed President and Chief ... GlobeNewswire  - Jul 17, 2015 MARIETTA, Pa., July 17, 2015  -- Donegal Group Inc.    announced today that Donald H. Nikolaus, the Chairman of the Board, President and Chief Executive Officer of DGI, which was founded&nbsp;...Donegal Group appoints Kevin Burke president and CEO - LancasterOnline'
p5
aS'Donegal Group Inc. Class A Common Stock  Moves Lower on Volume Spike ... Equities.com - Feb 27, 2017 Donegal Group Inc. Class A Common Stock  traded on unusually high volume on Feb. 27, as the stock lost 0.3% to close at $16.85.Analysts Set $19.00 Price Target for Donegal Group, Inc.  - Community Financial NewsRevenue Update on Donegal Group - Money Flow Index & Trends'
p6
aS'Donegal Group Inc. Class A Common Stock  Moves Higher on Volume Spike ... Equities.com - Feb 24, 2017 Donegal Group Inc. Class A Common Stock  traded on unusually high volume on Feb. 24, as the stock gained 0.72% to close at $16.90.'
p7
aS"New Mexico's Mountain States Mutual to Merge with Donegal Mutual Insurance Journal - Dec 21, 2016 Donegal Mutual and the insurance subsidiaries of Donegal Group Inc. sell personal and commercial property/ casualty insurance in 21 Mid-Atlantic, Midwestern, New England and Southern states and had net premiums written of $738.7 million in 2015."
p8
aS'The 33478 Shares in Donegal Group Inc.  Acquired by Allianz Asset ... Petro Global News 24 - Mar 24, 2017 Allianz Asset Management AG bought a new position in Donegal Group Inc.  during the fourth quarter, Holdings Channel reports.33478 Shares in Donegal Group Inc.  Acquired by Allianz Asset Management AG - Chaffey BreezeDonegal Group, Inc.   Brokers Update Their Views - NewsDen'
p9
aS'Donegal Group, Inc.  Shares Bought by Bessemer Group Inc. BNB Daily  - Mar 2, 2017 Donegal Group logo Bessemer Group Inc. raised its position in shares of Donegal Group, Inc.  by 43.1% during the fourth quarter, according to its most recent 13F filing with the Securities and Exchange Commission.Zacks: Donegal Group, Inc.  Given $19.00 Average Target Price by Brokerages - Chaffey BreezeThe Donegal Group, Inc.  Set to Announce Quarterly Earnings on Friday - DailyQuint'
p10
a.