(lp0
S'Daily Journal Corporation Announces Financial Results for the Three Months ... GlobeNewswire  - Feb 9, 2017 LOS ANGELES, Feb. 09, 2017  -- During the three months ended December 31, 2016, Daily Journal Corporation  had consolidated revenues of $9,990,000 as compared with $10,815,000 in the prior year period.'
p1
aS"Charlie Munger And The 2017 Daily Journal Corporation Annual Meeting Forbes - Feb 16, 2017 Berkshire Hathaway Vice-Chairman Charlie Munger was in top form chairing the 2017 Daily Journal Annual Meeting. Here are a few highlights from my notes.Trump 'not wrong on everything': Berkshire's Munger - ReutersThe Mind Of Munger: Berkshire's Vice Chairman Speaks On Wells Fargo, Trump And ... - Benzinga"
p2
aS"Justifying The Daily Journal's Share Price Seeking Alpha - Aug 24, 2016 The Daily Journal Corporation  is a unique, even quirky, company that has gained attention because its Chairman is Charles Munger."
p3
aS'Trading Sheet: Watching the Levels for Daily Journal Corporation  The Standard - 16 hours ago Looking at shares of Daily Journal Corporation , the company has an EV  of 262223. Enterprise Value is a measure of the total value of a specific company.'
p4
aS'Daily Journal Corporation Announces Financial Results for Fiscal 2016 ended ... GlobeNewswire  - Dec 14, 2016 LOS ANGELES, Dec. 14, 2016  -- During the fiscal year ended September 30, 2016, Daily Journal Corporation  had consolidated revenues of $41,612,000 as compared with $43,978,000 in the prior year.'
p5
aS'Charlie Munger Speaks at the 2017 Daily Journal Corporation Annual Meeting ValueWalk - Feb 26, 2017 Daily Journal Corporation is a publishing company headquartered in Los Angeles that publishes newspapers and websites that cover legal affairs in California and Arizona.'
p6
aS'Gala honors corporate diversity in Tupelo Northeast Mississippi Daily Journal - Mar 26, 2017 The event celebrated corporate diversity, honoring 13 corporations in the state: AT&amp;T, Atmos Energy, Caterpillar, Chevron, Entergy, Ingalls Shipbuilding, Kimberly Clark, Nissan, Pearl River Resort, Renasant Bank, Sanderson Farms, TVA and Toyota.'
p7
aS"Public television chief says Trump budget would hit options Daily Journal - 13 hours ago WASHINGTON - President Donald Trump's proposal to eliminate funds for the Corporation for Public Broadcasting would most dramatically affect rural and minority communities, eventually forcing some local television and radio stations to close, the&nbsp;..."
p8
aS'Stock Returns: Daily Journal Corporation  versus The McClatchy ... CML News - Mar 1, 2017 This is a snapshot to compare the stock returns for Daily Journal Corporation  versus The McClatchy Company  .'
p9
aS'Stock Returns: Daily Journal Corporation  versus tronc Inc ... CML News - Mar 8, 2017 This is a snapshot to compare the stock returns for Daily Journal Corporation  versus tronc Inc  .The Daily Journal Corp.   Director John Patrick Et Al Guerin Sells ... - DailyQuint'
p10
a.