(lp0
S'Dundee Precious Metals Inc.  Declines 6.87% for March 28 Equities.com - 9 hours ago It was a tough day for Dundee Precious Metals Inc.  as its stock fell 6.87% to finish the day at $2.71 a share on March 28.'
p1
aS'Dundee Precious Metals Completes Acquisition of Avala Resources Ltd. Marketwired  - Apr 8, 2016 TORONTO, ONTARIO-- - Avala Resources Ltd.   and Dundee Precious Metals Inc.   announced today the successful completion of the previously announced plan of arrangement&nbsp;...'
p2
aS'Is Dundee Precious Metals Inc  Financially Strong Enough To Weather A ... Simply Wall St - Mar 17, 2017 Dundee Precious Metals Inc  is a small-cap company - a market capitalization of less than $2 billion. Such companies have the highest growth potential, primarily due to their small-size.'
p3
aS'Dundee Corporation Acquires Further Interest in Dundee Precious Metals Inc. Marketwired  - Jul 11, 2016 A) announces that, through its wholly owned subsidiary, Dundee Resources Limited, it has acquired 840,000 common shares  of Dundee Precious Metals Inc.  at the price of $3.00 per Share for aggregate consideration of $2,520,000.'
p4
aS'Dundee Precious Metals Inc.  Rises 5.75% for March 10 Equities.com - Mar 10, 2017 March 10 was a positive day for Dundee Precious Metals Inc.  as its stock finished the day having gained 5.75% to hit a price of $2.76 a share.The Richard Allan Howes Buys 60000 Shares of Dundee Precious Metals Inc (DPM ... - DailyQuint'
p5
aS'Dundee Precious Metals Inc : Financial Strength Analysis Simply Wall St - Mar 2, 2017 Small-cap companies such as Dundee Precious Metals Inc  with its market cap of USD $415 Million, benefit the most from improving economic conditions due to the growth potential, but on the other hand they also are highly prone to a downturn,&nbsp;...Richard Allan Howes Acquires 60000 Shares of Dundee Precious Metals Inc (DPM ... - The Cerbat Gem'
p6
aS'Dundee Precious Metals Inc.  Rises 6.34% for March 20 Equities.com - Mar 20, 2017 March 20 was a positive day for Dundee Precious Metals Inc.  as its stock finished the day having gained 6.34% to hit a price of $2.85 a share.'
p7
aS'Dundee Precious Metals: The Sale Of Kapan Was The Right Decision Seeking Alpha - Mar 3, 2016 In my opinion, it was the right decision - the company sold a problematic mine in Armenia .'
p8
aS'Stock Focus: Checking the Chart on Shares of Dundee Precious Metals Inc.  Sherwood Daily - 16 hours ago Checking the Value Composite score for Dundee Precious Metals Inc. , we see that the company has a rank of 26. This falls on a scale from 0 to 100 where a lower score indicated an undervalued company and a higher score would indicate an&nbsp;...'
p9
aS'Dundee Precious Metals Announces Updated Chelopech Mineral Reserve Estimate Marketwired  - Mar 28, 2016 TORONTO, ONTARIO-- - Dundee Precious Metals Inc.   has announced the results of the updated Mineral Reserve estimate for its Chelopech mine in Bulgaria, as prepared by CSA Global&nbsp;...'
p10
a.