(lp0
S'Hyperloop One wins backing from DP World Financial Times - Oct 13, 2016 The latest investment, from Dubai ports operator DP World, takes the total the company has raised to $160m, though this only represents a fraction of the billions it will have to attract to succeed, said Rob Lloyd, chief executive.Dubai port titan invests in futuristic Hyperloop train - Daily MailHyperloop One raises $50 million, hires former Uber CFO Brent Callinicos - Livemint'
p1
aS"DP World wins tribunal case against Djibouti over bribe case Financial Times - Feb 21, 2017 A London tribunal ordered the government to bear legal and other costs, throwing out claims that DP World had bribed Abdourahman Boreh, the former head of Djibouti's ports free zone authority.DP World wins Djibouti dispute - Port StrategyDP World Cleared of Djibouti Charges - Port Technology International"
p2
aS'Conyers advises DP World on the establishment of $3bn sukuk program The Lawyer  - Jun 14, 2016 The certificates were issued by DP World Crescent Limited, an exempted company incorporated in the Cayman Islands, and Conyers acted as Cayman Islands legal counsel, working alongside Clifford Chance LLP as international legal counsel to DP World.'
p3
aS"Caisse, Dubai's DP World Create $3.8-Billion Port Venture Bloomberg - Dec 2, 2016 Caisse de Depot et Placement du Quebec, Canada's second-largest pension fund manager, is teaming up with Dubai-based DP World Ltd. to create a C$5 billion  venture that will invest in ports around the world, including regions such as Asia&nbsp;...DP World Partners with CDPQ to Create CA$ 5 Billion "
p4
aS'DP World Reports Growth Amid Tumultuous Year Port Technology International - Feb 7, 2017 DP World Limited has revealed that it handled 63.7 million TEU  across its global portfolio of container terminals in the full year of 2016, with gross container volumes growing by 3.2% year-on-year on a reported basis ...DP World Sees Rise in Annual Volume Growth - Wall Street JournalDP World says Europe, India, Turkey to lead growth in 2017 - Moneycontrol.com'
p5
aS'DP World Raises $1.2 Billion From Sukuk to Fund Bond Buyback Bloomberg - May 24, 2016 DP World Ltd., the Dubai-owned company that operates ports from China to South America, raised $1.2 billion from the sale of Islamic bonds and said a tender offer to buy back securities received 48 percent more bids than the target.'
p6
aS"Moody's assigns Baa3 rating to DP World Crescent Limited; stable outlook Moodys.com   - May 16, 2016 London, 16 May 2016 -- Moody's Investors Service,  has today assigned a provisional Baa3 senior unsecured rating to the $3.0 billion Trust Certificate Issuance Programme  of DP World Crescent Limited ,&nbsp;..."
p7
aS"Moody's upgrades DP World's and JAFZ's ratings to Baa2; stable outlook Moodys.com   - Sep 2, 2016 London, 01 September 2016 -- Moody's Investors Service has upgraded the long-term issuer rating of DP World Limited  to Baa2 from Baa3 and the long-term issuer rating of Jebel Ali Free Zone FZE  to Baa2 from Baa3."
p8
aS'DP World launches MENA education programme Port Strategy - May 10, 2016 DP World is to launch an international education programme which focuses on trade and logistics to help ensure the future growth of the sector.'
p9
aS'DP World Expands in South Korea Port Technology International - Jan 3, 2017 DP World has acquired an additional 23.94% stake in Pusan Newport Company Limited , the largest terminal in the Port of Pusan in South Korea, from Samsung Corporation &amp; Subsidiaries to increase its holding to 66.03%.'
p10
a.