(lp0
S"Why Darden Restaurants, Inc. Stock Jumped Today Motley Fool - 13 hours ago Shares of Darden Restaurants, Inc.  were looking tasty to investors on Tuesday as the Olive Garden-parent surged after a strong third-quarter earnings report and on news that it would acquire casual-dining chain Cheddar's Scratch Kitchen.Darden Restaurants, Inc. Stock  Surges on Earnings Beat, Deal - Investorplace.comDarden Restaurants Inc : Immense Growth Potential? - Simply Wall St"
p1
aS"Darden Restaurants - Earnings Preview Seeking Alpha - Mar 24, 2017 According to Zacks Investment Research, this casual dining restaurant chain has beaten earnings estimates on an average of 2.6% over the last four quarters.Darden Restaurants to buy Cheddar's Scratch Kitchen for $780 million - Reuters UK"
p2
aS"BRIEF-Darden Restaurants to buy Cheddar's Scratch Kitchen for $780 mln Reuters - Mar 27, 2017 Darden Restaurants Inc - expects between $20 and $25 million of annualized pre-tax run rate synergies from deal by fiscal 2019."
p3
aS"Darden Restaurants Acquires Cheddar's Scratch Kitchen For $780 Million SeafoodNews  - 15 hours ago Darden Restaurants Acquires Cheddar's Scratch Kitchen For $780 Million SEAFOODNEWS.COM [Seafood News] - March 28, 2017 ORLANDO, Fla."
p4
aS"BUZZ-US STOCKS ON THE MOVE-Darden Restaurants, StoneMor Partners, Tesla ... Nasdaq - 11 hours ago N&gt;: up 8.4 pct at $81.96 UPDATE 1-Darden Restaurants to buy Cheddar's Scratch Kitchen [nL3N1H45EI] BUZZ-Set for best day in 8 yrs after deal [nL3N1H54X9] ** Home BancShares Inc &lt;HOMB.O&gt;: up 0.6 pct at $27.00 ** Stonegate Bank &lt;SGBK.O&gt;: up 3.4&nbsp;..."
p5
aS"Darden Restaurants Agrees To Acquire Cheddar's Scratch Kitchen For $780 ... PR Newswire  - Mar 27, 2017 ORLANDO, Fla., March 27, 2017 /PRNewswire/ -- Darden Restaurants, Inc.  today announced that it has agreed to acquire Cheddar's Scratch Kitchen  for $780 million in an all-cash transaction from its stockholders including private&nbsp;..."
p6
aS"Stocks under Consideration: Darden Restaurants, Inc. , Sirius XM ... TopChronicle - 14 hours ago Darden Restaurants, Inc.  is currently trading with the volume of 7.23 Million. The Stock opened today's session at $78.99 and currently the price is hovering at $81.77 by showing increase of 8.19 percent."
p7
aS"Is Darden Restaurants  a Great Stock for Value Investors? Yahoo Finance - Mar 20, 2017 Value investing is easily one of the most popular ways to find great stocks in any market environment. After all, who wouldn't want to find stocks that are either flying under the radar and are compelling buys, or offer up tantalizing discounts when ...Stock Price of Darden Restaurants, Inc.  Increases 3.37% - Highland MirrorDarden Restaurants, Inc.  Reaches $76.67 After 3.00% Up Move, GALP ... - MoneyMakingArticles"
p8
aS"The Zacks Analyst Blog Highlights: Children's Place, Rush Enterprises, Darden ... Yahoo Finance - Mar 3, 2017 Stocks recently featured in the blog include The Children's Place, Inc. , Rush Enterprises, Inc. , Darden Restaurants, Inc. , Dave &amp; Buster's Entertainment, Inc."
p9
aS'Analytical Guide for Fiserv, Inc. , Darden Restaurants, Inc. (DRI ... The USA Commerce - Mar 22, 2017 While trading at volume above than average, Darden Restaurants, Inc.  previous 52-week high was $78.82 and moved up 17.85% over the same period, trading at a volume of 1.38 million.'
p10
a.