(lp0
S'DURECT Corporation Announces Third Quarter 2016 Financial Results and Update ... PR Newswire  - Oct 31, 2016 CUPERTINO, Calif., Oct. 31, 2016 /PRNewswire/ -- DURECT Corporation  announced today financial results for the third quarter of 2016.'
p1
aS"DURECT Corporation Announces Update on DUR-928 Development Program PR Newswire  - Jan 30, 2017 30, 2017 /PRNewswire/ -- DURECT Corporation  today provided an update on the DUR-928 development program. DUR-928, our Epigenetic Regulator Program's lead product candidate, is an endogenous, small molecule, new chemical&nbsp;...DURECT says FDA wants more more drug-drug interaction data on lead candidate ... - Seeking Alpha"
p2
aS"DURECT Corporation Invites You to Join its Fourth Quarter 2016 Earnings ... PR Newswire  - Feb 24, 2017 CUPERTINO, Calif., Feb. 24, 2017 /PRNewswire/ -- In conjunction with DURECT Corporation's  fourth quarter 2016 financial results press release, you are invited to listen to a conference call that will be broadcast live over the internet ...To Buy Or Sell Durect Corporation  On Latest Analyst Consensus - Fiscal Standard"
p3
aS"Here's Why DURECT Corporation Is Tanking Today Motley Fool - Sep 26, 2016 Investors in DURECT Corporation , a specialty pharmaceutical company that develops anti-abuse drug technology, are having a rough start to the trading week.Company Update : Here's Why DURECT Corporation Shares Fall 30% - Smarter AnalystDurect Corp.  Stock Tumbles on FDA Opioid Analgesic Drug Rejection - TheStreet.com"
p4
aS"DURECT CORPORATION  Files An 8-K Other Events Market Exclusive - Mar 21, 2017 On March 20, 2017, Pain Therapeutics, Inc., DURECT's licensee for REMOXY ER, announced that it plans to resubmit the REMOXY ER NDA after completing two additional studies regarding REMOXY ER based on guidance following a recent meeting with&nbsp;...Remoxy epoxy? New guidance 'resin' to hope NDA sticks - BioWorld Online"
p5
aS'DURECT Corporation Announces Fourth Quarter and Full Year 2016 Financial ... PR Newswire  - Mar 14, 2017 ... to discuss fourth quarter 2016 results and provide a corporate update will be broadcast live over the internet at 4:30 p.m.DURECT Corporation  likely to see bigger moves on its earnings ... - Post Analyst'
p6
aS'Durect Corporation Seeking More Collaborations Seeking Alpha - Nov 15, 2016 Durect Corporation  is a small biopharmaceutical company  developing new therapeutics based on its Epigenetic Regulator Program  and proprietary long-acting drug delivery platforms.'
p7
aS'Durect Corp. DRRX  Wall Street Journal - Feb 11, 2011 DURECT Corporation Announces Fourth Quarter and Full Year 2016 Financial Results and Update of Programs. Press Release. 02/24/17; Press Release.'
p8
aS"DURECT Corporation  Settles Into New 52-Week Low on February 16 Session Equities.com - Feb 16, 2017 Shares of DURECT Corporation  sank into a new 52-week low yesterday, and could be a company to watch at the open. The company's stock fell to as low as $0.97 yesterday after opening at $0.99."
p9
aS'How To Trade Durect Heading Into Remoxy Decision Date Seeking Alpha - Aug 2, 2016 FDA decisions can make or break developmental-stage pharmaceutical companies. With millions of dollars invested in the development of a drug, an FDA decision represents the culmination of years of hard work and millions of dollars in investment.'
p10
a.