(lp0
S"DexCom Gains as CMS Announces Criteria for G5 Mobile CGM Nasdaq - Mar 27, 2017 The markets seem to be happy with South San Francisco, CA-based DexCom, Inc. DXCM . The company's stock price rallied 4.8% to close at $82.62 yesterday following its announcement, that the Centers for Medicare &amp; Medicaid Services  published&nbsp;...Watch List: DexCom, Inc.  , 8point3 Energy Partners LP  - NYSE Journal Mattel, Inc. , DexCom, Inc.  Top-Moving Stocks  Is ... - Wall Street Times "
p1
aS'Medicare Announces Criteria Covering Dexcom G5 Mobile CGM for All People with ... Yahoo Finance - Mar 24, 2017 DexCom, Inc. , the leader in continuous glucose monitoring  for people with diabetes, is pleased to announce that the U.S.'
p2
aS'DexCom, Inc.  to Post Q1 2017 Earnings of  Per Share, Northcoast ... Chaffey Breeze - 1 hour ago DexCom logo DexCom, Inc.  - Equities research analysts at Northcoast Research reduced their Q1 2017 earnings estimates for DexCom in a research note issued to investors on Wednesday, Zacks Investment Research reports.Institutions Attracted to This Stock; Holding Majority of Shares: DexCom, Inc ... - Midway MonitorLatest Stocks: The Renaissance Technologies LLC Invests $8217000 in DexCom ... - Petro Global News 24'
p3
aS'DexCom, Inc. Reports Fourth Quarter and Fiscal Year 2016 Financial Results Yahoo Finance - Feb 28, 2017 The link to the webcast will be available on the DexCom, Inc. website at www.dexcom.com by navigating to &quot;About Us,&quot; then &quot;Investor Relations,&quot; and then &quot;Events and Presentations,&quot; and will be archived for future reference.Richard Doubleday Sells 3182 Shares of DexCom, Inc.  Stock - BNB Daily '
p4
aS'Stock in Review: DexCom, Inc.  Rives Journal - 16 hours ago DexCom, Inc.  currently has a Gross Margin  ratio of 0.939424. Robert Novy-Marx has provided investors with insights on finding high-quality value stocks.'
p5
aS"What are Analyst's Indicators for DexCom, Inc. , OGE Energy Corp.  The USA Commerce - 17 hours ago Presently DexCom, Inc.  stock have an ABR of 1.56. This is built on a simplified 1 to 5 scale where 1 represents a Strong Buy and 5 a Strong Sell."
p6
aS'DexCom Inc.  Moves Higher on Volume Spike for March 24 Equities.com - Mar 24, 2017 DexCom Inc.  traded on unusually high volume on Mar. 24, as the stock gained 8.6% to close at $82.62. On the day, DexCom Inc. saw 1.49 million shares trade hands on 13,010 trades. Considering that the stock averages only a daily volume of&nbsp;...DexCom, Inc.  EVP Richard Doubleday Sells 3182 Shares - The Cerbat GemThe Oppenheimer Holdings Inc. Reiterates Buy Rating for DexCom, Inc.  - Petro Global News 24'
p7
aS'Between The Numbers: DexCom, Inc. , Great Plains Energy Incorporated  USA Commerce Daily - Mar 27, 2017 Shares of DexCom, Inc.  are making a strong comeback as they have jumped 43.24% since bottoming out at $57.68 on Jan. 04, 2017.'
p8
aS'Earnings Reaction History: DexCom, Inc., 71.4% Follow-Through Indicator, 6.4 ... Nasdaq - Feb 28, 2017 DexCom, Inc.  is due to issue its quarterly earnings report in the upcoming extended-hours session. Given its history, traders can expect light trading in the issue immediately following its quarterly earnings announcement.'
p9
aS"DexCom Appoints Richard Collins to Board of Directors Yahoo Finance - Mar 13, 2017 DexCom, Inc.  today announced that Richard Collins has been appointed to the company's Board of Directors, effective March 9, 2017.Average Brokerage Rating Of DexCom, Inc. , Robert Half International Inc ... - The USA Commerce"
p10
a.