(lp0
S'US Ecology Sells EQ Environmental Cleaning Unit waste360 - Aug 7, 2015 US Ecology Inc. has sold off one of the businesses it acquired with its purchase of EQ Holdings Inc. - Allstate Power-Vac Inc., an environmental cleaning firm.'
p1
aS"3 Reasons US Ecology Inc. Stock Could Fall Motley Fool - Mar 16, 2015 Take environmental services company U.S. Ecology  as an example. Treating and properly disposing of hazardous waste may not make your heart beat any faster, but there's no arguing with the steady market-beating returns handed to&nbsp;..."
p2
aS'A look at the fair value of US Ecology Inc  Simply Wall St - Feb 16, 2017 In this article I am going to calculate the intrinsic value of US Ecology  by taking the expected future cash flows and discounted them to the value today.'
p3
aS'US Ecology, Inc. Closes Acquisition of Ontario, Canada-Based Environmental ... Marketwired  - May 3, 2016 BOISE, ID-- - US Ecology, Inc.   today announced that it has acquired all of the stock of Environmental Service Inc., , an environmental services company based in Tilbury, Ontario, Canada.'
p4
aS'Traders Take Note: US Ecology Inc  Stock Drops, Weakness in ... CML News - Mar 27, 2017 Take Note: US Ecology Inc  has hit some technical weakness in its momentum, and while it has not broken down all the way through support -- watch the key levels that we discuss below and further, watch the stochastics and technical&nbsp;...'
p5
aS'Next Weeks Broker Price Targets For US Ecology, Inc.  Fiscal Standard - Mar 28, 2017 11/17/2016 - US Ecology, Inc. was downgraded to hold by analysts at Stifel Nicolaus. They now have a USD 48 price target on the stock.'
p6
aS'US Ecology Inc  Stake Increased by Comerica Bank The Cerbat Gem - Mar 24, 2017 US Ecology logo Comerica Bank boosted its position in US Ecology Inc  by 5.7% during the fourth quarter, according to its most recent filing with the SEC.US Ecology, Inc.  Reports Consolidated EPS Of $0.3538 - Equities Focus'
p7
aS'Fmr LLC Buys 10800 Shares of US Ecology Inc  The Cerbat Gem - Mar 25, 2017 US Ecology logo Fmr LLC increased its stake in US Ecology Inc  by 1.5% during the fourth quarter, according to its most recent 13F filing with the Securities and Exchange Commission .Dimensional Fund Advisors LP Purchases 8621 Shares of US Ecology Inc  - Chaffey Breeze'
p8
aS"Barclays Initiates Clean Harbors At Overweight, US Ecology At Equal Weight Benzinga - May 18, 2016 Barclays' Jon Windham initiated Clean Harbors Inc  at Overweight and US Ecology Inc  at Equal Weight with price targets of $58.00 and $48.00, respectively."
p9
aS'Dividend Diamond? Growth in Focus For US Ecology, Inc.  Business Review - Mar 27, 2017 US Ecology, Inc.  currently has a 10-year dividend growth rate of 1.84%. This number is calculated using the geometric average which provides the typical value of dividend growth over the specified period using the product of their values.'
p10
a.