(lp0
S'ExamWorks Completes Acquisition of ABI Document Support Services GlobeNewswire  - Jan 11, 2016 ATLANTA, GA., Jan. 11, 2016  -- ExamWorks Group, Inc. , a leading provider of independent medical examinations, peer reviews, bill reviews, Medicare compliance services, case management services, and other related&nbsp;...Examworks Group  Acquires ABI Document Support Services in $62M Deal - StreetInsider.com'
p1
aS'ExamWorks Completes Acquisition of Advanced Medical Reviews GlobeNewswire  - Jan 19, 2016 ATLANTA, GA., Jan. 19, 2016  -- ExamWorks Group, Inc. , a leading provider of independent medical examinations, peer reviews, bill reviews, Medicare compliance services, case management services, and other related&nbsp;...Examworks Group  Acquires Advanced Medical Reviews for $30M - StreetInsider.com'
p2
aS'Examworks Group, Inc.  Goes Private As $2.2 Billion Change Hands Market Exclusive - Jul 28, 2016 The acquisition journey that began several months ago and involved Examworks Group, Inc.  and a private-equity firm has come to completion.'
p3
aS'Robbins Arroyo LLP: Acquisition of ExamWorks Group, Inc.  by Leonard ... Business Wire  - Apr 27, 2016 SAN DIEGO &amp; ATLANTA----Shareholder rights attorneys at Robbins Arroyo LLP are investigating the proposed acquisition of ExamWorks Group, Inc.  by Leonard Green &amp; Partners, L.P. On April 27, 2016, the two companies&nbsp;...Leonard Green to Buy ExamWorks in $2.2 Billion Deal - Wall Street JournalExamWorks to be bought by Leonard Green in $2.2 billion deal - Reuters'
p4
aS'Broker Outlook For The Week Ahead ExamWorks Group, Inc.  Fiscal Standard - Mar 28, 2017 ExamWorks Group, Inc. is a provider of independent medical examinations , peer reviews, bill reviews, Medicare compliance, case management and other related services .'
p5
aS'ExamWorks Investors Seek Stock Appraisal After $2B Buyout Law360  - Aug 26, 2016 Law360, Wilmington  -- Investors in independent medical exam company ExamWorks Group Inc. petitioned the Delaware Chancery Court on Thursday to appraise the value of its shares now that the deal for Leonard Green&nbsp;...'
p6
aS"ExamWorks: The Case For Upside Seeking Alpha - Aug 19, 2013 IME's are conducted to verify the veracity of claims by sick or injured individuals, and are facilitated through the company's national physician network; the company captures a spread between what its clients pay to the company and what EXAM pays out ..."
p7
aS'ExamWorks: The Case For Downside Seeking Alpha - Jan 16, 2015 ExamWorks  operates in four countries: Australia, Canada, the United Kingdom and the United States. The company provides independent medical examinations , peer and bill reviews, and related services, including litigation support and&nbsp;...'
p8
aS"Here's What To Know About The Examworks Group, Inc.  Special Meeting Market Exclusive - Jul 27, 2016 Examworks Group, Inc.  held a special meeting of its stockholders on July 26 and the outcome paved the way for the company to continue with the process of selling itself to Leonard Green &amp; Parent LP.ExamWorks Announces Completion of Acquisition by Leonard Green &amp; Partners, LP - Yahoo Finance"
p9
aS'Contested Sale of ExamWorks Could Put Lawyers in Line of Fire New York Times - Jul 12, 2016 Now, a complaint arising from the recent $2.2 billion buyout of the ExamWorks Group focuses on a different kind of deal adviser.'
p10
a.