(lp0
S'Fauquier Bankshares, Inc. Declares Quarterly Dividend PR Newswire  - Feb 17, 2017 WARRENTON, Va., Feb. 17, 2017 /PRNewswire/ -- The Board of Directors of Fauquier Bankshares, Inc.  recently announced a quarterly dividend of $0.12 per share.'
p1
aS'Kevin T. Carter Joins Fauquier Bankshares, Inc. Board Of Directors PR Newswire  - Nov 18, 2016 WARRENTON, Va., Nov. 18, 2016 /PRNewswire/ -- Fauquier Bankshares, Inc.  is pleased to announce the appointment of Kevin T. Carter to its Board of Directors, as well as to the Board of Directors of its principal subsidiary, The Fauquier&nbsp;...'
p2
aS'The Fauquier Bank Welcomes New Chief Operating Officer PR Newswire  - Jun 30, 2016 WARRENTON, Va., June 30, 2016 /PRNewswire/ -- Fauquier Bankshares, Inc.  , parent company of The Fauquier Bank , is pleased to welcome the new Chief Operating Officer of the Company and the Bank,&nbsp;...'
p3
aS'Fauquier Bankshares, Inc.  Ex-Dividend Date Scheduled for March 15, 2017 Nasdaq - Mar 14, 2017 Fauquier Bankshares, Inc.  will begin trading ex-dividend on March 15, 2017. A cash dividend payment of $0.12 per share is scheduled to be paid on April 03, 2017.'
p4
aS'Fauquier Bankshares Names New President and Chief Executive Officer PR Newswire  - Feb 18, 2016 18, 2016 /PRNewswire/ -- Fauquier Bankshares, Inc.  , parent company of The Fauquier Bank , announced today that it has selected Marc J. Bogan as the new President of the Company and the Bank.The Fauquier Bank taps Bogan as its next president - Fauquier Now'
p5
aS'Fauquier Bankshares profit $3.67 million for last year Fauquier Now - Feb 13, 2017 While the 2016 financials clearly show dramatic improvement in the comparative year over year results, our belief is we still have a long way to go to achieve our short-term objective of being a high performing community bank and a top performer ...'
p6
aS"Insider Trading Activity Fauquier Bankshares, Inc.   CFO Sold ... Market Exclusive - Mar 2, 2017 Eric Peter Graap , CFO of Fauquier Bankshares, Inc.  reportedly Sold 437 shares of the company's stock at an average price of 17.9 for a total transaction amount of $7,822.30 SEC Form."
p7
aS"Insider Trading Activity Fauquier Bankshares, Inc.   Director ... Market Exclusive - Feb 28, 2017 Donna D Flory , Director of Fauquier Bankshares, Inc.  reportedly Bought 567 shares of the company's stock at an average price of 17.75 for a total transaction amount of $10,064.25 SEC Form.Fauquier Bankshares, Inc.  Director Buys $10064.25 in Stock - Community Financial News"
p8
aS"Fauquier Bankshares, Inc. StreetInsider.com - Mar 27, 2017 On March 22, 2017, Fauquier Bankshares, Inc.  informed Smith Elliott Kearns &amp; Company, LLC  that SEK is dismissed as the Company's independent registered public accounting firm effective as of March 27, 2017."
p9
aS'Graap retiring; Headly next Fauquier Bankshares CFO Fauquier Now - Jun 29, 2016 When Eric Graap retires in September, Christine Headly will succeed him as executive vice president and chief financial officer. Fauquier Bankshares Inc. this week announced a planned change in its second-ranking executive position, chief financial ...'
p10
a.