(lp0
S"Analyst's Proposition on Forum Energy Technologies, Inc. , FireEye, Inc ... The USA Commerce - Mar 27, 2017 Shares of Forum Energy Technologies, Inc.  surged 0.81% to $18.75. During the trading on 03/24/2017, Company's stock ranged from $19.10 to $18.65.Envestnet Asset Management Inc. Acquires 642 Shares of Forum Energy ... - The Cerbat GemNoticeable Buzzer: Forum Energy Technologies, Inc.'s  - Is stories"
p1
aS'Equity Focus: Looking at Shares of Forum Energy Technologies Inc  Baxter Review - 17 hours ago Shares of Forum Energy Technologies Inc  currently have a 14-day ADX of 16.93. The ADX was developed by J. Welles Wilder to help determine trend strength.'
p2
aS'Levels in Review for Forum Energy Technologies, Inc.  Baldwin Journal - 14 hours ago Many investors may be looking to track stock price momentum by looking at different historical information. Forum Energy Technologies, Inc.  currently has a 6 month price index of 0.95213. The six month price index is simply measured by ...'
p3
aS'Forum Energy Technologies Acquires Cooper Valves and Innovative Valve Components Business Wire  - Jan 9, 2017 HOUSTON----Forum Energy Technologies, Inc.  announced today that it has acquired the assets of Cooper Valves and a 100% ownership interest in Innovate Valve Components.'
p4
aS'Shares in Review: Forum Energy Technologies, Inc.  Rives Journal - 12 hours ago Forum Energy Technologies, Inc.  currently has a Gross Margin  ratio of 0.054346. Robert Novy-Marx has provided investors with insights on finding high-quality value stocks.'
p5
aS'Forum Energy Technologies, Inc.  technical charts are presenting a bleak ... USA Commerce Daily - 18 hours ago With all other things going on, Forum Energy Technologies, Inc.  has been on a free fall - declining -18.49 percent in just three months.'
p6
aS'Forum Energy Technologies  Q4 2016 Results - Earnings Call Transcript Seeking Alpha - Feb 10, 2017 Good day, ladies and gentlemen, and thank you for standing by. Welcome to the Forum Energy Technologies, Inc. Q4 2016 earnings conference call.Forum Energy Technologies, Inc.  Releases Earnings Results, Beats ... - Sports Perspectives'
p7
aS"Analyst's Predictions on Forum Energy Technologies, Inc. , New Senior ... StockNewsJournal - Mar 23, 2017 ROI deals with the invested cash in the company and the return the investor realize on that money based on the net profit of the business.State Street Corp Has $33937000 Stake in Forum Energy Technologies Inc  - Sports Perspectives"
p8
aS'Forum Energy Technologies Announces CEO Succession Yahoo Finance - Feb 20, 2017 Forum Energy Technologies, Inc.  announced today that as part of a long planned transition its Board of Directors appointed Mr. Prady Iyyanki as President and Chief Executive Officer, effective May 16, 2017.Forum Energy Technologies Names Prady Iyyanki President, CEO, Effective May 16 - NasdaqBarclays PLC Reiterates $24.00 Price Target for Forum Energy Technologies, Inc ... - BNB Daily '
p9
aS'Forum Energy Technologies Announces Acquisition of a Wholesale Completion ... Business Wire  - Apr 29, 2016 HOUSTON----Forum Energy Technologies, Inc.  announced today that it has acquired the wholesale completion packer business of Team Oil Tools, Inc. The business designs, manufactures and sells a wide variety of completion&nbsp;...'
p10
a.