(lp0
S'Stock Returns: Heritage Oaks Bancorp  is Beating Flushing ... CML News - Mar 27, 2017 This is a snapshot to compare the stock returns for Flushing Financial Corporation  versus Heritage Oaks Bancorp  .Next Weeks Broker Price Targets For Flushing Financial Corporation  - Fiscal StandardFlushing Financial Corporation  Reviewed By Analysts - The De Soto Edge'
p1
aS'Flushing Financial Corporation  Ex-Dividend Date Scheduled for March 08 ... Nasdaq - Mar 7, 2017 Flushing Financial Corporation  will begin trading ex-dividend on March 08, 2017. A cash dividend payment of $0.18 per share is scheduled to be paid on March 31, 2017.Flushing Financial Co.  To Go Ex-Dividend on March 8th - BBNS'
p2
aS"Flushing Financial Corporation's David W. Fry, Chief Financial Officer, to ... GlobeNewswire  - Feb 1, 2016 UNIONDALE, N.Y., Feb. 01, 2016  -- Flushing Financial Corporation  , the parent holding company for Flushing Bank , announced David W. Fry will be retiring as Senior Executive Vice President&nbsp;..."
p3
aS'Flushing Bank Receives Favorable Rating from Kroll Bond Rating Agency GlobeNewswire  - Nov 15, 2016 UNIONDALE, N.Y., Nov. 15, 2016  -- Flushing Financial Corporation  , the parent holding company for Flushing Bank , announced today that the Bank has received favorable ratings for both the&nbsp;...'
p4
aS'Flushing Financial Corporation Risk Points versus Financials CML News - Mar 24, 2017 This is a scatter plot analysis of the critical risk points from the option market for Flushing Financial Corporation  compared to its own past and the Financials ETF.'
p5
aS'Flushing Financial Corporation Appoints Alfred A. DelliBovi to Board of Directors GlobeNewswire  - Jun 18, 2014 LAKE SUCCESS, N.Y., June 18, 2014  -- Flushing Financial Corporation  , the parent holding company for Flushing Bank , announced today the appointment of Alfred A. DelliBovi to its Board of&nbsp;...'
p6
aS'Stock Volatility Risk Alert: Flushing Financial Corporation Stock Volatility ... CML News - Mar 23, 2017 Before we cover the full analysis we make a quick alert here that Flushing Financial Corporation  has seen its stock price whip around at an unsually high level.'
p7
aS'Flushing Financial Corporation  Files An 8-K Regulation FD Disclosure Market Exclusive - Mar 1, 2017 Flushing Financial Corporation, the parent holding company for Flushing Bank , today announced that the Board of Directors declared a quarterly dividend on its common stock of $0.18 per common share, payable on March 31, 2017 to&nbsp;...'
p8
aS'Flushing Bank Sells Building on Northern Boulevard in Flushing GlobeNewswire  - Dec 1, 2016 UNIONDALE, N.Y., Dec. 01, 2016  -- Flushing Financial Corporation  , the parent holding company for Flushing Bank , announced today that the Bank has sold its property at 159-18 Northern&nbsp;...'
p9
aS"Flushing Financial Corporation's David Fry, Chief Financial Officer, to Retire ... GlobeNewswire  - Oct 30, 2015 UNIONDALE, N.Y., Oct. 30, 2015  -- Flushing Financial Corporation  , the parent holding company for Flushing Bank , today announced that David Fry will retire as Senior Executive Vice&nbsp;..."
p10
a.