(lp0
S"BRIEF-FEMALE HEALTH COMPANY REPORTS Q1 LOSS PER SHARE $0.04 Reuters - Feb 9, 2017 Reuters is the news and media division of Thomson Reuters. Thomson Reuters is the world's largest international multimedia news agency, providing investing news, world news, business news, technology news, headline news, small business news, news&nbsp;..."
p1
aS'The Female Health Company Successfully Completes Transformational Merger With ... GlobeNewswire  - Oct 31, 2016 CHICAGO and NEW YORK, Oct. 31, 2016  -- The Female Health Company   today announced that it has successfully completed a transformational merger with Aspen Park Pharmaceuticals, Inc.  under&nbsp;...'
p2
aS'The Female Health Company / Veru Healthcare Appoints Brian J. Groch as Chief ... GlobeNewswire  - Jan 5, 2017 MIAMI, Jan. 05, 2017  -- The Female Health Company / Veru Healthcare  today announced the appointment of Brian J. Groch as Chief Commercial Officer, effective January 1, 2017.'
p3
aS'The Female Health Co  Announces US Launch of PREBOOST for Premature ... StreetInsider.com - Jan 6, 2017 The Female Health Company / Veru Healthcare  today announced the U.S. launch of PREBOOST  that helps in the prevention of premature ejaculation .'
p4
aS'Female Health Company: A Stock That Just Turned Into An Option Seeking Alpha - Apr 6, 2016 On the surface, the shareholders of FHCO still own 55% of the stake in the merged company, but the economics show that the primary business has completely changed.Merger Announcement Turns Painful for The Female Health Company  - Economic CalendarMerger Agreement Between The Female Health Company and Aspen Park ... - Equities.com'
p5
aS'BRIEF-Female Health Co initiates bioequivalence clinical trial Reuters - Mar 9, 2017 LONDON, March 21 Google vowed on Tuesday to police its websites better by ramping up staff numbers and overhauling its policies after several companies deserted the internet giant for failing to keep their adverts off hate-filled videos.'
p6
aS'Insider Trading Activity Female Health Co   CFO Bought 7931 ... Market Exclusive - Feb 28, 2017 On 9/17/2012 Stephen M Dearholt, Director Sell, 25,000 $7.02 with an average share price of $175,500.00 View SEC Filing 8/9/2012 per share and the total transaction amounting to Michael Pope.'
p7
aS'BRIEF-Female Health Company launches PREBOOST for premature ejaculation Reuters - Jan 6, 2017 NEW YORK, Jan 26 Fund managers, central banks and other indirect bidders bought a record share of U.S. seven-year Treasury notes at an auction on Thursday, as a recent rise in yields enticed bargain-minded market participants, Treasury data showed.'
p8
aS'Interview: Veru Healthcare CEO Dr. Mitchell Steiner Seeking Alpha - Jan 9, 2017 Seeking Alpha Contributor Travis Brown spoke with Veru Healthcare/The Female Health Company  CEO Dr. Mitchell S. Steiner in a telephone interview.'
p9
aS"Is Now the Time to Buy Female Health Co ? A Look at What the Technicals ... Pearson Press - 6 hours ago Shares of Female Health Co  have been given a Buy trend by TrendSpotter, a computer-driven analysis system which uses wave theory, momentum and volatility to determine a given stock's trend."
p10
a.