(lp0
S"Analyst's Proposition on First Horizon National Corporation , Western ... The USA Commerce - Mar 27, 2017 Shares of First Horizon National Corporation  dropped -0.11% to $18.18. During the trading on 03/24/2017, Company's stock ranged from $18.42 to $18.03.Big Banks Continue to be Large Stakeholders in First Horizon National ... - Midway MonitorBurning Stock on the move: First Horizon National Corporation  - HugoPress"
p1
aS'What First Horizon National Corporation  And Its Chart Reveal Today NY Stock News - 19 hours ago The technicals for First Horizon National Corporation  have taken shape, and with them a comprehensive picture has emerged.'
p2
aS'First Horizon National Corporation  Ex-Dividend Date Scheduled for March ... Nasdaq - Mar 7, 2017 First Horizon National Corporation  will begin trading ex-dividend on March 08, 2017. A cash dividend payment of $0.09 per share is scheduled to be paid on April 03, 2017.'
p3
aS'RSI Alert: First Horizon National  Now Oversold Nasdaq - Mar 21, 2017 In trading on Tuesday, shares of First Horizon National Corp  entered into oversold territory, hitting an RSI reading of 29.2, after changing hands as low as $17.89 per share.'
p4
aS'First Horizon National Corporation  Moves Higher on Volume Spike for March 23 Equities.com - Mar 23, 2017 First Horizon National Corporation  traded on unusually high volume on Mar. 23, as the stock gained 0.89% to close at $18.20.First Horizon National Corporation performed Very Well with a change of 0.78 ... - Free ObserverUnusual Volume Spikes For: First Horizon National Corporation  - HugoPress'
p5
aS"Featured Stock Update: First Horizon National Corporation  HugoPress - Mar 20, 2017 JP Morgan Upgrades First Horizon National Corporation 's stock to Overweight with no specific Price Target. This rating was issued on 1/05/17.Zacks Provided 2.45 Rating to First Horizon National Corporation  - The Newburgh PressTraders Secrets on Groupon, Inc. , First Horizon National Corporation  - StockNewsJournal"
p6
aS'First Horizon National Corporation  technical charts are presenting a ... USA Commerce Daily - Mar 23, 2017 With all other things going on, First Horizon National Corporation  has been on a free fall - declining -8.24 percent in just three months.'
p7
aS'Is It Time to go for First Horizon National Corp. , Box, Inc. ? StockNewsJournal - Mar 2, 2017 First Horizon National Corporation , at its latest closing price of $20.76, it has a price-to-book ratio of 2.01, compared to an industry average at 2.25.'
p8
aS"First Horizon named one of nation's best companies for women GlobeNewswire  - Mar 14, 2017 MEMPHIS, Tenn., March 14, 2017  -- First Horizon National Corp. , parent company of First Tennessee Bank, has been honored by the National Association for Female Executives for being one of the 2017 NAFE Top 60&nbsp;..."
p9
aS"Analyst's Proposition on First Horizon National Corporation , Tangoe, Inc ... The USA Commerce - Mar 17, 2017 Presently First Horizon National Corporation  stock have an ABR of 2.45. This is built on a simplified 1 to 5 scale where 1 represents a Strong Buy and 5 a Strong Sell."
p10
a.