(lp0
S'Traders Take Note: First Interstate BancSystem Inc  Stock Drops ... CML News - 19 hours ago Take Note: First Interstate BancSystem Inc  has hit some technical weakness in its momentum, and while it has not broken down all the way through support -- watch the key levels that we discuss below and further, watch the stochastics and&nbsp;...'
p1
aS'FIRST INTERSTATE BANCSYSTEM, INC.  Files An 8-K Other Events Market Exclusive - Mar 24, 2017 On March 24, 2017, First Interstate BancSystem, Inc. , the holding company for First Interstate Bank, announced that all required regulatory approvals have been obtained to complete its acquisition of Cascade Bancorp and its wholly ...Stock Returns: First Interstate BancSystem Inc  versus State Bank ... - CML NewsThe First Interstate Bancsystem Inc  Stake Lowered by Federated ... - Petro Global News 24'
p2
aS'First Interstate BancSystem, Inc. Agrees to Acquire Flathead Bank of Bigfork ... Business Wire  - Apr 6, 2016 BILLINGS, Mont. &amp; BIGFORK, Mont.----First Interstate BancSystem, Inc. , parent company of First Interstate Bank, and Flathead Bank of Bigfork , wholly owned by Flathead Holding&nbsp;...First Interstate to buy Flathead Bank in western Montana - Billings GazetteFirst Interstate to acquire Flathead Bank - KTVQ.com | Q2 | Continuous News ... - KTVQ Billings News'
p3
aS"First Interstate Bank: A story of growth Great Falls Tribune - Aug 13, 2015 First Interstate Bank's roots stretch back almost 50 years ago when a newly-retired Kiewit construction company executive was asked to serve on the board of the Kansas City branch of the Federal Reserve Bank."
p4
aS'First Interstate BancSystem  Completes Flathead Bank Acquisition StreetInsider.com - Aug 15, 2016 First Interstate BancSystem, Inc.  announced that, effective August 12, 2016, First Interstate Bank completed its acquisition of Flathead Bank of Bigfork, Montana , the wholly owned subsidiary of Flathead Holding Company ...'
p5
aS'First Interstate BancSystem Inc.  Plunges 6.2% on March 21 Equities.com - Mar 21, 2017 First Interstate BancSystem Inc.  had a rough trading day for Tuesday March 21 as shares tumbled 6.2%, or a loss of $-2.55 per share, to close at $38.60.Latest Stocks: The First Interstate Bancsystem Inc  CEO Purchases ... - Petro Global News 24A Technical Look At 2 Stocks: Sonic Automotive, Inc. , First Interstate ... - Post Analyst'
p6
aS'First Interstate BancSystem Acquires Cascade Bancorp Big Sky Business Journal - Nov 17, 2016 First Interstate BancSystem, Inc. has acquired Cascade Bancorp, parent company of Bank of Cascades. The transaction involved cash and stock for approximately $589 million , or $7.60 per share based on the First Interstate closing price of $38.30 per ...'
p7
aS"First Interstate BancSystem, Inc. , Brooks Automation, Inc.  Stock ... The USA Commerce - Mar 23, 2017 Shares of First Interstate BancSystem, Inc.  dropped -0.13% to $38.55. During the trading on 03/22/2017, Company's stock ranged from $38.60 to $37.50."
p8
aS'Insider Trading Activity First Interstate Bancsystem Inc   CEO ... Market Exclusive - Mar 15, 2017 On 11/9/2012 William B Ebzery, Director, bought 2,000 with an average share price of $14.21 per share and the total transaction amounting to $28,420.00.Short interest Of First Interstate BancSystem, Inc.  At 2051401 - Markets DailyFirst Interstate Bancsystem Inc  Files Form 4 Insider Selling : Kevin P ... - Energy Index'
p9
aS'First Interstate BancSystem Inc.  Breaks into New 52-Week High on ... Equities.com - Feb 24, 2017 Shares of First Interstate BancSystem Inc.  broke into a new 52-week high yesterday, hitting a peak of $44.50. Shares closed at $44.20 after opening at $43.70 for a move of 0.11%.'
p10
a.