(lp0
S"Did Fair Isaac Corporation  Create Value For Shareholders? Simply Wall St - Mar 4, 2017 Fair Isaac Corporation  delivered 30.4% ROE in the last year. However, to put Fair Isaac's Return on Equity in perspective, we must compare it to the performance of its industry, which averaged an ROE of 23.96%.Fair Isaac Corporation  Registers a Net Consolidated EPS Of $3.516 - Equities FocusToday Fair Isaac Corporation  Releases FY17 Earnings Guidance - DailyQuint"
p1
aS'Traders Take Note: Fair Isaac Corporation  Stock Drops, Weakness in ... CML News - Mar 25, 2017 Take Note: Fair Isaac Corporation  has hit some technical weakness in its momentum, and while it has not broken down all the way through support -- watch the key levels that we discuss below and further, watch the stochastics and technical&nbsp;...'
p2
aS'Fair Isaac Corporation  Ex-Dividend Date Scheduled for March 01, 2017 Nasdaq - Feb 28, 2017 Fair Isaac Corporation  will begin trading ex-dividend on March 01, 2017. A cash dividend payment of $0.02 per share is scheduled to be paid on March 17, 2017.Fair Isaac Corporation  To Go Ex-Dividend on March 1st - Chaffey Breeze'
p3
aS'Institutions Attracted to This Stock; Holding Majority of Shares: Fair Isaac ... Midway Monitor - 9 hours ago Based on the lastest quarterly filings, institutions continue to be large stakeholders in Fair Isaac Corporation .Market Spotlight: Focusing on Shares of Fair Isaac Corporation  - Searcy News'
p4
aS'Stock Levels in View for Fair Isaac Corporation  Rives Journal - 10 hours ago Fair Isaac Corporation  currently has a Gross Margin  ratio of 0.512826. Robert Novy-Marx has provided investors with insights on finding high-quality value stocks.'
p5
aS'How Analysts See Fair Isaac Corporation  Perform In Next 12 Months? Simply Wall St - Oct 26, 2016 Based on the latest analyst predictions Fair Isaac Corporation  is estimated to grow its earnings 4.4% over the next year.'
p6
aS'Brokerage Analyst Weighing in on Fair Isaac Corporation  Aiken Advocate - 14 hours ago Sell-side analysts that cover the company currently have a consensus target price of $130 on shares. The target includes estimates from 2 analysts that were polled by Zacks Research.'
p7
aS'Dividend Growth and Technical Update on Fair Isaac Corporation  Business Review - Mar 27, 2017 Fair Isaac Corporation  currently has a 10-year dividend growth rate of 0.00%. This number is calculated using the geometric average which provides the typical value of dividend growth over the specified period using the product of their values.'
p8
aS'Share Watch: Examining the Levels for Fair Isaac Corporation  The Standard - Mar 28, 2017 Tracking shares of Fair Isaac Corporation , the company has a current EV  of 4560505. Enterprise Value measures the total value of a specific company.'
p9
aS'Fair Isaac Has Significant Upside On Tonbeller Acquisition Seeking Alpha  - Feb 12, 2015 Fair Isaac Corp. , commonly known as FICO, is a $2.45 billion company with significant growth opportunities.'
p10
a.