(lp0
S"FMC Corp.: BASF Says No To Acquiring FMC  Seeking Alpha - 21 hours ago With most major agricultural chemical/seed companies attempting to merge, it is without question that FMC's takeover potential remains intact."
p1
aS'FMC Corporation  Ex-Dividend Date Scheduled for March 29, 2017 Nasdaq - 17 hours ago FMC Corporation  will begin trading ex-dividend on March 29, 2017. A cash dividend payment of $0.165 per share is scheduled to be paid on April 20, 2017.Trade of the Day: FMC Corp  Stock Keeps Growing - Investorplace.comBrokerages Set FMC Corp  Price Target at $59.39 - The Cerbat Gem'
p2
aS'Why Is FMC Corp  Up 3.6% Since the Last Earnings Report? Nasdaq - Mar 9, 2017 It has been about a month since the last earnings report for FMC Corporation FMC . Shares have added about 3.6% in that time frame, outperforming the market.The FMC Corp  Research Coverage Started at Royal Bank of Canada - DailyQuint'
p3
aS'Baird Starts FMC Corp.  at Neutral StreetInsider.com - Mar 22, 2017 Baird initiates coverage on FMC Corp.  with a Neutral rating and a price target of $67.00. Analyst Ben Kallo commented, &quot;FMC is a quality specialty chemical company which produces agricultural, health and nutrition, and lithium products.Analyst Activity  Robert W. Baird Initiates Coverage On FMC Corp (NYSE:FMC ... - Market ExclusiveFMC Corporation  Moves Higher on Volume Spike for March 22 - Equities.com'
p4
aS'FMC Corporation Is A Solid Buy Seeking Alpha - Mar 14, 2017 FMC Corporation  presents a stable way to buy into the lithium movement. The company is expected to grow substantially yet maintains a fair value.FMC Corp  Receives Buy Rating from Longbow Research - Chaffey BreezeFMC Corp  Stock Rating Reaffirmed by Longbow Research - BBNS'
p5
aS"FMC Corp.  April 60 active on reports Germany's BASF looked into ... StreetInsider.com - Mar 22, 2017 FMC Corp.  April 60 calls are active on total call volume of 13,460 contracts on reports from Reuters Germany's BASF looked into acquiring the company last year."
p6
aS"BRIEF-Nemaska says FMC Corp makes US$10 mln payment per lithium carbonate ... Reuters - Mar 22, 2017 March 22 Two U.S. lawmakers sent a letter on Wednesday to PTC Therapeutics Inc, seeking information about the drugmaker's pricing strategy for its recently acquired muscle-wasting disorder drug."
p7
aS'Analyst Activity  Royal Bank of Canada Reiterates Buy on FMC Corp  Market Exclusive - Mar 22, 2017 Today, Royal Bank of Canada reiterated its Buy rating on FMC Corp  with a price target of $71.00. There are 8 hold ratings, 6 buy ratings on the stock.'
p8
aS'Analyst Activity  Longbow Research Reiterates Buy on FMC Corp  Market Exclusive - Mar 13, 2017 On 12/15/2016 FMC Corp announced a quarterly dividend of $0.17 1.15% with an ex dividend date of 12/28/2016 which will be payable on 1/19/2017.Stock Price of FMC Corporation  Increases 1.3% - Energy Index'
p9
aS'Reuters: BASF looked into acquiring FMC Corp. last year Seeking Alpha - Mar 22, 2017 BASF  is the only player left among global seeds and pesticides companies worth more than $100B that has not paired up with a major peer, but Reuters reports the company last year looked into acquiring U.S.'
p10
a.