(lp0
S"Fabrinet Gets Rating Upgrade As Builds Right Side Of New Base Investor's Business Daily - 15 hours ago Fabrinet  saw its IBD SmartSelect Composite Rating rise to 96 Tuesday, up from 93 the day before. The 96 rating means the Cayman Islands-based company is now outperforming 96% of all stocks in terms of the most important fundamental and technical&nbsp;..."
p1
aS'Fabrinet : Is it now really a good time to buy? Simply Wall St - Mar 24, 2017 Fabrinet  is considered a high growth stock but some investors are starting to doubt its last closing price of $41.81 can be still justified by the high growth potential.New York State Teachers Retirement System Has $1052000 Position in Fabrinet  - BNB Daily The Fabrinet  Given Average Recommendation of Buy by Brokerages - Petro Global News 24'
p2
aS'Fabrinet: Buying On Weakness Seeking Alpha - Jan 4, 2017 For Q1 2017, which was a week longer than Q1 2016, Fabrinet reported revenue of $332 million, up 53% year-over-year , and earnings per share of $0.80, which beat estimates by 9 cents and was a substantial increase over Q1 2016 and Q4 2016.'
p3
aS'Fabrinet: What To Expect In The Weeks Ahead Seeking Alpha - Jan 24, 2017 Fabrinet  is slated to announce its Q2 2017 earnings results in early February in what I expect to be another solid report for the company.'
p4
aS'Fabrinet Announces Acquisition of Exception Global CEM Solutions Ltd. Business Wire  - Sep 15, 2016 BANGKOK----Fabrinet , a leading provider of advanced optical packaging and precision optical, electro-mechanical and electronic manufacturing services to original equipment manufacturers of complex products, today&nbsp;...'
p5
aS'Trading Scope: Checking on Shares of Fabrinet  Baldwin Journal - 9 hours ago Fabrinet  currently has a 6 month price index of 0.98346. The six month price index is easily measured by dividing the current share price by the share price six months ago.'
p6
aS'Shares in Focus: Fabrinet  Rives Journal - 10 hours ago Fabrinet  currently has a Gross Margin  ratio of 0.156116. Robert Novy-Marx has provided investors with insights on finding high-quality value stocks.'
p7
aS"Needham &amp; Company Upgrades Fabrinet  to Strong Buy; Sees 'Beat and Raise' StreetInsider.com - Jan 17, 2017 Analyst Alex Henderson commented, &quot;Fabrinet has corrected along with other optical names over the last month. We think year-end profit taking has run its course and these shares should benefit as investors focus back on company specific fundamentals."
p8
aS'Fabrinet Hits A Home Run Yet Again Seeking Alpha - Feb 9, 2017 Fabrinet  reported Q2 2017 earnings results on Monday, and despite strong performance on the top and bottom lines, the stock remains stagnant.'
p9
aS"Lumentum, Acacia, Finisar, Fabrinet Lead Fiber-Optics Stock Gains Investor's Business Daily - Feb 13, 2017 But the breakout Monday came from Fabrinet , which provides optical packaging and is in IBD's Electronics-Contract Manufacturing group."
p10
a.