(lp0
S'FNF Group of Fidelity National Financial, Inc.  Upgraded at Zacks ... BNB Daily  - 20 hours ago Zacks Investment Research upgraded shares of FNF Group of Fidelity National Financial, Inc.  from a sell rating to a hold rating in a report issued on Wednesday morning.Insider Trading at FNF Group of Fidelity National Financial Inc.? - BBNSFNF Group of Fidelity National Financial, Inc.  Reaches $38.80 52-Week ... - MoneyMakingArticles'
p1
aS'FNF Group of Fidelity National Financial Inc.  Moves Higher on Volume ... Equities.com - Mar 24, 2017 FNF Group of Fidelity National Financial Inc.  traded on unusually high volume on Mar. 24, as the stock gained 0.21% to close at $38.55.Insider Trading Activity FNF Group of Fidelity National Financial, Inc. (NYSE ... - Market Exclusive'
p2
aS'FNF Group of Fidelity National Financial Inc.  Moves Lower on Volume ... Equities.com - Mar 21, 2017 FNF Group of Fidelity National Financial Inc.  traded on unusually high volume on Mar. 21, as the stock lost 0.39% to close at $38.27.The FNF Group of Fidelity National Financial, Inc.  Stake Raised by GSA ... - Petro Global News 24FNF Group of Fidelity National Financial, Inc.  Reaches $38.88 52-Week ... - Herald KS'
p3
aS'FNF Group of Fidelity National Financial Inc.  Moves Higher on Volume ... Equities.com - Mar 16, 2017 FNF Group of Fidelity National Financial Inc.  traded on unusually high volume on Mar. 16, as the stock gained 1.87% to close at $38.20.Zacks Rank on Fidelity National Financial, Inc.  based on Estimated Earnings - Highland MirrorWhich insiders are selling Fidelity National Financial, Inc. ? - Post Analyst'
p4
aS'Fidelity National Financial  Q4 2016 Results - Earnings Call Transcript Seeking Alpha - Feb 2, 2017 Because such statements are based on expectations as to future financial and operating results and are not statements of fact, actual results may differ materially from those projected.'
p5
aS"Fidelity National Financial  Board Approves Plan to Distribute Black ... StreetInsider.com - Dec 7, 2016 Fidelity National Financial, Inc.  announced that its Board of Directors has approved a tax-free plan  whereby  it intends to distribute all 83.3 million shares of Black Knight Financial Services Inc.  common stock ...Jacksonville's Black Knight, FNFV to become standalone companies - Jacksonville Business JournalFidelity to relinquish control of Black Knight - The Title Report "
p6
aS'Fidelity National Financial, Inc.  Ex-Dividend Date Scheduled for March ... Nasdaq - Feb 14, 2017 Fidelity National Financial, Inc.  will begin trading ex-dividend on March 15, 2017. A cash dividend payment of $0.25 per share is scheduled to be paid on March 31, 2017.'
p7
aS'Fidelity National Financial  Q3 2016 Results - Earnings Call Transcript Seeking Alpha - Nov 3, 2016 William P. Foley II - Fidelity National Financial, Inc. Thank you, Dan. This was another strong quarter in our title insurance business as we generated adjusted pre-tax title earnings of $295 million and a 15.8% adjusted pre-tax title margin.'
p8
aS"Fidelity National Financial, Inc. Announces Appointment of Mike Nolan to President PR Newswire  - Nov 2, 2015 In addition to his role as President, Nolan will continue to have responsibility for the Eastern Operations of Fidelity National Title Group  and become involved in FNF's investor relations efforts. Nolan has more than 30 years of experience ..."
p9
aS'Overbuying Stock under Radar: FNF Group of Fidelity National Financial, Inc ... Post Registrar - Feb 9, 2017 FNF Group of Fidelity National Financial, Inc.  share price soared 1.92% or +0.70 points to reach at $37.14 during previous trading session.Intraday Movers: PayPal Holdings, Inc.  , Fidelity National ... - NYSE Journal '
p10
a.