(lp0
S'First Merchants Corp  and Arlington Bank Announce Merger Agreement StreetInsider.com - Jan 25, 2017 First Merchants Corporation , First Merchants Bank, a wholly-owned subsidiary of First Merchants Corporation, and The Arlington Bank announced they have executed a definitive merger agreement whereby The Arlington Bank will merge&nbsp;...First Merchants buying The Arlington Bank - Seeking Alpha'
p1
aS'First Merchants Corporation  Ex-Dividend Date Scheduled for March 01, 2017 Nasdaq - Feb 28, 2017 First Merchants Corporation  will begin trading ex-dividend on March 01, 2017. A cash dividend payment of $0.15 per share is scheduled to be paid on March 17, 2017.First Merchants Co.  To Go Ex-Dividend on March 1st - Sports PerspectivesThe First Merchants Corporation  To Go Ex-Dividend on March 1st - DailyQuint'
p2
aS'First Merchants Corporation Announces Record Third Quarter 2016 Results Muncie Journal  - Nov 2, 2016 Muncie, INFirst Merchants Corporation  reported record third quarter 2016 net income of $21.1 million, compared to $17.1 million during the third quarter of 2015.'
p3
aS"BRIEF-First merchants corporation and Arlington Bank signs a definitive merger ... Reuters - Jan 25, 2017 March 27 Global banks have warned they could move thousands of jobs out of Britain to prepare for the expected disruption caused by the country's exit from the European Union, endangering London's status as a major financial centre."
p4
aS'EPS Projection Of First Merchants Corporation  At $0.68 RealistInvestor.com - 17 hours ago First Merchants Corporation  is likely to account quarterly earnings of $0.68, which can come on 2017-04-25. It should be learned that projections, as open by Zacks differ compared to estimates of Thomson Reuters.'
p5
aS"First Merchants Corporation  Moves Higher on Volume Spike for March 01 Equities.com - Mar 1, 2017 First Merchants Corporation  traded on unusually high volume on Mar. 01, as the stock gained 1.75% to close at $40.67.First Merchants Corporation's  stock price is Worth at $40.67 while ends ... - Hot Stocks PointRenaissance Technologies LLC Acquires 5551 Shares of First Merchants Co.  - Sports Perspectives"
p6
aS'First Merchants Names Scott McKee to Lead Muncie-East Region Muncie Journal  - Sep 27, 2016 Muncie, IN First Merchants Bank, a subsidiary of First Merchants Corporation, is pleased to announce Scott McKee has been named regional president for the Muncie/East region.'
p7
aS'Next Weeks Broker Price Targets For First Merchants Corporation  Fiscal Standard - Mar 28, 2017 Stock market analysts and brokers have recently amended their target prices on shares of First Merchants Corporation .Latest Stocks: First Merchants Corporation  Announces Quarterly Earnings ... - Petro Global News 24'
p8
aS'First Merchants Corporation  Breaks into New 52-Week High on February 14 ... Equities.com - Feb 14, 2017 Shares of First Merchants Corporation  broke into a new 52-week high yesterday, hitting a peak of $41.41. Shares closed at $41.31 after opening at $40.76 for a move of 1.3%.'
p9
aS'Stock Returns: First Merchants Corporation  is Beating First ... CML News - Mar 5, 2017 This is a snapshot to compare the stock returns for First Financial Bankshares Inc  versus First Merchants Corporation  . The stock return points we compare look at the last three-months, six-months and twelve-months.'
p10
a.