(lp0
S'GENPACT LIMITED  Files An 8-K Entry into a Material Definitive Agreement Market Exclusive - 11 hours ago Genpact Limited  is engaged in providing digitally-powered business process management and services. The Company designs, transforms and runs a combination of processes, as well as provides solutions that combine elements of several of its&nbsp;...Smart Money Still Has Faith in Genpact Limited  - Midway MonitorLatest Stocks: The Genpact Limited  Rating Reiterated by BMO Capital Markets - Petro Global News 24'
p1
aS'Genpact Limited Announces Pricing of 3.700% Senior Notes Due 2022 by Genpact ... Yahoo Finance - Mar 21, 2017 NEW YORK, March 21, 2017 /PRNewswire/ -- Genpact Limited  , a global professional services firm focused on delivering digital transformation for clients, today announced the pricing by its wholly owned subsidiary, Genpact Luxembourg&nbsp;...'
p2
aS'Genpact Limited  to Acquire AI Tech Company, Rage Frameworks StreetInsider.com - Mar 14, 2017 Genpact , a global professional services firm focused on delivering digital transformation for clients, has signed a definitive agreement to acquire Rage Frameworks, a leader in knowledge-based automation technology and services providing&nbsp;...Genpact Limited: Genpact Strengthens Artificial Intelligence Capabilities with ... - The Wall Street Transcript'
p3
aS'Genpact Limited Announces Quarterly Dividend and Expansion of Share Repurchase ... PR Newswire  - Feb 10, 2017 NEW YORK, Feb. 10, 2017 /PRNewswire/ -- Genpact Limited , a global leader in digitally-powered business process management and services, today announced that its Board of Directors has approved a dividend program under which Genpact&nbsp;...Genpact Limited  Stock Has Room to Grow - Investorplace.comGenpact  Q4 2016 Results - Earnings Call Transcript - Seeking Alpha'
p4
aS'Equity Watch for Genpact Limited  Rives Journal - 11 hours ago Genpact Limited  currently has a Gross Margin  ratio of 0.352076. Robert Novy-Marx has provided investors with insights on finding high-quality value stocks.'
p5
aS'Morgan Stanley Downgrades Genpact Limited To Underweight; Expects Revs ... Benzinga - Aug 10, 2016 Morgan Stanley downgraded Genpact Limited  to Underweight from Equal-weight on declining earnings and revenue growth.'
p6
aS'GENPACT LIMITED  Files An 8-K Departure of Directors or Certain ... Market Exclusive - Mar 10, 2017 On March 9, 2017, Hanspeter Spek, a member of the Board of Directors  of Genpact Limited, a Bermuda company , informed the Company of his decision to resign from the Board with immediate effect.'
p7
aS'Genpact announces pricing of 3.700% unsecured senior notes due 2022 Seeking Alpha - Mar 21, 2017 Genpact Limited  announced the pricing by its wholly owned subsidiary, Genpact Luxembourg S. r.l., of its private offering of $350M of 3.700% unsecured senior notes due 2022.'
p8
aS'Calculating the intrinsic value of Genpact Limited  Simply Wall St - Mar 3, 2017 In this article I am going to calculate the intrinsic value of Genpact  using a method called discounted cash flow or DCF.'
p9
aS"GENPACT LIMITED  Files An 8-K Other Events Market Exclusive - Mar 21, 2017 Genpact Limited  is engaged in providing digitally-powered business process management and services. The Company designs, transforms and runs a combination of processes, as well as provides solutions that combine elements of several of its&nbsp;...Should You Be Worried About Genpact Limited's  Financial Health? - Simply Wall StGenpact Limited  Mean Price Target At $27.250 - Equities Focus"
p10
a.