(lp0
S"Crucial Earning's Announcement for Gevo, Inc.  on Wednesday StockNewsUnion - Mar 27, 2017 It is rare that a firm trades at a 50% discount to their cash/share figure but that is the case with Gevo, Inc. .Latest Stocks: Gevo Inc.  Raised to Buy at Zacks Investment Research - Petro Global News 24Zacks Provided 1 Rating to Gevo, Inc.  - The Newburgh Press"
p1
aS"Taking a Fresh Look at Gevo, Inc.  StockNewsJournal - Mar 27, 2017 Gevo, Inc.  is an interesting player in the Basic Materials space, with a focus on Chemicals - Major Diversified.Trader's Roundup: Gevo, Inc.  - Post RegistrarGevo, Inc.  has 1 year Price Target of $12 - The Newburgh Press"
p2
aS'Gevo, Inc.  Technicals Are Painting A Bleak Picture USA Commerce Daily - 13 hours ago With all other things going on, Gevo, Inc.  has been on a free fall - declining -66.32 percent in just three months.'
p3
aS'Superconductor Technologies and Gevo Find Stock Profit Through Industry Fame Yahoo Finance - Mar 28, 2017 NEW YORK, NY / ACCESSWIRE / March 28, 2017 / Superconductor Technologies and Gevo have both been acknowledged for their innovation - one company being awarded a patent, the other being recognized by a distinguished group of peers.'
p4
aS"Gevo, Inc.  Stock: Exclusive Interview With Pat Gruber CNA Finance  - Mar 1, 2017 Before we get into this interview, I'd like to extend a special thanks to my friend Joey who both set up the interview with Pat, wrote the questions, and got this information for all of you to see!"
p5
aS"Today's Brokerage Rating: Gevo, Inc. , Xylem Inc.  StockNewsJournal - Mar 24, 2017 Investors who are keeping close eye on the stock of Gevo, Inc.  established that the company was able to keep return on investment at -51.62 in the trailing twelve month while Reuters data showed that industry's average stands at 6.82 and&nbsp;..."
p6
aS'Research Report For Gevo, Inc.  News Oracle - 17 hours ago Gevo, Inc.  will report its next earnings on 29-Mar-17. The company reported the earnings of $-2/Share in the last quarter where the estimated EPS by analysts was $-1.7/share.'
p7
aS"Gevo, Inc.  EPS Estimated At $-0.96; 1 Bullish Analysts Covering Piper ... Herald KS - 20 hours ago Analysts expect Gevo, Inc.  to report $-0.96 EPS on March, 29 after the close.They anticipate $7.84 EPS change or 89.09% from last quarter's $-8.8 EPS."
p8
aS'Analyst provided some recent clues on Gevo, Inc.  and Allegheny ... USA Commerce Daily - Mar 27, 2017 Shares of Gevo, Inc.  are on a recovery track as they have regained 22.83% since bottoming out at $0.92 on Mar. 15, 2017.'
p9
aS'Beta Analysis of Gevo, Inc.  The Oracle Examiner - 16 hours ago While predicting the next move of Gevo, Inc. , volatility is an important factor to look at. Currently Gevo, Inc.  has weekly volatility of 11.58%% and monthly volatility of 9.77%%. In the words of investopedia.com, volatility refers to the ...'
p10
a.