(lp0
S'Form 8-K General Finance CORP For: Mar 27 StreetInsider.com - 16 hours ago References to &quot;we,&quot; &quot;us,&quot; &quot;our&quot; or the &quot;Company&quot; refer to General Finance Corporation, a Delaware corporation, and its consolidated subsidiaries. These subsidiaries include GFN U.S. Australasia Holdings, Inc., a Delaware corporation ; GFN&nbsp;...'
p1
aS'Empire Resources Inc versus General Finance Corporation Head to Head Compare CML News - 18 hours ago Empire Resources Inc has a substantially higher fundamental rating then General Finance Corporation which has an impact on the head-to-head comparison.'
p2
aS"General Finance Corp.: A 10% Preferred Yield Up For Grabs Seeking Alpha - Jan 31, 2017 General Finance Corp.  preferred stock is worth a hard look. The company's Series C Cumulative Redeemable Perpetual Preferred shares throw off a high 10 percent dividend which I think is very safe."
p3
aS'EnviroStar Inc versus General Finance Corporation Head to Head Compare CML News - Mar 24, 2017 EnviroStar Inc has a substantially higher fundamental rating then General Finance Corporation which has an impact on the head-to-head comparison.'
p4
aS'General Finance Corporation  Broker Price Targets For The Coming Week Fiscal Standard - Mar 28, 2017 Recently analysts working for various investment brokerages have changed their ratings and price targets on shares of General Finance Corporation . According to the the latest analyst ratings which have been released, 2 brokers have issued a ...General Finance Corporation  Reviewed By Analysts - The De Soto Edge'
p5
aS'Insider Trading Activity General Finance Corporation   Director ... Market Exclusive - Feb 24, 2017 On 9/24/2013 Neil Gagnon, Major Shareholder Sell, 48,345 $5.57 with an average share price of $269,281.65 View SEC Filing 2/22/2013 per share and the total transaction amounting to Neil Gagnon.'
p6
aS'Stock Returns: General Finance Corporation  versus Transcat Inc ... CML News - Feb 27, 2017 This is a snapshot to compare the stock returns for General Finance Corporation  versus Transcat Inc  .Insider Trading Activity General Finance Corporation   Director ... - Market Exclusive'
p7
aS'Stock Returns: General Finance Corporation  is Beating MFC Bancorp ... CML News - Feb 21, 2017 This is a snapshot to compare the stock returns for General Finance Corporation  versus MFC Bancorp Ltd.  .'
p8
aS'Stock Returns: EnviroStar Inc  is Beating General Finance ... CML News - Mar 8, 2017 This is a snapshot to compare the stock returns for EnviroStar Inc  versus General Finance Corporation  .Insider Trading at General Finance Co.? - The Cerbat Gem'
p9
aS'General Finance Corporation second-quarter earnings plunge by 72.23 percent on ... Myiris.com - Mar 20, 2017 General Finance Corporation  has reported 72.23 percent plunge in profit for the quarter ended Dec. 31, 2016. The company has earned $0.28 million in the quarter, compared with $1.02 million for the same period last year.'
p10
a.