(lp0
S'Glen Burnie Bancorp Appoints New Chief Financial Officer GlobeNewswire  - Mar 27, 2017 GLEN BURNIE, Md., March 27, 2017  -- Glen Burnie Bancorp , parent company of The Bank of Glen Burnie, today announces the appointment of Jeffrey D. Harris as Senior Vice President, Chief Financial Officer and&nbsp;...Glen Burnie Bancorp - Receive News &amp; Ratings Daily - BBNS'
p1
aS'BRIEF-GLEN BURNIE BANCORP APPOINTS JEFFREY D. HARRIS AS CFO Reuters - Mar 27, 2017 WASHINGTON, March 27 The Trump administration intends to play a lead role in crafting a tax-cut plan, working in consultation with Congress, in an effort to meet an August target date, the White House said on Monday.'
p2
aS'Glen Burnie Bancorp Announces 2016 4Q Earnings and Year End Earnings GlobeNewswire  - Mar 6, 2017 Glen Burnie Bancorp, parent company to The Bank of Glen Burnie, currently maintains consolidated assets totaling more than $388 million.GLEN BURNIE BANCORP  Files An 8-K Results of Operations and ... - Market ExclusiveToday Glen Burnie Bancorp  to Issue Quarterly Dividend of $0.10 on ... - DailyQuint'
p3
aS'Glen Burnie Bancorp earnings fall 98 percent Baltimore Sun - Nov 11, 2015 Glen Burnie Bancorp reported that its third quarter earnings fell 98 percent to $8,000 from $526,000 in the July-to-September period of 2014 as a result of a few nonperforming real estate loans.'
p4
aS'Glen Burnie Bancorp  CFO Wright Resigns StreetInsider.com - Nov 28, 2016 The Bank of Glen Burnie  announced that Chief Financial Officer  John Wright is departing effective December 16, 2016 to pursue other opportunities.'
p5
aS"Exec Team Shrinks Again at Glen Burnie Bancorp American Banker - Nov 29, 2016 Glen Burnie Bancorp in Maryland has announced an executive departure for the second time in three months. John Wright, who has been the $392 million-asset Glen Burnie's chief financial officer since September 2015, will leave Dec. 16 to become CFO of&nbsp;..."
p6
aS'BRIEF-Glen Burnie Bancorp says approved appointment of Jeffrey Harris as CFO Reuters - Mar 22, 2017 United States &middot; Market News | Wed Mar 22, 2017 | 12:03pm EDT. BRIEF-Glen Burnie Bancorp says approved appointment of Jeffrey Harris as CFO.'
p7
aS'Glen Burnie Bancorp in Md. Hires Chief Financial Officer American Banker - Jun 23, 2015 Glen Burnie Bancorp in Maryland has hired an executive from Patapsco Bank to be its new chief financial officer. John Wright was hired to be CFO of the $402 million-asset holding company and of the Bank of Glen Burnie.'
p8
aS"Will Glen Burnie Bancorp  Continue To Underperform Its Industry? Simply Wall St - Feb 24, 2017 Glen Burnie Bancorp's  ROE of 3.3% over the past year, compared to its industry's 9.9%, indicates that investors would have been better off choosing the broader industry in terms of returns generated on their committed capital."
p9
aS'GLEN BURNIE BANCORP  Files An 8-K Departure of Directors or ... Market Exclusive - Mar 22, 2017 Glen Burnie Bancorp is the bank holding company for The Bank of Glen Burnie , a commercial bank. The Bank is engaged in the commercial and retail banking business, including the acceptance of demand and time deposits, and the origination of&nbsp;...Glen Burnie Bancorp  Lowered to C+ at TheStreet - The Cerbat GemGlen Burnie Bancorp  Stock Rating Lowered by TheStreet - Chaffey Breeze'
p10
a.