(lp0
S'Greenlight Capital Re, Ltd. Announces Executive Leadership Change GlobeNewswire  - Dec 19, 2016 GRAND CAYMAN, Cayman Islands, Dec. 19, 2016  -- Greenlight Capital Re, Ltd.  , a specialist property and casualty reinsurance company headquartered in the Cayman Islands, today&nbsp;...Greenlight Capital Re chief executive to step down - Cayman CompassBart Hedges leaving Greenlight Re, to step down as CEO &amp; from board - Artemis.bm '
p1
aS'Greenlight Re Loss Quadruples on Einhorn Investment Blunders Bloomberg - Oct 23, 2015 Greenlight Capital Re Ltd. posted its third-straight unprofitable quarter on losses in the investment portfolio overseen by hedge-fund manager David Einhorn.'
p2
aS'Greenlight Capital Re posts 4Q profit Yahoo Finance - Feb 22, 2017 GRAND CAYMAN, Cayman Islands  _ Greenlight Capital Re Ltd.  on Wednesday reported fourth-quarter net income of $49.2 million, after reporting a loss in the same period a year earlier.Greenlight Re Announces Fourth Quarter and Year End 2016 Financial Results - GlobeNewswire '
p3
aS'Buy Greenlight Re And Never Sell Seeking Alpha  - Mar 14, 2015 In fact, since 2007, Greenlight Capital Reinsurance has nearly doubled its book value per share, which rose from $16.77 to $31.14 today.'
p4
aS"Greenlight Capital Re Hit With AM Best Ratings Downgrade Insurance Journal - Nov 4, 2016 Greenlight Reinsurance Ltd. has been seeking to improve underwriting results after months of losses. But it apparently hasn't moved fast enough for A.M."
p5
aS'Greenlight Capital Re Announces Additions of Tim Adair and Cliff Dunigan to ... GlobeNewswire  - Sep 15, 2014 GRAND CAYMAN, Cayman Islands, Sept. 15, 2014  -- Greenlight Capital Re, Ltd. , a specialist property and casualty reinsurer based in the Cayman Islands and Ireland, today announced the additions of Tim Adair and&nbsp;...'
p6
aS"Greenlight Re Posts Fourth-Straight Loss on Einhorn Slump Bloomberg - Feb 22, 2016 Greenlight Capital Re Ltd. posted its fourth-straight quarterly loss, capping the reinsurer's worst year since its 2007 initial public offering, as Chairman David Einhorn's investments faltered.Greenlight Capital Re: A Stock You Should Stay Away From - Seeking Alpha"
p7
aS"Analyst rating score stands at 2.00 while Greenlight Capital Re, Ltd.'s (GLRE ... Hot Stocks Point - Mar 18, 2017 Greenlight Capital Re, Ltd.  stock price ended its day with no change 0.00% and finalized at the value of $22.10. During its last trading session, Stock traded with the total exchanged volume of 0.21 million shares."
p8
aS'Greenlight Re Announces Second Quarter 2016 Financial Results GlobeNewswire  - Aug 1, 2016 GRAND CAYMAN, Cayman Islands, Aug. 01, 2016  -- Greenlight Capital Re, Ltd.  today announced financial results for the second quarter ended June 30, 2016.Greenlight Re Posts Fifth Loss in Six Quarters on Investing - Bloomberg'
p9
aS"Einhorn Is Turning It Around On Trump Victory Seeking Alpha - Nov 16, 2016 Without making any tactical allocations Greenlight Capital appears to have benefited from the election upset. Greenlight's allocations to coal, gas, autos and airplanes are doing very well on the Trump victory."
p10
a.