(lp0
S'Government Properties Income Trust  Ex-Dividend Date Scheduled for ... Nasdaq - Jan 18, 2017 Government Properties Income Trust  will begin trading ex-dividend on January 19, 2017. A cash dividend payment of $0.43 per share is scheduled to be paid on February 23, 2017.'
p1
aS'BRIEF-Government Properties Income Trust Q4 adjusted FFO per share $0.58 Reuters - Feb 22, 2017 WASHINGTON, Feb 22 U.S. Treasury Secretary Steven Mnuchin on Wednesday praised the strong dollar as a reflection of confidence in the U.S.'
p2
aS'Government Properties Income Trust reports 4Q results Yahoo Finance - Feb 22, 2017  _ Government Properties Income Trust  on Wednesday reported a key measure of profitability in its fourth quarter.'
p3
aS'Government Properties Income Trust  Stake Raised by Metropolitan Life ... Sports Perspectives - 17 hours ago Government Properties Income Trust logo Metropolitan Life Insurance Co. NY boosted its stake in Government Properties Income Trust  by 0.3% during the fourth quarter, according to its most recent 13F filing with the Securities and Exchange&nbsp;...'
p4
aS'Government Properties Income Trust - The Puppet REIT Seeking Alpha - Apr 5, 2016 Equity position in SIR creates volatility in income and unclear real estate focus. RMR actions involving GOV are not in shareholders best interest.'
p5
aS'Government Properties Income Trust  Moves Lower on Volume Spike for March 10 Equities.com - Mar 10, 2017 Government Properties Income Trust  traded on unusually high volume on Mar. 10, as the stock lost 0.47% to close at $19.08.Most Active Stock Update: Government Properties Income Trust  - HugoPressA Look at 2 Trending Stocks  Government Properties Income Trust (GOV ... - Post Analyst'
p6
aS"Steer Clear Of Government Properties Income Trust Seeking Alpha - May 1, 2016 At the time of this article, GOV's stock price was $18.92 - above its 52-week low of $12.33 with a negative current P/E, a forward P/E of 8.16, a market capitalization of $1.35 billion and a dividend yield of 9.1%."
p7
aS'Government Properties Income Trust  ATR in Focus as it Trends Higher Business Review - 6 hours ago Government Properties Income Trust  stock has seen the Average True Range move higher over the past 10 sessions, indicating strong momentum potential and increased volatility.'
p8
aS"Government Properties Income Trust's  on Q4 2016 Results - Earnings Call ... Seeking Alpha - Feb 22, 2017 Good day. And welcome to the Government Properties Income Trust Fourth Quarter Results Conference Call. All participants will be in a listen-only mode."
p9
aS'Government Properties Income Trust  Moves Higher on Volume Spike for March 17 Equities.com - Mar 17, 2017 Government Properties Income Trust  traded on unusually high volume on Mar. 17, as the stock gained 1.61% to close at $20.22.'
p10
a.