(lp0
S'UPDATE: Barclays Starts Groupon, Inc.  at Underweight StreetInsider.com - 11 hours ago Barclays initiated coverage on Groupon, Inc.  with an Underweight rating and a price target of $3.60. Analyst Ross Sandler said, &quot;Groupon is still one of the largest online marketplaces with over 50m active customers and 1m merchants on ...Groupon: Still Not Cheap Enough - Seeking AlphaMost Active Stock: Groupon, Inc.  - HugoPress'
p1
aS"Equity Perception: Analyst's Indicator Review for Groupon, Inc. (GRPN ... The USA Commerce - 17 hours ago Presently Groupon, Inc.  stock have an ABR of 2.50. This is built on a simplified 1 to 5 scale where 1 represents a Strong Buy and 5 a Strong Sell."
p2
aS'For Groupon, Inc. , The Evidence Is In The Technical Chart NY Stock News - 16 hours ago Groupon, Inc.  has created a compelling message for traders in the most recent trading. That message has grown stronger as the technical chart setup has developed into a more composite picture for the stock.'
p3
aS"Earnings Clues on Groupon, Inc. , Host Hotels &amp; Resorts, Inc. (HST ... StockNewsJournal - Mar 27, 2017 Investors who are keeping close eye on the stock of Groupon, Inc.  established that the company was able to keep return on investment at -32.18 in the trailing twelve month while Reuters data showed that industry's average stands at 13.02&nbsp;..."
p4
aS"Joey Levin To Help Revamp Groupon Inc , Sources Say Journal Transcript - Mar 17, 2017 Lefkofsky highly appreciated the deep background in the digital space that the incoming official was pulling along into its operations.What are Analyst's Indicators for Groupon, Inc. , ON Semiconductor ... - The USA CommerceMost Active Volume Stock: Groupon, Inc.  - HugoPress"
p5
aS"Groupon Inc : Room To Grow? Simply Wall St - Mar 14, 2017 Groupon Inc's  business model has evolved in recent years from primarily an email-based push model with a limited number of deals offered at any given time, to more extensive online pull marketplaces, where customers can come to&nbsp;...Form 8-K Groupon, Inc. For: Mar 13 - StreetInsider.comMarket Sentiment Bullish for Groupon Inc  - The Oracle Dispatch"
p6
aS'Why Investors Should Be Excited About Groupon Inc ? Journal Transcript - Mar 2, 2017 Groupon Inc  has been in improvement mode since long, and the existing quarter validates that at least a bottom is in.'
p7
aS'The Case for and Against Groupon, Inc.  StockNewsJournal - Mar 21, 2017 Groupon, Inc.  is an interesting player in the Technology space, with a focus on Internet Information Providers.Groupon, Inc. Posted losses of -3.23% in the Last Trade - Free ObserverHot Stock Update: Groupon, Inc.  - HugoPress'
p8
aS"Groupon, Inc.  Closed its Previous Trade at $3.95 TopChronicle - 20 hours ago The share of Groupon, Inc.  currently has a value of $3.95 while the company's 52 week low is at $2.92, the shares dropped to the 52 week low on Jun 27, 2016."
p9
aS'Time To Get Cautious?  Groupon, Inc. , FireEye, Inc.  USA Commerce Daily - 21 hours ago Shares of Groupon, Inc.  are on a recovery track as they have regained 35.27% since bottoming out at $2.92 on Jun. 27, 2016.'
p10
a.