(lp0
S"Why Aerojet Rocketdyne Holdings Inc.'s Shares Popped 16% Today Motley Fool - Dec 8, 2016 What happened. Shares of aerospace supplier Aerojet Rocketdyne Holdings Inc.  fell as much as 16.4% on Thursday after the company announced a debt offering.Aerojet financing increases to $300 million - Sacramento Business Journal"
p1
aS'Examining the Numbers on Shares of Aerojet Rocketdyne Holdings, Inc.  Rives Journal - 9 hours ago Aerojet Rocketdyne Holdings, Inc.  currently has a Gross Margin  ratio of 0.103979. Robert Novy-Marx has provided investors with insights on finding high-quality value stocks.'
p2
aS'Aerojet Rocketdyne Holdings, Inc. Welcomes New Chief Financial Officer GlobeNewswire  - Oct 25, 2016 SACRAMENTO, Calif., Oct. 25, 2016  -- Aerojet Rocketdyne Holdings, Inc.  today announced that Paul R. Lundstrom will join the company as vice president of Finance and chief financial officer  on Nov. 7, 2016.Aerojet Rocketdyne names new CFO, to be based in Southern California - Sacramento Business JournalAerojet names new chief financial officer - Sacramento Bee'
p3
aS'Aerojet Rocketdyne Holdings Inc. AJRD  Wall Street Journal - Apr 27, 2015 News Aerojet Rocketdyne Holdings Inc.AJRD. Significant News Only. 03/24/17; Press Release. Aerojet Rocketdyne Awarded U.S. Navy Contract to Mature Power and Energy Management Systems for Underwater Unmanned Vehicles.'
p4
aS'Why Aerojet Rocketdyne Holdings, Inc. Shares Crashed 11% in December Motley Fool - Jan 7, 2016 What: Shares of aerospace product manufacturer Aerojet Rocketdyne Holdings, Inc.  dropped 10.7% in December despite some important advances for the business.'
p5
aS'Aerojet Rocketdyne Holdings, Inc. Reports Third Quarter 2016 Results GlobeNewswire  - Nov 1, 2016 We are pleased with the growth in third quarter net sales which reflects the continued focus on delivering program performance to our customers, said Eileen Drake, CEO and President of Aerojet Rocketdyne Holdings, Inc. Our ongoing efforts associated&nbsp;...'
p6
aS"Aerojet Rocketdyne move to El Segundo adds to SoCal's growing aerospace community Los Angeles Times - Jun 21, 2016 Aerojet Rocketdyne Holdings Inc. will make the move from Rancho Cordova over the next six to eight weeks. It will initially relocate about 25 employees, including Chief Executive Eileen Drake, legal counsel and support staff, Aerojet spokesman Glenn&nbsp;...Aerojet Rocketdyne refinances debt, saving $20 million a year in interest - Sacramento Business Journal"
p7
aS'Aerojet Rocketdyne Holdings Inc. MarketWatch - Apr 27, 2015 Aerojet Rocketdyne Holdings Inc. NYSE: AJRD. GO. Set Alerts &middot; Find a Broker &middot; Join TD Ameritrade &middot; Market Index &middot; Overview Profile News Charts Financials Historical Quotes Analyst Estimates Options SEC Filings Insiders.'
p8
aS'13D Filing: Steel Partners and Aerojet Rocketdyne Holdings Inc.  Insider Monkey  - 9 hours ago If the filing person has previously filed a statement on Schedule 13G to report the acquisition that is the subject of this Schedule 13D, and is filing this schedule because of  240.13d-1, 240.13d-1 or 240.13d-1, check the following box  .'
p9
aS'Aerojet Rocketdyne Holdings Inc.  Soars 8.66% on March 02 Equities.com - Mar 2, 2017 Aerojet Rocketdyne Holdings Inc.  had a good day on the market for Thursday March 02 as shares jumped 8.66% to close at $21.59.Fmr LLC Has $160896000 Position in Aerojet Rocketdyne Holdings, Inc.  - BNB Daily '
p10
a.