(lp0
S'Haemonetics Corporation Announces Christopher Simon as President and Chief ... PR Newswire  - May 9, 2016 BRAINTREE, Mass., May 9, 2016 /PRNewswire/ -- Haemonetics Corporation  a global healthcare company dedicated to providing innovative solutions to our customers, today, announced the appointment of Christopher Simon as President and&nbsp;...Haemonetics  Names New CEO; Guides FY17 Below Expectations - StreetInsider.com'
p1
aS'Trading Scope: Checking on Shares of Haemonetics Corporation  Baldwin Journal - 9 hours ago Haemonetics Corporation  currently has a 6 month price index of 1.08174. The six month price index is easily measured by dividing the current share price by the share price six months ago.'
p2
aS'Haemonetics Corporation Appoints Ron Gelbman as Interim CEO; CEO Brian ... PR Newswire  - Sep 29, 2015 BRAINTREE, Mass., Sept. 29, 2015 /PRNewswire/ -- Haemonetics Corporation  announced today that Brian Concannon has resigned from his role as President and Chief Executive Officer and as a Director to pursue other opportunities, effective&nbsp;...'
p3
aS'Catherine M. Burzik Joins Haemonetics Board of Directors PR Newswire  - Oct 27, 2016 BRAINTREE, Mass., Oct. 27, 2016 /PRNewswire/ -- Haemonetics Corporation  announced the election of Catherine M. Burzik, a highly respected and accomplished senior executive in the healthcare industry, to its Board of Directors.'
p4
aS'Haemonetics Appoints Bill Burke CFO PR Newswire  - Aug 1, 2016 BRAINTREE, Mass., Aug. 1, 2016 /PRNewswire/ -- Haemonetics Corporation  today announced that William P. Burke will join the Company as Chief Financial Officer, effective August 8, 2016.'
p5
aS'Haemonetics Announces the Release of NextGen DMS 4 PR Newswire  - Dec 8, 2016 8, 2016 /PRNewswire/ -- Haemonetics Corporation  has released an extensive upgrade to NextGen DMS , an innovative software suite designed to help customers drive efficiency in plasma collection center&nbsp;...'
p6
aS'Haemonetics  Q3 2017 Results - Earnings Call Transcript Seeking Alpha - Feb 6, 2017 Good day, ladies and gentlemen, and welcome to the Haemonetics Corporation Third Quarter 2017 Earnings Conference Call. At this time, all participants are in a listen-only mode.'
p7
aS'Haemonetics Corporation Risk Points versus Health Care CML News - Mar 21, 2017 This is a scatter plot analysis of the critical risk points from the option market for Haemonetics Corporation  compared to its own past and the Health Care ETF.'
p8
aS'Haemonetics Reports 4th Quarter Fiscal 2016 Revenue of $243 Million, Constant ... PR Newswire  - May 2, 2016 BRAINTREE, Mass., May 2, 2016 /PRNewswire/ -- Haemonetics Corporation  reported fourth quarter fiscal 2016 revenue of $243.2 million, up 7%.'
p9
aS'Why Is Haemonetics  Up 3.5% Since the Last Earnings Report? Yahoo Finance - Mar 9, 2017 A month has gone by since the last earnings report for Haemonetics Corporation HAE. Shares have added about 3.5% in that time frame, outperforming the market.EPS Forecast At $0.37 For Haemonetics Corporation  - Markets DailyHaemonetics Corporation  Lowest EPS Projection At $0.37 - Enterprise Leader'
p10
a.