(lp0
S'Blackhawk Network Announces New Incentives Business Name: Hawk Incentives PR Newswire  - 17 hours ago Blackhawk Network Holdings, Inc.  is a leading global stored value and payments provider, which supports the program management and distribution of gift cards, telecom products, and financial services products in retail, digital and&nbsp;...Blackhawk Network Holdings Inc - Receive News &amp; Ratings Daily - BBNSZacks Investment Research Lowers Blackhawk Network Holdings Inc  to Sell - Community Financial News'
p1
aS'Blackhawk Network Holdings, Inc. and JANA Partners Announce Addition of Two ... Nasdaq - Mar 20, 2017 PLEASANTON, Calif., March 20, 2017  -- Blackhawk Network Holdings, Inc.  and JANA Partners LLC today announced that the Company will add two new independent directors to its Board of Directors, effective no later&nbsp;...Blackhawk Network Holdings  In Focus: Stock Jumps 8.2% March 21, 2017 - Zacks.comBlackhawk Network Holdings Inc.  Moves Higher on Volume Spike for March 20 - Equities.com'
p2
aS'Stock Volatility Risk Alert: Blackhawk Network Holdings Inc Stock Volatility ... CML News - 11 hours ago Before we cover the full analysis we make a quick alert here that Blackhawk Network Holdings Inc  has seen its stock price whip around at an unsually high level.'
p3
aS"Blackhawk Network Holdings  Q4 2016 Results - Earnings Call Transcript Seeking Alpha - Feb 16, 2017 Good day, ladies and gentlemen. Welcome to Blackhawk Network's Fourth Quarter 2016 Earnings Conference Call. For those on the audio-only dial-in, your lines have been placed on listen-only until the question-and-answer session.Blackhawk Network Holdings, Inc. Reports 3% Drop In Q4 Profit - NasdaqBlackhawk Network Holdings posts 4Q profit - Yahoo Finance"
p4
aS'CFO Moves: Tucows, Avery Dennison, Blackhawk Network Holdings Wall Street Journal   - Mar 21, 2017 Tucows Inc., a Toronto internet-services company, announced the appointment of Dave Singh as chief financial officer, effective April 1. He will succeed finance chief Michael Cooperman, who is set to retire on the same day Mr. Singh joins the company.'
p5
aS'Checking the Levels on Shares of Blackhawk Network Holdings, Inc.  Baldwin Journal - 10 hours ago Many investors may be looking to track stock price momentum by looking at different historical information. Blackhawk Network Holdings, Inc.  currently has a 6 month price index of 1.25535. The six month price index is simply measured by&nbsp;...'
p6
aS'Blackhawk Network Holdings, Inc. Announces Dates for Fourth Quarter 2016 ... GlobeNewswire  - Jan 6, 2017 PLEASANTON, Calif., Jan. 06, 2017  -- Blackhawk Network Holdings, Inc.  will announce its fourth quarter 2016 earnings results on Wednesday, February 15, 2017.'
p7
aS'Blackhawk Network Holdings, Inc. Announces Pricing of $460 Million of ... PR Newswire  - Jul 22, 2016 PLEASANTON, Calif., July 22, 2016 /PRNewswire/ -- Blackhawk Network Holdings, Inc.   announced today the pricing of its offering of $460 million aggregate principal amount of its 1.50% Convertible Senior Notes due 2022&nbsp;...'
p8
aS'Blackhawk Network Holdings - Poised To Benefit From Activist Investors Seeking Alpha - Dec 21, 2016 Started as a subsidiary of Safeway Inc.  in 2001, Blackhawk was spun-off in 2013. Leveraging its network of grocery, convenience, specialty, and online stores, the company has grown from offering seven brands at one retailer to 600+ brands at&nbsp;...'
p9
aS'Blackhawk Network Expands International Digital Incentives and Rewards Card ... PR Newswire  - Mar 7, 2017 Blackhawk Network Holdings, Inc.  is a leading global stored value and payments provider, which supports the program management and distribution of gift cards, telecom products, and financial services products in retail, digital and&nbsp;...'
p10
a.