(lp0
S'Haynes International Inc. MarketWatch - Dec 21, 2009 Check out the returns on our 8 Lazy Portfolios that are made up of low-cost buy-and-hold index funds.  How to create your own Lazy Portfolio.'
p1
aS'Haynes International, Inc. Reports Third Quarter Fiscal 2016 Financial Results GlobeNewswire  - Aug 4, 2016 04, 2016  -- Haynes International, Inc.  , a leading developer, manufacturer and marketer of technologically advanced high-performance alloys, today reported financial results for the third quarter ended&nbsp;...'
p2
aS'Haynes International Inc versus Olympic Steel Inc Head to Head Compare CML News - 17 hours ago Haynes International Inc has a higher fundamental rating than Olympic Steel Inc which has an impact on the head-to-head comparison.'
p3
aS'Haynes International Inc. HAYN  Wall Street Journal - Feb 12, 2011 Haynes International Inc. HAYN . search. View All companies. REAL TIME 12:53 PM EDT 03/15/17. $37.27 USD; 0.11 0.30%.'
p4
aS'Haynes International, Inc. Announces Expansion of LaPorte, IN Operations GlobeNewswire  - May 2, 2016 KOKOMO, Ind., May 02, 2016  -- Haynes International, Inc.   announced today its decision to expand and streamline its distribution footprint by investing in new plant and equipment at its processing facility&nbsp;...'
p5
aS'Haynes International, Inc.  Ex-Dividend Date Scheduled for February 27, 2017 Nasdaq - Sep 30, 2016 Haynes International, Inc.  will begin trading ex-dividend on February 27, 2017. A cash dividend payment of $0.22 per share is scheduled to be paid on March 15, 2017.'
p6
aS'Company Watch for Haynes International, Inc.  The Standard - 16 hours ago Tracking shares of Haynes International, Inc. , the company has a current EV  of 395682.'
p7
aS'Haynes International Inc.  Moves Higher on Volume Spike for March 24 Equities.com - Mar 24, 2017 Haynes International Inc.  traded on unusually high volume on Mar. 24, as the stock gained 0.64% to close at $36.01. On the day, Haynes International Inc. saw 93,976 shares trade hands on 1,346 trades. Considering that the stock averages only a&nbsp;...The Longbow Research Initiates Coverage on Haynes International, Inc.  - Petro Global News 24'
p8
aS"Haynes International: Time To Sell Seeking Alpha - Nov 3, 2016 Haynes International is one of the world's largest producers of highperformance nickel and cobaltbased alloys in flat product form such as sheet, coil and plate forms."
p9
aS'Haynes International, Inc. Agrees to Purchase Assets and Operations of ... GlobeNewswire  - Oct 21, 2014 KOKOMO, Ind., Oct. 21, 2014  -- Haynes International, Inc. , a leading developer, manufacturer and marketer of technologically advanced high-performance alloys , reported today that it had entered into a&nbsp;...'
p10
a.