(lp0
S'Hancock Holding Company to announce first quarter 2017 financial results April ... Nasdaq - 11 hours ago GULFPORT, Miss., March 28, 2017  -- Hancock Holding Company  will announce first quarter 2017 financial results on Tuesday, April 18, 2017 after the market closes.Next Weeks Broker Price Targets For Hancock Holding Company  - Fiscal Standard'
p1
aS'Hancock Holding Company  Ex-Dividend Date Scheduled for March 02, 2017 Nasdaq - Mar 1, 2017 Hancock Holding Company  will begin trading ex-dividend on March 02, 2017. A cash dividend payment of $0.24 per share is scheduled to be paid on March 15, 2017.Hancock to Present at Raymond James Institutional Investors Conference - GlobeNewswire Forward Dividend Yield of Hancock Holding Company  - Highland Mirror'
p2
aS'First Commonwealth Financial Corporation versus Hancock Holding Company Head ... CML News - 17 hours ago First Commonwealth Financial Corporation has a substantially higher fundamental rating then Hancock Holding Company which has an impact on the head-to-head comparison.'
p3
aS'Ex-Dividend Reminder: Hancock Holding, Blackrock and M &amp; T Bank Nasdaq - Feb 28, 2017 Looking at the universe of stocks we cover at Dividend Channel , on 3/2/17, Hancock Holding Co. , Blackrock Incorporated , and M &amp; T Bank Corp  will all trade ex-dividend for their respective upcoming dividends.State Street Corp Has $172699000 Stake in Hancock Holding Company  - The Cerbat GemStock Returns: Hancock Holding Company  is Beating Investors ... - CML News'
p4
aS"Hancock Holding Company , Integrated Device Technology, Inc. (IDTI ... The USA Commerce - Mar 23, 2017 Shares of Hancock Holding Company  dropped -0.58% to $43.05. During the trading on 03/22/2017, Company's stock ranged from $43.50 to $42.15.Hancock Holding Company  Plunges 7.08% on March 21 - Equities.comStock Jumping Abnormally High: Hancock Holding Company  - HugoPress"
p5
aS'Hancock Holding Company  Moves Higher on Volume Spike for March 16 Equities.com - Mar 16, 2017 Hancock Holding Company  traded on unusually high volume on Mar. 16, as the stock gained 2.6% to close at $47.40. On the day, Hancock Holding Company saw 956,195 shares trade hands on 8,503 trades. Considering that the stock averages only&nbsp;...Raymond James Upgrades the shares of Hancock Holding Company  to Strong Buy - HugoPressHancock Holding Company : How technical indicators have come out? - Post Analyst'
p6
aS'The Zacks Analyst Blog Highlights: Hancock Holding, Bank of America, Eagle ... Yahoo Finance - Mar 7, 2017 Stocks recently featured in the blog include Hancock Holding Company , Bank of America Corporation , Eagle Bancorp Montana, Inc. , Peoples Bancorp Inc.'
p7
aS"Hancock, Whitney Carry On Winning Streak with 18 Greenwich Excellence Awards ... GlobeNewswire  - Mar 15, 2017 Hancock Holding Company  is the bank's $25 billion parent company providing full financial services at Hancock Bank and Whitney Bank locations throughout the Gulf South."
p8
aS'Hancock Holding Company  Stock ABR At 2.43 Markets Daily - Mar 25, 2017 Market experts outlook on Hancock Holding Company  equity is positive. As of 2017-03-24, the stock ABR is 2.43 in 1-5 range.'
p9
aS'Brokerages Set Hancock Holding Company  PT at $42.58 The Cerbat Gem - Mar 24, 2017 Hancock Holding Company logo Hancock Holding Company  has been assigned an average rating of Buy from the eleven brokerages that are presently covering the company.Hancock Holding Company  Shares Sold by Teachers Retirement System of ... - Chaffey Breeze'
p10
a.