(lp0
S"Hawaiian Telcom Holdco's  CEO Scott Barber on Q4 2016 Results - Earnings ... Seeking Alpha - Mar 14, 2017 Good day, ladies and gentlemen. And welcome to your Hawaiian Telcom Holdco Inc. Q4 2016 Earnings Conference Call. At this time, all participants are in a listen-only mode.Hawaiian Telcom Reports Fourth Quarter and Full Year 2016 Results - GlobeNewswire Hawaiian Telcom Holdco Inc.  Moves Lower on Volume Spike for March 14 - Equities.com"
p1
aS"BRIEF-Hawaiian Telcom Holdco Inc says subsidiary entered into a credit agreement Reuters - Feb 27, 2017 GHAZIABAD, India, Feb 27 Struggling with customers unable to pay on time and plummeting sales, Indian small-business owner Ravi Jain fears the government's crackdown on cash will have a much larger impact than predicted by top policymakers."
p2
aS"Hawaiian Telcom Unleashes 1 Gig Internet on Hawaii Island GlobeNewswire  - Nov 14, 2016 HONOLULU, Nov. 14, 2016  -- Today Hawaiian Telcom  announced that it has expanded availability of its ultra-fast 1 gigabit per second High-Speed Internet service to homes in Hawai'i Island's Puu Lani Ranch&nbsp;..."
p3
aS'Hawaiian Telcom Announces SEA-US Cable Has Secured FCC License GlobeNewswire  - Jan 16, 2017 HONOLULU, Jan. 15, 2017  -- Hawaiian Telcom  announced today that the Federal Communication Commission has approved the landing license for the state-of-the-art Southeast Asia - U.S.Zacks: Hawaiian Telcom Holdco, Inc.  Given $35.00 Consensus Price Target ... - Sports Perspectives'
p4
aS'Stock Watch: Checking the Levels on Shares of Hawaiian Telcom Holdco, Inc ... The Standard - 16 hours ago Hawaiian Telcom Holdco, Inc.  has an EV  of 549389. Enterprise Value measures the complete value of a specific company.'
p5
aS'Hawaiian Telcom Holdco Inc.  Moves Lower on Volume Spike for March 20 Equities.com - Mar 20, 2017 Hawaiian Telcom Holdco Inc.  traded on unusually high volume on Mar. 20, as the stock lost 2.14% to close at $22.89. On the day, Hawaiian Telcom Holdco Inc. saw 66,446 shares trade hands on 402 trades. Considering that the stock averages only&nbsp;...The Analysts Set $35.00 Price Target for Hawaiian Telcom HoldCo Inc  - Petro Global News 24Hawaiian Telcom HoldCo Inc  Receives Average Rating of  from Analysts - The Cerbat Gem'
p6
aS"Hawaiian Telcom Completes Acquisition of Wavecom Solutions Corporation GlobeNewswire  - Dec 31, 2012 HONOLULU, Dec. 31, 2012  -- Hawaiian Telcom Holdco, Inc. , Hawaii's leader in integrated communications solutions, today announced that its Hawaiian Telcom, Inc. subsidiary has completed the acquisition of all of the&nbsp;..."
p7
aS'Hawaiian Telcom Holdco Inc.  Moves Lower on Volume Spike for March 22 Equities.com - Mar 22, 2017 Hawaiian Telcom Holdco Inc.  traded on unusually high volume on Mar. 22, as the stock lost 0.39% to close at $22.96. On the day, Hawaiian Telcom Holdco Inc. saw 88,950 shares trade hands on 545 trades. Considering that the stock averages only&nbsp;...Hawaiian Telcom HoldCo  Is At $22.96 Formed Wedge, MEXUS GOLD US (MXSG ... - MoneyMakingArticlesHawaiian Telcom Holdco, Inc.  Reports Consolidated EPS Of $-0.0186 - Equities Focus'
p8
aS"Hawaiian Telcom Promotes Chamberlain to Vice President of Network Operations GlobeNewswire  - Feb 29, 2016 HONOLULU, Feb. 29, 2016  -- Hawaiian Telcom announced that Greg Chamberlain has been promoted to the company's executive team as Vice President of Network Operations, overseeing technical installation, repair and construction&nbsp;..."
p9
aS'Decision Time: Hawaiian Telcom Holdco Inc  Stock Technicals Hit ... CML News - Mar 19, 2017 Decision Time: Hawaiian Telcom Holdco Inc  now sits in the perhaps the most difficult technical position -- the stock has no urgency in its direction and that has left it at an inflection point.'
p10
a.