(lp0
S"Home BancShares, Inc. Announces Proposed $150 Million Subordinated Notes Offering Nasdaq - 17 hours ago CONWAY, Ark., March 28, 2017  -- Home BancShares, Inc.  , parent company of Centennial Bank, , announced today that it plans to offer, subject to market and other offering&nbsp;...Home BancShares, Inc. Announces Press Conference - GlobeNewswire Kroll Bond Rating Agency Comments on Home BancShares, Inc.'s Pending ... - Yahoo Finance"
p1
aS'Home BancShares Inc.  Moves Higher on Volume Spike for March 28 Equities.com - 10 hours ago Home BancShares Inc.  traded on unusually high volume on Mar. 28, as the stock gained 0.63% to close at $27.00. On the day, Home BancShares Inc. saw 1.08 million shares trade hands on 10,469 trades. Considering that the stock averages only a&nbsp;...EPS Projection Of Home BancShares, Inc.  At $0.405 - RealistInvestor.com'
p2
aS'Two of the Best Banks in America Join Forces in Bank Merger GlobeNewswire  - Mar 27, 2017 CONWAY, Ark. and POMPANO BEACH, Fla., March 27, 2017  -- Home BancShares, Inc.  , parent company of Centennial Bank, , and Stonegate Bank &nbsp;...BRIEF-Mortgage automation pioneer Cloudvirga raises $15 mln in series B funding - Reuters'
p3
aS"Traders Secrets on Home Bancshares, Inc.  , Actuant ... StockNewsJournal - 14 hours ago Investors who are keeping close eye on the stock of Home Bancshares, Inc.   established that the company was able to keep return on investment at - in the trailing twelve month while Reuters data showed that industry's&nbsp;...Analysts Near-Term outlook: Equity Commonwealth , Home Bancshares, Inc ... - The USA Commerce"
p4
aS'Home BancShares, Inc. and Centennial Bank Announce Completion of the ... GlobeNewswire  - Mar 1, 2017 CONWAY, Ark., March 01, 2017  -- Home BancShares, Inc.  , parent company of Centennial Bank , today announced the completion of its acquisition of The Bank of Commerce&nbsp;...'
p5
aS'Home BancShares, Inc. and Giant Holdings, Inc. Announce Signing of Definitive ... GlobeNewswire  - Nov 7, 2016 CONWAY, Ark., Nov. 07, 2016  -- Home BancShares, Inc.  , parent company of Centennial Bank, , and Giant Holdings, Inc. , parent company of Landmark Bank, N.A.'
p6
aS'Home BancShares, Inc. Awarded Raymond James Community Bankers Cup Award for ... GlobeNewswire  - Mar 10, 2017 CONWAY, Ark., March 10, 2017  -- Home BancShares, Inc. , parent company of Centennial Bank, announced they received a 2016 Raymond James Community Bankers Cup award.Stock Returns: Home Bancshares Inc   is Beating ... - CML NewsHome BancShares Inc.  Director Sells $999088.28 in Stock - Petro Global News 24'
p7
aS'Home BancShares Inc.  Moves Higher on Volume Spike for March 27 Equities.com - Mar 27, 2017 Home BancShares Inc.  traded on unusually high volume on Mar. 27, as the stock gained 0.68% to close at $26.83. On the day, Home BancShares Inc. saw 864,830 shares trade hands on 6,928 trades. Considering that the stock averages only a daily&nbsp;...'
p8
aS"Home BancShares, Inc. and Centennial Bank Announce Successful Bid to Purchase ... GlobeNewswire  - Nov 17, 2016 CONWAY, Ark., Nov. 17, 2016  -- Earlier today, at a hearing of the U.S. Bankruptcy Court for the Middle District of Florida in Tampa, Florida, Home BancShares, Inc.  , parent company of&nbsp;...Home BancShares to Buy Bank of Commerce in Florida - Arkansas Business OnlineCentennial's parent buying Bank of Commerce - Sarasota Herald-Tribune"
p9
aS'Home BancShares, Inc.  Ex-Dividend Date Scheduled for February 06, 2017 Nasdaq - Feb 3, 2017 Home BancShares, Inc.  will begin trading ex-dividend on February 06, 2017. A cash dividend payment of $0.09 per share is scheduled to be paid on March 01, 2017.'
p10
a.