(lp0
S'Cover story: Are emerging markets the next wildcard investment? Fund Strategy - Apr 20, 2016 Famously Warren Buffett once said that when it comes to investing be fearful when others are greedy and greedy when others are fearful.'
p1
aS'Pacific Investments launches new offering in commercial foreign exchange FX-MM - Apr 30, 2012 Digby is joined on the advisory board by Sir John Beckwith and Jim Pettigrew, the former CFO of ICAP plc and currently a non-executive director of Aberdeen Asset Management and Hermes. Argentex offers a distinct and innovative ... Pacific Investments ...'
p2
aS'Royal Mail rivals DPD and Hermes step up parcel delivery competition Financial Times - Feb 8, 2016 The expansion illustrates the large investments pouring into infrastructure in the parcel industry as shoppers shift en masse to ecommerce.'
p3
aS'National Grid to sell 61% of gas business to Sino-Australian group Financial Times - Dec 8, 2016 Allianz Capital Partners, UK asset manager Hermes Investment Management and the Qatar Investment Authority are also part of the consortium, along with Amber Infrastructure and Dalmore Capital, two UK fund managers.Clifford Chance and Linklaters advise on 13.8bn National Grid purchase - The Lawyer National Grid to sell unit, return 4 billion cash - MarketWatch'
p4
aS"Walker: The perfect time to buy this exceptional EM fund that doesn't follow ... FE Trustnet - Nov 9, 2015 On top of that, Skagen KonTiki - despite being benchmarked against the MSCI Emerging Markets index - sits in the IA Global sector rather than the IA Global Emerging Markets sector as the managers can invest up to 50 per cent in developed market-listed&nbsp;..."
p5
aS"Fund profile: Hermes Global Emerging Markets Money Observer - Sep 11, 2015 This has much to do with the expertise of Gary Greenberg, who has managed the fund since its inception and who brings over 20 years' experience of investing in emerging markets to the portfolio. Greenberg also adds a sustainable edge to the fund, as he&nbsp;..."
p6
aS'IA consults on fund charges proposals FE Trustnet - Feb 29, 2016 Asset manager trade body seeks feedback from industry and invesors on attempt to standardise fund charges aimed at promoting accountability of asset managers to investors.'
p7
aS'Next generation of star fund managers: six names tipped to shine Money Observer - Dec 19, 2016 Interactive Investor is 21 years old. To celebrate, our top journalists and the great and the good of the City have written a series of articles discussing some of the changes in the investment world over the past 21 years, and what the future might ...'
p8
aS'Poor corporate governance prompts 30bp underperformance Fund Strategy - Sep 7, 2016 Companies with poor corporate governance underperform well governed businesses by 30bps a month, according to new analysis released today.'
p9
aS"What the dawn of 'Trumponomics' means for investors Money Observer - Dec 1, 2016 For example, property vehicles such as real estate investment trusts  have been an attractive investment for yield-starved investors in an environment of ultra-low rates."
p10
a.