(lp0
S'HRG Group Provides Update On CEO Transition PR Newswire  - Mar 22, 2017 NEW YORK, March 22, 2017 /PRNewswire/ -- HRG Group, Inc.  today announced that Omar Asali, President and Chief Executive Officer, has informed the Company that he will resign from the Company and its&nbsp;...'
p1
aS"Analyst's Indicator Review for HRG Group, Inc. , Associated Banc-Corp  The USA Commerce - 16 hours ago Presently HRG Group, Inc.  stock have an ABR of NA. This is built on a simplified 1 to 5 scale where 1 represents a Strong Buy and 5 a Strong Sell."
p2
aS'HRG Group, Inc. Announces Sale of its Oil and Gas Business PR Newswire  - Jul 5, 2016 NEW YORK, July 5, 2016 /PRNewswire/ -- HRG Group, Inc.  today announced that its wholly-owned subsidiary, HGI Energy Holdings, LLC , has entered into an agreement to sell 100% of its equity interest&nbsp;...HRG Group  Unit to Sell Compass Production Partners in $145M Deal - StreetInsider.com'
p3
aS"Investors Targeted Stock: HRG Group, Inc.'s  Is stories - 16 hours ago HRG Group, Inc.'s  witnessed a gain of 0.11% in recent trading period with closing price of $ 19.03. The company's last traded volume of 0.89 million shares was up it's an average volume of 1.31 million shares."
p4
aS'HRG Group, Inc. Reports First Quarter Results PR Newswire  - Feb 7, 2017 7, 2017 /PRNewswire/ -- HRG Group, Inc. , a holding company that conducts its operations principally through its operating subsidiaries, today announced its consolidated results for the first quarter of Fiscal 2017 ...'
p5
aS'HRG Group  CEO Omar Asali to Step Down; Company to Explore Strategic ... StreetInsider.com - Nov 17, 2016 HRG Group, Inc. , a holding company that conducts its operations principally through Spectrum Brands Holdings, Inc. , a branded consumer products company, and Fidelity &amp; Guaranty Life , a life insurance and annuity&nbsp;...HRG Group says it explores possible sale, CEO Asali plans exit - Seeking Alpha'
p6
aS'Stock Tracker: Trend Analysis on HRG Group Inc  Baxter Review - 15 hours ago Shares of HRG Group Inc  currently have a 14-day ADX of 53.9. The ADX was developed by J. Welles Wilder to help determine trend strength.'
p7
aS'Looking Mainly At Fundamentals: HRG Group, Inc. , Polaris Industries Inc ... USA Commerce Daily - 23 hours ago Shares of HRG Group, Inc.  are making a strong comeback as they have jumped 52.24% since bottoming out at $12.5 on Jun. 28, 2016.'
p8
aS'Central Garden &amp; Pet Company versus HRG Group Inc Head to Head Compare CML News - Mar 27, 2017 Central Garden &amp; Pet Company has a substantially higher fundamental rating then HRG Group Inc which has an impact on the head-to-head comparison.'
p9
aS"HRG Group Inc.  Breaks into New 52-Week High on February 22 Session Equities.com - Feb 22, 2017 Shares of HRG Group Inc.  broke into a new 52-week high yesterday, hitting a peak of $18.34. Shares closed at $18.34 after opening at $18.14 for a move of 1.05%.Analyst's Predictions on AGNC Investment Corp. , HRG Group, Inc.  - StockNewsJournal"
p10
a.