(lp0
S'3 Reasons Hospira, Inc. Stock Could Fall Motley Fool - Aug 22, 2014 Hospira topped off those strong results with higher top and bottom line guidance for the rest of the year. The company also announced that the FDA had cleared its troubled Rocky Mount plant in North Carolina, which has weighed on its bottom line for ...'
p1
aS'Pfizer to Buy Hospira for $16 Billion Wall Street Journal - Feb 5, 2015 Pfizer Inc. said Thursday it would buy smaller rival Hospira Inc. in a $16 billion deal that would transform the New York pharmaceutical company into a leading player in the emerging market for lower-priced knockoffs of costly biotech drugs.'
p2
aS"Hospira Announces First Installation of Plum 360 Infusion System With ... PR Newswire  - Aug 27, 2015 LAKE FOREST, Ill., Aug. 27, 2015 /PRNewswire/ -- Hospira, Inc. , the world's leading provider of injectable drugs and infusion technologies, today announced the first installation of the Plum 360 infusion system with Hospira MedNet,&nbsp;...Hospira announces first installation of Plum 360 infusion pump - DOTmed.com"
p3
aS"Hospira Reports Second-Quarter 2015 Results PR Newswire  - Jul 29, 2015 LAKE FOREST, Ill., July 29, 2015 /PRNewswire/ -- Hospira, Inc. , the world's leading provider of injectable drugs and infusion technologies, and a global leader in biosimilars, today reported results for the second quarter ended June 30, 2015."
p4
aS'Hospira Acquisition To Add Shareholder Value For Pfizer Seeking Alpha - Sep 7, 2015 The acquisition of Hospira will bring a new set of generic product offerings to Pfizer. The new products will add revenue immediately, creating incremental shareholder value in the current quarter and significant shareholder value over the long term ...'
p5
aS"Medicines Company v. Hospira, Inc Lexology  - Aug 29, 2016 The plaintiff, The Medicines Company , sued in the District of Delaware alleging that the defendant's Abbreviated New Drug Application  filings infringed certain claims of the patents-in-suit, including two product-by-process claims."
p6
aS"Hospira Can't Get Helsinn Aloxi Suit Dismissed Bloomberg BNA - Apr 8, 2016 April 7 - Hospira Inc. failed in its bid to get Helsinn Healthcare SA's patent infringement suit against it over the anti-nausea drug Aloxi thrown out."
p7
aS"Pfizer Said to Weigh Sale of Pump Unit Acquired in Hospira Deal Bloomberg - Jan 14, 2016 Pfizer Inc. is weighing a sale of the pumps and devices business it acquired in last year's purchase of Hospira Inc., people with knowledge of the matter said."
p8
aS'ICU Medical, Inc. Provides Update on Hospira Infusion Systems Transaction GlobeNewswire  - Jan 5, 2017 SAN CLEMENTE, Calif., Jan. 05, 2017  -- ICU Medical, Inc. , a leader in the development, manufacture and sale of innovative medical devices used in infusion therapy, oncology and critical care applications, today&nbsp;...'
p9
aS"Pfizer Sells Hospira's Device Business To ICU For $1B Med Device Online  - Oct 7, 2016 Pfizer has entered into a definitive agreement to sell off Hospira's infusion pump and medical device businesses to ICU Medical for $1B in cash and stock.ICU Medical Inc. to Acquire the Hospira Infusion Systems Business from Pfizer ... - GlobeNewswire ICU Medical to pay Pfizer $1B for Hospira infusion pump biz - Mass Device"
p10
a.