(lp0
S'Houston American Energy Corp. to Present at the 23rd Annual Oil &amp; Gas ... Yahoo Finance - 17 hours ago HOUSTON, TX / ACCESSWIRE / March 28, 2017 / Houston American Energy Corp.  announced today that it will be presenting at the 23rd Annual Oil &amp; Gas Investment Symposium  in New York City at the Sheraton&nbsp;...'
p1
aS"Houston energy company struggles to maintain listing compliance Houston Business Journal - 14 hours ago Houston American Energy Corp. is struggling to maintain compliance with NYSE MKT LLC listing standards and has included a &quot;going concern qualification&quot; in its latest annual report.Traders Spotlight: Houston American Energy Corp.'s  stock price is at $0 ... - WsNews 4investors"
p2
aS'Houston American Energy Corp. Regains Compliance with NYSE MKT Minimum Selling ... PR Newswire  - Mar 2, 2017 HOUSTON, March 1, 2017 /PRNewswire/ -- Houston American Energy Corp.  today announced receipt, on March 1, 2017, of notification from NYSE Regulation that the Company is back in compliance with Section&nbsp;...'
p3
aS'Houston American Energy receives Notification of Continuing NYSE MKT Listing ... Oil & Gas Financial Journal - Mar 23, 2017 Houston American Energy Corp. is a publicly-traded independent energy company with interests in oil and natural gas wells, minerals and prospects.'
p4
aS'Houston American Energy Corp. Announces Hiring of Investment Banker to Assist ... PR Newswire  - Jun 13, 2016 HOUSTON, June 13, 2016 /PRNewswire/ -- Houston American Energy Corp.   today announced that it has engaged Drexel Hamilton, a New York-based full-service institutional broker-dealer focused on investment&nbsp;...'
p5
aS'Houston American Energy Announces Accelerated Target Date For Spudding Initial ... PR Newswire  - Mar 6, 2017 HOUSTON, March 6, 2017 /PRNewswire/ -- Houston American Energy Corp.  today announced that the target date for spudding an initial well on its recently acquired Permian Basin acreage has been moved up to the first week of May&nbsp;...'
p6
aS'Houston American Energy Announces Closing Of Acquisition Of Interest In ... PR Newswire  - Feb 9, 2017 HOUSTON, Feb. 9, 2017 /PRNewswire/ -- Houston American Energy Corp.  today announced that it has completed the acquisition of a 25% working interest in two lease blocks covering 717.25 acres in Reeves County, Texas.'
p7
aS'HOUSTON AMERICAN ENERGY CORP.  Files An 8-K Departure of ... Market Exclusive - Mar 20, 2017 Houston American Energy Corp. is an independent oil and gas company focused on the development, exploration, exploitation, acquisition, and production of natural gas and crude oil properties in the United States Gulf Coast region and in South America.'
p8
aS'Houston American Energy Closes Delaware Basin Acreage Acquisition Oil and Gas Investor  - Feb 9, 2017 On Feb. 9, Houston American Energy Corp. said it completed the $986,000 acquisition of a 25% working interest in two lease blocks in Reeves County, Texas, from Founders Oil &amp; Gas II LLC.'
p9
aS"Houston American Energy Corporation  To Seek Financial Alternatives Scibility Media - May 18, 2016 Delays to commence work at Houston American Energy Corporation 's Serrania block in Colombia have triggered a need for review of the company's strategic alternatives."
p10
a.