(lp0
S'Haverty Furniture Companies: Undercovered And Undervalued Seeking Alpha - Jun 10, 2015 Haverty Furniture Companies Inc.  is a specialty retailer of residential furniture and accessories primarily in the Southern and Midwestern regions.'
p1
aS'Is Haverty Furniture Companies Inc  As Financially Strong As Its Low Debt ... Simply Wall St - Feb 21, 2017 Companies with small market capitalization such as Haverty Furniture Companies Inc , while they can deliver high growth, financial strength is the deciding element in their long-term existence.Haverty Furniture Companies Inc.  Soars 6.75% on February 22 - Equities.comHaverty Furniture Companies, Inc.  Posts Quarterly Earnings Results ... - The Cerbat Gem'
p2
aS'Haverty Furniture Companies Inc.  Moves Lower on Volume Spike for March 17 Equities.com - Mar 17, 2017 Haverty Furniture Companies Inc.  traded on unusually high volume on Mar. 17, as the stock lost 0.63% to close at $23.50.Haverty Furniture Companies, Inc.  Stake Lowered by Franklin Resources Inc. - Chaffey BreezeJenny H. Parker Sells 6000 Shares of Haverty Furniture Companies, Inc.  Stock - The Cerbat Gem'
p3
aS'Haverty Furniture Companies Inc.  Moves Lower on Volume Spike for March 10 Equities.com - Mar 10, 2017 Haverty Furniture Companies Inc.  traded on unusually high volume on Mar. 10, as the stock lost 1.32% to close at $22.40.Average Price Target Of 30.00 Issued For Haverty Furniture Companies, Inc ... - Fiscal StandardTrading Covered Calls: Haverty Furniture Companies Inc  : Covered ... - CML News'
p4
aS"Havertys  Special Cash Dividend and Quarterly Dividend Announced GlobeNewswire  - Nov 8, 2016 ATLANTA, Nov. 08, 2016  -- HAVERTYS   announced today that its board of directors authorized a special cash dividend to be paid on the outstanding shares of Havertys' two classes of common stock at a rate&nbsp;..."
p5
aS'Haverty Furniture Companies Inc.: Havertys Reports Earnings for Fourth Quarter ... The Wall Street Transcript - Feb 21, 2017 ATLANTA, Feb. 21, 2017  -- HAVERTYS   reports earnings for the quarter ended December 31, 2016 of $0.51 per share compared to $0.41 per share for the same period of 2015.'
p6
aS"Haverty Furniture Companies, Inc. : A look at Yield &amp; Technicals TCT - 6 hours ago The EBITDA Yield for Haverty Furniture Companies, Inc.  is 13.37%. This number is calculated by dividing a company's earnings before interest, taxes, depreciation and amortization by the company's enterprise value."
p7
aS'Haverty Furniture Companies, Inc.  Broker Price Targets For The ... Fiscal Standard - Mar 28, 2017 Recently analysts working for various investment brokerages have changed their ratings and price targets on shares of Haverty Furniture Companies, Inc. . According to the the latest analyst ratings which have been released, 0 brokers have&nbsp;...'
p8
aS'Havertys Announces Timing of Fourth Quarter and Full-Year 2016 Earnings ... GlobeNewswire  - Feb 15, 2017 ATLANTA, Feb. 15, 2017  -- HAVERTYS  and  reported fourth quarter 2016 sales on January 9, 2017.'
p9
aS'Option Trading: Haverty Furniture Companies Inc  Powerful Short Put ... CML News - Feb 27, 2017 We find a very powerful outcome examining short put spreads for Haverty Furniture Companies Inc when we use a clever earnings risk management approach.Haverty Furniture Companies, Inc.  Receives Consensus Rating of Hold ... - Community Financial News'
p10
a.