(lp0
S"Technicals in Focus for Intercontinental Exchange, Inc.  The USA Commerce - 16 hours ago We have gathered the technical data on Intercontinental Exchange, Inc. , and see some interesting trends in the stock's behavior of late."
p1
aS"Intercontinental Exchange, Inc. performed Poor with a change of -0.75% in the ... Free Observer - 19 hours ago If you look at the company's income statement over the past years, you will see that the company is constantly posting gross profit: In 2014, ICE earned gross profit of 0, in 2015 0 gross profit, while in 2016 Intercontinental Exchange, Inc. (ICE ...Intercontinental Exchange, Inc. : From Top to Bottom - StockNewsJournalThe Intercontinental Exchange Inc  Lifted to Hold at Zacks Investment ... - Petro Global News 24"
p2
aS'Intercontinental Exchange Inc.  Ex-Dividend Date Scheduled for March 14, 2017 Nasdaq - Mar 13, 2017 Intercontinental Exchange Inc.  will begin trading ex-dividend on March 14, 2017. A cash dividend payment of $0.2 per share is scheduled to be paid on March 31, 2017.Taking a Fresh Look at Intercontinental Exchange, Inc.  - StockNewsJournalIntercontinental Exchange  Up 4.1% Since Earnings Report: Can It Continue? - Yahoo Finance'
p3
aS'Drilling Down Into Intercontinental Exchange, Inc.  StockNewsJournal - Mar 22, 2017 Intercontinental Exchange, Inc.  is an interesting player in the Financial space, with a focus on Diversified Investments.Intercontinental Exchange Seeks Permission to Appeal Trayport Sale Ruling - Finance MagnatesIntercontinental Exchange Inc  Upgraded by Zacks Investment Research to Hold - The Cerbat Gem'
p4
aS'Looking Mainly At Fundamentals: Intercontinental Exchange, Inc. , Humana ... USA Commerce Daily - 19 hours ago Shares of Intercontinental Exchange, Inc.  are on a recovery track as they have regained 31.1% since bottoming out at $45.88 on Apr. 12, 2016.'
p5
aS"Intercontinental Exchange Statement on Competition Appeal Tribunal's Trayport ... Yahoo Finance - Mar 13, 2017 Trademarks of ICE and/or its affiliates include Intercontinental Exchange, ICE, ICE block design, NYSE and New York Stock Exchange."
p6
aS"Intercontinental Exchange Reports ICE &amp; NYSE February 2017 Volumes Yahoo Finance - Mar 3, 2017 Intercontinental Exchange, Inc. , a leading operator of global exchanges and clearing houses and provider of data and listings services, today reported February 2017 trading volume and related revenue statistics, which can be viewed on the company ...Analyst's Proposition on Aetna Inc. , Intercontinental Exchange, Inc.  - The USA CommerceIntercontinental Exchange, Inc.  added to 92 new portfolios - Post Analyst"
p7
aS"Intercontinental Exchange Announces Election of Ann Cairns and Duriya Farooqui ... Yahoo Finance - Mar 6, 2017 Trademarks of ICE and/or its affiliates include Intercontinental Exchange, ICE, ICE block design, NYSE and New York Stock Exchange.UK's Competition Appeal Tribunal: Intercontinental Exchange, Inc Versus ... - Exchange News DirectUK Competition Appeal Tribunal reverses CMA decision on ICE-Trayport deal - FinanceFeeds "
p8
aS'Intercontinental Exchange, Inc.  Technicals Are Painting A Bleak Picture USA Commerce Daily - Mar 23, 2017 With all other things going on, Intercontinental Exchange, Inc.  has been on a run - rising 4.06 percent in just three months.'
p9
aS"Analyst's Proposition on Emerson Electric Co. , Intercontinental Exchange ... The USA Commerce - Mar 20, 2017 Shares of Emerson Electric Co.  surged 0.61% to $60.60. During the trading on 03/17/2017, Company's stock ranged from $59.91 to $60.78."
p10
a.