(lp0
S'Capgemini to Acquire iGate Corp.  for $48/Share StreetInsider.com - Apr 27, 2015 Capgemini announced an agreement overnight to acquire iGate Corp.  for $4.04 billion, or $48 per share in cash.Capgemini to acquire IGATE for $4B; Apax to exit with 3.7x - VC Circle'
p1
aS'iGate: the $1-billion-a-year company at the heart of the RBC temporary foreign ... Toronto Star - Apr 9, 2013 based iGate Corp. among a half-dozen fast-growing firms that have built their business providing Fortune 1000 companies around the world with a lower-cost source of high-tech labour in places like India.UPDATE: RBC outsource partner iGate has violated hiring laws before - globalnews.ca'
p2
aS'Capgemini raises $570M to part-finance IGATE acquisition VC Circle - Jun 10, 2015 French IT services giant Capgemini has raised around $570 million on Tuesday to part-finance its $4 billion deal to buy New Jersey-headquartered IGATE Corp. Apax Partners-backed IGATE, which acquired Patni Computer four years ago, has a large chunk&nbsp;...'
p3
aS'IGate Shareholders Sue To Block $4B Cap Gemini Merger Law360  - Jun 11, 2015 Law360, Philadelphia  -- New Jersey-based IT services company iGate Corp. shareholders launched a class action in Pennsylvania state court Wednesday aiming to block a $4 billion merger with French consulting corporation&nbsp;...'
p4
aS"Ashok Vemuri, CEO of iGate, resigns Livemint - Oct 6, 2015 New Delhi: Ashok Vemuri has quit as chief executive officer  of technology firm iGate Corp., the company's new owner Cap Gemini SA said Tuesday."
p5
aS"Capgemini to rejig structure, finish iGate buyout by mid-2016 Livemint - Aug 11, 2015 Capgemini, which is present in nine cities in India, employs about 85,000 people. Last month, the Competition Commission of India  had approved Capgemini's $4 billion deal to acquire iGate.IT firm Capgemini to rejig structure, finish iGate buyout by mid-2016 - ETTelecom.com"
p6
aS'iGate CEO Ashok Vemuri takes home handsome package of $1.79 million; Sujit ... Economic Times - Apr 30, 2015 BENGALURU: Ashok Vemuri, chief executive of US-based information technology services firm iGate Corp, took home a handsome package of $1.79 million, or about Rs 11 crore, last year, in addition to the $20 million he stands to make through stocks and&nbsp;...'
p7
aS'Why did iGATE erase the Patni name? Horses for Sources - Apr 21, 2012 This month iGATE Corp announced that it had raised an additional $265 million to buy-out the remaining shareholders of Patni stock and to delist Patni from the Indian bourse.'
p8
aS'Capgemini announces the $4 billion acquisition of IGATE Corporation Business Review Europe - Jul 3, 2015 The consulting and outsourcing firm Capgemini has announced the acquisition of IGATE Corporation, a prominent technology and services company headquartered in New Jersey, USA with 2014 revenues of $1.3 billion.Capgemini completes acquisition of IGATE - FirstpostCapgemini completes $4 billion acquisition of US-based IGATE Corporation - Supply Chain Digital'
p9
aS'IGate, Apax set to buy Patni in 3-stage deal for around $1 bn Livemint - Jan 4, 2011 ... are set to sell their 45.88% stake in the company, as is private equity  firm General Atlantic Llc its 17.5% in a structured deal to iGate Corp., backed by Apax Partners Llc, for around $1 billion , two investment bankers working ...Tax issues may delay iGate-Patni deal by a week - report - Reuters India'
p10
a.