(lp0
S'Informatica, Newly Private, Revamps Leadership Wall Street Journal - Jan 12, 2016 Informatica LLC, taken private in one of the biggest tech buyouts of 2015, plans on Tuesday to announce the executive team that will oversee a new cloud strategy and other changes as the company jockeys for position in the emerging big data landscape.'
p1
aS'Informatica Hires Former Oracle VP as CIO Wall Street Journal  - Jun 29, 2016 Informatica LLC has hired former Oracle Corp. vice president Graeme Thompson as chief information officer, as it seeks to grow its cloud and big data services, the company said.'
p2
aS'Informatica Taken Private in $5.3 Billion Deal Wall Street Journal - Apr 7, 2015 Data-software company Informatica Corp. agreed to be bought by Permira Advisers LLC and the Canada Pension Plan Investment Board for $5.3 billion, in the largest leveraged buyout so far this year.Informatica Could Feel A Tight Squeeze From Its New Owners - TechCrunchTwo private equity consortia in talks to buy Informatica: sources - Reuters'
p3
aS'Microsoft, Salesforce Invest in $5.3 Billion Informatica Deal Wall Street Journal - Aug 6, 2015 Microsoft Corp. and Salesforce.com Inc. have joined private-equity investors Permira Advisers LLC and the Canada Pension Plan Investment Board in the roughly $5.3 billion deal to take private data-software company Informatica Corp. The sizes of the ...Informatica seals $5.3B deal to go private - SiliconANGLE '
p4
aS'Microsoft and Salesforce Invest in Informatica Market Realist - Sep 1, 2015 After the announcement of converting Informatica into an LLC, hedge funds that stand to benefit from the deal include Elliott Management, Vanguard Group, and BlackRock Fund Advisors.'
p5
aS"Informatica  Stock Climbing Today as Private Equity Firms Plan Bids TheStreet.com - Mar 20, 2015 Silver Lake Partners LP and Hellman &amp; Friedman LLC have joined up ahead of a deadline for final bids for Informatica set for the beginning of April, sources told Reuters. If Informatica were to accept an offer it would be the year's largest leveraged ...Exclusive - Private equity firms prepare bids for Informatica: sources - Reuters"
p6
aS"Why Informatica Won't Be the Last Enterprise Software Buyout Target TheStreet.com - Apr 8, 2015 The buyout has drawn comparisons to Vista Equity Partners's $4.2 billion purchase last year of Tibco Software Inc., in which activist Praesidium Investment Management Co."
p7
aS"Moody's assigns B3 CFR to Italic Merger Sub ; outlook positive Moodys.com   - May 19, 2015 The proceeds from the new debt issuance along with approximately $2.5 billion of equity will be used to finance the acquisition of Informatica by a company controlled by funds advised by Permira Advisers LLC and Canada Pension Plan Investment Board for&nbsp;..."
p8
aS"Citrix, Teradata seen as potential targets after Informatica agrees to go private TheStreet.com - Apr 7, 2015 WHAT'S NEW: After reportedly receiving takeover offers from two private equity groups, Informatica this morning said that it has entered into an agreement to be acquired by a company controlled by the Permira funds and Canada Pension Plan Investment&nbsp;..."
p9
aS"StrikeIron CEO talks Informatica acquisition and Raleigh entrepreneurship Triangle Business Journal  - Jun 18, 2014 Sean O'Leary - CEO of StrikeIron and now a vice president at Informatica - speaks for the first time about the deal Wednesday, as well as what it means for Raleigh."
p10
a.