(lp0
S'Arotech Corporation versus Innovative Solutions and Support Inc Head to Head ... CML News - 18 hours ago Arotech Corporation has a higher fundamental rating than Innovative Solutions and Support Inc which has an impact on the head-to-head comparison.'
p1
aS'Innovative Solutions &amp; Support, Inc. Announces Settlement of Lawsuit Business Wire  - Feb 23, 2017 EXTON, Pa.----Innovative Solutions &amp; Support, Inc.  today announced a settlement of its previously disclosed lawsuit with Delta Air Lines, Inc. .'
p2
aS'Next Weeks Broker Price Targets For Innovative Solutions And Support, Inc ... Fiscal Standard - Mar 28, 2017 02/28/2014 - Innovative Solutions and Support, Inc. was upgraded to buy by analysts at TheStreet. The share price of Innovative Solutions and Support, Inc.  was up +0.00% during the last trading session, with a day high of 3.03.'
p3
aS'Does Zero-Debt Really Make Innovative Solutions and Support Inc  A ... Simply Wall St - Dec 14, 2016 The direct benefit for Innovative Solutions and Support Inc , which sports a zero-debt capital structure, to include debt in its capital structure is the reduced cost of capital.'
p4
aS"Notable movements of Stock: Innovative Solutions and Support, Inc.'s (ISSC ... Street Updates - Feb 27, 2017 Innovative Solutions and Support, Inc.'s  , a stock from Aerospace/Defense Products &amp; Services Industry, has a value of $3.28 per share, noted a price change of 0.61% in recent trade close."
p5
aS'Innovative Solutions And Support, Inc.  Broker Price Targets For ... Fiscal Standard - Mar 18, 2017 Recently analysts working for various investment brokerages have changed their ratings and price targets on shares of Innovative Solutions and Support, Inc. . According to the the latest analyst ratings which have been released, 0 brokers&nbsp;...'
p6
aS'Innovative Solutions And Support, Inc.  Under Analyst Spotlight UK Market News - Mar 1, 2017 Amid volatile financial markets and the presidential election, various investment brokerages have made amendments to their price targets and ratings on shares of Innovative Solutions and Support, Inc. . Based on the latest brokerage notes&nbsp;...'
p7
aS'Investor Focus on Shares of Innovative Solutions and Support, Inc.  Lenox Ledger - 13 hours ago Investors might be taking note of Return on Invested Capital  data for Innovative Solutions and Support, Inc. . ROIC is a financial metric that measures how efficient a company is with earning cash flow through invested capital. A ...'
p8
aS"China Lodging Group, Ltd   Reaches $64.00 52-Week High; Innovative ... MoneyMakingArticles - Mar 24, 2017 The stock of China Lodging Group, Ltd   hit a new 52-week high and has $68.48 target or 7.00% above today's $64.00 share price."
p9
aS'Innovative Solutions And Support, Inc.   Brokers Update Their Views NewsDen - Mar 13, 2017 A number of investment brokers have recently updated their price targets on shares of Innovative Solutions and Support, Inc. . Most recent broker ratings. 07/31/2014 - Innovative Solutions and Support, Inc. had its buy rating reiterated ...'
p10
a.