(lp0
S'JB Hunt Transport Services is Oversold Nasdaq - Mar 23, 2017 But making J.B. Hunt Transport Services, Inc. an even more interesting and timely stock to look at, is the fact that in trading on Thursday, shares of JBHT entered into oversold territory, changing hands as low as $90.72 per share.'
p1
aS'Why Investors remained confident on JB Hunt Transport Services, Inc. (JBHT ... StockNewsJournal - 17 hours ago ROI deals with the invested cash in the company and the return the investor realize on that money based on the net profit of the business.JB Hunt Transport Services Inc.  Moves Higher on Volume Spike for March 27 - Equities.comAnalytical Guide for JB Hunt Transport Services, Inc. , Sunoco Logistics ... - The USA Commerce'
p2
aS"JB Hunt Transport Services Inc., U of A Create Supply Chain Innovation Center University of Arkansas Newswire - Mar 22, 2017 FAYETTEVILLE, Ark. - J.B. Hunt Transport Services Inc. is making a $2.75 million investment in the University of Arkansas to create the J.B.JB Hunt Gives $2.7M to Set Up Innovation Center at UA - Arkansas Business OnlineHunt's $2.75M to set up UA hub - Arkansas Online"
p3
aS'JB Hunt Transport Services, Inc.  Ex-Dividend Date Scheduled for ... Nasdaq - Feb 7, 2017 J.B. Hunt Transport Services, Inc.  will begin trading ex-dividend on February 08, 2017. A cash dividend payment of $0.23 per share is scheduled to be paid on February 24, 2017.'
p4
aS'JB Hunt Lowers Guidance After Earnings Miss Wall Street Journal - Jul 18, 2016 J.B. Hunt Transport Services Inc. on Monday cut its forecast for the year and posted lower-than-expected earnings in the latest quarter as higher costs offset revenue growth.'
p5
aS"Insider Trading Activity JB Hunt Transport Services Inc   SVP ... Market Exclusive - Mar 13, 2017 On 10/31/2012 James L Robo, Director, bought 4,500 with an average share price of $57.49 per share and the total transaction amounting to $258,705.00.Today's Brokerage Rating: JB Hunt Transport Services, Inc. , Charter ... - StockNewsJournalAnalyst's Indicator Review for VMware, Inc. , JB Hunt Transport Services ... - The USA Commerce"
p6
aS'Trucker JB Hunt Will Add to Fleet in 2017 Wall Street Journal - Nov 8, 2016 As weak demand sends new heavy-duty truck orders plummeting, at least one major carrier is planning to put more vehicles on the road.JB Hunt Transport Services, Inc. Releases 2017 Performance Expectations - Business Wire '
p7
aS'JB Hunt Transport Has Weathered The Storm. Now What? Seeking Alpha - Jan 23, 2017 For 2016, JB Hunt witnessed a much slower growth rate for diluted EPS as operating revenues accelerated. Despite the slowdown and mixed operating revenue and profits, JB Hunt has outperformed most of its peers the previous two years. Looking to 2017&nbsp;...'
p8
aS"What's Acceptable Profitability For Global Payments Inc.  and JB Hunt ... USA Commerce Daily - 19 hours ago Shares of Global Payments Inc.  are on a recovery track as they have regained 31.25% since bottoming out at $59.55 on Mar. 28, 2016."
p9
aS'JB Hunt Transport - Investing For The Inevitable Turnaround Seeking Alpha - Oct 24, 2016 Like many trucking industry peers, being prepared for a tightening truck market is a must. For J.B. Hunt, intermodal, dedicated and truck-asset-based operating segments have continued to witness tractor and trailer equipment growth.'
p10
a.