(lp0
S"Mover inside Traders Radar: Lifetime Brands, Inc.'s  Is stories - Mar 27, 2017 Lifetime Brands, Inc.'s  witnessed a gain of 1.53% in recent trading period with closing price of $ 19.90."
p1
aS'Lifetime Brands gets takeover offer from Mill Road Capital Newsday - Mar 14, 2017 Private investment firm Mill Road Capital Management LLC has offered to buy Garden City-based Lifetime Brands Inc. for $20 per share.Lifetime Brands cuts the mustard as profits soar - Proactive Investors USA & CanadaMill Road Capital Offers $20.00 Per Share to Acquire Lifetime Brands, Inc. - Yahoo Finance'
p2
aS"Lifetime Brands, Inc. Acquires Copco Gifts & Decorative Accessories - Oct 6, 2016 Mr. Siegel continued, Like the three kitchen brands we recently acquired from Focus Products Group, the Copco brand fits perfectly into Lifetime's platform and we have the resources to quickly enhance its performance. Moreover, since Copco branded&nbsp;..."
p3
aS"Lifetime Brands, Inc. Announces Results of 2016 Annual Meeting Business Wire  - Jun 10, 2016 GARDEN CITY, N.Y.----Lifetime Brands, Inc. , a leading global provider of branded kitchenware, tableware and other products used in the home, announced the results of the votes taken at the Company's 2016 Annual&nbsp;..."
p4
aS'Lifetime Brands Inc.: Lifetime Brands to Report Fourth Quarter 2016 Financial ... The Wall Street Transcript - Feb 27, 2017 GARDEN CITY, N.Y., Feb. 27, 2017  -- Lifetime Brands, Inc. , a leading global provider of kitchenware, tableware and other products used in the home, will release its fourth quarter 2016 financial results at 7:00 a.m.Lifetime Brands, Inc.  Reviewed By Analysts - The De Soto Edge'
p5
aS'Lifetime Brands Inc.  Moves Lower on Volume Spike for March 23 Equities.com - Mar 23, 2017 Lifetime Brands Inc.  traded on unusually high volume on Mar. 23, as the stock lost 1.51% to close at $19.60. On the day, Lifetime Brands Inc. saw 147,296 shares trade hands on 922 trades. Considering that the stock averages only a daily volume ...Zacks: Analysts Set $19.00 Target Price for Lifetime Brands Inc  - The Cerbat GemLifetime Brands Inc  Downgraded by Sidoti to Neutral - BNB Daily '
p6
aS'Zacks: Lifetime Brands Inc  Given $19.00 Average Price Target by Brokerages Sports Perspectives - Mar 28, 2017 Lifetime Brands logo Shares of Lifetime Brands Inc  have earned an average broker rating score of 0.00  from the one brokers that cover the company, Zacks Investment Research reports.Lifetime Brands, Inc.  Broker Price Targets For The Coming Week - Fiscal Standard'
p7
aS"Lifetime Brands'  CEO Jeffrey Siegel on Q3 2016 Results - Earnings Call ... Seeking Alpha - Nov 8, 2016 Good day, ladies and gentlemen, and welcome to the Lifetime Brands Inc. Third Quarter 2016 Earnings Conference Call. At this time, all participants are in a listen-only mode."
p8
aS'Lifetime Brands Buys Wilton Armetale Gourmet Retailer - Apr 6, 2016 Lifetime Brands Inc. has purchased Wilton Armetale, the Lancaster County, Pa.-based company known for its unique aluminum alloy tableware and grillware.'
p9
aS'Lifetime Brands Inc.  Moves Lower on Volume Spike for February 28 Equities.com - Feb 28, 2017 Lifetime Brands Inc.  traded on unusually high volume on Feb. 28, as the stock lost 3.97% to close at $14.50. On the day, Lifetime Brands Inc. saw 49,305 shares trade hands on 502 trades. Considering that the stock averages only a daily volume of&nbsp;...'
p10
a.