(lp0
S"Landauer, Inc. Comments on Gilead's Nomination of Directors PR Newswire  - Dec 19, 2016 19, 2016 /PRNewswire/ -- Landauer, Inc. , a recognized leader in personal and environmental radiation measurement and monitoring and outsourced medical physics services, today issued the following statement in response to Gilead Capital&nbsp;..."
p1
aS'Landauer, Inc. Names Mike Kaminski President And Chief Executive Officer ... PR Newswire  - Aug 26, 2015 26, 2015 /PRNewswire/ -- Landauer, Inc. , a recognized leader in personal and environmental radiation measurement and monitoring, outsourced medical physics services and high quality medical consumable accessories, today announced that&nbsp;...'
p2
aS'Landauer, Inc. Appoints Teri Fontenot to Board of Directors PR Newswire  - Sep 28, 2016 28, 2016 /PRNewswire/ -- Landauer, Inc. , a recognized leader in personal and environmental radiation measurement and monitoring and outsourced medical physics services, today announced that Teri G. Fontenot has been appointed to the&nbsp;...'
p3
aS'Landauer, Inc. Announces Dr. Craig Yoder To Lead Its Technology Advisory Board PR Newswire  - Feb 11, 2015 GLENWOOD, Ill., Feb. 11, 2015 /PRNewswire/ -- Landauer, Inc. , a recognized leader in personal and environmental radiation measurement and monitoring, outsourced medical physics services and medical consumable accessories, today&nbsp;...'
p4
aS'Gilead Capital LP Sends Letter To The Board Of Directors Of Landauer, Inc. Seeking Alpha - Dec 21, 2016 Gilead Capital LP is an asset management firm based in New York City. It holds 5% stake in Landauer, Inc. Gilead Capital LP sent a letter to the Board of Directors of Landauer, claiming that the ex-Executive Chairman Michael Leatherman should step down&nbsp;...'
p5
aS'Landauer, Inc. Reports Fiscal 2015 First Quarter Results PR Newswire  - Mar 9, 2015 GLENWOOD, Ill., March 9, 2015 /PRNewswire/ -- Landauer, Inc. , a recognized leader in personal and environmental radiation measurement and monitoring, outsourced medical physics services and high quality medical consumable&nbsp;...'
p6
aS'Share Watch: Examining the Levels for Landauer, Inc.  The Standard - 15 hours ago Looking at shares of Landauer, Inc. , the company has an EV  of 568247. Enterprise Value is a measure of the total value of a specific company.'
p7
aS'Landauer, Inc. Announces Michael Leatherman To Replace William Saxelby As ... Benzinga - Aug 22, 2014 Landauer, Inc. , a recognized leader in personal and environmental radiation measurement and monitoring, outsourced medical physics services and high quality medical consumable accessories, announced today that William E. Saxelby,&nbsp;...'
p8
aS'Landauer Inc.  Moves Higher on Volume Spike for March 01 Equities.com - Mar 1, 2017 Landauer Inc.  traded on unusually high volume on Mar. 01, as the stock gained 6.51% to close at $55.65. On the day, Landauer Inc. saw 49,571 shares trade hands on 628 trades. Considering that the stock averages only a daily volume of 26,839&nbsp;...'
p9
aS'Landauer, Inc. Appoints Daniel J. Fujii To Vice President, Corporate ... PR Newswire  - Mar 17, 2014 &quot;We are very excited to have Dan join the Landauer team,&quot; said Michael Burke, Senior Vice President and Chief Financial Officer of Landauer, Inc. &quot;His extensive knowledge of global accounting processes and systems, as well as his keen business&nbsp;...'
p10
a.