(lp0
S'Northwest Bancshares, Inc. Completes Merger with LNB Bancorp, Inc. PR Newswire  - Aug 14, 2015 14, 2015 /PRNewswire/ -- Northwest Bancshares, Inc. , the holding company for Northwest Bank, announced today that it has successfully completed its merger with LNB Bancorp, Inc. , the holding company for The Lorain&nbsp;...Northwest Bank completes merger with Lorain National Bank - The Morning Journal'
p1
aS"Northwest Bancshares buys LNB Bancorp for $183 million Crain's Cleveland Business - Dec 16, 2014 LNB Bancorp Inc. , the parent of Lorain National Bank, is being acquired by Warren, Pa.-based Northwest Bancshares Inc.  in a combination cash and stock deal valued at $18.64 per share, or about $183.3 million.$183M acquisition will take Northwest Savings into Ohio - Buffalo Business FirstLorain National Bank sold to Northwest Bank of Warren - cleveland.com"
p2
aS'LNB Bancorp, Inc. Names James Baemel Senior Vice President &amp; SBA Lending Manager EON: Enhanced Online News  - Sep 27, 2013 CLEVELAND----James B. Baemel, a 27-year banking veteran, has been named senior vice president and SBA business lending manager for Lorain National Bank.'
p3
aS'LNB Bancorp, Inc.  Reviewed By Analysts The De Soto Edge - Mar 26, 2017 Stock market analysts watching LNB Bancorp, Inc.  have recently changed their ratings on the stock. The latest reports which are outstanding on Sunday 26th of March state 0 analysts have a rating of strong buy, 0 analysts buy, 0 analysts ...'
p4
aS"Northwest Bancshares, Inc. Enters Suburban Cleveland and Akron Markets through ... PR Newswire  - Dec 15, 2014 Daniel E. Klimas, President and Chief Executive Officer of LNB Bancorp, Inc., will be named Regional President and market leader for Northwest's Ohio franchise after the merger is consummated."
p5
aS'LNB Bancorp, Inc. Shareholders Vote to Approve Merger with Northwest ... Finances.com - Jun 16, 2015 LNB Bancorp, Inc.   today announced that its shareholders have voted to approve the previously announced merger of LNB with Northwest Bancshares Inc. I am pleased to report that our shareholders have&nbsp;...Lorain National Bank cutting 99 jobs in merger with Northwest Savings - The Morning Journal'
p6
aS'Northwest Bancshares, Inc. Selects Robert Campana To Serve As Director ... PR Newswire  - Jul 16, 2015 Mr. Campana has been a director of LNB Bancorp, Inc. and Lorain National Bank  since 1997. He has served on the executive, loan and compensation committees and currently is the chairman of the compensation committee.Northwest names Kevin Nelson Ohio Region president, Robert Campana director - The Morning Journal'
p7
aS"Next Weeks Broker Price Targets For LNB Bancorp, Inc.  Fiscal Standard - Jun 18, 2016 10/30/2014 - LNB Bancorp, Inc. was downgraded to hold by analysts at Sandler O'Neill. 08/08/2014 - LNB Bancorp, Inc. had its market perform rating reiterated by analysts at Keefe, Bruyette &amp; Woods. They now have a USD 12 price target on the stock."
p8
aS'Northwest Savings to acquire Lorain National Bank The Morning Journal - Dec 16, 2014 On Dec. 15, Northwest Bancshares and LNB Bancorp Inc. jointly announced a definitive merger agreement for Northwest to acquire Lorain National Bank in cash and stock transaction worth about $183.3 million, or $18.64 per share, according to the&nbsp;...'
p9
aS"Broker Outlook For The Week Ahead LNB Bancorp, Inc.  Fiscal Standard - Jun 4, 2016 LNB Bancorp, Inc. is a financial holding company. The Company's wholly owned subsidiary, The Lorain National Bank provides services, such as Commercial Lending, which includes commercial and industrial loans, commercial real estate loans,&nbsp;..."
p10
a.