(lp0
S"Snyder's-Lance, Inc. to Present at 2017 CAGNY Conference GlobeNewswire  - Feb 15, 2017 CHARLOTTE, N.C., Feb. 15, 2017  -- Snyder's-Lance, Inc. , today announced that the Company will present at the 2017 CAGNY Conference on Tuesday, February 21, 2017, at 4:15 p.m.Snyder's-Lance, Inc. Reports Fourth Quarter &amp; Full Year 2016 Results - VendingMarketWatchBMO Capital Upgrades the shares of Snyder's-Lance, Inc.  to ... - HugoPress"
p1
aS"Investor View: Looking at Shares of Snyder's-Lance, Inc.  Rives Journal - 10 hours ago Snyder's-Lance, Inc.  currently has a Gross Margin  ratio of 0.202158. Robert Novy-Marx has provided investors with insights on finding high-quality value stocks."
p2
aS"Snyder's-Lance, Inc.  Ex-Dividend Date Scheduled for February 21, 2017 Nasdaq - Feb 20, 2017 Snyder's-Lance, Inc.  will begin trading ex-dividend on February 21, 2017. A cash dividend payment of $0.16 per share is scheduled to be paid on March 03, 2017.Deutsche Bank AG Begins Coverage on Snyder's-Lance Inc  - BNB Daily Snyder's-Lance, Inc.  Shares Sold by Loomis Sayles &amp; Co. LP - Sports Perspectives"
p3
aS"Snyder's-Lance pushes farther into healthier snacks with investment in Denver ... Charlotte Business Journal - Feb 17, 2017 Snyder's-Lance Inc. is buying into a Denver-based company that makes natural and organic foods for customers. The Charlotte snack food maker  is investing in Natural Foodworks Group, which manufactures healthier foods and helps its&nbsp;..."
p4
aS"Snyder's-Lance Announces Rick Puckett to Retire as Executive Vice President ... PR Newswire  - May 26, 2016 CHARLOTTE, N.C., May 26, 2016 /PRNewswire/ -- Snyder's-Lance, Inc.  announced today that Rick Puckett, Executive Vice President and Chief Financial Officer, will retire as CFO on December 31, 2016.CFO Moves: Boston Properties, Lagardere, Snyder's-Lance - Wall Street Journal Rick Puckett to retire as CFO of Snyder's-Lance Dec. 31 - Charlotte Observer"
p5
aS"Snyder's-Lance: May Stay Busy Putting Off Fires Seeking Alpha - Oct 4, 2016 The company has an impressive collection of brands that have decent market share in their respective categories, but strong headwinds may limit gains for the shareholders."
p6
aS"Market View: Checking on the Technicals for Snyder's-Lance, Inc.  The Standard - Mar 28, 2017 Tracking shares of Snyder's-Lance, Inc. , the company has a current EV  of 5151748."
p7
aS"Snyder's-Lance to Report Third Quarter Results on November 7, 2016 GlobeNewswire  - Oct 17, 2016 CHARLOTTE, N.C., Oct. 17, 2016  -- Snyder's-Lance, Inc.  announced today that it will release its third quarter 2016 results before the market opens on Monday, November 7, 2016, followed by a conference call and live&nbsp;..."
p8
aS"Snyder's-Lance: Healthier Focus Seeking Alpha - Jul 25, 2016 Also, as Ken Shea of Bloomberg Intelligence recognizes, additional products help a company gain influence with supermarkets and more pricing power."
p9
aS"Snyder's-Lance  Q4 2016 Results - Earnings Call Transcript Seeking Alpha - Feb 13, 2017 Before we begin, I would like to point out that during today's presentation, the management may make forward-looking statements about our company's performance. Please refer to the Safe Harbor language included in our presentation. As a reminder, in ...Read this before buying Snyder's-Lance Inc  for its upcoming $0.16 dividend - Simply Wall StThree things learned from Snyder's-Lance 2016 earnings - Charlotte Business Journal"
p10
a.