(lp0
S"Microsoft Corp buys LinkedIn for $26.2 billion Financial Post - Jun 13, 2016 Microsoft Corp. has agreed to buy LinkedIn Corp. for US$26.2 billion, giving the world's largest software maker 433 million business cards to add to its rolodex.Microsoft to acquire LinkedIn in $US35b deal - ABC OnlineWow: the Story Behind LinkedIn Corp. Stock's Huge 48% Move - Motley Fool"
p1
aS"Microsoft's LinkedIn Corp Acquisition: An In-Depth Look Motley Fool - Jun 23, 2016 LinkedIn and Microsoft announced a big deal. In fact, it was Microsoft's biggest acquisition in history ever, paying $26.2 billion for the company."
p2
aS'LinkedIn Corp Is Killing Off One of Its Biggest Growth Opportunities Motley Fool - Feb 9, 2016 Less than a year after launching Lead Accelerator, LinkedIn  is shutting down the service. Lead Accelerator was a retargeting solution for marketers, allowing them to target their website visitors through native and display advertisements on&nbsp;...'
p3
aS'LinkedIn Corp Gets a Pink Slip as Shares Plummet 41% in February Motley Fool - Mar 10, 2016 LinkedIn reported fourth quarter results in the first week of February. The business-class social network beat its own revenue and earnings guidance, not to mention Wall Street consensus estimates.'
p4
aS"LinkedIn Corp Earnings: Solid All Around Motley Fool - Apr 29, 2016 But with the company's first quarter now behind it, it appears management's bleak outlook for the year had some meaningful conservatism baked into it.LNKD Stock: STELLAR Q1 Earnings Redeem LinkedIn Corp - Investorplace.comLinkedIn Corp. | $LNKD Stock | Shares Soar On Earnings Beat - TickerTV News "
p5
aS'Better Buy: LinkedIn Corp. vs. Facebook Inc. Motley Fool - Sep 22, 2016 It may seem like a distant memory now, but it was just February of this year that LinkedIn  lost nearly half its value following a &quot;disappointing&quot; 2016 Q1 outlook.'
p6
aS'Is LinkedIn Corp a Buy? Motley Fool - May 5, 2016 LinkedIn posted Q1 EPS of $0.74 on revenue of $860.7 million, well above the consensus estimates of $0.60 and $828.5 million, respectively.'
p7
aS'Why LinkedIn Corp. Has Fallen 15% in 2016 Motley Fool - Jun 24, 2016 That report left LinkedIn looking like a former growth stock, and investors were quick to remove premium-level valuation multiples from the shares.For LinkedIn China, Microsoft Deal Is a Complicated Connection - Wall Street Journal'
p8
aS'3 Ways LinkedIn Corp Plans to Grow Its Largest Business Motley Fool - Jun 9, 2016 LinkedIn  is a growth stock. Last quarter, the online network generated $861 million of revenue -- up 35% from the same quarter last year.'
p9
aS"Facebook Inc takes on LinkedIn Corp by letting businesses recruit people ... Financial Post - Feb 16, 2017 Facebook Inc. is rolling out a new feature for Canadian and U.S. businesses that will let them post jobs directly on the world's largest social media network, a move that places LinkedIn Corp. in the line of fire. Called Jobs, the new feature gives ...Facebook puts LinkedIn in crosshairs with new job listings service - Proactive Investors UKFacebook Users Mixed on New Job Postings - Fortune"
p10
a.