(lp0
S"Loral on the Launch Pad Barron's - Jun 8, 2013 A bad bet on satellite phones in the late 1990s, and a weak satellite market in the early 2000s sent Loral into bankruptcy in 2003."
p1
aS'Revenue Update on Loral Space &amp; Communications Ltd. Energy Index - Mar 13, 2017 Loral Space &amp; Communications Ltd. announced the earnings results for Fiscal Year 2016 and Q4. The results came in during Pre-Market on Mar 7, 2017.'
p2
aS"MHR Pushes for Board Seat at Loral Space &amp; Communications Ltd. ; Plus ... Insider Monkey  - Mar 10, 2015 Mark Rachesky's MHR Fund Management has filed a 13D with the Securities and Exchange Commission, which revealed that the investor sent a letter to Loral Space &amp; Communications Ltd.  and requested a representative of the fund to be&nbsp;..."
p3
aS"Loral Space &amp; Communications Ltd. : Highland Capital Reiterates Changes ... Insider Monkey  - Oct 10, 2014 James Dondero's Highland Capital Management has reiterated holding 9.9% of Loral Space &amp; Communications Ltd. ."
p4
aS"13D Filing: MHR Fund Management Further Ups Stake in Loral Space ... Insider Monkey  - Mar 11, 2016 Mark Rachesky's MHR Fund Management keeps raising its exposure to Loral Space &amp; Communications Ltd. . In a new filing with the US Securities and Exchange Commission, MHR reported holding 8.54 million shares of Loral Space&nbsp;..."
p5
aS'Should You Be Bullish on Callaway Golf Co , Loral Space &amp; Communications ... Insider Monkey  - Nov 12, 2016 Out of thousands of stocks that are trading on the US stock market, it may be hard for a retail investor to select those that can help to outperform the market.'
p6
aS'Trading Covered Calls: Loral Space &amp; Communications Inc (NASDAQ:LORL ... CML News - Jan 19, 2017 As we look at Loral Space &amp; Communications Inc we note that a covered call is one of the most common implementations of an option strategy, but the analysis completed when employing the covered call often times lacks the necessary rigor especially&nbsp;...'
p7
aS'Loral Space &amp; Communications Inc Price Volatility Hits A Tumbling Low CML News - Dec 22, 2016 This is a proprietary realized volatility rating created by Capital Market Laboratories  based on a large number of data interactions for Loral Space &amp; Communications Inc  . We examine the little used gem of daily stock volatility ...'
p8
aS'Silver Wheaton Corp.  Analysts See $0.22 EPS, Hawk Ridge Management ... MoneyMakingArticles - Mar 20, 2017 The California-based Schwab Charles Inv Mgmt has invested 0% in Loral Space &amp; Communications Ltd. . State Common Retirement Fund has invested 0% in Loral Space &amp; Communications Ltd. . Credit Suisse Ag has&nbsp;...'
p9
aS'Altisource Portfolio Solutions SA  Reaches $28.58 After 6.00% Up Move ... Herald KS - Mar 23, 2017 Loral Space &amp; Communications now has $833.24M valuation. The stock rose 0.48% or $0.19 reaching $39.04 per share. About 15,088 shares traded.'
p10
a.