(lp0
S"Why Lowe's Companies, Inc.  Stock Could Gain 20% in 2017 Investorplace.com - Mar 22, 2017 A strong housing market continues to be a major tailwind for Lowe's Companies, Inc. , which has pushed LOW stock up more than 12% in the last three months, outperforming Home Depot Inc , up about 9% during that span.The Case for and Against Lowe's Companies, Inc.  - StockNewsJournalLowe's Companies, Inc. declined in the Previous Trading Session with the ... - Free Observer"
p1
aS"Why Lowe's Companies, Inc.  Stock Is Making a Comeback Investorplace.com - Mar 13, 2017 For too many years, home improvement retailer Lowe's Companies, Inc.  struggled to keep up with bigger rival Home Depot Inc  in almost every possible metric."
p2
aS"Lowe's Companies, Inc.  Stock Not Worth the Premium Investorplace.com - Mar 9, 2017 Lowe's Companies, Inc.  soared after earnings on Mar 1. It beat analyst estimates with earnings of 86 cents per share, against 79 cents.Lowe's Companies, Inc. : What's the Story? - StockNewsJournalAnalyst's Proposition on Lowe's Companies, Inc. , Caterpillar Inc.  - The USA Commerce"
p3
aS"The Dust Has Cleared And Now Lowe's Companies, Inc.  And Its Technicals ... NY Stock News - 16 hours ago Lowe's Companies, Inc.  has created a compelling message for traders in the most recent trading. That message has grown stronger as the technical chart setup has developed into a more composite picture for the stock."
p4
aS"Lowe's Companies, Inc. subtracted -0.79% in its Stock Price in the Previous ... Free Observer - 16 hours ago Currently, the market capitalization of Lowe's Companies, Inc.  is 70.63 Billion. LOW has a 1-year high price of $84 and 1-year low price of $64.87.Active Volume Stock Update: Lowe's Companies, Inc.  - HugoPress"
p5
aS"Lowe's: A Total Return Candidate For The DGI Seeking Alpha - Feb 28, 2017 Under that premise, I wanted to take a look at one half of the effective hardware/home improvement duopoly, Lowe's Companies, Inc. . Lowe's valuation never seemed to line up with my available cash; however, since rolling over my 401, I'm&nbsp;..."
p6
aS"Should Investors Buy Lowe's Companies, Inc. Stock After Earnings? The Motley Fool Canada - Mar 3, 2017 Buy on the rumour, sell on the news. The old adage often proves to be correct. The fact that Lowe's Companies, Inc.  blew through analyst fourth-quarter estimates, gaining almost 10% in the process and closing within 3% of its all-time high,&nbsp;...Want to invest in Lowe's Companies Inc  today? Read this before - Simply Wall St"
p7
aS"Lowe's Companies, Inc.  Stock Soars on Q4 Earnings Beat Investorplace.com - Mar 1, 2017 Revenue reported by Lowe's Companies, Inc. in the fourth quarter of 2016 was $15.78 billion. Revenue reported by the home improvement retailer in the fourth quarter of 2015 was $13.24 billion.Lowe's: Did Not See That Coming - Seeking Alpha"
p8
aS"Lowe's Companies, Inc. performed Very Well with a change of 0.12% in the Last ... Free Observer - Mar 24, 2017 Currently the shares of Lowe's Companies, Inc.  has a trading volume of 3.41 Million shares, with an average trading volume of 4.86 Million shares - with shares dropping to a 52 week low of $64.87 on Nov 9, 2016, and the company's shares hitting a&nbsp;...Lowe's Companies, Inc.  Stake Increased by Santa Barbara Asset Management LLC - BNB Daily "
p9
aS"Today Analysts Focus on Lowe's Companies, Inc. , Kohl's Corporation  StockNewsJournal - Mar 27, 2017 ROI deals with the invested cash in the company and the return the investor realize on that money based on the net profit of the business."
p10
a.