(lp0
S'K12 Inc. Reaches $2.5 Million Settlement with State of California with ... GlobeNewswire  - Jul 8, 2016 HERNDON, Va., July 08, 2016  -- K12 Inc. , today announced that it has reached a $2.5 million settlement with the State of California, bringing to an end a lengthy investigation of K12 conducted by the Office of Attorney&nbsp;...California Attorney General probe leads to $168.5 million settlement with for ... - The Mercury NewsK12 Reaches Settlement With Calif. AG, but Acrimony Remains - Education Week '
p1
aS"Trump's Election Has Been Very Good For K12 Inc. Tucson Weekly - Jan 18, 2017 The impending demise of K12 Inc., the for-profit online school corporation, has been an occasional source of schadenfreude in my posts.How 'Mainstream' Outsider Betsy DeVos Plans to Lead the US Department of Education - EdSurgeOne night only: DeVos dodges tough Senate questions - AFT - A Union of Professionals "
p2
aS"Virtual school operator K12 Inc. faces challenge from stockholders demanding ... Washington Post - Dec 14, 2016 Virginia-based K12 Inc. is the largest operator of for-profit charter schools in the country and is a national leader in running online full-time public schools in numerous states.Nation's Largest Virtual School Chain Faces Heat Thursday From Shareholders ... - PR Newswire "
p3
aS'K12 Inc. Responds to Report on Virtual Charter Schools PR Newswire  - Jun 16, 2016 HERNDON, Va., June 16, 2016 /PRNewswire-USNewswire/ -- As a leading provider to online schools, K12 Inc. has collaborated with educators, policymakers, and organizations on best practices and policies for online and blended public schools.'
p4
aS'How Much Does K12 Inc. Spend on Lobbying? Some Shareholders Are Asking Education Week   - Dec 15, 2016 Some shareholders in K12 Inc., the largest for-profit operator of online schools in the country, are calling on the company to disclose how much it spends on lobbying and advertising.'
p5
aS'Watching the Numbers for K12 Inc  Baxter Review - 17 hours ago Shares of K12 Inc  currently have a 14-day ADX of 10.67. The ADX was developed by J. Welles Wilder to help determine trend strength.'
p6
aS"Bill targeting for-profit operator K12 Inc. clears first committee vote Santa Cruz Sentinel - Jun 29, 2016 Assemblywoman Susan Bonilla introduced Assembly Bill 1084 in response to this newspaper's investigation of K12 Inc., the publicly traded Virginia company behind a profitable but low-performing network of virtual academies serving about 15,000 ...Bill extending teacher probation dies in committee - EdSource"
p7
aS'California Reaches Settlement With K12 Inc Over Fraudulent Claims, K12 Inc ... EdSurge - Jul 11, 2016 TARNISHING THE GOLDEN STATE: California Attorney General Kamala Harris announced on July 8 that her office had reached a $168.5 million settlement as a result of its investigation into K12 Inc and its affiliate, California Virtual Schools . K12 ...NC virtual charter operator coughs up $168 million settlement in California case - The Progressive PulseK12 and California Virtual Academies Settle with State - T.H.E. Journal'
p8
aS"Online Learning is Acceptable Now More Than Ever: Check out K12 Inc.  Equities.com - Jan 27, 2017 K12 Inc.  is a for-profit education company that offers students an alternative to traditional schooling through online education.K12's  CEO Stuart Udell on Q2 2017 Results - Earnings Call Transcript - Seeking Alpha"
p9
aS'Consumer claims K12 Inc. has called more than 100 times to reach another party Florida Record - Mar 15, 2017 Harsha Cooke filed a complaint on March 14 in the U.S. District Court for the Southern District of Florida, Fort Lauderdale Division against K12 Inc. alleging violation of the Telephone Consumer Protection Act. According to the complaint, the plaintiff ...'
p10
a.