(lp0
S'Mondelez International, Inc.  Ex-Dividend Date Scheduled for March 29, 2017 Nasdaq - 19 hours ago Mondelez International, Inc.  will begin trading ex-dividend on March 29, 2017. A cash dividend payment of $0.19 per share is scheduled to be paid on April 13, 2017.'
p1
aS"Buffett Stocks In Focus: Mondelz International Seeking Alpha - Mar 2, 2017 Buffett is required to disclose his holdings through 13F filings, which are filed with the Securities and Exchange Commission and detail the company's portfolio of common stock investments. Mondelz International   is a holding ..."
p2
aS"Jarislowsky Fraser Ltd Has $35709000 Position in Mondelez International Inc  The Cerbat Gem - 17 hours ago Mondelez International logo Jarislowsky Fraser Ltd cut its stake in shares of Mondelez International Inc  by 1.0% during the fourth quarter, according to its most recent Form 13F filing with the Securities and Exchange Commission.Mondelez International, Inc. Posted losses of -0.62% in the Last Trade - Free ObserverToday's Brokerage Rating: Gilead Sciences, Inc. , Mondelez International ... - StockNewsJournal"
p3
aS'SNS Financial Group LLC Invests $226000 in Mondelez International Inc  Chaffey Breeze - Mar 13, 2017 Mondelez International logo SNS Financial Group LLC bought a new position in Mondelez International Inc  during the fourth quarter, according to its most recent filing with the Securities and Exchange Commission .'
p4
aS"Buffett Stocks In Focus: Mondelez International Inc  ValueWalk - Mar 1, 2017 Buffett is required to disclose his holdings through 13F filings, which are filed with the Securities and Exchange Commission and detail the company's portfolio of common stock investments. Mondelez International  is a holding in Berkshire ...Create Your Own Junk-Food Empire  - The Motley Fool Canada"
p5
aS'Comparison Of Mondelez And Want Want China Seeking Alpha - Mar 20, 2017 Mondelez is facing challenges trying to expand its top line sales growth, and even though it is focused on international sales, it is still very solidly profitable in North America, where it recently aborted an acquisition to buy Hershey (NYSE:HSY ...'
p6
aS'The Unified Clarity of The Technical Chart For Mondelez International, Inc ... NY Stock News - 16 hours ago Mondelez International, Inc.  has created a compelling message for traders in the most recent trading. That message has grown stronger as the technical chart setup has developed into a more composite picture for the stock.'
p7
aS"Buzzer within Investors Radar: Mondelez International, Inc.'s  Is stories - 28 minutes ago Mondelez International, Inc.'s  witnessed a gain of 0.39% in recent trading period with closing price of $ 43.70."
p8
aS"Moody's affirms Prime-2 rating on Mondelez expanded US commercial paper program Moodys.com   - Mar 2, 2017 New York, March 02, 2017 -- Moody's Investors Service,  today affirmed the Prime-2 rating on the US Commercial Paper  program of Mondelez International, Inc. , which the company announced today has been expanded to a&nbsp;..."
p9
aS"Tuesday's Vital Data: Advanced Micro Devices, Inc. , Mondelez ... Investorplace.com - Feb 28, 2017 U.S. stock futures are mixed heading into the last day of February, as Wall Street prepares for President Donald Trump's address to Congress later tonight."
p10
a.