(lp0
S'Methode Electronics, Inc. Announces CFO Transition Marketwired  - Jul 21, 2016 CHICAGO, IL-- - Methode Electronics, Inc. , a global developer of custom engineered and application specific products and solutions, announced John Hrudicka has been named its new chief financial officer and ...'
p1
aS'News Methode Electronics Inc.MEI Wall Street Journal - Feb 11, 2011 News Methode Electronics Inc.MEI. Significant News Only. 03/02/17; Press Release. Methode Electronics, Inc. Reports Fiscal 2017 Third-Quarter Sales and Earnings. Press Release. 03/01/17; Press Release.  Investor Network Invites You to the&nbsp;...'
p2
aS'Methode Electronics, Inc. Reports Fiscal 2017 Third-Quarter Sales and Earnings Marketwired  - Mar 2, 2017 CHICAGO, IL-- - Methode Electronics, Inc. , a global developer of custom engineered and application specific products and solutions, announced financial results for the third quarter and first nine months of ...Methode Electronics Inc : How fast will it grow? - Simply Wall StMethode Electronics Inc.  Moves Higher on Volume Spike for March 02 - Equities.com'
p3
aS'Why Methode Electronics, Inc. Jumped More Than 20% Thursday Motley Fool - Sep 3, 2015 What: Shares of Methode Electronics  soared as much as 24% higher on Thursday morning. The maker of electronic components and sensors manufacturer reported mixed first-quarter results in the early morning hours. So what: In the first quarter&nbsp;...'
p4
aS'Methode Electronics Inc.  Breaks into New 52-Week High on March 20 Session Equities.com - Mar 20, 2017 Shares of Methode Electronics Inc.  broke into a new 52-week high yesterday, hitting a peak of $46.40. Shares closed at $45.45 after opening at $46.35 for a move of -1.84%.The Stock In Focus  Methode Electronics, Inc.  - Transcript DailyEPS Of $0.64 Anticipated For Methode Electronics, Inc.  - Markets Daily'
p5
aS'Why Shares of Methode Electronics Inc. Fell More Than 30% Today Motley Fool - Jun 25, 2015 What: Shares of Methode Electronics  collapsed on Thursday after the company reported its fiscal-fourth-quarter earnings, coming up short of analyst estimates for revenue and guiding for a revenue decline in fiscal 2016.Methode Electronics  Shares Fall 30%: How Are Investors Reacting? - Zacks.com'
p6
aS'Methode Electronics, Inc. Adds Health Care Executive Martha Goldberg Aronson ... Marketwired  - Apr 21, 2016 CHICAGO, IL-- - Methode Electronics, Inc. , a global developer of custom engineered and application specific products and solutions, announced the election of Martha Goldberg Aronson as a director of the Company&nbsp;...'
p7
aS'Methode Electronics Inc. MarketWatch - Dec 21, 2009 Methode Electronics upgraded to outperform from neutral at RW Baird. 8:33 a.m. June 24, 2016. - Tomi Kilgore. Methode Electronics downgraded to neutral from outperform at RW Baird. 7:21 a.m. June 16, 2015. - Tomi Kilgore. 10 stocks that can withstand a&nbsp;...'
p8
aS'Methode Electronics Inc.  Position Cut by Metropolitan Life Insurance Co. NY Sports Perspectives - 17 hours ago Methode Electronics logo Metropolitan Life Insurance Co. NY reduced its position in shares of Methode Electronics Inc.  by 2.6% during the fourth quarter, according to its most recent filing with the SEC.Two Sigma Investments LP Sells 68425 Shares of Methode Electronics Inc.  - The Cerbat Gem'
p9
aS'Methode Electronics, Inc. Reports Fiscal 2017 First-Quarter Sales and Earnings Marketwired  - Sep 1, 2016 CHICAGO, IL-- - Methode Electronics, Inc. , a global developer of custom engineered and application specific products and solutions, announced financial results for the first quarter of Fiscal 2017 ended July 30 ...'
p10
a.