(lp0
S'MidWestOne Financial Group, Inc. Announces Launch of Public Offering of Common ... PR Newswire  - Mar 16, 2017 IOWA CITY, Iowa, March 16, 2017 /PRNewswire/ -- MidWestOne Financial Group, Inc.  , the parent company of MidWestOne Bank, announced today the launch of an underwritten public offering of shares of its common stock&nbsp;...Analysts Release Average Price Target Of 30.65 On MidWestOne Financial Group ... - UK Market News'
p1
aS"MidWestOne Financial Group Inc.  Moves Lower on Volume Spike for March 27 Equities.com - Mar 27, 2017 MidWestOne Financial Group Inc.  traded on unusually high volume on Mar. 27, as the stock lost 0.7% to close at $33.84.Latest Stocks: The FIG Partners Comments on MidWestOne Financial Group, Inc.'s ... - Petro Global News 24MidWestOne Financial Group, Inc.  Broker Price Targets For The ... - Fiscal Standard"
p2
aS'Stock Returns: Guaranty Bancorp  is Beating MidWestOne Financial ... CML News - 18 hours ago This is a snapshot to compare the stock returns for Guaranty Bancorp  versus MidWestOne Financial Group Inc  .'
p3
aS'MidWestOne Financial Group, Inc.  Ex-Dividend Date Scheduled for ... Nasdaq - Feb 24, 2017 MidWestOne Financial Group, Inc.  will begin trading ex-dividend on February 27, 2017. A cash dividend payment of $0.165 per share is scheduled to be paid on March 15, 2017.Analysts Set $38.67 Target Price for MidWestOne Financial Group, Inc.  - Sports PerspectivesMidWestOne Financial Group Inc  Upside Stock Technicals at ... - CML News'
p4
aS'MidWestOne Financial Group announces merger Iowa City Press Citizen - Nov 21, 2014 From a press release this morning: MidWestOne Financial Group, Inc., parent of MidWestOne Bank, headquartered in Iowa City, Iowa, and Central Bancshares, Inc., parent of Central Bank, headquartered in Golden Valley, Minnesota, have announced the&nbsp;...Central Bank to be sold to MidWestOne Financial - Minneapolis / St. Paul Business Journal MidWestOne to acquire Minnesota-based bank system - Waterloo Cedar Falls Courier'
p5
aS"The Zacks Analyst Blog Highlights: MidWestOne Financial Group, Brooks ... Yahoo Finance - Feb 14, 2017 Every day the Zacks Equity Research analysts discuss the latest news and events impacting stocks and the financial markets. Stocks recently featured in the blog include MidWestOne Financial Group, Inc. , Brooks Automation,&nbsp;...5 Stocks to Buy as Trump Chalks Out 'Phenomenal' Tax Plan - Nasdaq"
p6
aS"MidWestOne Financial Group's  CEO Charles Funk on Q4 2016 Results ... Seeking Alpha - Jan 27, 2017 Hello and welcome to the MidWestOne Financial Group Inc. 2016 Fourth Quarter Earnings Conference Call. All participants will be in listen-only mode."
p7
aS'MidWestOne Financial Group Inc.  Moves Lower on Volume Spike for March 08 Equities.com - Mar 8, 2017 MidWestOne Financial Group Inc.  traded on unusually high volume on Mar. 08, as the stock lost 0.27% to close at $36.70.'
p8
aS'MidWestOne Financial Group Inc.  Moves Lower on Volume Spike for March 21 Equities.com - Mar 21, 2017 MidWestOne Financial Group Inc.  traded on unusually high volume on Mar. 21, as the stock lost 1.45% to close at $34.04.Stock Returns: MidWestOne Financial Group Inc  is Beating Peoples ... - CML NewsMarket Mover Alert: MidWestOne Financial Group, Inc.  - Is stories'
p9
aS'Rocket Fuel  Reaches $4.30 After 3.00% Up Move, Midwestone Financial ... Herald KS - Mar 23, 2017 MidWestOne Financial Group, Inc. is a bank holding and financial holding company. The company has market cap of $405.01 million.MidWestOne Financial Group, Inc. to Post Q3 2017 Earnings of $0.65 Per Share ... - Chaffey BreezeThe Q3 2017 EPS Estimates for MidWestOne Financial Group, Inc. Reduced by FIG ... - Petro Global News 24'
p10
a.