(lp0
S'Mid Penn Bank seeks regulatory approval to open Orwigsburg branch GlobeNewswire  - Feb 14, 2017 MILLERSBURG, Pa., Feb. 14, 2017  -- Mid Penn Bank, subsidiary of Mid Penn Bancorp, Inc. , is seeking regulatory approval to open a branch at 1021 Centre Turnpike in Orwigsburg.'
p1
aS'Mid Penn Bancorp, Inc. Declares Special Dividend GlobeNewswire  - Dec 21, 2016 MILLERSBURG, Pa., Dec. 21, 2016  -- Mid Penn Bancorp, Inc.  , the parent company of Mid Penn Bank, today announced that its Board of Directors has declared a special dividend of $0.10 per common&nbsp;...'
p2
aS'Mid Penn Bancorp, Inc. Announces Completion of Merger GlobeNewswire  - Mar 2, 2015 MILLERSBURG, Pa., March 2, 2015  -- Mid Penn Bancorp, Inc.  , the bank holding company of Mid Penn Bank, announced that it has successfully completed the merger of Phoenix Bancorp, Inc., of Minersville,&nbsp;...'
p3
aS'Mid Penn Bancorp, Inc. and Phoenix Bancorp, Inc. Announce Agreement to Merge GlobeNewswire  - Aug 27, 2014 MILLERSBURG, Pa. and MINERSVILLE, Pa., Aug. 27, 2014  -- Mid Penn Bancorp, Inc.  , headquartered in Millersburg, Pennsylvania, and Phoenix Bancorp, Inc.  , headquartered in&nbsp;...'
p4
aS'Mid Penn Bank to Open Simpson Ferry Road Branch June 29 GlobeNewswire  - Jun 19, 2015 HARRISBURG, Pa., June 19, 2015  -- Mid Penn Bank is announcing the opening of its Simpson Ferry Road branch on June 29, 2015, at 5288 Simpson Ferry Road in Lower Allen Township, Mechanicsburg.'
p5
aS'Mid Penn hires CFO Central Penn Business Journal - Mar 24, 2016 Mid Penn Bancorp Inc. has named Michael D. Peduzzi its CFO. Millersburg-based Mid Penn, the holding company for Mid Penn Bank, announced in a news release Thursday that in addition to CFO, Peduzzi also will be an executive vice president with the&nbsp;...'
p6
aS"Watch-list Stock of Traders: Mid Penn Bancorp, Inc.'s  stock price is at ... WsNews 4investors - Mar 27, 2017 Mid Penn Bancorp, Inc.  stock price distance from twenty day simple moving average slumped at -6.06% while its distance from fifty day simple moving average declined -0.55% along with 27.40% above distance from two hundred simple moving&nbsp;..."
p7
aS'Active Stock on Watch: Mid Penn Bancorp Inc  Buckeye Business Review - Mar 28, 2017 Shares of Mid Penn Bancorp Inc  is moving on volatility today 3.61% or $0.95 rom the open. The NASDAQ listed company saw a recent bid of 27.30 on 1666 volume.'
p8
aS'RiceBran Technologies  Forms $0.84 Double Bottom; Mid Penn Bancorp (MPB ... HuronReport - 16 hours ago About 58 shares traded. RiceBran Technologies  has declined 46.05% since August 19, 2016 and is downtrending. It has underperformed by 53.27% the S&amp;P500.'
p9
aS"Mid Penn Bancorp, Inc.  Forms $28.45 Double Top; Rock Springs Capital ... Wolcott Daily - Mar 21, 2017 Mid Penn Bancorp, Inc.  formed double top with $31.01 target or 9.00% above today's $28.45 share price. Mid Penn Bancorp, Inc.  has $121.91M valuation. About 409 shares traded. Mid Penn Bancorp, Inc.  has risen 58.22% since&nbsp;..."
p10
a.