(lp0
S'Microsoft Corporation Sued In Class-Action Case For Windows 10 Upgrades ValueWalk - Mar 27, 2017 Microsoft is facing a class-action lawsuit filed by a group of consumers who say a Windows 10 update caused them to lose their data and seriously damaged their hardware.'
p1
aS"Microsoft Corporation  Closes 0.29% Up on the Day for March 28 Equities.com - 10 hours ago Shares of Microsoft Corporation  ended the trading day Tuesday at $65.29, representing a move of 0.29%, or $0.19 per share, on volume of 19.94 million shares.Buy Microsoft Corporation  Stock Without All the Risk - Investorplace.comAnalyst's Proposition on Microsoft Corporation , Pfizer Inc.  - The USA Commerce"
p2
aS"EOD Risers: McDonald's Corporation, Merck &amp; Co., Inc., Microsoft Corporation DirectorsTalk Interviews - 22 hours ago The trading price for McDonald's Corporation with EPIC code:  a company that operates and franchises McDonald's restaurants, rose 0.12% or 0.15 points in yesterday's trading session."
p3
aS'Digging Up the Facts on Microsoft Corporation  StockNewsJournal - Mar 27, 2017 Microsoft Corporation  is an interesting player in the Technology space, with a focus on Business Software &amp; Services.Active Stocks: Apple Inc. , Microsoft Corporation (NASDAQ:MSFT ... - Benchmark Monitor'
p4
aS"Here's Why the Best Is Yet to Come for Microsoft Corporation Motley Fool - Mar 11, 2017 Microsoft  shares rallied 24% over the past 12 months, hitting a historic high and outperforming the S&amp;P 500's 18% gain.Microsoft Corporation  Picks ARM Chips For Its Cloud Servers - Market Exclusive"
p5
aS'With Microsoft Corporation  As Precedent, Strikeforce ... Insider Financial - Mar 23, 2017 Industry opinion on patent protection and enforcement varies considerably depending on who you talk to. Some argue patent protection incentivizes fresh development and creativity, as without it inventors would see no point in developing new products.'
p6
aS"Microsoft In The Garden Portfolio Seeking Alpha - 44 minutes ago As I've written about, most recently in Tending the Dividend Garden - March Update, I like to group my stocks into several categories that I relate to crops from my garden."
p7
aS"EOD Risers: General Electric Company, McDonald's Corporation, Microsoft ... DirectorsTalk Interviews - Mar 27, 2017 The share price for Microsoft Corporation with company EPIC:  a technology company, rose 0.17% or 0.11 points during Friday's session."
p8
aS'Microsoft Corporation  Technicals Downward Trend Live Trading News - Mar 21, 2017 Separating lines occurred. If the lines occur during an uptrend  and the first line is black and the second is white  then this suggests that the uptrend should continue.'
p9
aS"Microsoft: Overvalued By Opinions, Undervalued By Mathematics Seeking Alpha - Mar 20, 2017 Microsoft's  stock has risen by 130% in the past four years, it is currently trading at an all-time high stock price, and has a P/E of 30."
p10
a.