(lp0
S'MGIC Investment Corporation  Is Trying To Tell Investors Something ... NY Stock News - 14 hours ago The technicals for MGIC Investment Corporation  has spoken via its technical chart and the message is loud and clear. Based on that message, this is the relevant information necessary to make sense of that current setup.'
p1
aS"MGIC Investment Corporation Reports Fourth Quarter 2016 Results PR Newswire  - Jan 19, 2017 MILWAUKEE, Jan. 19, 2017 /PRNewswire/ -- MGIC Investment Corporation  today reported operating and financial results for the quarter ended December 31, 2016.Fourth-quarter profits rise 5% for MGIC - Milwaukee Journal SentinelMGIC Investment's  CEO Pat Sinks on Q3 2016 Results - Earnings Call ... - Seeking Alpha"
p2
aS"Why Investors remained confident on Antero Resources Corporation , MGIC ... StockNewsJournal - 19 hours ago MGIC Investment Corporation , maintained return on investment for the last twelve months at -, higher than what Reuters data shows regarding industry's average.What Do Analysts Suggest For MGIC Investment Corp.  - News OracleMGIC Investment Corporation's  stock price is now Worth at $9.91 and How ... - Hot Stocks Point"
p3
aS'MGIC Promotes Hughes and Miosi to Executive Vice President PR Newswire  - Jan 24, 2017 MILWAUKEE, Jan. 24, 2017 /PRNewswire/ -- Mortgage Guaranty Insurance Corporation , the principal subsidiary of MGIC Investment Corporation , has announced the promotion of James Hughes to Executive Vice President - Sales and&nbsp;...'
p4
aS'MGIC Investment Corporation Risk Points versus Financials CML News - Mar 22, 2017 This is a scatter plot analysis of the critical risk points from the option market for MGIC Investment Corporation  compared to its own past and the Financials ETF.MGIC Investment Corp. performed Very Well with a change of 0.8% in the Last Trade - Free ObserverBurning Stock on the move: MGIC Investment Corp.  - HugoPress'
p5
aS"Most Active Stock: MGIC Investment Corp.  HugoPress - Mar 20, 2017 Deutsche Bank Upgrades MGIC Investment Corp. 's stock to Buy with the price target of $12. This rating was issued on 12/12/16.Macy's, Inc. , MGIC Investment Corporation  Stock Eyes Ahead of Earnings - The USA CommerceThe Dust Has Cleared And Now MGIC Investment Corporation  And Its ... - NY Stock News"
p6
aS"Featured Stock to See: MGIC Investment Corp.  HugoPress - Mar 22, 2017 Deutsche Bank Upgrades MGIC Investment Corp. 's stock to Buy with the price target of $12. This rating was issued on 12/12/16.MGIC Investment  Prospects Look Bright: Time to Invest? - Zacks.comMGIC Investment Corporation : What's the Story? - StockNewsJournal"
p7
aS"The Charts For MGIC Investment Corporation  Is Speaking Volumes Today NY Stock News - Mar 24, 2017 MGIC Investment Corporation  has presented a rich pool of technical data in recent sessions. These are the trends we've been tracking and how we feel they should be played in the current environment."
p8
aS'Today Analysts Focus on MGIC Investment Corp. , Murphy Oil Corp.  StockNewsJournal - Mar 2, 2017 ROI deals with the invested cash in the company and the return the investor realize on that money based on the net profit of the business.'
p9
aS'MGIC Investment  Announces Strong February Results Yahoo Finance - Mar 9, 2017 MGIC Investment Corp. MTG recently announced its Feb 2017 operating business statistics. Insurance in force for the month was $182.9 billion, up 4.6% year over year.Traders Secrets on Exelixis, Inc. , MGIC Investment Corporation  - StockNewsJournalStock Returns: MGIC Investment Corporation  is Beating Provident ... - CML News'
p10
a.