(lp0
S'Maxwell Technologies: Acquiring Nesscap Energy Part Of Aggressive Expansion Seeking Alpha - Mar 13, 2017 Maxwell Technologies , the California-based market leader in ultracapacitors, announced its intention to acquire Nesscap Energy , a small South Korean player in the ultracapacitor space, in conjunction with its Q4 and ...'
p1
aS'Maxwell Technologies Expands Partnership with China Railway Rolling Stock ... PR Newswire  - Jan 31, 2017 SAN DIEGO, Jan. 31, 2017 /PRNewswire/ -- Maxwell Technologies, Inc. , a leading developer and manufacturer of capacitive energy storage and power delivery solutions, today announced a definitive agreement with CRRC Qingdao&nbsp;...'
p2
aS'Maxwell Technologies Announces Generator Starting Solutions for Commercial and ... PR Newswire  - Dec 12, 2016 SAN DIEGO, Dec. 12, 2016 /PRNewswire/ -- Maxwell Technologies, Inc. , a leading developer and manufacturer of ultracapacitor-based energy storage and power delivery solutions, today announced the Generator Starting Solutions &nbsp;...'
p3
aS'Maxwell Technologies Announces Agreement with Viex Capital Advisors PR Newswire  - Mar 14, 2016 SAN DIEGO, March 14, 2016 /PRNewswire/ -- Maxwell Technologies, Inc.  , a leading developer and manufacturer of ultracapacitor-based energy storage and power delivery products, today announced that on&nbsp;...'
p4
aS'Steve Bilodeau to Join Maxwell Technologies Board of Directors PR Newswire  - May 12, 2016 SAN DIEGO, May 12, 2016 /PRNewswire/ -- Maxwell Technologies, Inc. , a leading developer and manufacturer of ultracapacitor-based energy storage and power delivery solutions, today announced that Steve Bilodeau has been&nbsp;...'
p5
aS'Maxwell Technologies Completes Sale of Microelectronics Product Line to Data ... PR Newswire  - Apr 27, 2016 SAN DIEGO, April 27, 2016 /PRNewswire/ -- Maxwell Technologies, Inc. , a leading developer and manufacturer of ultracapacitor-based energy storage and power delivery solutions, today announced that it has completed the previously&nbsp;...'
p6
aS'Maxwell Technologies Appears Conservatively Priced Seeking Alpha - Mar 30, 2016 In the process of assisting the start-up, I became acquainted with Maxwell Technologies , the established leader for this type of energy storage technology, and have been following it more or less closely ever since.'
p7
aS'Maxwell Technologies: Priced For An Implausible Implosion Seeking Alpha - Jun 1, 2016 About two months ago, I took a look at ultracapacitor maker Maxwell Technologies  with an article suggesting it was priced to the conservative side based on my discounted cash flow analysis.'
p8
aS'Maxwell Technologies, Inc. : Important Trade and Target Levels To Watch Post Analyst - 18 hours ago Maxwell Technologies, Inc.  traded at an unexpectedly low level on 03/27/2017 when the stock experienced a 2.55 gain to a closing price of $5.63.Maxwell Technologies, Inc.  Broker Views On Wall Street - NewsDen'
p9
aS'Maxwell Technologies Inc.  Moves Higher on Volume Spike for March 10 Equities.com - Mar 10, 2017 Maxwell Technologies Inc.  traded on unusually high volume on Mar. 10, as the stock gained 1.56% to close at $5.21. On the day, Maxwell Technologies Inc. saw 271,472 shares trade hands on 1,463 trades. Considering that the stock averages only a&nbsp;...Maxwell Technologies, Inc.  Receives An Update From Brokers - The De Soto Edge'
p10
a.