(lp0
S"Why Could Navistar International Corporation  Not Be As Efficient As Its ... Simply Wall St - 10 hours ago Navistar International Corporation's  1.8% ROE over the past year fell short of the performance averaged by the industry, which delivered 32.82% ROE in the same period.Metropolitan Life Insurance Co. NY Has $1102000 Stake in Navistar ... - The Cerbat GemNavistar International Corp - Receive News &amp; Ratings Daily - BBNS"
p1
aS'VW Buys Stake in Icahn-Backed Navistar in Bet on US Trucks Bloomberg - Sep 6, 2016 Volkswagen AG will buy a stake in Navistar International Corp. to gain a foothold in the U.S. heavy-truck market, taking a gamble on a struggling U.S.Navistar Surges 30% After Strategic Alliance With Volkswagen Truck &amp; Bus - BenzingaWill Volkswagen Diesel Engines Save Navistar? - 24/7 Wall St.'
p2
aS'Navistar International Revenue Drops Wall Street Journal  - Mar 7, 2017 Truck manufacturer Navistar International Corp. reported a 6% drop in first quarter revenue as the company continues to grapple with weak demand for heavy-duty trucks.Guess Who Just Picked Up Navistar International Corp  Shares - Small Cap Exclusive Navistar International Corporation  Moves Higher on Volume Spike for March 09 - Equities.com'
p3
aS"Icahn Capital LP is Buying Navistar International Corp  Shares Small Cap Exclusive  - Mar 17, 2017 For those not familiar with the company, Navistar International Corporation is a holding company whose principal operating entities are Navistar, Inc. and Navistar Financial Corporation .Equities Analysts Issue Forecasts for Navistar International Corp's Q2 2017 ... - The Cerbat GemLatest Stocks: The Navistar International Corp  Given Consensus ... - Petro Global News 24"
p4
aS'Navistar Unveils OnCommand Connection Telematics And OnCommand Connection ... PR Newswire  - Mar 23, 2017 Navistar International Corporation  is a holding company whose subsidiaries and affiliates produce International brand commercial and military trucks, proprietary diesel engines, and IC Bus brand school and commercial buses. An affiliate&nbsp;...'
p5
aS"BRIEF-Carl Icahn reports 17.02% stake in Navistar International Corp Reuters - Mar 10, 2017 JOHANNESBURG, March 25 South African Finance Minister Pravin Gordhan embarks on a week-long non-deal investor roadshow in Britain and the United States on Monday as weak economic growth and ruling party tensions put the country's investment&nbsp;..."
p6
aS"Moody's assigns Caa1 to Navistar senior notes; outlook is stable. Moodys.com   - Jan 12, 2017 New York, January 12, 2017 -- Moody's Investors Service assigned a Caa1  rating to Navistar International Corporation's  $200 million add-on to its existing $1.2 billion 8.25% senior unsecured notes due 2021. We expect proceeds will be&nbsp;..."
p7
aS"Navistar Announces Intention To Reprice Approximately $1.0 Billion Senior ... PR Newswire  - Jan 30, 2017 LISLE, Ill., Jan. 30, 2017 /PRNewswire/ -- Navistar International Corporation  today announced that, subject to market conditions, the company and its wholly-owned subsidiary Navistar, Inc. are seeking to reprice Navistar, Inc.'s existing&nbsp;..."
p8
aS'Navistar Announces $200 Million Tack-On Offering Of 8.25% Senior Notes PR Newswire  - Jan 12, 2017 LISLE, Ill., Jan. 12, 2017 /PRNewswire/ -- Navistar International Corporation  today announced that it plans to issue, subject to market conditions, $200 million of its 8.25% senior notes due 2021 .'
p9
aS'What Analysts are Predicting For Lexington Realty Trust , Navistar ... The USA Commerce - 16 hours ago While trading at volume above than average, Navistar International Corporation  previous 52-week high was $33.46 and moved up 104.13% over the same period, trading at a volume of 554.9 thousand.'
p10
a.