(lp0
S'NACCO INDUSTRIES, INC.  Files An 8-K Results of Operations and ... Market Exclusive - Mar 27, 2017 NACCO Industries, Inc. is a holding company with principal businesses, including mining, small appliances and specialty retail.Goldfield  Reaches $5.65 After 3.00% Down Move; Carolina Bank Holdings Has ... - Wolcott Daily'
p1
aS'NACCO Industries, Inc. Announces Fourth Quarter And Full Year 2016 Results Yahoo Finance - Mar 1, 2017 CLEVELAND, March 1, 2017 /PRNewswire/ -- NACCO Industries, Inc.  today announced consolidated net income of $24.1 million, or $3.53 per diluted share, and revenues of $284.2 million for the fourth quarter of 2016 compared with consolidated net&nbsp;...NACCO Industries, Inc.  recorded surge in fifteen of the last 29 quarters - Post Analyst'
p2
aS"Scott S. Cowen plans to resign from board of NACCO Industries Inc. Crain's Cleveland Business - May 18, 2016 NACCO Industries Inc., a Mayfield Heights-based holding company with subsidiaries in the mining, small appliances and specialty retail businesses, is losing a board member."
p3
aS'Why Nacco Industries Remains A Beastly Good Value Seeking Alpha - Nov 4, 2016 Nacco Industries just held an earnings call and analyst calling in were persistent the company needed to do something to unlock the value within its business.'
p4
aS"Update: NACCO Industries Acquires Weston Products Seeking Alpha - Dec 18, 2014 Hamilton Beach Brands, Inc. announced today it acquired Weston Products, LLC from Highgate Capital LLC. Previously I described NACCO Industries' goal to grow revenue at Hamilton to $750 million in 2019 as quite ambitious. This acquisition tells me&nbsp;...Hamilton Beach Brands, Inc. Announces Acquisition of Weston Products - PR Newswire Hamilton Beach Brands Inc. acquires Strongsville-based Weston Products LLC ... - Crain's Cleveland Business"
p5
aS'NACCO INDUSTRIES, INC. StreetInsider.com - Mar 27, 2017 On March 27, 2017, NACCO Industries, Inc.  commenced mailing its Annual Report to Stockholders for the year ended December 31, 2016.'
p6
aS'NACCO Industries, Inc. Announces Fourth Quarter And Full Year 2015 Results PR Newswire  - Mar 2, 2016 CLEVELAND, March 2, 2016 /PRNewswire/ -- NACCO Industries, Inc.  today announced consolidated net income of $18.1 million, or $2.63 per diluted share, and revenues of $286.5 million for the fourth quarter of 2015 compared with a&nbsp;...'
p7
aS'NACCO Industries Inc.  Soars 5.45% on March 13 Equities.com - Mar 13, 2017 NACCO Industries Inc.  had a good day on the market for Monday March 13 as shares jumped 5.45% to close at $72.60. About 13,984 shares traded hands on 260 trades for the day, compared with an average daily volume of 14,320 shares out of a total&nbsp;...'
p8
aS'NACCO Industries, Inc. Announces Second Quarter 2015 Results PR Newswire  - Aug 5, 2015 5, 2015 /PRNewswire/ -- NACCO Industries, Inc.  today announced a net loss of $0.3 million, or $0.04 per diluted share, and revenues of $196.5 million for the second quarter of 2015, compared with a net loss of $3.6 million, or $0.47 per ...'
p9
aS'Nacco Industries Unlocking Value With Spin-Off Seeking Alpha - Sep 28, 2012 At HypeZero, we love spin-offs. Especially spin-offs of companies that are not heavily covered by Wall Street. At the end of the day tomorrow, one such company, Nacco Industries , will spin-off its biggest and most profitable business, Hyster ...'
p10
a.