(lp0
S"Navigant Consulting Inc. Q4 Earnings Climb 7% Nasdaq - Feb 16, 2017  - Navigant Consulting Inc.  released a profit for its fourth quarter that advanced compared to the same period last year.Is a Surprise Coming for Navigant Consulting  This Earnings Season ... - Zacks.comNavigant Consulting's  CEO Julie Howard on Q4 2016 Results - Earnings ... - Seeking Alpha"
p1
aS'Equity Watch: Looking at Shares of Navigant Consulting Inc  Baxter Review - 13 hours ago At the time of writing, the 14-day ADX for Navigant Consulting Inc  is standing at 21.5. Many chart analysts believe that an ADX reading over 25 would suggest a strong trend.'
p2
aS'Provider and Payer Population Health Executive Christopher Stanley, MD, joins ... Business Wire  - Mar 27, 2017 Navigant Consulting, Inc.  is a specialized, global professional services firm that helps clients take control of their future.Navigant Consulting, Inc.  Valuation According To Analysts - UK Market News'
p3
aS"Navigant Life Sciences Leader Named Consulting Magazine Rising Star Yahoo Finance - Mar 13, 2017 Navigant  today announced that Elena Stavrakas, a director in the firm's Healthcare Life Sciences practice, has been recognized among the 2017 Rising Stars of the Profession by ALM's Consulting magazine."
p4
aS"Navigant Acquires Ecofys, Scaling Global Energy and Sustainability Expertise Business Wire  - Nov 7, 2016 Navigant Consulting, Inc.  is a specialized, global professional services firm that helps clients take control of their future.BRIEF-Navigant acquires Europe's Ecofys - Reuters"
p5
aS"BRIEF-Navigant Consulting Q4 adjusted earnings per share $0.30 Reuters - Feb 16, 2017 Reuters is the news and media division of Thomson Reuters. Thomson Reuters is the world's largest international multimedia news agency, providing investing news, world news, business news, technology news, headline news, small business news, news&nbsp;..."
p6
aS"Investors Spotlight: Navigant Consulting, Inc.'s  stock price finalizes ... WsNews 4investors - 17 hours ago Navigant Consulting, Inc.  stock price distance from twenty day simple moving average slumped at -1.19% while its distance from fifty day simple moving average declined -4.94% along with 4.40% above distance from two hundred simple moving&nbsp;..."
p7
aS'Navigant Consulting Inc.  Moves Higher on Volume Spike for March 17 Equities.com - Mar 17, 2017 Navigant Consulting Inc.  traded on unusually high volume on Mar. 17, as the stock gained 0.95% to close at $23.43. On the day, Navigant Consulting Inc. saw 402,228 shares trade hands on 1,499 trades. Considering that the stock averages only a ...Navigant Consulting, Inc.  Broker Price Targets For The Coming Week - Fiscal StandardNavigant Consulting, Inc.  Per-Share Earnings At $0.3533? - Investor Newswire'
p8
aS'Navigant Consulting Inc.  Moves Lower on Volume Spike for February 28 Equities.com - Feb 28, 2017 Navigant Consulting Inc.  traded on unusually high volume on Feb. 28, as the stock lost 1.15% to close at $23.30. On the day, Navigant Consulting Inc. saw 447,154 shares trade hands on 4,031 trades. Considering that the stock averages only a daily&nbsp;...Most Recent Stock Movements: Navigant Consulting, Inc.  - Is storiesBrokers Change Their Target Price On Navigant Consulting, Inc.  - Fiscal Standard'
p9
aS"Navigant Research's Energy Storage Tracker Identifies 1420 Projects ... Business Wire  - 21 hours ago Navigant Consulting, Inc. is a specialized, global professional services firm that helps clients take control of their future."
p10
a.