(lp0
S'Trilogy Metals Inc. - Permitting Advances on Ambler Access Road Yahoo Finance - Mar 6, 2017 VANCOUVER, March 6, 2017 /PRNewswire/ - Trilogy Metals Inc.   is pleased to announce that the permitting process is advancing on the Ambler Mining District Industrial Access Project .'
p1
aS'Trilogy Metals to Complete Pre-feasibility Study on High-Grade Arctic Deposit Canada NewsWire  - Mar 20, 2017 VANCOUVER, March 20, 2017 /CNW/ - Trilogy Metals Inc.   is pleased to announce that it intends to undertake a pre-feasibility study  on the high-grade Arctic deposit located in northwest&nbsp;...'
p2
aS'Price Alert: Trilogy Metals Inc  Stock Nears Resistance ... CML News - 20 hours ago Price Alert: Trilogy Metals Inc  has now crossed into technical strength -- watch the technical oscillators for momentum gaps.'
p3
aS"Novacopper: North America's Next Major Copper Mine Seeking Alpha - Feb 10, 2016 All power generation requires copper and clean energy requires even more copper - copper is the green metal of the future. China has heavily subsidized the purchase of electric vehicles which use 3x more copper  than a typical vehicle."
p4
aS"Trilogy Metals Inc  Short Interest Update The Cerbat Gem - Mar 25, 2017 Trilogy Metals logo Trilogy Metals Inc  was the target of a large increase in short interest in March. As of March 15th, there was short interest totalling 827,159 shares, an increase of 1.6% from the February 28th total of 814,533 shares ...Stock to Watch: Trilogy Metals Inc.'s  - Is stories"
p5
aS'4 Reasons To Be Skeptical On NovaCopper Seeking Alpha - Dec 11, 2013 NovaCopper , a base metals exploration company currently exploring the rich copper-dominant Ambler mining district in Alaska, has received some glowing recommendations on this site and others.'
p6
aS'Trilogy Metals Drills 8.48 Meters of 6.14% Copper and 8.27% Zinc at Arctic Deposit Junior Mining Network - Oct 27, 2016 VANCOUVER, Oct. 27, 2016 - Trilogy Metals Inc.  , formerly NovaCopper Inc., is pleased to announce drill results and provide a project update from its 2016 summer field program at the Arctic&nbsp;...'
p7
aS'Trilogy Metals Inc  Stock Technicals Hit Extreme Weakness CML News - Mar 13, 2017 This is a technical analysis stock rating for Trilogy Metals Inc  . The company has a one bull technical rating which indicates extreme weakness.'
p8
aS'Mining at Ambler district advances, as does road Alaskajournal.com - Dec 20, 2016 Trilogy Metals Inc., formerly NovaCopper Inc., is in the midst of evaluating the results from its $5.5 million 2016 summer drilling program at its Northwest Alaska prospect.'
p9
aS'Mining News: Enter Trilogy Metals Petroleum News - Sep 2, 2016 What does a name say about a company? Management of NovaCopper Inc. feels that its corporate moniker does not say enough about the diversity of metals present in the high-grade deposits encompassed by its Upper Kobuk Minerals Projects in the&nbsp;...'
p10
a.