(lp0
S'Aduro Biotech, Inc.  to Ring The Nasdaq Stock Market Opening Bell GlobeNewswire  - Mar 27, 2017 Aduro Biotech, Inc. , an immunotherapy company focused on the discovery, development and commercialization of therapies that transform the treatment of challenging diseases, will visit the Nasdaq MarketSite in Times Square. In honor of&nbsp;...'
p1
aS'Nasdaq, Inc.  Ex-Dividend Date Scheduled for March 15, 2017 Nasdaq - Mar 14, 2017 Nasdaq, Inc.  will begin trading ex-dividend on March 15, 2017. A cash dividend payment of $0.32 per share is scheduled to be paid on March 31, 2017.'
p2
aS"Analytical Guide for Mitek Systems, Inc. , Nasdaq, Inc.  Stakeholders The USA Commerce - Mar 27, 2017 Shares of Mitek Systems, Inc.  surged 4.00% to $6.50. During the trading on 03/24/2017, Company's stock ranged from $6.65 to $6.25."
p3
aS'Cisco Systems, Inc.  to Ring The Nasdaq Stock Market Opening Bell GlobeNewswire  - Mar 22, 2017 Cisco Systems, Inc. , the worldwide technology leader that has been making the Internet work since 1984, will visit the Nasdaq MarketSite in Times Square, in celebration of its recent acquisition of AppDynamics. AppDynamics, Inc. is a ...'
p4
aS'Agrium Inc.  Ex-Dividend Date Scheduled for March 29, 2017 Nasdaq - 17 hours ago Agrium Inc.  will begin trading ex-dividend on March 29, 2017. A cash dividend payment of $0.875 per share is scheduled to be paid on April 20, 2017.'
p5
aS'Ex-Dividend Reminder: Pegasystems, Republic Services and ESCO Technologies Nasdaq - 15 hours ago Looking at the universe of stocks we cover at Dividend Channel , on 3/30/17, Pegasystems Inc , Republic Services Inc , and ESCO Technologies, Inc.  will all trade ex-dividend for their respective upcoming&nbsp;...'
p6
aS'Steelcase Inc.  Ex-Dividend Date Scheduled for March 29, 2017 Nasdaq - 17 hours ago Steelcase Inc.  will begin trading ex-dividend on March 29, 2017. A cash dividend payment of $0.127 per share is scheduled to be paid on April 14, 2017.'
p7
aS'Alico, Inc.  Ex-Dividend Date Scheduled for March 29, 2017 Nasdaq - 17 hours ago Alico, Inc.  will begin trading ex-dividend on March 29, 2017. A cash dividend payment of $0.06 per share is scheduled to be paid on April 14, 2017.'
p8
aS'SkyWest, Inc.  Ex-Dividend Date Scheduled for March 29, 2017 Nasdaq - 17 hours ago SkyWest, Inc.  will begin trading ex-dividend on March 29, 2017. A cash dividend payment of $0.08 per share is scheduled to be paid on April 06, 2017.'
p9
aS'Trade of the Day: Sierra Wireless, Inc.   Investorplace.com - 17 hours ago One I like right now is Sierra Wireless, Inc.  , which provides wireless solutions in the growing Internet of Things .'
p10
a.