(lp0
S'Neonode: Reinventing Itself Seeking Alpha - Feb 24, 2016 I have been following Neonode  for some years now, and I just recently pulled the trigger to buy some shares in this tiny company with a market capitalization of approximately $100 million.'
p1
aS'Neonode Inc : Does Low Debt-Load Make It A Financially Strong Company? Simply Wall St - Mar 22, 2017 Companies with small market capitalization such as Neonode Inc , while they can deliver high growth, financial strength is the deciding element in their long-term existence.The Neonode, Inc  Earns Outperform Rating from Cowen and Company - Petro Global News 24Mean Rating Of Neonode Inc.  At $1 - RealistInvestor.com'
p2
aS'BRIEF-Neonode Inc files for common stock offering of up to $20 mln Reuters - Mar 15, 2017 NEW YORK, March 24 A federal judge on Friday held United Parcel Service Inc liable for having illegally shipped hundreds of thousands of cartons of untaxed cigarettes in New York, depriving the state and New York City of millions of dollars of taxes.'
p3
aS'Neonode, Inc.  Releases Financials  Market Yawns StockNewsUnion - Mar 15, 2017 Neonode, Inc.  develops and licenses user interfaces and optical interactive touch solutions for global customers.Neonode, Inc  Stock Rating Reaffirmed by Cowen and Company - The Cerbat GemNeonode, Inc  Announces Quarterly Earnings Results - Chaffey Breeze'
p4
aS'Neonode Signs Distribution Agreement for Airbar Devices With Ingram Micro India GlobeNewswire  - Dec 19, 2016 STOCKHOLM, Sweden, Dec. 19, 2016  -- Neonode Inc. , the Optical Interactive Sensing Technology Company, has signed a distribution agreement with Ingram Micro India Pvt Ltd for the distribution of AirBar devices.'
p5
aS'Neonode Expects To Report Cash Flow Positive Earnings In May Seeking Alpha - May 8, 2016 Neonode prepares to report its first-quarter financials May 10th, to a near dead trade volume. Despite a ramp in revenues from its printer and automotive segments, investors have been skeptical of near historic low shares.'
p6
aS"With Rollout on Amazon, Neonode Doubles Retail Availability of AirBar Sensor GlobeNewswire  - Dec 5, 2016 STOCKHOLM, Sweden, Dec. 05, 2016  -- Neonode Inc. , the Optical Interactive Sensing Technology Company, has announced that it is expanding the AirBar sensor's market footprint with availability through AMAZON."
p7
aS"Neonode's AirBar Selected As CES 2017 Innovation Awards Honoree In the ... GlobeNewswire  - Nov 11, 2016 STOCKHOLM, Sweden, Nov. 11, 2016  -- Neonode Inc. , the Optical Interactive Sensing Technology Company, announced that its AirBar sensor has been selected as a CES 2017 Innovation Awards Honoree in the&nbsp;..."
p8
aS'Neonode AirBar Sensor Available at Walmart.com GlobeNewswire  - Nov 29, 2016 STOCKHOLM, Sweden, Nov. 29, 2016  -- Neonode Inc. , the Optical Interactive Sensing Technology Company, has announced that its AirBar sensor is now available at the largest retailer in the world - Walmart.'
p9
aS'Consensus Buy Rated Stocks: Neonode Inc.  SMTC Corporation ... Rives Journal - 16 hours ago Neonode Inc.  shares have been labeled a top pick by Beta Research as it meets the A+ criteria outlined by the firm.Provexis plc  Reaches $0.54 After 4.00% Gap Down; Neonode,  Covered ... - NormanObserver.com'
p10
a.