(lp0
S'Why NeoPhotonics Corp Stock Jumped Today Motley Fool - Mar 15, 2017 Shares of NeoPhotonics Corp  finished up 18.1% today, overcoming an initially poor reaction to its earnings report, as it seemed to rally on general excitement in the fiber-optics industry and a potential short squeeze.Analyst Activity  Cowen and Company Lowers Its Price Target On NeoPhotonics ... - Market ExclusiveNeoPhotonics Corp.  Is Losing Ground On Weak Q1 Outlook - RTT News'
p1
aS'Earnings Reaction History: NeoPhotonics Corp., 40.0% Follow-Through Indicator ... Nasdaq - Mar 14, 2017 NeoPhotonics Corp.  is due to issue its quarterly earnings report in the upcoming extended-hours session. Given its history, traders can expect light trading in the issue immediately following its quarterly earnings announcement.'
p2
aS"Analyst's Predictions on Sunrun Inc. , NeoPhotonics Corporation  StockNewsJournal - 13 hours ago NeoPhotonics Corporation , maintained return on investment for the last twelve months at -0.09, higher than what Reuters data shows regarding industry's average.NeoPhotonics Corporation  Soars 5.35% on March 24 - Equities.comNeoPhotonics Corp  Given Consensus Recommendation of Buy by Analysts - Chaffey Breeze"
p3
aS"What Makes NeoPhotonics Corporation  A Financially Strong Company, Is It ... Simply Wall St - Mar 22, 2017 NeoPhotonics Corporation , with a market capitalization of USD $367 Million, is considered a small-cap company. Although such businesses are the ones which could grow the most, they are also highly prone to a downturn in the country's&nbsp;...Today Analysts Focus on Owens-Illinois, Inc. , NeoPhotonics Corp.  - StockNewsJournalHot Stocks Among Investors: NeoPhotonics Corporation , West Corporation ... - Post Analyst"
p4
aS'NeoPhotonics Corporation: NeoPhotonics to Host Conference Call to Discuss 2016 ... The Wall Street Transcript - Mar 7, 2017 SAN JOSE, Calif.----Mar. 7, 2017-- NeoPhotonics Corporation , a leading designer and manufacturer of advanced hybrid photonic integrated optoelectronic modules and subsystems for bandwidth-intensive, high-speed&nbsp;...Allianz Asset Management AG Boosts Stake in NeoPhotonics Corporation  - The Cerbat Gem'
p5
aS"Post Earnings Coverage as NeoPhotonics' Q4 Top-line Surged 23% to a Record Yahoo Finance - Mar 27, 2017 LONDON, UK / ACCESSWIRE / March 27, 2017 / Active Wall St. announces its post-earnings coverage on NeoPhotonics Corp. ."
p6
aS'Stock Returns: Mellanox Technologies, Ltd.  is Beating ... CML News - 17 hours ago This is a snapshot to compare the stock returns for Mellanox Technologies, Ltd.  versus NeoPhotonics Corporation  . The stock return points we compare look at the last three-months, six-months and twelve-months. At the end of&nbsp;...'
p7
aS'NeoPhotonics Corporation : Does Low Debt-Load Make It A Financially ... Simply Wall St - Mar 3, 2017 Small-cap companies such as NeoPhotonics Corporation  with its market cap of USD $411 Million, benefit the most from improving economic conditions due to the growth potential, but on the other hand they also are highly prone to a downturn,&nbsp;...Stocks under Radar: NeoPhotonics Corporation , FNB Corporation ... - TRATop Analysts Research on NeoPhotonics Corporation  - Money Flow Index & Trends'
p8
aS'NeoPhotonics offers CFP2-ACO coherent transceiver for 200/400/600 Gbps LightWave Online - Mar 21, 2017 NeoPhotonics Corp.  will demonstrate its ClearLight pluggable coherent CFP2-ACO module at OFC 2017 in Los Angeles this week.NeoPhotonics to Showcase 400G Coherent Product Suite at OFC 2017 - Yahoo FinanceNeoPhotonics demos pluggable coherent CFP2-ACO transceiver for 400/600Gbps - Semiconductor Today'
p9
aS'NeoPhotonics Corporation  Settles Into New 52-Week Low on March 14 Session Equities.com - Mar 14, 2017 Shares of NeoPhotonics Corporation  sank into a new 52-week low yesterday, and could be a company to watch at the open.'
p10
a.