(lp0
S'Revenue Approximations Analysis: Newpark Resources, Inc. , Cheniere Energy ... StockNewsJournal - Mar 27, 2017 ROI deals with the invested cash in the company and the return the investor realize on that money based on the net profit of the business.'
p1
aS"Newpark Resources Inc. performed Poor with a change of -0.65% in the Last Trade Free Observer - Mar 27, 2017 Currently the shares of Newpark Resources Inc.  has a trading volume of 1.51 Million shares, with an average trading volume of 1.28 Million shares - with shares dropping to a 52 week low of $3.74 on Apr 6, 2016, and the company's shares hitting a ...Newpark Resources Inc.  Closed the Last Trading Session at $7.6 - The Newburgh PressBroker Outlook For The Week Ahead Newpark Resources, Inc.  - Fiscal Standard"
p2
aS"Newpark Resources Inc.  Moves Lower on Volume Spike for March 20 Equities.com - Mar 20, 2017 Newpark Resources Inc.  traded on unusually high volume on Mar. 20, as the stock lost 3.95% to close at $7.30. On the day, Newpark Resources Inc. saw 1.55 million shares trade hands on 7,827 trades. Considering that the stock averages only a daily&nbsp;...Today's Brokerage Rating: CH Robinson Worldwide, Inc. , Newpark ... - StockNewsJournalHot Stocks Among Investors: Newpark Resources, Inc. , Arrowhead ... - Post Analyst"
p3
aS"Why Newpark Resources Inc's Shares Plunged 16% Today Motley Fool - Nov 29, 2016 What investors probably don't like is the idea that Newpark's shares could be significantly diluted after a convertible debt offering if the company recovers. Renewed hope that oil and gas drilling will pick up in coming years has increased bullish ..."
p4
aS'Newpark Resources Inc.  Moves Lower on Volume Spike for March 24 Equities.com - Mar 24, 2017 Newpark Resources Inc.  traded on unusually high volume on Mar. 24, as the stock lost 0.65% to close at $7.60. On the day, Newpark Resources Inc. saw 1.51 million shares trade hands on 5,670 trades. Considering that the stock averages only a daily&nbsp;...'
p5
aS'Newpark Resources Inc.  Soars 5.52% on March 23 Equities.com - Mar 23, 2017 Newpark Resources Inc.  had a good day on the market for Thursday March 23 as shares jumped 5.52% to close at $7.65. About 1.1 million shares traded hands on 4,732 trades for the day, compared with an average daily volume of 788,235 shares out&nbsp;...'
p6
aS'Newpark Resources, Inc.  QI &amp; Valuation Watch Business Review - Mar 28, 2017 Newpark Resources, Inc.  has a Q.i. Value of 70.00000. The purpose of the Q.i. Value is to help identify companies that are the most undervalued.'
p7
aS'Newpark Resources Inc.  Moves Lower on Volume Spike for March 08 Equities.com - Mar 8, 2017 Newpark Resources Inc.  traded on unusually high volume on Mar. 08, as the stock lost 4.17% to close at $6.90. On the day, Newpark Resources Inc. saw 982,385 shares trade hands on 4,132 trades. Considering that the stock averages only a daily&nbsp;...'
p8
aS'Newpark Resources Inc.  Soars 5.33% on February 27 Equities.com - Feb 27, 2017 Newpark Resources Inc.  had a good day on the market for Monday February 27 as shares jumped 5.33% to close at $7.90. About 652,029 shares traded hands on 3,796 trades for the day, compared with an average daily volume of 701,440 shares out of&nbsp;...Newpark Resources, Inc.  Reviewed By Analysts - The De Soto Edge'
p9
aS'Newpark Resources Inc.  Plunges 5.06% on February 24 Equities.com - Feb 24, 2017 Newpark Resources Inc.  had a rough trading day for Friday February 24 as shares tumbled 5.06%, or a loss of $-0.4 per share, to close at $7.50.Newpark Resources, Inc.  Registers a Net Consolidated EPS Of $-0.4864 - Equities Focus'
p10
a.