(lp0
S'Analysts Set NRF Holdco LLC  Target Price at $18.00 Chaffey Breeze - Mar 13, 2017 NRF Holdco logo Shares of NRF Holdco LLC  have been assigned an average recommendation of Hold from the six brokerages that are presently covering the company.'
p1
aS'Latest Stocks: The Analysts Set NRF Holdco LLC  Target Price at $18.00 Petro Global News 24 - Mar 13, 2017 NRF Holdco LLC  has been given a consensus recommendation of Hold by the six research firms that are covering the firm.NRF Holdco LLC  Receives $18.00 Average Price Target from Brokerages - Sports Perspectives'
p2
aS'The NRF Holdco LLC  Shares Sold by Private Management Group Inc. DailyQuint - Feb 9, 2017 Private Management Group Inc. decreased its position in shares of NRF Holdco LLC  by 0.8% during the third quarter, according to its most recent 13F filing with the Securities and Exchange Commission .'
p3
aS'NRF Holdco LLC  Receives Consensus Rating of Hold from Analysts BBNS - Feb 13, 2017 NRF Holdco logo Shares of NRF Holdco LLC  have earned a consensus rating of Hold from the six research firms that are covering the stock.'
p4
aS'Broker Outlook For The Week Ahead Northstar Realty Finance Corp.  Fiscal Standard - Mar 15, 2017 NRF Holdco LLC. is a commercial real estate company. The Company invests in multiple asset classes across commercial real estate .'
p5
aS'Northstar Realty Finance Corp.  Reviewed By Analysts The De Soto Edge - Feb 22, 2017 NRF Holdco LLC. is a commercial real estate company. The Company invests in multiple asset classes across commercial real estate .'
p6
aS'Northstar Realty Finance Corp.  Receives An Update From Brokers The De Soto Edge - Nov 22, 2016 NRF Holdco LLC. is a commercial real estate company. The Company invests in multiple asset classes across commercial real estate .'
p7
aS'As Northstar Realty Finance Corp. Trades Do Analysts Recommend You Sell? The De Soto Edge - Mar 11, 2017 NRF Holdco LLC. is a commercial real estate company. The Company invests in multiple asset classes across commercial real estate .'
p8
aS'Celgene Corporation  Shares Bought by LPL Financial LLC Sports Perspectives - Feb 13, 2017 Celgene Corporation logo LPL Financial LLC increased its stake in shares of Celgene Corporation  by 16.1% during the third quarter, according to its most recent disclosure with the SEC.'
p9
aS'The Koppers Holdings Inc.  Given Consensus Rating of Hold by Analysts DailyQuint - Feb 13, 2017 Jefferies Group LLC reaffirmed a buy rating and set a $40.00 target price on shares of Koppers Holdings in a research note on Monday, November 7th.'
p10
a.