(lp0
S'Why Shares of NeuStar Inc. Surged Today Motley Fool - Dec 14, 2016 Shares of information services provider NeuStar Inc.  jumped on Wednesday after the company agreed to be acquired by a private investment group.Private equity group to purchase NeuStar for $2.9 billion - Washington Business JournalNeustar to go private in $2.9 billion deal including debt - Reuters'
p1
aS'NeuStar gets key contract with Canadian telecom industry Washington Business Journal - Aug 3, 2016 Sterling-based NeuStar Inc. will continue to serve as the local number portability administrator for the Canadian LNP Consortium Inc., as the two parties agreed to a deal Tuesday.'
p2
aS"Stock market upbeat on NeuStar's split into two companies Washington Business Journal  - Jun 21, 2016 The stock market reacted favorably to news Tuesday that Sterling-based NeuStar Inc. will essentially split into two publicly traded companies.Neustar Inc. announces plan to split into two companies - UPI.comNeustar Announces Intention to Separate into Two Independent Publicly Traded ... - Business Wire "
p3
aS"Moody's assigns Ba2 to Neustar's proposed credit facilities; ratings remain on ... Moodys.com   - Sep 14, 2016 New York, September 14, 2016 -- Moody's Investors Service,  assigned a Ba2 to Neustar, Inc.'s  proposed $499 million Term Loan A and $200 million revolving credit facility. In connection with the ongoing review of&nbsp;..."
p4
aS'NeuStar sees big opportunity in massive cyber attacks Washington Business Journal - Oct 31, 2016 Sterling-based NeuStar Inc.  sees the massive cyberattacks roiling the internet in the last few months as a vital opportunity.'
p5
aS'Two Sigma Investments LP Invests $848000 in Neustar Inc  Chaffey Breeze - 17 hours ago Neustar logo Two Sigma Investments LP purchased a new stake in shares of Neustar Inc  during the fourth quarter, according to its most recent disclosure with the Securities and Exchange Commission .Henry Skorny Sells 9156 Shares of Neustar Inc  Stock - The Cerbat Gem'
p6
aS'SHAREHOLDER ALERT: Rigrodsky &amp; Long, PA Files Class Action Suit Against ... GlobeNewswire  - Feb 9, 2017 Rigrodsky &amp; Long, P.A. announces that it has filed a class action complaint in the United States District Court for the District of Delaware on behalf of holders of Neustar, Inc.   common stock in connection with the proposed ...'
p7
aS'SHAREHOLDER ALERT: Monteverde &amp; Associates PC Announces an Investigation of ... PR Newswire  - Jan 23, 2017 NEW YORK, Jan. 23, 2017 /PRNewswire/ -- Juan Monteverde, founder and managing partner at Monteverde &amp; Associates PC, a boutique securities firm headquartered at the Empire State Building in New York City, is investigating Neustar, Inc. (&quot;Neustar&quot; or&nbsp;...'
p8
aS"Neustar Slams Telcordia's Ericsson Ties In FCC Contract Row Law360  - Sep 13, 2016 Law360, Washington  -- Neustar Inc. made its long-awaited plea Tuesday to scrap the Federal Communications Commission's clearance of Telcordia Technologies Inc. for a $460 million phone-number routing contract&nbsp;..."
p9
aS"Equity Perception: Analyst's Indicator Review for NeuStar, Inc. , Barnes ... The USA Commerce - Mar 23, 2017 Shares of NeuStar, Inc.  surged 0.00% to $33.05. During the trading on 03/22/2017, Company's stock ranged from $33.10 to $33.00.Neustar Inc  Shares Bought by Comerica Bank - Chaffey BreezeThe Fmr LLC Reduces Stake in Neustar Inc  - Petro Global News 24"
p10
a.