(lp0
S'Crews contain fire at Owens Corning plant in Newark NBC4i.com - Mar 26, 2017 NEWARK, OH  - The Newark Division of Fire says a fire at the Owens Corning building on Case Avenue has been contained.'
p1
aS'Owens Corning to build on help for vets within Toledo area Toledo Blade - Mar 25, 2017 Owens Corning said Friday it will expand its longstanding partnership with Habitat for Humanity to focus on reroofing the homes of as many as 150 military veterans across the United States.'
p2
aS"Owens Corning's  Buy Rating Reaffirmed at Jefferies Group LLC BNB Daily  - 36 minutes ago Owens Corning logo Jefferies Group LLC reaffirmed their buy rating on shares of Owens Corning  in a research note issued to investors on Thursday.Institutions Continue To Be Top Holders in Owens Corning  - Midway MonitorInsider Selling: Owens Corning  Director Sells 8149 Shares of Stock - Chaffey Breeze"
p3
aS"Owens Corning : Raising PT - KeyBanc StreetInsider.com - Mar 22, 2017 KeyBanc analyst, Kenneth Zener, reiterated his Overweight rating on shares of Owens Corning  and raised his price target to $70 on the belief that OC's Insulation business is poised to deliver substantial EBIT leverage on a combination of ..."
p4
aS'Owens Corning and Habitat for Humanity Partner with US Veterans in National ... Business Wire  - Mar 24, 2017 TOLEDO, Ohio &amp; ATLANTA----Owens Corning announced today an expansion of its successful partnership with Habitat for Humanity to install roofs on the homes of military veterans nationwide as part of the Roof Deployment Project.Jefferies Reiterates Buy on Owens Corning  Following Investor Meetings - StreetInsider.comOwens Corning  Had Its Target Price Raises by Analysts at KeyCorp to $70 ... - Herald KS'
p5
aS"Former Owens Corning CEO dies at age 91 Toledo Blade - Feb 28, 2017 Bill's strong values and commitment to integrity created a culture that is still thriving today at Owens Corning, said Mike Thaman, Owens Corning chairman and chief executive officer, in a written statement. As a former colleague and personal friend ...Owens Corning Reports the Death of Former Chairman and Chief Executive Officer ... - Yahoo FinanceBofA/Merrill Lynch Downgrades Owens Corning  to Neutral - StreetInsider.com"
p6
aS'Owens Corning Opens Doors for Job Fair March 15th Smokey Barn News - Mar 8, 2017 SPRINGFIELD TENNESSEE:  - OWENS CORNING will hold a job fair from 2:00pm-5:00pm on March 15, 2017! In order to expedite the hiring process, it will be held at the actual manufacturing facility at 203 CHARLES RALPH DR,&nbsp;...Owens Corning Inc  Ex-Dividend Date Scheduled for March 08, 2017 - NasdaqInsider Selling: Owens Corning  Director Sells $488940.00 in Stock - BNB Daily '
p7
aS'Owens Corning Leads 5 Construction and Materials Stocks, as Vulcan Materials Lags TheStreet.com - Mar 16, 2017 Armstrong World provides ceilings and cabinets. Lennox provides air conditioning and heating systems. Masco provides home improvement and building products.'
p8
aS'Owens Corning to Showcase the Power of Composites at JEC World 2017 Yahoo Finance - Mar 13, 2017 Composites experts from Owens Corning , a leading global producer of glass fiber reinforcements for composite systems, will showcase the possibilities of a world Powered by Composites at the JEC World 2017 composites show and conferences,&nbsp;...'
p9
aS'First Week of November 17th Options Trading For Owens Corning  Nasdaq - Mar 21, 2017 Investors in Owens Corning  saw new options begin trading this week, for the November 17th expiration. One of the key data points that goes into the price an option buyer is willing to pay, is the time value, so with 241 days until ...'
p10
a.