(lp0
S'Today Analysts Focus on Oclaro, Inc. , Whiting Petroleum Corporation  StockNewsJournal - 20 hours ago Oclaro, Inc.  have shown a high EPS growth of 15.80% in the last 5 years and has earnings decline of 117.00% yoy.'
p1
aS'Drilling Down Into Oclaro, Inc.  StockNewsJournal - Mar 27, 2017 Oclaro, Inc.  is an interesting player in the Technology space, with a focus on Semiconductor Equipment &amp; Materials.Allianz Asset Management AG Cuts Position in Oclaro, Inc.  - Chaffey Breeze'
p2
aS"Oclaro Gains Access to Ciena's Leading High-Baud Rate DSP to Develop 400G ... PR Newswire  - Mar 20, 2017 SAN JOSE, Calif., March 20, 2017 /PRNewswire/ -- Oclaro, Inc. , a leading provider and innovator of optical communications solutions, today announced that it has been selected by Ciena  as a long-term partner in the&nbsp;...Oclaro targets coherent 400G transponders with Ciena's WaveLogic Ai DSP - LightWave Online"
p3
aS'Inspecting more closely technicals of Oclaro, Inc.  USA Commerce Daily - 12 hours ago With all other things going on, Oclaro, Inc.  has been on a run - rising 3.35 percent in just three months.'
p4
aS'Oclaro Inc.  Moves Higher on Volume Spike for March 15 Equities.com - Mar 15, 2017 Oclaro Inc.  traded on unusually high volume on Mar. 15, as the stock gained 7.78% to close at $8.73. On the day, Oclaro Inc. saw 18.8 million shares trade hands on 58,051 trades. Considering that the stock averages only a daily volume of 10.11&nbsp;...Oclaro, Inc.  Trading Up 7.8% on Analyst Upgrade - Chaffey Breeze'
p5
aS"Despite Rumors, Oclaro, Inc.  Sticking to Business StockNewsUnion - Mar 24, 2017 Oclaro, Inc.  had previously been the subject of talk concerning a takeover or merger. However at the conclusion of the industry's Optical Fiber Communication exhibition, held in Los Angeles, analysts came away commenting that nothing&nbsp;...Oclaro Inc.  Soars 5.64% on March 24 - Equities.comOclaro, Inc. : From Top to Bottom - StockNewsJournal"
p6
aS'Oclaro Inc.  Soars 5.15% on March 16 Equities.com - Mar 16, 2017 Oclaro Inc.  had a good day on the market for Thursday March 16 as shares jumped 5.15% to close at $9.18. About 15.53 million shares traded hands on 49,757 trades for the day, compared with an average daily volume of 7.66 million shares out of a&nbsp;...'
p7
aS'Notable Stock Analysts Ratings Oclaro, Inc.  News Oracle - 17 hours ago Oclaro, Inc.  will report its next earnings on May 1 - May 5 . The company reported the earnings of $0.21/Share in the last quarter where the estimated EPS by analysts was $0.18/share.'
p8
aS"Buy or Sell? What Analysts Recommends: Oclaro, Inc. , Windstream ... StockNewsJournal - Mar 23, 2017 Investors who are keeping close eye on the stock of Oclaro, Inc.  established that the company was able to keep return on investment at 13.86 in the trailing twelve month while Reuters data showed that industry's average stands at 4.24 and&nbsp;...Most Active Tech Stocks: Oclaro, Inc. , Windstream Holdings, Inc.  - TWN"
p9
aS'Oclaro Inc.  Moves Higher on Volume Spike for March 03 Equities.com - Mar 3, 2017 Oclaro Inc.  traded on unusually high volume on Mar. 03, as the stock gained 8.11% to close at $9.60. On the day, Oclaro Inc. saw 15.42 million shares trade hands on 51,589 trades. Considering that the stock averages only a daily volume of 9.99&nbsp;...Featured Stock: Oclaro, Inc.  - HugoPressAnalysts Ratings on: Oclaro, Inc.  - FactsReporter'
p10
a.