(lp0
S"Turtle Beach Wins &quot;Best Peripherals And Accessories Brand&quot; Honors Fourth Year ... PR Newswire  - Mar 14, 2017 SAN DIEGO, March 14, 2017 /PRNewswire/ -- Leading gaming headset and audio accessory company Turtle Beach Corporation  was recognized for an unprecedented fourth consecutive year in a row as the industry's &quot;Best Peripherals and&nbsp;...The Research Analysts Set Expectations for Turtle Beach Corp's Q1 2017 ... - Petro Global News 24"
p1
aS'Turtle Beach Corp. HEAR  Wall Street Journal - Feb 21, 2011 News Turtle Beach Corp.HEAR. Significant News Only. 03/14/17; Press Release. Turtle Beach Wins &quot;Best Peripherals And Accessories Brand&quot; Honors Fourth Year In A Row At UK Video Game Industry Awards.'
p2
aS'Turtle Beach to Present at the 29th Annual Roth Conference on March 14, 2017 PR Newswire  - Mar 9, 2017 SAN DIEGO, March 9, 2017 /PRNewswire/ --Turtle Beach Corporation , a leading gaming headset and audio accessory company, has been invited to present at the 29th Annual ROTH Capital Partners Conference.Traders Getting in Ahead of Turtle Beach Corp  Earnings Release - StockNewsUnionTurtle Beach Corp  Issues Quarterly Earnings Results - The Cerbat Gem'
p3
aS'Turtle Beach Corporation To Report Fourth Quarter And Full Year 2016 Financial ... PR Newswire  - Feb 24, 2017 SAN DIEGO, Feb. 24, 2017 /PRNewswire/ -- Turtle Beach Corporation , a leading gaming headset and audio accessory company, announced it will report financial results for the fourth quarter and full year 2016 on Wednesday, March 8,&nbsp;...'
p4
aS"Bullish Sentiment For Turtle Beach Corp.: Deaf To Losses And Skullcandy's ... Seeking Alpha - Jun 29, 2015 If a palm tree falls on a beach does it make a sound? Not if that beach is Turtle Beach Corp. . A series of bullish sentiment has been offered for the audio company's outlook, turning a deaf ear to warning signals:  declining revenue ..."
p5
aS'Turtle Beach: Digging The Hole Even Deeper Seeking Alpha - Sep 28, 2016 Turtle became publicly traded in January 2014 via a reverse merger stock swap with Parametric Sound Corp. , whose technology centered on directing sound waves in a narrow beam.'
p6
aS'Turtle Beach Corporation Announces Private Subordinated Note Offering to its ... PR Newswire  - Apr 24, 2015 SAN DIEGO, April 24, 2015 /PRNewswire/ -- Turtle Beach Corporation , the leading-edge audio technology company today announced it has issued a $5.0 million subordinated note to SG VTB Holdings, LLC .'
p7
aS'Turtle Beach Reports Fourth Quarter and Full Year 2015 Results PR Newswire  - Mar 24, 2016 &quot;We delivered revenue and adjusted EBITDA above our guidance range in the fourth quarter, driven by strong holiday sales in our headset business,&quot; said Juergen Stark, CEO, Turtle Beach Corporation. &quot;New-gen headset sales increased 31% compared to&nbsp;...'
p8
aS'Turtle Beach Doubles-Down On Its All-New Elite Pro Line Of Gaming Audio Gear ... PR Newswire  - Jun 7, 2016 SAN DIEGO, June 7, 2016 /PRNewswire/ -- In their second major eSports partnership announcement of the year, Turtle Beach Corporation  has doubled-down on its all-new Elite Pro line of tournament-grade gaming audio gear and the&nbsp;...'
p9
aS'Turtle Beach Corporation Reveals New Gaming Headsets For Electronic ... PR Newswire  - Jun 11, 2015 Turtle Beach  designs and markets premium audio peripherals for video game, personal computer, and mobile platforms, including its acclaimed line of Ear Force gaming headphones and headsets crafted for Xbox 360 and PS3 game&nbsp;...'
p10
a.