(lp0
S"PAR Technology Corporation to Present at Sidoti &amp; Company's Spring 2017 Convention Yahoo Finance - Mar 27, 2017 PAR Technology Corporation  today announced that Bryan A. Menar, the Company's Chief Financial Officer, will present a Corporate overview at Sidoti &amp; Company's Spring 2017 Convention to be held at the Marriott Marquis Hotel in New York, New&nbsp;..."
p1
aS"Salsarita's Selects PAR Technology's Brink POS Business Wire  - 19 hours ago ... Salsarita's Fresh Mexican Grill has deployed PAR's cloud-based Brink POS Software and EverServ Terminals for 68 current locations, with plans to expand in 2017. ParTech, Inc. is a wholly owned subsidiary of PAR Technology Corporation &nbsp;..."
p2
aS'PAR Technology Corporation Announces 2016 Fourth Quarter &amp; Full Year 2016 Results Yahoo Finance - Mar 13, 2017 I am pleased to report we ended 2016 by achieving our target of deployed Brink sites, commented Karen E. Sammon, PAR Technology Corporation President and Chief Executive Officer. Our financial results reflect the progress we have made executing to&nbsp;...'
p3
aS'MOCON Inc versus PAR Technology Corporation Head to Head Compare CML News - 16 hours ago MOCON Inc has a higher fundamental rating than PAR Technology Corporation which has an impact on the head-to-head comparison.'
p4
aS"News Par Technology Corp.PAR Wall Street Journal - Feb 11, 2011 P/E Ratio : The Price to Earnings  ratio, a key valuation measure, is calculated by dividing the stock's most recent closing price by the sum of the diluted earnings per share from continuing operations for the trailing 12 month period ..."
p5
aS'PAR Technology Corporation Releases Conference Call and Webcast Information ... Yahoo Finance - Mar 3, 2017 PAR Technology Corporation  today announced that it will report its fourth quarter &amp; year-end financial results on Wednesday, March 8, 2016.'
p6
aS'Annual ROTH Capital Conference on March 14, 2017 Business Wire  - Mar 9, 2017 NEW HARTFORD, N.Y.----PAR Technology Corporation  today announced President and CEO Karen E. Sammon will present a corporate overview at the 29th Annual ROTH Conference on Tuesday, March 14, 2017, at 12:30&nbsp;...'
p7
aS'PAR Technology Corporation versus Wireless Telecom Group Inc Head to Head Compare CML News - Mar 27, 2017 PAR Technology Corporation has a higher fundamental rating than Wireless Telecom Group Inc which has an impact on the head-to-head comparison.'
p8
aS"Sammon named PAR Technology Corporation president and CEO Rome Sentinel - Nov 20, 2015 Sammon's father, John Sammon Jr., founded PAR Technology in 1968 and was president and CEO until 2011. Karen Sammon also was elected to the board of directors."
p9
aS"PAR Technology Corporation Announces Dismissal of the Company's Chief ... Business Wire  - Mar 14, 2016 NEW HARTFORD, N.Y.----PAR Technology Corporation , a leading supplier of technology solutions to the restaurant/retail and government contracting industries, today announced effective immediately, the employment of&nbsp;...PAR Technology Fires CFO Over Use of Funds - CFO"
p10
a.