(lp0
S'Form 8-K PBF Energy Inc. For: Mar 27 Filed by: PBF Holding Co LLC StreetInsider.com - Mar 27, 2017 Management of PBF Energy Inc. and PBF Holding Company LLC  will be participating in meetings with institutional investors at the Scotia Howard Weil Energy Conference to be held in New Orleans, Louisiana, on Monday, March&nbsp;...PBF Energy Inc  Given a $24.00 Price Target at Scotiabank - BBNSFeatured Stock to Focus: PBF Energy Inc.  - HugoPress'
p1
aS'Why Investors remained confident on PBF Energy Inc. , Fluor Corporation ... StockNewsJournal - 16 hours ago ROI deals with the invested cash in the company and the return the investor realize on that money based on the net profit of the business.'
p2
aS"What are Analyst's Indicators for PBF Energy Inc. , Ares Capital ... The USA Commerce - Mar 27, 2017 Shares of PBF Energy Inc.  dropped -0.67% to $20.78. During the trading on 03/24/2017, Company's stock ranged from $21.03 to $20.60."
p3
aS"With An ROE Of 9.7%, Has PBF Energy Inc's  Management Done A Good Job? Simply Wall St - Mar 24, 2017 PBF Energy Inc's  ROE of 9.7% over the past year stood above the industry average of 6.89%. Often called the 'mother of all ratios', Return on Equity tells you how much capital is created in percentage terms for the amount committed by a&nbsp;...Featured Stock Overview: PBF Energy Inc.  - HugoPress"
p4
aS"Should You Be Worried About PBF Energy Inc's  Financial Health? Simply Wall St - Mar 4, 2017 A market capitalization of USD $2,531 Million puts PBF Energy Inc  in the mid-cap stocks category. Despite not being one of the most popular groups in the investment community, mid-caps have actually outperformed the small and large-cap&nbsp;...Analyst's Proposition on PBF Energy Inc. , Skechers USA, Inc.  - The USA CommerceThe Way Analysts See PBF Energy Inc.  - Post Analyst"
p5
aS'Should You Get Rid of PBF Energy  Now? March 10, 2017 Zacks.com - Mar 10, 2017 One such stock that you may want to consider dropping is PBF Energy Inc.  , which has witnessed a significant price decline in the past four weeks, and it has seen negative earnings estimate revisions for the current quarter and the ...'
p6
aS'Jpmorgan Chase &amp; Co. is Buying Pbf Energy Inc.  Shares Small Cap Exclusive  - Mar 7, 2017 In a just published Form 13, filed with the US Securities and Exchange Commission , Pbf Energy Inc.  reported that Jpmorgan Chase &amp; Co.Royce &amp; Associates LP Boosts Stake in PBF Energy Inc  - Chaffey BreezePBF Energy Inc.  held by 16 SEC 13F Filers - Post Analyst'
p7
aS'Taking a Look at the Data Behind PBF Energy Inc.  StockNewsJournal - Mar 9, 2017 PBF Energy Inc.  is an interesting player in the Basic Materials space, with a focus on Oil &amp; Gas Refining &amp; Marketing.PBF Energy Inc.  Valuation According To Analysts - UK Market News'
p8
aS'Analyst Recommendations And Earnings Forecast: Orion Group Holdings, Inc. (ORN ... Post Analyst - 19 hours ago Over the last five days, shares have faced -4.96% losses and now is down -5.04% since hitting its 200-day moving average of $8.87.'
p9
aS'PBF Energy Inc.  Technical Resistance and Key Price Levels to Watch USA Commerce Daily - Mar 24, 2017 With all other things going on, PBF Energy Inc.  has been on a free fall - declining -19.73 percent in just three months.'
p10
a.