(lp0
S'PC Connection Acquires Softmart Business Wire  - May 27, 2016 MERRIMACK, N.H.----PC Connection, Inc. , a national provider of a full range of information technology  solutions to business, government, healthcare, and education markets, announced today that Softmart, a global&nbsp;...'
p1
aS"Did PC Connection Inc  Create Value For Shareholders Over The Past One Year? Simply Wall St - Mar 3, 2017 PC Connection Inc's  ROE of 11.7% over the past year, compared to its industry's 24.15%, indicates that investors would have been better off choosing the broader industry in terms of returns generated on their committed capital."
p2
aS"PC Connection, Inc. Celebrates Launch of New Connection Brand Business Wire  - Sep 15, 2016 Connection's leadership team was joined by local dignitaries, including Senator Kelly Ayotte , for the event. Following the launch, all PC Connection, Inc. companies, including, PC Connection Sales Corporation, GovConnection, MoreDirect, and&nbsp;..."
p3
aS"What You Must Know About PC Connection Inc's  11.7% ROE? Simply Wall St - Mar 22, 2017 PC Connection Inc  generated a 11.7% ROE in the last year, compared to its industry's 24.22% ROE. But the profitability ratio, often called 'the mother of all ratios', reflects a company's performance both on its income statement and ..."
p4
aS"Quick Look at Shareholder Yield For PC Connection, Inc.  TCT - 6 hours ago The EBITDA Yield for PC Connection, Inc.  is 12.87%. The EBITDA Yield is a great way to determine a company's profitability."
p5
aS'PC Connection Wins Microsoft Operational Excellence Award Business Wire  - Dec 15, 2015 MERRIMACK, N.H.----PC Connection, Inc. , a national provider of a full range of information technology  solutions to business, government, healthcare, and education markets, today announced it has won the Microsoft&nbsp;...'
p6
aS'Price Alert: PC Connection Inc  Stock Nears Resistance ... CML News - Mar 25, 2017 Price Alert: PC Connection Inc  has now crossed into technical strength -- watch the technical oscillators for momentum gaps.'
p7
aS"Timothy J. Mcgrath Sells 20492 Shares of PC Connection, Inc.  Stock Chaffey Breeze - Mar 24, 2017 PC Connection logo PC Connection, Inc.  CEO Timothy J. Mcgrath sold 20,492 shares of the firm's stock in a transaction dated Wednesday, March 22nd."
p8
aS'Daily Sentiment Of PC Connection, Inc.  At 0 Markets Daily - Mar 27, 2017 PC Connection, Inc.  has been assigned a 0 daily sentiment score. This dataset constitutes mean sentiment and impact scores based on articles linked to PC Connection, Inc. , issued in past 24 hours. It is eventually the date&nbsp;...'
p9
aS'Warning PC Connection, Inc.  optimists! Timothy Mcgrath just Sold 20492 ... Herald KS - Mar 23, 2017 The President &amp; CEO of Pc Connection Inc, Timothy Mcgrath; completed a sizable deal in the open market by selling 20,492 shares at an average market price per share of $28.6 of the public firm valued at $586,095 U.S Dollars.'
p10
a.