(lp0
S'PROVIDENT FINANCIAL SERVICES, INC.  Files An 8-K Regulation FD ... Market Exclusive - 15 hours ago Provident Financial Services Inc. is a holding company for The Provident Bank . The Bank is a New Jersey-chartered capital stock savings bank.Provident Financial Services Inc  Moves Lower on Volume Spike for March 27 - Equities.comBroker Outlook For The Week Ahead Provident Financial Services, Inc  - Fiscal Standard'
p1
aS'Provident Financial Services, Inc  Ex-Dividend Date Scheduled for ... Nasdaq - Feb 10, 2017 Provident Financial Services, Inc  will begin trading ex-dividend on February 13, 2017. A cash dividend payment of $0.19 per share is scheduled to be paid on February 28, 2017.'
p2
aS'Stock Tracker: Trend Analysis on Provident Financial Services Inc  Baxter Review - 14 hours ago One technical indicator that may assist in measuring the strength of market momentum is the Average Directional Index or ADX. At the time of writing, the 14-day ADX for Provident Financial Services Inc  is standing at 19.83. Many chart analysts ...'
p3
aS'Provident Financial Services, Inc. Schedules Second Quarter Earnings ... GlobeNewswire  - Jul 1, 2016 ISELIN, N.J., July 01, 2016  -- Provident Financial Services, Inc.  announced that it expects to release financial results for the quarter ended June 30, 2016 on Friday July 29, 2016 at approximately 8:00 a.m.'
p4
aS"Provident Financial Services: A Little Extra Seeking Alpha - Jan 30, 2017 I continue to like Provident Financial Services  following its fourth quarter results because there's a clear path to healthy earnings growth and the company is hitting it."
p5
aS'Provident Financial Services Inc  Moves Higher on Volume Spike for ... Equities.com - Feb 27, 2017 Provident Financial Services Inc  traded on unusually high volume on Feb. 27, as the stock gained 0.11% to close at $26.81.Provident Financial Services, Inc  Reviewed By Analysts - The De Soto Edge'
p6
aS'Stock Returns: Kearny Financial Corp.  versus Provident Financial ... CML News - Mar 25, 2017 This is a snapshot to compare the stock returns for Kearny Financial Corp.  versus Provident Financial Services Inc  . The stock return points we compare look at the last three-months, six-months and twelve-months. At the end of&nbsp;...'
p7
aS'State Street Corp Purchases 140183 Shares of Provident Financial Services, Inc ... Chaffey Breeze - Mar 22, 2017 Provident Financial Services logo State Street Corp boosted its position in Provident Financial Services, Inc.  by 10.8% during the fourth quarter, according to its most recent Form 13F filing with the Securities and Exchange Commission.Dividend Payout Of Provident Financial Services, Inc  At $0.19 - Equities Focus'
p8
aS"Targeted Mover: Provident Financial Services, Inc  Is stories - Mar 9, 2017 Provident Financial Services, Inc.'s  witnessed a loss of -1.14% in recent trading period with closing price of $ 26.01.Provident Financial Services Inc  Files Form 4 Insider Selling : Terence ... - Energy IndexThe Silvercrest Asset Management Group LLC Invests $291000 in Provident ... - DailyQuint"
p9
aS'Decision Time: Provident Financial Services Inc  Stock Technicals ... CML News - Mar 17, 2017 Decision Time: Provident Financial Services Inc  now sits in the perhaps the most difficult technical position -- the stock has no urgency in its direction and that has left it at an inflection point.'
p10
a.