(lp0
S'Procter &amp; Gamble Company   Closes 0.3% Up on the Day for March 28 Equities.com - 10 hours ago Shares of Procter &amp; Gamble Company   ended the trading day Tuesday at $90.76, representing a move of 0.3%, or $0.27 per share, on volume of 7.59 million shares.Procter &amp; Gamble Co  Position Increased by Burney Co. - Chaffey BreezeAviva PLC Raises Position in Procter &amp; Gamble Co  - The Cerbat Gem'
p1
aS"Here's Why the Worst Is Yet to Come for Procter &amp; Gamble Company Motley Fool - Mar 21, 2017 Procter &amp; Gamble Company  is a stalwart of the stock market and is often cited as one of the market's best dividend aristocrats.Procter &amp; Gamble Company   Closes 0.22% Down on the Day for March 22 - Equities.com"
p2
aS'P&amp;G Filed Infringement Complaint and Motion for Preliminary Injunction Against ... Business Wire  - Mar 27, 2017 CINCINNATI----The Procter &amp; Gamble Company  filed a patent infringement complaint and motion for preliminary injunction in the United States District Court for the Southern District of Ohio against Ranir LLC, a store-brand&nbsp;...'
p3
aS"Better Buy: Procter &amp; Gamble Co vs. Altria Group Inc Motley Fool - Mar 16, 2017 But which company is the better stock to buy today? There's no sure-fire way to answer that question. I like to approach it from three different perspectives to get a better idea of what I'm paying for."
p4
aS"5 Must-See Slides From Procter &amp; Gamble Co's Investor Presentation Motley Fool - Feb 28, 2017 Procter &amp; Gamble  executives last week presented at an analyst conference to update shareholders on their cost-cutting plans while laying out why they believe they're right on track to begin snatching back market share after two years of&nbsp;...Procter &amp; Gamble Co  Stock Remains a Good Bet for Investors - Investorplace.comEOD Risers: Procter &amp; Gamble Co, The Coca-Cola Co, Travelers Companies Inc ... - DirectorsTalk Interviews"
p5
aS"How Procter &amp; Gamble is using social criticism to build brands in China WCPO - Mar 6, 2017 CINCINNATI - It's a feel-good campaign about female empowerment. But Procter &amp; Gamble Co. is confronting one of China's thorniest social issues in its latest rollout of Like a Girl.Procter &amp; Gamble Vs. Unilever - Seeking Alpha"
p6
aS"3 Reasons to Expect a Big Dividend Hike From Procter &amp; Gamble Co. in April Motley Fool - Mar 13, 2017 P&amp;G now sees organic sales rising by 2.5% at the midpoint of guidance, up from the 2% they initially projected and the 1% that the company achieved in 2016. In another welcome contrast with competitors, P&amp;G's growth is both accelerating and being ...Just the Facts on The Procter &amp; Gamble Company  - StockNewsJournalProcter &amp; Gamble Company   Closes 0.34% Down on the Day for March 14 - Equities.com"
p7
aS"P&amp;G sues competitor for 'flagrant act of piracy' Cincinnati Business Courier - Mar 20, 2017 The Cincinnati-based maker of Crest Whitestrips  claims that Ranir sells its own version of the P&amp;G products through Walmart, Kroger and possibly other retailers.P&amp;G sues GR-based oral care products firm over tooth-whitening products - MiBiz"
p8
aS"EOD Risers: Nike Inc, Procter &amp; Gamble Co, The Coca-Cola Co, United ... DirectorsTalk Interviews - Mar 14, 2017 Shares of Procter &amp; Gamble Co found using EPIC:  a company focused on providing branded consumer packaged goods to the consumers across the world, gained 0.26% or 0.24 points at the end of yesterday's session."
p9
aS'Former P&amp;G employee to plead guilty in fraud scheme Cincinnati Business Courier - Mar 13, 2017 P&amp;G began working with the appropriate authorities in this matter following the results of a routine audit, company spokesman Damon Jones told me. Susan Ruhe worked in administrative roles at P&amp;G for more than 20 years and left the company in 2013..Former P&amp;G employee to plead guilty to stealing $454000 from company - WXIXDocuments: Ex-P&amp;G employee stole $450K - Cincinnati.com'
p10
a.