(lp0
S'Peerless Systems Corporation to be Acquired for $7.00 Per Share in Cash GlobeNewswire  - Dec 22, 2014 STAMFORD, Conn., Dec. 22, 2014  -- Peerless Systems Corporation  today reported that it has entered into a definitive merger agreement to be acquired by Mobius Acquisition, LLC for $7.00 per share in cash, pursuant to&nbsp;...Mobius Acquisition to Acquire Peerless Systems Corp  for $7/Share Cash - StreetInsider.com '
p1
aS'Peerless Systems Agrees to Acquire 80% of Deer Valley Corporation GlobeNewswire  - Sep 3, 2014 STAMFORD, Conn., Sept. 3, 2014  -- Peerless Systems Corporation  announced today that it has entered into a definitive Stock Purchase Agreement  with Vicis Capital Master Fund  and Deer Valley&nbsp;...'
p2
aS'Peerless Systems Closes the Acquisition of 80% of Deer Valley Corporation GlobeNewswire  - Oct 6, 2014 STAMFORD, Conn., Oct. 6, 2014  -- Peerless Systems Corporation  announced today that its wholly owned subsidiary, Peerless Homes Corporation, has consummated its previously announced agreement to acquire 80%&nbsp;...'
p3
aS"LCV expects to close Peerless deal Thursday Pittsburgh Business Times  - Feb 12, 2015 LCV Capital Management LLC on Thursday announced the successful completion of its all-cash tender offer to acquire Peerless Systems Corp. for $7 per share through LCV's subsidiary Mobius Acquisition LLC. LCV, a Pittsburgh-based investment&nbsp;...LCV Capital Management Closes Tender Offer to Acquire Peerless Systems ... - GlobeNewswire "
p4
aS'Peerless Systems Is A Rare, Profitable Net-Net And My Pick To Click Seeking Alpha - Aug 14, 2013 Everything becomes cheap for a reason. Peerless generates revenue by licensing its technology for imaging solutions in the digital image space.'
p5
aS'LCV Capital Management, LLC Announces Support For Peerless Systems Corporation ... PR Newswire  - Oct 3, 2011 PITTSBURGH, Oct. 3, 2011 /PRNewswire/ -- LCV Capital Management, LLC  issued today an open letter to the independent directors of ModusLink Global Solutions, Inc.   announcing its support&nbsp;...'
p6
aS'Jive Software, Inc.  Files An 8-K Entry into a Material ... Market Exclusive - Mar 16, 2017 Mr. Frankfurt previously served as a member of the board of directors of Peerless Systems Corp., an imaging and networking technologies and components company, from November 2010 to June 2012, and as a director of Mercury Payment Systems, Inc.,&nbsp;...'
p7
aS'3D Printing Material Investing Energy and Capital - Sep 30, 2013 In the time range represented above, investors in this space saw gains of approximately 900%, 590%, and 380% from third-party suppliers - including Peerless Systems Corp. , Ikonics Corp. , and Transact Tech (NASDAQ:&nbsp;...'
p8
aS'Rubicon Technology Appoints Timothy E. Brog as New Independent Director Business Wire  - May 31, 2016 Previously, he served as Chairman of the Board of Directors of Peerless Systems Corporation from June 2008 to February 2015, Chief Executive Officer from August 2010 to March 2015 and a director beginning in July 2007.'
p9
aS"Exploring Graham's Net-Net Working Capital Strategy, Part 2: Avoid Investing ... Seeking Alpha - May 23, 2016 One perfect example of management having major incentive to increase share price is Peerless Systems Corp. , a licensor of imaging and networking technologies."
p10
a.