(lp0
S'Why Could PB Bancorp Inc  Not Be As Efficient As Its Industry In The ... Simply Wall St - Mar 21, 2017 With a ROE of 2.3%, PB Bancorp Inc  could hardly match the performance of its industry, which averaged a ROE of 9.28%.'
p1
aS"Will PB Bancorp Inc  Continue To Underperform Its Industry? Simply Wall St - Mar 3, 2017 PB Bancorp Inc  generated a 2.3% ROE in the last year, compared to its industry's 9.83% ROE. But the profitability ratio, often called 'the mother of all ratios', reflects a company's performance both on its income statement and balance sheet."
p2
aS'Price Alert: PB Bancorp Inc  Stock Approaches Resistance ... CML News - Mar 16, 2017 Price Alert: PB Bancorp Inc  has now crossed into technical strength -- watch the technical oscillators for momentum gaps.'
p3
aS"Form 8-K PB Bancorp, Inc. For: Jan 20 StreetInsider.com - Jan 21, 2016 On January 20, 2016, the Board of Directors of PB Bancorp, Inc.  declared a quarterly cash dividend on the Company's common stock of $.025 per share."
p4
aS'PB Bancorp Inc  Stock Technicals Hit Strength CML News - Feb 27, 2017 This is a technical analysis stock rating for PB Bancorp Inc  . The company has a four bull technical rating which indicates some strength.'
p5
aS'Stock Returns: Prosperity Bancshares Inc  is Beating NBT Bancorp Inc ... CML News - Mar 10, 2017 This is a snapshot to compare the stock returns for NBT Bancorp Inc  versus Prosperity Bancshares Inc  . The stock return points we compare look at the last three-months, six-months and twelve-months. At the end of this snapshot&nbsp;...'
p6
aS'Prosperity Bancshares Inc. MarketWatch - Jun 7, 2011 Prosperity Bancshares Inc. NYSE: PB. GO. Set Alerts &middot; Find a Broker &middot; Join TD Ameritrade &middot; Market Index &middot; Overview Profile News Charts Financials Historical Quotes Analyst Estimates Options SEC Filings Insiders.'
p7
aS'Stock Returns: Prosperity Bancshares Inc  is Beating PacWest Bancorp ... CML News - Mar 5, 2017 This is a snapshot to compare the stock returns for PacWest Bancorp  versus Prosperity Bancshares Inc  . The stock return points we compare look at the last three-months, six-months and twelve-months. At the end of this&nbsp;...'
p8
aS'Stock Returns: Cathay General Bancorp  versus Prosperity ... CML News - Mar 22, 2017 This is a snapshot to compare the stock returns for Cathay General Bancorp  versus Prosperity Bancshares Inc  . The stock return points we compare look at the last three-months, six-months and twelve-months. At the end of this&nbsp;...'
p9
aS'P/B Ratio &amp; P/E ratio Analysis: ESSA Bancorp, Inc. , Equus Total ... The Finance Registrar - Mar 24, 2017 ESSA Bancorp, Inc.  shares are trading -7.72% below their 50-day moving average, and 0.01% above their 200-day moving average.'
p10
a.