(lp0
S"Pain Therapeutics Announces Positive Regulatory Guidance for REMOXY ER GlobeNewswire  - Mar 20, 2017 AUSTIN, Texas, March 20, 2017  -- Pain Therapeutics, Inc.  today announced positive regulatory guidance from a recent meeting with the U.S.Tuesday's Market Insights: Pulmatrix Inc , Pain Therapeutics, Inc. (PTIE ... - Smarter AnalystPain Therapeutics tops Nasdaq board as it advances lead pain management drug - Proactive Investors USA & Canada"
p1
aS"Analyst's Predictions on Uranium Energy Corp. , Pain Therapeutics, Inc ... StockNewsJournal - 16 hours ago Pain Therapeutics, Inc. , maintained return on investment for the last twelve months at -61.87, higher than what Reuters data shows regarding industry's average."
p2
aS'Pain Therapeutics Reports 2016 Financial Results GlobeNewswire  - Feb 17, 2017 AUSTIN, Texas, Feb. 17, 2017  -- Pain Therapeutics, Inc.  today reported financial results for the year ended December 31, 2016 and provided an update on recent developments.'
p3
aS"The Technicals For Pain Therapeutics, Inc.  Have Been Dissected  NY Stock News - Mar 27, 2017 Pain Therapeutics, Inc.  has presented a rich pool of technical data in recent sessions. These are the trends we've been tracking and how we feel they should be played in the current environment."
p4
aS'24 hedge funds sold their entire positions in Pain Therapeutics, Inc. (NASDAQ ... Post Analyst - 54 minutes ago Pain Therapeutics, Inc.  reached 84.28% versus a 1-year low price of $0.51. The stock was last seen 12.55% higher, reaching at $0.94 on Mar. 28, 2017.Gabelli Analysts Boost Earnings Estimates for Pain Therapeutics, Inc.  - Chaffey BreezeThe Case for and Against Pain Therapeutics, Inc.  - StockNewsJournal'
p5
aS'US STOCKS ON THE MOVE-Apple, Conagra, Pain Therapeutics, Heat Biologics ... Times of India - Mar 21, 2017 Deutsche Bank: down 4.8 pct at $17.50 premarket BUZZ-Deutsche Bank: Above ex-right price as cap hike starts ** Pain Therapeutics Inc: up 58.8 pct at $1.08 premarket BUZZ-Pain Therapeutics: Set to open at 6-mth high on FDA comments ** General Mills&nbsp;...BUZZ-US STOCKS ON THE MOVE-Deutsche Bank, Pain Therapeutics, Heat Biologics - Nasdaq'
p6
aS"How Does the Chart Look for Pain Therapeutics, Inc.  ? The USA Commerce - Mar 22, 2017 We have gathered the technical data on Pain Therapeutics, Inc. , and see some interesting trends in the stock's behavior of late."
p7
aS'Between The Numbers: Applied Optoelectronics, Inc. , Pain Therapeutics ... USA Commerce Daily - Mar 27, 2017 Shares of Applied Optoelectronics, Inc.  are making a strong comeback as they have jumped 580.94% since bottoming out at $8.08 on May.'
p8
aS'Target Price Updates on Synacor, Inc.  Pain Therapeutics, Inc ... Rives Journal - 16 hours ago Sell-side analysts are offering a consensus Buy rating on shares of Synacor, Inc. . Using the following ratings scale: 1.0 Strong Buy, 2.0 Buy, 3.0 Hold, 4.0 Sell and 5.0 Strong Sell, analysts have an average recommendation of 2.00.'
p9
aS"Why Analysts put forward these two stocks: Pain Therapeutics, Inc. (PTIE ... The USA Commerce - Mar 23, 2017 Shares of Pain Therapeutics, Inc.  surged 4.04% to $1.03. During the trading on 03/22/2017, Company's stock ranged from $1.07 to $0.95."
p10
a.