(lp0
S"QUIDEL CORPORATION  Files An 8-K Departure of Directors or ... Market Exclusive - Mar 27, 2017 Quidel Corporation is engaged in the development, manufacturing and marketing of diagnostic testing solutions. The Company's diagnostic testing solutions primarily include applications in infectious diseases, women's health and gastrointestinal diseases.Quidel Corporation  Quarterly Deferred Revenue At $3.658 Millions - Enterprise LeaderQuidel Co.  Receives Consensus Rating of Hold from Analysts - BBNS"
p1
aS"Quidel Corporation's  CEO Doug Bryant on Q4 2016 Results - Earnings Call ... Seeking Alpha - Feb 9, 2017 Ladies and gentlemen, thank you for standing by. Welcome to the Quidel Corporation Fourth Quarter and Full Year 2016 Earnings Conference Call."
p2
aS'Quidel Corp  Prelim. Q4 Revenue Falls Short of Consensus StreetInsider.com - Jan 6, 2017 Quidel Corporation , a provider of rapid diagnostic testing solutions, cellular-based virology assays and molecular diagnostic systems, announced today that it expects revenues in the fourth quarter of 2016 to be in the range of $52 to ...'
p3
aS'Quidel Corp  Granted FDA 510 Clearance for New Solana Molecular Assay StreetInsider.com - Nov 29, 2016 Quidel Corporation  received 510 clearance from the United States Food and Drug Administration  to market its Solana HSV-1+2/VZV Assay for the qualitative detection and differentiation of herpes simplex virus type 1, herpes&nbsp;...'
p4
aS'Quidel Corporation  Moves Lower on Volume Spike for March 14 Equities.com - Mar 14, 2017 Quidel Corporation  traded on unusually high volume on Mar. 14, as the stock lost 2.62% to close at $20.48. On the day, Quidel Corporation saw 248,141 shares trade hands on 2,039 trades. Considering that the stock averages only a daily volume of&nbsp;...Stock Returns: The Spectranetics Corporation  is Beating Quidel ... - CML NewsQuarterly EPS Of Quidel Corporation  Projected At $0.14 - Markets Daily'
p5
aS'Quidel Corp  Announces FDA Clearance for Its Solana Influenza A+B Assay StreetInsider.com - Sep 27, 2016 Quidel Corporation , a provider of rapid diagnostic testing solutions, cellular-based virology assays and molecular diagnostic systems, announced today that it has received 510 clearance from the United States Food and Drug&nbsp;...'
p6
aS'Next Weeks Broker Price Targets For Quidel Corporation  Fiscal Standard - 22 hours ago Stock market analysts and brokers have recently amended their target prices on shares of Quidel Corporation . According to the latest research reports released, 0 analysts have issued a rating of buy, 2 analysts outperform, 5 analysts&nbsp;...'
p7
aS'Source: Quidel Corp. Seeking Alpha - Aug 16, 2016 As the chart above shows, it is easy to make the case for flu-related growth in the near-term, considering the usual cyclicality, but current momentum, as well as the progress shown by the company on the product development front, increases confidence ...'
p8
aS'Quidel Corporation  Moves Higher on Volume Spike for February 27 Equities.com - Feb 27, 2017 Quidel Corporation  traded on unusually high volume on Feb. 27, as the stock gained 3.5% to close at $21.89. On the day, Quidel Corporation saw 235,899 shares trade hands on 2,055 trades. Considering that the stock averages only a daily volume&nbsp;...CL King Initiates Coverage On Quidel Corporation to Neutral - Money Flow Index & TrendsQuidel Co.  CEO Douglas C. Bryant Sells 106920 Shares - Sports Perspectives'
p9
aS'Quidel Corporation  Moves Lower on Volume Spike for March 17 Equities.com - Mar 17, 2017 Quidel Corporation  traded on unusually high volume on Mar. 17, as the stock lost 0.65% to close at $21.27. On the day, Quidel Corporation saw 231,490 shares trade hands on 1,642 trades. Considering that the stock averages only a daily volume of&nbsp;...'
p10
a.