(lp0
S'Quality Distribution, Inc. Acquires Isotank Group UK GlobeNewswire  - Jun 3, 2016 TAMPA, Fla., June 03, 2016  -- Quality Distribution, Inc. , a North American logistics and transportation provider with market leading businesses, today announced that it has acquired Isotank Group U.K.'
p1
aS'Quality Distribution Agrees to be Acquired by Funds Advised by Apax Partners ... GlobeNewswire  - May 7, 2015 TAMPA, Fla. and NEW YORK, May 6, 2015  -- Quality Distribution, Inc.  , a North American logistics and transportation provider with market leading businesses, today announced&nbsp;...Quality Distribution Firm Taken Private by Apax in $800 Million Deal - TheStreet.comSkadden Reps Apax In $800M Quality Distribution Buy - Law360 '
p2
aS"Quality Distribution 'say on pay' vote doesn't matter in $800M deal Tampa Bay Business Journal - Aug 18, 2015 What had been one of the largest publicly traded companies in Tampa Bay is now owned by a private equity firm. Shareholders of Quality Distribution Inc. approved an $800 million acquistion by Apax Partners, based in London and one of the largest ..."
p3
aS"Moody's assigns B2 CFR to Gruden Acquisition, Inc. (&quot;Quality Distribution ... Moodys.com   - Jul 15, 2015 Gruden Acquisition was formed to effectuate the acquisition by Apax Partners of Quality Distribution, Inc. , the parent company of Quality Distribution, LLC."
p4
aS'Quality Distribution, Inc. Announces the Sale of Operating Assets of Quala ... GlobeNewsWire  - Oct 10, 2009 TAMPA, Fla., Oct. 10, 2009  -- Quality Distribution, Inc.  announced today that it has sold substantially all of the operating assets of its Quala Systems, Inc.  tank wash subsidiary to QualaWash Holdings, LLC (&quot;QWH ...'
p5
aS"Quality Distribution, Inc. Announces the Acquisition of Dunn's Tank Service ... GlobeNewsWire  - Aug 6, 2012 TAMPA, Fla., Aug. 6, 2012  -- Quality Distribution, Inc.   today announced that certain of its wholly-owned subsidiaries have purchased the operating assets of Dunn's Tank Service, Inc."
p6
aS'Chris Broussard Named President of QC Energy Resources GlobeNewswire  - Jul 14, 2014 TAMPA, Fla., July 14, 2014  -- Quality Distribution, Inc.   announced today that it has named Chris Broussard as President of QC Energy Resources , effective July 28, 2014.'
p7
aS"Moody's places Quality Distribution's ratings under review for downgrade Moodys.com   - May 8, 2015 According to the company's announcement, Apax will acquire all outstanding shares of Quality Distribution for US$16.00 per share in an all-cash transaction valued at approximately US$800 million, including the assumption of debt, representing a 9.0x&nbsp;..."
p8
aS'Apollo plans Quality Distribution exit Tampa Bay Business Journal - Aug 7, 2013 Quality Distribution has lined up seven securities firms to handle the public offering, which has not yet been priced. BofA Merrill Lynch, Goldman Sachs &amp; Co. and J.P. Morgan Securities are joint bookrunning managers, with co-managers SunTrust Robinson&nbsp;...'
p9
aS'Quality Carriers Expands in Eastern Pennsylvania GlobeNewswire  - Apr 17, 2014 Quality Carriers, a wholly-owned subsidiary of Quality Distribution, Inc. , operates the largest chemical bulk logistics network in North America.'
p10
a.