(lp0
S"Why Snap Inc., FactSet Research Systems, and Raven Industries Slumped Today Motley Fool - 9 hours ago But several individual stocks were left behind amid the overall market's gains today, including Snap Inc. , Raven Industries , and FactSet Research Systems . Read on to see what drove these unusual moves.Raven Industries Inc.  Has Dropped To A 6-Week Low After Q4 Report - NasdaqRaven Industries Inc.  Plunges 5.38% on March 28 - Equities.com"
p1
aS'Raven Industries Continues To Improve In 3Q17 Seeking Alpha - Feb 22, 2017 After initially running into filing trouble with the SEC, Raven has released its earnings results and is now back on solid footing.Raven Industries, Inc.  Upgraded at Dougherty &amp; Co - Sports Perspectives'
p2
aS'Raven Industries Inc. Keeps Improving Motley Fool - Aug 23, 2016 Raven Industries  announced better-than-expected fiscal second-quarter 2017 results Tuesday before the market opened, thanks to solid demand from new products and continued strength in international markets.'
p3
aS'Raven Industries Announces Addition to Reinforced DURA-SKRIM Geomembranes GlobeNewswire  - Mar 9, 2017 SIOUX FALLS, S.D., March 09, 2017  -- Raven Industries, Inc.  today announced that its Engineered Films division, an innovative manufacturer of polymer film and sheeting, has introduced a new series in their signature&nbsp;...Analysts Expect Raven Industries, Inc.  to Post $0.12 EPS - Sports Perspectives'
p4
aS'Raven Industries: A Common Sense Short With 40% Downside Seeking Alpha - Mar 11, 2016 Such was the case when we began to look at Raven Industries  .'
p5
aS'Why Raven Industries, Inc. Stock Skyrocketed Today Motley Fool - May 19, 2016 What: Shares of Raven Industries Inc.  were up 16.6% as of 12:00 p.m. EST Thursday after the mini-industrial conglomerate announced stronger-than-expected fiscal first-quarter 2017 earnings.'
p6
aS'Raven Industries Announces Additional Production Capacity in Midland, Texas GlobeNewswire  - Mar 1, 2017 SIOUX FALLS, S.D., March 01, 2017  -- Raven Industries, Inc.  today announced that its Engineered Films division, an innovative manufacturer of polymer film and sheeting, has added production capacity to its Midland,&nbsp;...Raven Industries, Inc.  Upgraded to B- at TheStreet - Community Financial NewsRaven Expands Production Capacity in Midland, Texas - Geosynthetica.net'
p7
aS'Raven Industries Gets Back on Track Motley Fool - Feb 22, 2017 Raven Industries  announced strong fiscal third-quarter 2017 results last Wednesday, demonstrating improvements in growth on both its top and bottom lines.Raven Industries Inc.  Moves Higher on Volume Spike for February 21 - Equities.comRaven Industries, Inc.  Stock Rating Upgraded by Dougherty &amp; Co - The Cerbat Gem'
p8
aS"Don't Bet the Farm on Raven Industries Stock Barron's - Sep 8, 2016 While agricultural markets remain weak, Raven has been growing, driven by new product introductions and market share gains outside the U.S."
p9
aS"Raven Industries: A Cheap Commodity Play That Can Rise 65% Barron's - Jan 27, 2016 While the business environment remains difficult, Raven's earnings could be nearing a bottom, helped by restructuring moves that the company has taken."
p10
a.