(lp0
S'Rubicon Technology: A Prime Target For Acquisition Seeking Alpha - Nov 17, 2016 Rubicon Technology  produces sapphire used in optical and industrial applications. RBCN has been unprofitable for 4 years and is ... To drive shareholder value, RBCN hired a merger/acquisition specialist onto the board that has recently ...'
p1
aS'RUBICON TECHNOLOGY, INC.  Files An 8-K Entry into a Material ... Market Exclusive - Mar 16, 2017 Rubicon Technology, Inc. is a vertically integrated, electronic materials provider specializing in monocrystalline sapphire for applications in light-emitting diodes , optical systems and specialty electronic devices.Rubicon Technology  Names Timothy Brog as CEO - StreetInsider.comIn focus: Rubicon Technology, Inc.  Trading Patterns - Post Analyst'
p2
aS'Rubicon Technology: Trading Below NCAV Seeking Alpha - Jun 20, 2016 Rubicon Technology  manufactures and sells monocrystalline sapphire for LED, radio frequency circuits, and other optical applications.'
p3
aS'Does Zero-Debt Really Make Rubicon Technology Inc  A Financially Strong ... Simply Wall St - Feb 22, 2017 Rubicon Technology Inc , which has zero-debt on its balance sheet, can maximize capital returns by increasing debt.Brokers Change Their Target Price On Rubicon Technology, Inc.  - Fiscal Standard'
p4
aS"Earnings Clues on Real Goods Solar, Inc. , Rubicon Technology, Inc ... StockNewsJournal - Mar 22, 2017 Rubicon Technology, Inc. , maintained return on investment for the last twelve months at -77.16, higher than what Reuters data shows regarding industry's average."
p5
aS'Rubicon Technology, Inc. Reports Second Quarter 2016 Results of Operations Business Wire  - Aug 9, 2016 BENSENVILLE, Ill.----Rubicon Technology, Inc. , a provider of sapphire substrates and products to the LED, optical and semiconductor industries, today reported financial results for its second quarter ended June 30, 2016.'
p6
aS"Looking at the Tea Leaves for Rubicon Technology, Inc.  The USA Commerce - Mar 23, 2017 We have gathered the technical data on Rubicon Technology, Inc. , and see some interesting trends in the stock's behavior of late."
p7
aS'Rubicon Technology  to Close Penang, Malaysia Facility StreetInsider.com - Sep 13, 2016 Rubicon Technology, Inc.  announced plans to cease all production activities and shut down its Penang, Malaysia facility.Rubicon Technology factory in Penang to close down - Free Malaysia TodayRubicon closing Malaysia plant by end-2016 - Semiconductor Today'
p8
aS'Rubicon Technology, Inc. Reports Third Quarter 2016 Results of Operations Business Wire  - Nov 9, 2016 BENSENVILLE, Ill.----Rubicon Technology, Inc. , a leading provider of optical and industrial sapphire products, today reported financial results for its third quarter ended September 30, 2016.'
p9
aS'Form 4 Rubicon Technology, Inc. For: Mar 15 Filed by: Brog Timothy StreetInsider.com - Mar 17, 2017 Check this box if no longer subject to Section 16. Form 4 or Form 5 obligations may continue. See Instruction 1. 1. Name and Address of Reporting Person *. Brog Timothy. , , . C/O RUBICON TECHNOLOGY, INC.,. 900 EAST GREEN ST.,&nbsp;...'
p10
a.