(lp0
S'What Rowan Companies plc  Is Telling Investors Via Its Technical Chart NY Stock News - 17 hours ago Rowan Companies plc  has created a compelling message for traders in the most recent trading. That message has grown stronger as the technical chart setup has developed into a more composite picture for the stock.'
p1
aS"Sell-Side Analyst's Predictions: Rowan Companies plc , Premier, Inc.  The USA Commerce - Mar 27, 2017 Shares of Rowan Companies plc  surged 0.21% to $14.53. During the trading on 03/24/2017, Company's stock ranged from $14.74 to $14.43.Rowan Companies plc surged in the Previous Trading Session with the Change of ... - Free ObserverRowan Companies  Down 22% Since Earnings Report: Can It Rebound? - Nasdaq"
p2
aS'Street Predictions for Rowan Companies plc  Aiken Advocate - 18 hours ago Sell-side analysts that cover the company currently have a consensus target price of $17.687 on shares. The target includes estimates from 16 analysts that were polled by Zacks Research.'
p3
aS'Stock in Focus: Rowan Companies plc  Rives Journal - 13 hours ago Individual investors might be studying multiple metrics in order to maximize returns. Rowan Companies plc  presently has a Gross Margin  ratio of 0.122758.Rowan Companies PLC  Earns Hold Rating from Analysts at Tudor Pickering - Sports Perspectives'
p4
aS'Buy or Sell? What Analysts Recommends: Rowan Companies plc , Sprouts ... StockNewsJournal - Mar 23, 2017 Rowan Companies plc  have shown a high EPS growth of 18.80% in the last 5 years and has earnings decline of 240.60% yoy.'
p5
aS'Rowan Companies Stock Getting Very Oversold Nasdaq - Mar 9, 2017 In trading on Thursday, shares of Rowan Companies plc  entered into oversold territory, changing hands as low as $15.61 per share.'
p6
aS"What Analysts are Predicting For KB Home , Rowan Companies plc ? The USA Commerce - Mar 21, 2017 While trading at volume above than average, Rowan Companies plc  previous 52-week high was $21.68 and moved down -10.14% over the same period, trading at a volume of 3.09 million.What are analysts saying about Rowan Companies plc's  future? - Simply Wall St"
p7
aS'Stock Beta Analysis: Rowan Companies plc  The Oracle Examiner - 16 hours ago While predicting the next move of Rowan Companies plc , volatility is an important factor to look at. Currently Rowan Companies plc  has weekly volatility of 3.75%% and monthly volatility of 3.59%%. In the words of investopedia.com ...'
p8
aS"Rowan Companies  Reports Q4 Earnings, Revenues Fall Y/Y Yahoo Finance - Feb 27, 2017 Global provider of contract drilling services, Rowan Companies plc RDC reported adjusted fourth-quarter 2016 earnings from continuing operations of 8 cents per share.Average Brokerage Rating Of Rowan Companies plc , People's United ... - The USA CommerceDividend Growth Analysis of Rowan Companies plc  - Energy Index"
p9
aS'What Rowan Companies plc  And Its Chart Reveal Today NY Stock News - Mar 27, 2017 The technicals for Rowan Companies plc  have taken shape, and with them a comprehensive picture has emerged. This is the current state of play as presented by the current technical setup.'
p10
a.