(lp0
S'RF Industries Reports First Quarter Results PR Newswire  - Mar 15, 2017 Higher sales of DAS products and a modest firming in demand for RF Connector products is encouraging for the remainder of fiscal 2017.RF INDUSTRIES, LTD.  Files An 8-K Results of Operations and ... - Market Exclusive'
p1
aS'RF Industries, Ltd.  Ex-Dividend Date Scheduled for March 29, 2017 Nasdaq - Mar 17, 2017 RF Industries, Ltd.  will begin trading ex-dividend on March 29, 2017. A cash dividend payment of $0.02 per share is scheduled to be paid on April 15, 2017.'
p2
aS"Johnny Walker, RF Industries' President and CEO, Steps Down PR Newswire  - Oct 25, 2016 SAN DIEGO, Oct. 25, 2016 /PRNewswire/ -- RF Industries, Ltd.  announced today that Johnny Walker, President and Chief Executive Officer, and the Company mutually agreed to terminate his employment with the Company to allow Mr."
p3
aS'RF Industries Acquires Rel-Tech Electronics, Inc. PR Newswire  - Jun 5, 2015 SAN DIEGO, June 5, 2015 /PRNewswire/ -- RF INDUSTRIES, LTD.  announced today that it has completed the acquisition of Rel-Tech Electronics, Inc. , a Milford, Connecticut-based manufacturer of custom cable assemblies and&nbsp;...'
p4
aS'RF Industries Promotes Johnny Walker To Chief Executive Officer PR Newswire  - Jan 28, 2015 SAN DIEGO, Jan. 28, 2015 /PRNewswire/ -- RF INDUSTRIES, LTD.  announced today that its Board of Directors has promoted Johnny Carl Walker, President of RF Industries, to the additional position of Chief Executive Officer.'
p5
aS'RF Industries Acquires Comnet Telecom Supply, Inc. PR Newswire  - Jan 21, 2015 SAN DIEGO, Jan. 21, 2015 /PRNewswire/ -- RF INDUSTRIES, LTD.  announced today that it has completed the acquisition of East Brunswick, New Jersey-based Comnet Telecom Supply, Inc. , a supplier of telecommunications and&nbsp;...'
p6
aS'RF Industries, Ltd. Purchases Innovative Connector Technology for Braided ... PR Newswire  - May 20, 2015 SAN DIEGO, May 20, 2015 /PRNewswire/ -- RF Industries, Ltd.  announces the purchase of the ComPro braided product line  from JMA Wireless.'
p7
aS"Oxbridge Re Holdings Ltd.  Is At $6.20 Formed Wedge; RF Industries ... Herald KS - Mar 27, 2017 Oxbridge Re Holdings Ltd.  formed wedge up with $6.63 target or 7.00% above today's $6.20 share price. Oxbridge Re Holdings Ltd.  has $36.49 million valuation. The stock increased 3.33% or $0.2 on March 24, reaching $6.2. About shares&nbsp;...RF Industries, Ltd.  to pay $0.02 on Apr 15, 2017, Stewardship Financial ... - Wolcott DailyLatest Stocks: The RF Industries, Ltd.  Plans $0.02 Quarterly Dividend - Petro Global News 24"
p8
aS'Johnny Carl Walker Appointed President of RF Industries PR Newswire  - Oct 6, 2014 SAN DIEGO, Oct. 6, 2014 /PRNewswire/ -- RF INDUSTRIES, LTD,  today announced that it has appointed Johnny Carl Walker as President of RF Industries.'
p9
aS'Stock Review for RF Industries Ltd  BVN - 10 hours ago RF Industries Ltd  currently has a 14-day Commodity Channel Index  of 48.24. Active investors may choose to use this technical indicator as a stock evaluation tool.'
p10
a.