(lp0
S'RealPage Inc  Shares Bought by State Street Corp The Cerbat Gem - 19 hours ago RealPage logo State Street Corp boosted its position in RealPage Inc  by 4.0% during the fourth quarter, according to its most recent Form 13F filing with the Securities and Exchange Commission.Latest Stocks: The Stephen T. Winn Sells 159600 Shares of RealPage Inc  Stock - Petro Global News 24'
p1
aS'RealPage makes $300M acquisition of revenue management system Dallas Business Journal - Feb 27, 2017 Less than a month after agreeing to buy a Dallas-based apartment research firm, Richardson-based RealPage Inc.  has decided to acquire a revenue management system that will optimize the price of 1.5 million apartments for $300 million.The Rainmaker Group Announces Sale of Multifamily Housing Assets to RealPage, Inc. - Hospitality Netto Acquire Lease Rent Options, LRO - Business Wire '
p2
aS'Company in Focus: RealPage, Inc.  Rives Journal - 16 hours ago RealPage, Inc.  currently has a Gross Margin  ratio of 0.413435. Robert Novy-Marx has provided investors with insights on finding high-quality value stocks.'
p3
aS'RealPage Inc.  Breaks into New 52-Week High on March 14 Session Equities.com - Mar 14, 2017 Shares of RealPage Inc.  broke into a new 52-week high yesterday, hitting a peak of $35.85. Shares closed at $35.55 after opening at $34.75 for a move of 1.14%.Insider Selling: RealPage, Inc.  Major Shareholder Sells $3315211.20 in Stock - BNB Daily '
p4
aS'RealPage Inc.  Breaks into New 52-Week High on March 16 Session Equities.com - Mar 16, 2017 Shares of RealPage Inc.  broke into a new 52-week high yesterday, hitting a peak of $37.40. Shares closed at $36.90 after opening at $36.30 for a move of 1.93%.Ashley Chaffin Glover Sells 1500 Shares of RealPage, Inc.  Stock - Chaffey Breeze'
p5
aS'RealPage Inc.  Breaks into New 52-Week High on March 15 Session Equities.com - Mar 15, 2017 Shares of RealPage Inc.  broke into a new 52-week high yesterday, hitting a peak of $36.48. Shares closed at $36.20 after opening at $35.65 for a move of 1.83%.'
p6
aS"Analyst's Indicator Review for RealPage, Inc. , Orchid Island Capital, Inc ... The USA Commerce - Mar 23, 2017 Shares of RealPage, Inc.  dropped -0.28% to $35.00. During the trading on 03/22/2017, Company's stock ranged from $35.38 to $34.35."
p7
aS"Why RealPage Inc's  ROE Of 4.7% Does Not Tell The Whole Story Simply Wall St - Mar 17, 2017 RealPage Inc  delivered 4.7% ROE over the past year, compared to 23.85% generated by its industry. While an inferior ROE points towards a relatively inefficient performance, knowing the nuts and bolts of ROE calculation may change that&nbsp;..."
p8
aS'RealPage Inc.  Moves Higher on Volume Spike for March 01 Equities.com - Mar 1, 2017 RealPage Inc.  traded on unusually high volume on Mar. 01, as the stock gained 4.59% to close at $35.30. On the day, RealPage Inc. saw 1.48 million shares trade hands on 7,640 trades. Considering that the stock averages only a daily volume of&nbsp;...'
p9
aS'Market Scope: Viewing Shares of RealPage, Inc.  Searcy News - 4 hours ago Investors may be checking on some financial ratios for RealPage, Inc. . Currently, the company has a Gross Margin  ratio of 0.413435.RealPage, Inc.  Value Composite Score Update - TCT'
p10
a.