(lp0
S"Ramco-Gershenson Properties Trust Announces 2016 Year End Tax Reporting ... GlobeNewswire  - Jan 26, 2017 FARMINGTON HILLS, Mich., Jan. 26, 2017  -- Ramco-Gershenson Properties Trust   announced today that 2016 distributions on the Company's common shares of beneficial interest represent 79.4842% total&nbsp;..."
p1
aS'Ramco-Gershenson Properties Trust Announces Conference Call and Investor ... GlobeNewswire  - Jan 12, 2017 FARMINGTON HILLS, Mich., Jan. 12, 2017  -- Ramco-Gershenson Properties Trust  announced today that it will hold a conference call on Wednesday, February 22, 2017 at 9:00 a.m.'
p2
aS'Ramco-Gershenson Properties Trust  Ex-Dividend Date Scheduled for March ... Nasdaq - Mar 15, 2017 Ramco-Gershenson Properties Trust  will begin trading ex-dividend on March 16, 2017. A cash dividend payment of $0.22 per share is scheduled to be paid on April 03, 2017.Ramco-Gershenson Properties Trust  Moves Lower on Volume Spike for March 17 - Equities.comIs buying Ramco-Gershenson Properties Trust  for its upcoming $0.22 ... - Simply Wall St'
p3
aS"Why Analysts put forward these two stocks: Ramco-Gershenson Properties Trust ... The USA Commerce - Mar 27, 2017 Shares of Ramco-Gershenson Properties Trust  surged 1.16% to $13.95. During the trading on 03/24/2017, Company's stock ranged from $14.05 to $13.75.Ramco-Gershenson Properties Trust  Broker Price Targets For The ... - Fiscal Standard"
p4
aS'Ramco-Gershenson Properties Trust Welcomes Geoffrey Bedrosian as Its New Chief ... GlobeNewswire  - Dec 17, 2015 FARMINGTON HILLS, Mich., Dec. 17, 2015  -- Ramco-Gershenson Properties Trust   today announced the appointment of Geoffrey Bedrosian as Chief Financial Officer, effective immediately.'
p5
aS'Ramco-Gershenson Properties Trust  Stock Alert: Price Target in Focus Aiken Advocate - 11 hours ago Street analysts that cover Ramco-Gershenson Properties Trust , currently have a target price of $17.09 on company shares.'
p6
aS'Ramco-Gershenson Properties Trust Announces the Appointment of John ... GlobeNewswire  - Apr 23, 2015 FARMINGTON HILLS, Mich., April 23, 2015  -- Ramco-Gershenson Properties Trust   today announced the appointment of John Hendrickson as Chief Operating Officer , effective on May 17, 2015.'
p7
aS"Ramco-Gershenson Properties Trust's  CEO Dennis Gershenson on Q4 2016 ... Seeking Alpha - Feb 22, 2017 Greetings and welcome to the Ramco-Gershenson Properties Trust Fourth Quarter Year End 2016 Earnings Conference Call. At this time, all participants are in a listen-only mode.What you need to know about Ramco-Gershenson Properties Trust's  growth? - Simply Wall StRamco-Gershenson Properties Trust  Releases Quarterly Earnings Results ... - Sports Perspectives"
p8
aS"Breaking Down: Ramco-Gershenson Properties Trust  Stock Drop Below ... CML News - 19 hours ago Ramco-Gershenson Properties Trust has a one bull  technical rating because it's trading below the 10 day, 50 day and 200 day simple moving averages while the 10-day moving average is below the 50-day moving average and the&nbsp;..."
p9
aS'Ramco-Gershenson Properties Trust Announces Resignation of Chief Financial Officer GlobeNewswire  - Sep 28, 2015 FARMINGTON HILLS, Mich., Sept. 28, 2015  -- Ramco-Gershenson Properties Trust   today announced that Gregory R. Andrews has resigned from his position as Chief Financial Officer and Secretary&nbsp;...'
p10
a.