(lp0
S'Salem Media Group Is A Good Buy For 2017 Seeking Alpha - Jan 23, 2017 Salem Media Group is a California-based company specializing in radio broadcast, Internet service provision and book and magazine publishing.'
p1
aS'Salem Media Group, Inc.  Ex-Dividend Date Scheduled for March 16, 2017 Nasdaq - Mar 15, 2017 Salem Media Group, Inc.  will begin trading ex-dividend on March 16, 2017. A cash dividend payment of $0.065 per share is scheduled to be paid on March 31, 2017.Salem Media Group Inc  Upgraded at Zacks Investment Research - The Cerbat GemSalem Media Group Inc  to Issue Quarterly Dividend of $0.07 on March 31st - Sports Perspectives'
p2
aS"Salem Media Group, Inc. Announces Third Quarter 2016 Total Revenue Of $71.3 ... PR Newswire  - Nov 7, 2016 To access the teleconference, please dial  241-1527, and then ask to be joined into the Salem Media Group call or listen via the investor relations portion of the company's website, located at investor.salemmedia.com. A replay of the ..."
p3
aS'Salem Media Group Schedules Fourth Quarter 2016 Earnings Release and ... Yahoo Finance - Mar 1, 2017 Salem Media Group, Inc.  announced today that it plans to report its fourth quarter 2016 financial results after the market closes on March 9, 2017.Salem Media Group Inc.  Moves Higher on Volume Spike for March 01 - Equities.com'
p4
aS"Salem Media Group's  CEO Edward Atsinger on Q4 2016 Results - Earnings ... Seeking Alpha - Mar 10, 2017 Welcome to the Salem Media Group Fourth Quarter 2016 Earnings Release and Teleconference. [Operator Instructions]. As a reminder, this conference is being recorded.Salem Media Group, Inc. Announces Fourth Quarter 2016 Total Revenue of $70.7 ... - Business Wire "
p5
aS"3 days left to Salem Media Group Inc 's ex-dividend date, should you buy? Simply Wall St - Mar 12, 2017 Dividend hunters beware, Salem Media Group  will pay its upcoming dividend of $0.07 on the Fri 31 Mar 2017 and will start trading ex-dividend on the Thu 16 Mar 2017."
p6
aS'Epperson Stuart W. is Buying Salem Media Group Inc.  Shares Small Cap Exclusive  - Feb 9, 2017 In a just published Form 13, filed with the US Securities and Exchange Commission , Salem Media Group Inc.  reported that Epperson Stuart W. has picked up 3,789,824 of common stock as of 2017-02-08.'
p7
aS'Looking at the Levels for Salem Media Group, Inc.  The Standard - 15 hours ago Salem Media Group, Inc.  has an EV  of 442952. Enterprise Value measures the complete value of a specific company.'
p8
aS"Russ Whitnah Announces Planned Retirement PR Newswire  - Sep 27, 2016 Salem Media Group is America's leading multimedia company specializing in Christian and conservative content, with media properties comprising radio, digital media and book, magazine and newsletter publishing."
p9
aS'Zacks: Salem Media Group Inc  Given $9.00 Average Price Target by Brokerages BNB Daily  - Mar 26, 2017 Salem Media Group logo Shares of Salem Media Group Inc  have earned a consensus broker rating score of 0.00  from the one analysts that provide coverage for the stock, Zacks Investment Research reports.'
p10
a.