(lp0
S'SBA Communications Corporation to Speak at the 2017 Deutsche Bank Media ... GlobeNewswire  - Feb 16, 2017 BOCA RATON, Fla., Feb. 16, 2017  -- SBA Communications Corporation   announces that Jeffrey A. Stoops, President and Chief Executive Officer, is scheduled to speak at the 2017 Deutsche Bank Media&nbsp;...'
p1
aS'Institutions Continue To Be Top Holders in SBA Communications Corporation ... Midway Monitor - 9 hours ago Based on the lastest quarterly filings, institutions continue to be large stakeholders in SBA Communications Corporation .SBA Communications Corporation  Moves Higher on Volume Spike for March 23 - Equities.comWhat are Research Firms Saying About SBA Communications Corporation ? - Aiken Advocate'
p2
aS'SBA Communications: Data, Towers, And NOLs Seeking Alpha - Mar 11, 2017 SBA is one of three public Tower REITs that operate mainly in the United States. American Tower  and Crown Castle  are the other two which are both structured as REITs.'
p3
aS"Buy, Sell or Hold? Analysts Approach: SBA Communications Corporation (SBAC ... The USA Commerce - Mar 27, 2017 Shares of SBA Communications Corporation  surged 0.14% to $118.29. During the trading on 03/24/2017, Company's stock ranged from $119.03 to $117.38."
p4
aS'SBA Communications Corporation  Moves Lower on Volume Spike for March 17 Equities.com - Mar 17, 2017 SBA Communications Corporation  traded on unusually high volume on Mar. 17, as the stock lost 0.42% to close at $115.65.Buy or Sell? Average Brokerage Ratings on Consolidated Edison, Inc. , SBA ... - StockNewsJournal'
p5
aS"SBA Communications Corporation Reports 4th Quarter 2016 Results; Provides Full ... Yahoo Finance - Feb 27, 2017 During the fourth quarter of 2016, SBA purchased 215 communication sites for $73.5 million in cash. SBA also built 118 towers during the fourth quarter of 2016.SBA Communications Corporation  Given Average Rating of Buy by Brokerages - The Cerbat GemExamining SBA Communications Corporation 's track record of earnings - Post Analyst"
p6
aS"SBA Communications shareholders OK REIT conversion Seeking Alpha - Jan 12, 2017 The holders signed off on a plan of merger between SBA and the wholly owned subsidiary created for the conversion, SBA Communications REIT Corp. SBA REIT continues as the surviving entity. The merger's now expected to close no later than tomorrow,&nbsp;...SBA Communications  Shareholders Approve Merger, REIT Conversion - StreetInsider.com"
p7
aS'SBA Communications Corporation  Moves Lower on Volume Spike for March 13 Equities.com - Mar 13, 2017 SBA Communications Corporation  traded on unusually high volume on Mar. 13, as the stock lost 0.14% to close at $117.64.Why Analysts put forward these two stocks: SBA Communications Corporation ... - The USA CommerceBuy or Sell? What Analysts Recommends: SBA Communications Corporation (SBAC ... - StockNewsJournal'
p8
aS'Buy or Sell? What Analysts Recommends: FedEx Corporation , SBA ... StockNewsJournal - Mar 15, 2017 SBA Communications Corporation , at its latest closing price of $116.12, it has a price-to-book ratio of -, compared to an industry average at 2.00.'
p9
aS'Technical Tracker: Watching Shares of SBA Communications Corp  Midway Monitor - 9 hours ago At the time of writing, SBA Communications Corp  has a 14-day Commodity Channel Index  of 96.94. Originally developed by Donald Lambert, the CCI was created to identify long-term changes in trends, but it has been used by traders for&nbsp;...'
p10
a.