(lp0
S'Scholastic Corp  Misses Q3 EPS by 11c StreetInsider.com - Mar 23, 2017 Scholastic Corp  reported Q3 EPS of , $0.11 worse than the analyst estimate of . Revenue for the quarter came in at $336.2 million versus the consensus estimate of $367.9 million.Scholastic Corp  Upgraded by Zacks Investment Research to Buy - Chaffey BreezeLatest Stocks: The Scholastic Corp  Posts Earnings Results - Petro Global News 24'
p1
aS'Scholastic Corp. SCHL  Wall Street Journal - Feb 11, 2011 News Scholastic Corp.SCHL. Significant News Only. 03/23/17; Press Release. Scholastic Reports Fiscal 2017 Third Quarter Results.'
p2
aS'Scholastic Corp. terminates cash balance plan Business Insurance - Jul 29, 2016 Scholastic Corp., New York, terminated its U.S. cash balance plan, its recent 10-K filing with the Securities and Exchange Commission shows.'
p3
aS'Why Shares of Scholastic Corp. Tumbled Today Motley Fool - Jan 21, 2016 What: Shares of Scholastic Corp.  plunged on Thursday after the company announced that it had canceled its modified Dutch Auction tender offer.Scholastic Terminates Dutch Auction Tender Offer - 24/7 Wall St.Why Scholastic  Stock Is Tanking Today - Investorplace.com'
p4
aS'Scholastic Corp  Declares $0.15 Quarterly Dividend; 1.3% Yield StreetInsider.com - Feb 20, 2017 Scholastic Corp  declared a quarterly dividend of $0.15 per share, or $0.6 annualized. The dividend will be payable on June 15, 2017, to stockholders of record on April 28, 2017, with an ex-dividend date of April 26, 2017.'
p5
aS'Latest Stocks: The State Street Corp Has $31102000 Position in Scholastic Corp ... Petro Global News 24 - Mar 27, 2017 State Street Corp boosted its stake in Scholastic Corp  by 15.6% during the fourth quarter, Holdings Channel reports.Relative Strength Alert For Scholastic - NasdaqScholastic Corp  Upgraded at Zacks Investment Research - Sports Perspectives'
p6
aS'Earnings Reaction History: Scholastic Corp., 25.0% Follow-Through Indicator, 2 ... Nasdaq - Sep 10, 2015 Scholastic Corp.  is due to issue its quarterly earnings report in the upcoming extended-hours session. Given its history, traders can expect light trading in the issue immediately following its quarterly earnings announcement.'
p7
aS'Better Stock in Book Publishing: Scholastic Corp. or Houghton Mifflin Harcourt Co? Motley Fool - Dec 20, 2015 But despite those challenges, two big book publishers, Scholastic  and Houghton Mifflin Harcourt , have actually outperformed the market.'
p8
aS'Latest Stocks: The Scholastic Corp.  Lowered by The Zacks Investment ... Petro Global News 24 - Mar 18, 2017 Zacks Investment Research lowered shares of Scholastic Corp.  from a buy rating to a hold rating in a research report released on Thursday.Scholastic Corp  Given $44.00 Average Target Price by Brokerages - BBNS'
p9
aS'Scholastic Corp  to Release Earnings on Thursday Chaffey Breeze - Mar 22, 2017 Scholastic Corp logo Scholastic Corp  will be posting its quarterly earnings results before the market opens on Thursday, March 23rd.'
p10
a.