(lp0
S'Calgary-based Enbridge sheds another 1000 jobs, 6% of its workforce Calgary Herald - Mar 22, 2017 Those cuts, which the company said were not related to the Spectra deal, included 370 jobs lost in Canada and 160 in the United States.Enbridge sheds 1000 jobs after takeover of Spectra Energy - CBC.caEnbridge cutting 1000 jobs after takeover of Spectra Energy - Toronto Star'
p1
aS"Spectra Energy Corporation's About To Put More Money In Your Pocket Nasdaq - Mar 27, 2017 On 3/29/17, Spectra Energy Corporation's  will trade ex-dividend, for its quarterly dividend of $0.35, payable on 4/15/17."
p2
aS"Enbridge completes acquisition of Houston's Spectra Energy FuelFix  - Feb 27, 2017 In this 2011 file photo, workers make minor repairs on the pipeline hub run by Spectra Energy Corp. in Guilford, Pa. .Enbridge and Spectra Energy Complete Merger - MarketWatch"
p3
aS"Spectra Energy  Q3 2016 Results - Earnings Call Transcript Seeking Alpha - Nov 2, 2016 Thank you, Krista, and good morning, everyone. Appreciate you joining us today for our review of Spectra Energy's and Spectra Energy Partners' 2016 third-quarter results. With me today are Greg Ebel, President and CEO of both Spectra Energy and Spectra&nbsp;...Spectra Energy's Earnings Were Solid, but Investors Are More Interested in ... - Motley FoolSpectra Energy Partners Announces 36th Consecutive Quarterly Cash Distribution ... - PR Newswire "
p4
aS"Enbridge to Buy Spectra Energy in $28 Billion Deal Wall Street Journal - Sep 6, 2016 CALGARY, AlbertaCanadian pipeline operator Enbridge Inc. on Tuesday agreed to buy Houston's Spectra Energy Corp. in an all-stock deal valued at about $28 billion, creating a North American energy-infrastructure giant at a time when growth is&nbsp;...Houston-based Spectra Energy to be bought in $28 billion deal - Houston Business JournalEnbridge buying Spectra in $28 billion deal - Reuters"
p5
aS'Latest Stocks: The Spectra Energy Corp.  Receives Average Recommendation ... Petro Global News 24 - 11 hours ago Spectra Energy Corp.  has been assigned an average rating of Hold from the fifteen brokerages that are currently covering the firm.'
p6
aS'BRIEF-Spectra Energy Corp reports Q4 EPS of $0.16 Reuters - Feb 17, 2017 Feb 17 Ocwen Financial Corp said on Friday its loan servicing unit agreed to pay $25 million and provide another $198 million in debt forgiveness under a settlement with a California regulator over allegations that Ocwen violated federal and state laws&nbsp;...'
p7
aS'Enbridge Inc. Acquisition Of Spectra Energy Corp. Will Produce A North ... Seeking Alpha - Dec 20, 2016 Strong, stable operational and financial performance coupled with a reasonable valuation offers a secure margin of safety. Growing market leader in energy infrastructure, which offers substantial barriers to entry and a wide economic moat. Strong&nbsp;...'
p8
aS'Street Predictions for Spectra Energy Corp  Aiken Advocate - 12 hours ago Covering equity analysts have a near-term target price of $N/A on shares of Spectra Energy Corp . This consensus estimate is compiled by Zacks Research using N/A contributing analysts.'
p9
aS'Spectra Energy Corp  Ex-Dividend Date Scheduled for February 13, 2017 Nasdaq - Feb 10, 2017 Spectra Energy Corp  will begin trading ex-dividend on February 13, 2017. A cash dividend payment of $0.44 per share is scheduled to be paid on March 01, 2017.'
p10
a.