(lp0
S'Alan Schwartz to Retire from Superior Uniform Group GlobeNewswire  - Mar 15, 2017 SEMINOLE, Fla., March 15, 2017  -- Superior Uniform Group, Inc.  announced that President, Alan Schwartz, will retire from the Company effective March 31, 2017.'
p1
aS'Trading Sheet: Watching the Numbers for Superior Uniform Group, Inc.  The Standard - 16 hours ago Tracking shares of Superior Uniform Group, Inc. , the company has a current EV  of 288793.'
p2
aS'Superior Uniform Group , Interview with Michael Benstock, CEO Nasdaq - Jul 9, 2015 We sell our products through our signature brands, Superior I.D., Fashion Seal Healthcare, HPI Direct and Blue Fusion.'
p3
aS'Superior Uniform Group, Inc.  Files An 8-K Entry into a Material ... Market Exclusive - Mar 13, 2017 Superior Uniform Group, Inc.  Files An 8-K Entry into a Material Definitive Agreement. Item1.01. Entry Into a Material Definitive Agreement.'
p4
aS'Superior Uniform Group: All Dressed Up With Someplace To Go For Small Cap ... Seeking Alpha - Nov 5, 2015 Superior Uniform Group, Inc.  is a designer, manufacturer, and marketer of employee uniforms, image apparel, scrubs and patient apparel.'
p5
aS'Personnel changes and hires at Superior Uniform Group and Florida Design ... Tampabay.com - Mar 17, 2017 Superior Uniform Group, Inc. announced that president Alan Schwartz will retire from the Seminole-based business uniform and apparel company effective March 31.'
p6
aS'Superior Uniform Group Inc.  Moves Higher on Volume Spike for March 01 Equities.com - Mar 1, 2017 Superior Uniform Group Inc.  traded on unusually high volume on Mar. 01, as the stock gained 2.18% to close at $18.72.Superior Uniform Group Inc  Rating Reiterated by Barrington Research - Chaffey Breeze'
p7
aS'Supplier Superior Uniform Group Acquires BAMKO Advertising Specialty Institute  - Mar 9, 2016 BAMKO will operate as a subsidiary of Superior Uniform Group, and the principals will remain with the company. Phil Koosed, CEO and co-founder of BAMKO, tells Counselor that the distributor was not looking for a buyer, but the opportunity to work with&nbsp;...Why a Tampa Bay uniform manufacturer bought a promotional products company - Tampa Bay Business Journal'
p8
aS"Superior Uniform Group Named One of Fortune's 100 'Fastest-Growing Companies' American Laundry News - Nov 9, 2016 Superior Uniform Group ranked 24th on the multinational business magazine's list, which ranks public companies based upon revenue growth rate, EPS growth rate and total return for the three-year period that ended June 30."
p9
aS"Superior Uniform Group's  CEO Michael Benstock on Q3 2016 Results ... Seeking Alpha - Oct 31, 2016 Good afternoon, everyone. Welcome to the Superior Uniform Group's 2016 Third Quarter Earnings Conference Call. With us today are Michael Benstock, the Company's Chief Executive Officer and Andy Demott, its Chief Operating Officer, CFO and Treasurer."
p10
a.