(lp0
S'Form 8-K SLM CORP For: Mar 28 StreetInsider.com - 19 hours ago On March 27, 2017, Sallie Mae Bank  received confirmation from the Federal Deposit Insurance Corporation  that effective March 23, 2017, the FDIC terminated the consent order and order for restitution issued on May 13, 2014 ...SLM Corp  EVP Paul F. Thome Sells 9100 Shares - Chaffey BreezePaul F. Thome Sells 19193 Shares of SLM Corp  Stock - BBNS'
p1
aS"SLM CORPORATION  Files An 8-K Departure of Directors or Certain ... Market Exclusive - 18 hours ago On March 23, 2017, Ronald F. Hunt, a director of SLM Corporation , notified the Company he will not stand for re-election to the Company's Board of Directors  at the Company's next annual meeting of stockholders to be held ..."
p2
aS'SLM Corporation  Moves Lower on Volume Spike for March 21 Equities.com - Mar 21, 2017 SLM Corporation  traded on unusually high volume on Mar. 21, as the stock lost 5.15% to close at $11.60. On the day, SLM Corporation saw 5.68 million shares trade hands on 36,082 trades. Considering that the stock averages only a daily volume of&nbsp;...'
p3
aS'Technical Reports on Credit Services Stocks -- Western Union, American Express ... PR Newswire  - Mar 8, 2017 Stock-Callers.com today scans the performances of these Credit Services firms: The Western Union Co. , American Express Co.'
p4
aS'Why to Keeping Eye on United Technologies Corporation , SLM Corporation ... StockNewsJournal - Mar 27, 2017 SLM Corporation , at its latest closing price of $11.69, it has a price-to-book ratio of 2.81, compared to an industry average at 2.88.'
p5
aS'SLM Corporation  Is Making A Strong Argument Through Its Technicals NY Stock News - 16 hours ago The technicals for SLM Corporation  has spoken via its technical chart and the message is loud and clear. Based on that message, this is the relevant information necessary to make sense of that current setup.'
p6
aS"Stocks Worth Chasing- Snap Inc , SLM Corp  Wall Street Times  - 18 hours ago Snap Inc  traded at a yearly high level of $29.44 during the last trading session. The last session's volume of 4.83 million shares was lower than its average volume of 51.54 million shares."
p7
aS'SLM Corporation  Moves Lower on Volume Spike for March 17 Equities.com - Mar 17, 2017 SLM Corporation  traded on unusually high volume on Mar. 17, as the stock lost 0.57% to close at $12.28. On the day, SLM Corporation saw 4.7 million shares trade hands on 20,347 trades. Considering that the stock averages only a daily volume of&nbsp;...SLM Corporation  Insider Ownership stands at 0.9 - The Newburgh PressStocks To Watch For- Noble Corporation Ordinary Shares  , SLM ... - Wall Street Times '
p8
aS'Zacks Investment Research Lowers SLM Corp  to Hold BNB Daily  - Mar 23, 2017 Zacks Investment Research lowered shares of SLM Corp  from a buy rating to a hold rating in a research note issued to investors on Wednesday.'
p9
aS'The SLM Corp  Stock Rating Lowered by Zacks Investment Research Petro Global News 24 - Mar 22, 2017 SLM Corp  was downgraded by Zacks Investment Research from a buy rating to a hold rating in a report released on Wednesday.SLM Corp  Stock Rating Lowered by Zacks Investment Research - Sports PerspectivesSLM Corp  Downgraded to Hold at Zacks Investment Research - The Cerbat Gem'
p10
a.