(lp0
S"TheStreet downgraded SMTC Corporation   to D+ in a report ... Breaking Finance News - Mar 14, 2017 Yesterday SMTC Corporation   traded -0.01% lower at $1.35. The company's 50-day moving average is $1.40 and its 200-day moving average is $1.40.Revenue Update on SMTC Corporation  - Money Flow Index & TrendsTheStreet Downgrades SMTC Co.  to D+ - Chaffey Breeze"
p1
aS'Consensus Buy Rated Stocks: Neonode Inc.  SMTC Corporation ... Rives Journal - 17 hours ago Neonode Inc.  shares have been labeled a top pick by Beta Research as it meets the A+ criteria outlined by the firm. The stock boasts a consensus analyst Buy rating with the consensus recommendation standing at 2.00.'
p2
aS'SMTC Corporation: SMTC Corporation Invites You to Join Its Fourth Quarter and ... The Wall Street Transcript - Mar 2, 2017 TORONTO, CANADA - March 2, 2017 - SMTC Corporation , a recognized global electronics manufacturing services provider, invites you to join its fourth quarter and fiscal year 2016 earnings call, Thursday, March 9, 2017, at 8:30 a.m.'
p3
aS'Peel Hunt Analyzed Fuller Smith Turner PLC  with GBX 1100.00 Target ... HuronReport - 21 hours ago Professional analysts at Peel Hunt initiated coverage on Fuller Smith Turner PLC  with a Add rating. The target price per share for FSTA is set to GBX 1100.00.'
p4
aS"SMTC Corporation: SMTC Reports Fourth Quarter and Fiscal Year 2016 Results The Wall Street Transcript - Mar 8, 2017 SMTC Corporation has provided in this release a non-GAAP calculation of Adjusted EBITDA as supplemental information regarding the operational performance of SMTC's core business.Why analysts are bullish on Semtech Corporation  - FX Daily ReportSemtech Corporation  - Seeking Alpha"
p5
aS"How Does the Chart Look for Semtech Corporation  ? The USA Commerce - Mar 27, 2017 We have gathered the technical data on Semtech Corporation , and see some interesting trends in the stock's behavior of late."
p6
aS'SMTC announces resignation of Sushil Dhiman Seeking Alpha - Jan 23, 2017 SMTC  announced today that Sushil Dhiman has resigned from the post of President and CEO and as a Board of Directors, effective February 17, 2017.'
p7
aS"Watch-list Stock of Traders: SMTC Corporation's  stock price is at $1.36 ... WsNews 4investors - Mar 27, 2017 SMTC Corporation  stock price distance from twenty day simple moving average slumped at -1.98% while its distance from fifty day simple moving average declined -2.12% along with -5.72% below distance from two hundred simple moving averages."
p8
aS'SMTC Corp swings to fourth-quarter loss on a YOY basis Myiris.com - Mar 20, 2017 SMTC Corporation has recorded an increase in the working capital over the last year. It stood at $20.25 million as at Jan. 01, 2017, up 44.56 percent or $6.24 million from $14.01 million on Jan. 03, 2016.'
p9
aS"Technicals in Focus for Semtech Corporation  The USA Commerce - Mar 10, 2017 We have gathered the technical data on Semtech Corporation , and see some interesting trends in the stock's behavior of late."
p10
a.