(lp0
S'SENOMYX TO WEBCAST CORPORATE PRESENTATION AT THE 19TH ANNUAL NEEDHAM GROWTH ... PR Newswire  - Jan 5, 2017 SAN DIEGO, Jan. 5, 2017 /PRNewswire/ -- Senomyx, Inc. , a leading company using proprietary taste science technologies to discover, develop, and commercialize novel flavor ingredients for the food, beverage, and flavor industries,&nbsp;...'
p1
aS'SENOMYX AND PEPSICO EXTEND SWEET TASTE PROGRAM COLLABORATION FOR THREE ... PR Newswire  - Sep 30, 2016 SAN DIEGO, Sept. 30, 2016 /PRNewswire/ -- Senomyx, Inc. , a leading company using proprietary taste science technologies to discover, develop, and commercialize novel flavor ingredients for the food, beverage, and ingredient supply&nbsp;...'
p2
aS"Senomyx: What's Going On? Seeking Alpha - Oct 18, 2016 Senomyx is currently trading below a highly conservative sum of the parts valuation - even assuming a worst case of PepsiCo ditching S617."
p3
aS'About: Senomyx, Inc.  Seeking Alpha - Apr 27, 2016 Senomyx shares have taken a beating and are primed for a sharp rebound, with several identifiable catalysts on the near-term horizon.'
p4
aS'Earnings Reaction History: Senomyx Inc., 50.0% Follow-Through Indicator, 12.6 ... Nasdaq - Mar 2, 2017 Senomyx Inc.  is due to issue its quarterly earnings report in the upcoming extended-hours session. Given its history, traders can expect light trading in the issue immediately following its quarterly earnings announcement.'
p5
aS"Uncertainty Weighs Heavily On Senomyx Ahead Of Key Pepsi Decisions Seeking Alpha - Aug 2, 2016 Senomyx has made progress with its commercialization efforts, but it has been slow, erratic, and frustrating. Pepsi should be nearing its go/no-go decision with Senomyx's sweetness enhancer in sodas, and the companies recently agreed to a short-term&nbsp;..."
p6
aS'Senomyx Inc. SNMX  Wall Street Journal - Feb 11, 2011 News Senomyx Inc.SNMX. Significant News Only. 03/17/17; Press Release. Specialty Chemicals Stocks Under Scanner -- Delta Technology, International Flavors &amp; Fragrances, Kronos Worldwide, and Senomyx.'
p7
aS'Senomyx, Inc.  Stock Alert: Price Target in Focus Aiken Advocate - 14 hours ago Equity analysts have a short-term target price of $1.916 on shares of Senomyx, Inc. . This consensus data is compiled by Zacks Research.'
p8
aS"Latest Stocks: The John Poyhonen Buys 50000 Shares of Senomyx Inc.  Stock Petro Global News 24 - Mar 27, 2017 Senomyx Inc.  CEO John Poyhonen bought 50,000 shares of the firm's stock in a transaction on Thursday, March 23rd.Insider Buying: Senomyx Inc.  CEO Purchases $49000.00 in Stock - Sports PerspectivesSenomyx, Inc.  Analyst Opinion And Outlook - Post Analyst"
p9
aS'Is Senomyx Inc  As Financially Strong As Zero-Debt On Its Balance Sheet ... Simply Wall St - Mar 2, 2017 The direct benefit for Senomyx Inc , which sports a zero-debt capital structure, to include debt in its capital structure is the reduced cost of capital.Senomyx, Inc.  Expected To Report Earnings On Thursday - UK Market News'
p10
a.