(lp0
S"SYNNEX Corporation Earns Status as Aerohive Networks' First Training Center PR Newswire  - 15 hours ago AUSTIN, Texas, March 28, 2017 /PRNewswire/ --  - SYNNEX Corporation , a leading Technology Solutions distributor, today announced that its U.S.SYNNEX Corp.  Tops Q1 EPS by 16c - StreetInsider.comSynnex Corporation  Plunges 5.01% on March 28 - Equities.com"
p1
aS'SYNNEX Corporation Receives 2016 Google Cloud Partner Award for Devices ... PR Newswire  - Mar 16, 2017 GREENVILLE, S.C., March 16, 2017 /PRNewswire/ -- SYNNEX Corporation , a leading Technology Solutions distributor, today announced that it has received the Google Cloud 2016 Global Partner Award for Devices Ecosystem Customer&nbsp;...'
p2
aS'SYNNEX Corporation to Announce Results for Fiscal 2017 First Quarter on March ... PR Newswire  - Mar 13, 2017 FREMONT, Calif., March 13, 2017 /PRNewswire/ -- SYNNEX Corporation , a leading business process services company, will announce its financial results for the fiscal first quarter ended February 28, 2017 after the market close on Monday,&nbsp;...Broker Outlook For The Week Ahead Synnex Corporation  - Fiscal StandardThe SYNNEX Co.  Receives Consensus Rating of Hold from Analysts - Petro Global News 24'
p3
aS'SYNNEX Corporation Named Distributor of the Year at 2017 Aruba Americas ... PR Newswire  - Mar 13, 2017 GREENVILLE, S.C., March 13, 2017 /PRNewswire/ -- SYNNEX Corporation , a leading Technology Solutions distributor, today announced that it has been honored as the Distributor of the Year at the 2017 Aruba Americas Partner Summit, held in&nbsp;...SYNNEX Corporation Named Major Distributor in New Dell EMC Partner Program - Yahoo Finance'
p4
aS"BRIEF-Synnex Corp reports Q1 diluted EPS of $1.54 Reuters - Mar 27, 2017 Reuters is the news and media division of Thomson Reuters. Thomson Reuters is the world's largest international multimedia news agency, providing investing news, world news, business news, technology news, headline news, small business news, news&nbsp;..."
p5
aS'SYNNEX Corporation Declares Regular Quarterly Cash Dividend PR Newswire  - Jan 5, 2017 FREMONT, Calif., Jan. 5, 2017 /PRNewswire/ -- SYNNEX Corporation , a leading business process services company, today announced its Board of Directors declared a regular quarterly cash dividend of $0.25 per share.'
p6
aS"SYNNEX Corporation's  CEO Kevin Murai on Q4 2016 Results - Earnings Call ... Seeking Alpha - Jan 11, 2017 Good afternoon and welcome to the SYNNEX Corporation's earnings call for the fiscal 2016 fourth quarter ended November 30, 2016.Synnex Corp. profit climbs on acquisition - MarketWatchBrean Capital Upgrades Synnex  after Impressive Q4 Results - Economic Calendar"
p7
aS'SYNNEX Corporation Announces Five Executives Named to CRN Channel Chiefs Yahoo Finance - Feb 21, 2017 21, 2017 /PRNewswire/ -- SYNNEX Corporation , a leading Technology Solutions distributor, announced today that CRN, a brand of The Channel Company, has named five SYNNEX executives to its prestigious list of 2017 Channel Chiefs:&nbsp;...'
p8
aS"Ann Vezina Appointed to the SYNNEX Corporation Board of Directors PR Newswire  - Feb 1, 2017 1, 2017 /PRNewswire/ -- SYNNEX Corporation , a leading business process services company, announced today the appointment of Ann Vezina to the Company's Board of Directors."
p9
aS'SYNNEX Corporation Advances to #212 on the Fortune 500 List of Largest Companies PR Newswire  - Jun 16, 2016 FREMONT, Calif., June 16, 2016 /PRNewswire/ -- SYNNEX Corporation , a leading business process services company, announced today that its Fortune 500 ranking of the largest US companies advanced eight positions to #212.'
p10
a.