(lp0
S"Let's Get Complex With SPX Corporation  Post Analyst - Mar 27, 2017 SPX Corporation  traded at an unexpectedly low level on March 24, 2017 when the stock experienced a -2.01 loss to a closing price of $23.35.Brokers Issue New Targets On SPX  - Fiscal Standard"
p1
aS'Stock Volatility Risk Alert: SPX Corporation Stock Volatility Hits An Unsually ... CML News - Mar 27, 2017 Before we cover the full analysis we make a quick alert here that SPX Corporation  has seen its stock price whip around at a notable high level.'
p2
aS'SPX Corporation  Plunges 6.12% on March 21 Equities.com - Mar 21, 2017 SPX Corporation  had a rough trading day for Tuesday March 21 as shares tumbled 6.12%, or a loss of $-1.53 per share, to close at $23.49.The Top Three Holders Of SPX Corporation  - Post Analyst'
p3
aS'SPX Corporation  Stock Alert: Price Target in Focus Aiken Advocate - 15 hours ago Using data provided from various analysts, shares of SPX Corporation  are presently listed with an ABR of N/A. This number is using a recommendation scale where the ratings range from a 1 to a 5. Following this scale, a 1 would signify a ...'
p4
aS"SPX Corporation's  CEO Gene Lowe on Q1 2016 Results - Earnings Call ... Seeking Alpha - May 8, 2016 Good day, ladies and gentlemen, and welcome to the SPX Corporation Q1 2016 Earnings Conference Call. At this time all participants in a listen-only mode, later we will conduct a question-and-answer session and instructions will follow at that time ..."
p5
aS'Traders Take Note: SPX Corporation  Stock Drops, Weakness in ... CML News - 20 hours ago Take Note: SPX Corporation  has hit some technical weakness in its momentum, and while it has not broken down all the way through support -- watch the key levels that we discuss below and further, watch the stochastics and technical&nbsp;...'
p6
aS"William Blair On SPX Corporation  Smrt Stck Nws - Feb 27, 2017 Key takeaways from SPX Corporation's  fourth quarter 2016 results include: Operational execution below expectations due to weaker sales partly offset by stronger margins; Stronger-than-expected EPS due to more favorable below-the-line&nbsp;...SPX Corporation  Moves Higher on Volume Spike for February 27 - Equities.comSPX Co.  Issues FY17 Earnings Guidance - Chaffey Breeze"
p7
aS'SPX Corporation  Moves Higher on Volume Spike for March 17 Equities.com - Mar 17, 2017 SPX Corporation  traded on unusually high volume on Mar. 17, as the stock gained 1.06% to close at $24.73. On the day, SPX Corporation saw 491,723 shares trade hands on 1,876 trades. Considering that the stock averages only a daily volume of&nbsp;...Broker Outlook For The Week Ahead SPX  - Fiscal Standard'
p8
aS"SPX Corporation  Moves Lower on Volume Spike for February 23 Equities.com - Feb 23, 2017 SPX Corporation  traded on unusually high volume on Feb. 23, as the stock lost 2.96% to close at $24.30. On the day, SPX Corporation saw 318,479 shares trade hands on 3,165 trades. Considering that the stock averages only a daily volume of&nbsp;...How Often Does SPX Corporation  Beat Earnings Estimates? - Post AnalystWhat Investors Should Know About SPX Corporation's  Financial Strength? - Simply Wall St"
p9
aS'SPX Corp. looks to sell, restructure underperforming power business lines Charlotte Business Journal - Aug 5, 2016 SPX Corp. plans to sell its European power-generation operations as weak segments of its power business continue to undermine strong performance in its other business divisions.'
p10
a.