(lp0
S"SS&amp;C Technologies Holdings  Q4 2016 Results - Earnings Call Transcript Seeking Alpha - Feb 16, 2017 Good day, ladies and gentlemen, and welcome to the SS&amp;C Technologies' Fourth Quarter and Fiscal Year 2016 Earnings Call.SS&amp;C Technologies Finishes Another Great Year - Motley FoolSS&amp;C Technologies Holdings Inc : What are the future prospects? - Simply Wall St"
p1
aS'Smart Money Still Has Faith in SS&amp;C Technologies Holdings, Inc.  Midway Monitor - 8 hours ago Based on the lastest quarterly filings, institutions continue to be large stakeholders in SS&amp;C Technologies Holdings, Inc. . The big banks are holding 93.90% of the shares while company insiders are clinging to 13.00%. Shares of SS&amp;C&nbsp;...Latest Stocks: The 1431383 Shares in SS&amp;C Technologies Holdings, Inc. (SSNC ... - Petro Global News 24Next Weeks Broker Price Targets For SS&amp;C Technologies Holdings, Inc.  - Fiscal Standard'
p2
aS'SS&amp;C Technologies Holdings  Q3 2016 Results - Earnings Call Transcript Seeking Alpha - Oct 28, 2016 Good day, ladies and gentlemen, and welcome to the SS&amp;C Technologies Third Quarter 2016 Earnings Conference Call. At this time, all participants are in a listen-only mode.'
p3
aS'SS&amp;C Technologies Holdings Inc Risk Points versus Technology CML News - Mar 23, 2017 This is a scatter plot analysis of the critical risk points from the option market for SS&amp;C Technologies Holdings Inc  compared to its own past and the Technology ETF.'
p4
aS'SS&amp;C Hires Bhagesh Malde to Lead its Real Assets Services Business PR Newswire  - Mar 16, 2017 WINDSOR, Conn., March 16, 2017 /PRNewswire/ -- SS&amp;C Technologies Holdings, Inc. , a global provider of financial services software and software-enabled services, today announced the appointment of Bhagesh Malde as Managing&nbsp;...'
p5
aS'Stock in Focus: SS&amp;C Technologies Holdings, Inc.  Rives Journal - 16 hours ago Individual investors might be studying multiple metrics in order to maximize returns. SS&amp;C Technologies Holdings, Inc.  presently has a Gross Margin  ratio of 0.119318.'
p6
aS'SS&amp;C Technologies Holdings  William C. Stone on Q2 2016 Results ... Seeking Alpha - Jul 28, 2016 Good day, ladies and gentlemen, and welcome to the SS&amp;C Technologies Second Quarter 2016 Earnings Call. At this time, all participants are in a listen-only mode.'
p7
aS'SS&amp;C Technologies: Expect Underperformance To Persist Seeking Alpha - Aug 22, 2016 SS&amp;C Technologies Holdings Inc.  is a provider of software products and software-enabled services that allow financial services providers to automate complex business processes and effectively manage their information processing&nbsp;...'
p8
aS"SS&amp;C Technologies Holdings  William C. Stone on Q1 2016 Results ... Seeking Alpha - May 6, 2016 I'm Justine Stone, Investor Relations for SS&amp;C Technologies. On the call with me today is Bill Stone, Chairman and Chief Executive Officer; Norm Boulanger, President and Chief Operating Officer; Rahul Kanwar, Senior Vice President and Managing Director&nbsp;...SS&amp;C Technologies Holdings Inc. Banks Another Earnings Beat - Motley Fool"
p9
aS'SS&amp;C Agrees to Acquire Conifer Financial Services PR Newswire  - Dec 15, 2016 WINDSOR, Conn., Dec. 15, 2016 /PRNewswire/ -- SS&amp;C Technologies Holdings, Inc. , a global provider of financial services software and software-enabled services, today announced it has acquired Conifer Financial Services, LLC&nbsp;...SS&amp;C to buy asset servicing firm Conifer Financial Services - Pensions & Investments'
p10
a.