(lp0
S'STAAR Surgical Reports Fourth Quarter 2016 Results PR Newswire  - Mar 2, 2017 MONROVIA, Calif., March 2, 2017 /PRNewswire/ -- STAAR Surgical Company , a leading developer, manufacturer and marketer of implantable lenses and companion delivery systems for the eye today reported financial results for the fourth&nbsp;...STAAR Surgical Company  Moves Lower on Volume Spike for March 02 - Equities.comStaar Surgical posts 4Q loss - Yahoo Finance'
p1
aS'STAAR Surgical Company and Memira Holding Announce Cooperation Agreement for ... PR Newswire  - Feb 9, 2016 9, 2016 /PRNewswire/ -- STAAR Surgical Company , a leading developer, manufacturer and marketer of implantable lenses and delivery systems for the eye, and Memira Holding, Sweden, today announced they have entered into an&nbsp;...'
p2
aS"William P. Wall Appointed to STAAR Surgical Board of Directors PR Newswire  - Sep 2, 2015 2, 2015 /PRNewswire/ -- STAAR Surgical Company , a leading developer, manufacturer and marketer of implantable lenses and delivery systems for the eye, today announced that its Board of Directors has appointed William P. Wall to the&nbsp;...STAAR Surgical Company adds Abrams Capital's ex general counsel Wall to board - Thomson Reuters' peHUB "
p3
aS'STAAR Surgical Appoints Hans Blickensdoerfer President of International ... PR Newswire  - Apr 14, 2015 MONROVIA, Calif., April 14, 2015 /PRNewswire/ -- STAAR Surgical Company , a leading developer, manufacturer and marketer of implantable lenses and delivery systems for the eye, has named Hans Blickensdoerfer to the newly created&nbsp;...'
p4
aS'STAAR Surgical Company  Moves Lower on Volume Spike for March 21 Equities.com - Mar 18, 2017 STAAR Surgical Company  traded on unusually high volume on Mar. 21, as the stock lost 4.12% to close at $9.30. On the day, STAAR Surgical Company saw 184,422 shares trade hands on 1,410 trades. Considering that the stock averages only a&nbsp;...'
p5
aS'J. Steven Roush, CPA Appointed to STAAR Surgical Board of Directors PR Newswire  - Apr 21, 2015 MONROVIA, Calif., April 21, 2015 /PRNewswire/ -- STAAR Surgical Company , a leading developer, manufacturer and marketer of implantable lenses and delivery systems for the eye, today announced that its Board of Directors has&nbsp;...'
p6
aS'Caren Mason Appointed President &amp; CEO of STAAR Surgical Company PR Newswire  - Mar 3, 2015 MONROVIA, Calif., March 3, 2015 /PRNewswire/ -- STAAR Surgical Company  a leading developer, manufacturer and marketer of implantable lenses and delivery systems for the eye, has named Caren Mason President and Chief Executive&nbsp;...'
p7
aS'STAAR Surgical Company  Prints Record 2Q? Scibility Media - Aug 5, 2016 The management of STAAR Surgical Company  declared the results reported for 2Q2016 a record quarterly performance.'
p8
aS'STAAR Surgical Reports Fourth Quarter and Full Year 2015 Results PR Newswire  - Mar 2, 2016 MONROVIA, Calif., March 2, 2016 /PRNewswire/ -- STAAR Surgical Company , a leading developer, manufacturer and marketer of implantable lenses and delivery systems for the eye, today reported financial results for the fourth quarter and&nbsp;...'
p9
aS'STAAR Surgical Company  Moves Higher on Volume Spike for March 17 Equities.com - Mar 17, 2017 STAAR Surgical Company  traded on unusually high volume on Mar. 17, as the stock gained 0.51% to close at $9.90. On the day, STAAR Surgical Company saw 310,413 shares trade hands on 1,473 trades. Considering that the stock averages only a&nbsp;...'
p10
a.