(lp0
S'Microbot Medical Inc. Strengthens Board of Directors with Medical Device ... GlobeNewswire  - Feb 7, 2017 HINGHAM, Mass., Feb. 07, 2017  -- Microbot Medical Inc. , a medical device company specializing in the design and development of transformational micro-robotic medical technologies, today announced the&nbsp;...MICROBOT MEDICAL INC.  Files An 8-K Entry into a Material ... - Market Exclusive'
p1
aS'Microbot Medical Inc. MBOT  Wall Street Journal  - Nov 29, 2016 News Microbot Medical Inc.MBOT. Significant News Only. 03/13/17; Press Release. Microbot Medical Inc. to Present at the 29th Annual ROTH Growth Conference.'
p2
aS'Microbot Medical Inc. to Present at the Thirteenth Annual Noble Capital ... GlobeNewswire  - Jan 23, 2017 HINGHAM, Mass., Jan. 23, 2017  -- Microbot Medical Inc. , a medical device company specializing in the design and development of transformational micro-robotic medical technologies, announced today that Harel&nbsp;...'
p3
aS"Microbot Medical Inc. Announces Significant Technology Patent Allowance in the US GlobeNewswire  - Feb 22, 2017 HINGHAM, Mass., Feb. 22, 2017  -- Microbot Medical Inc. , a medical device company specializing in the design and development of transformational micro-robotic medical technologies, today announced the U.S.Stock Market's Bulls and Bears: Microbot Medical Inc , Argos ... - Smarter AnalystMicrobot Medical Inc  Is A Nice Low Float Play - Insider Financial"
p4
aS"StemCells to be taken private by Israel's Microbot Medical Seeking Alpha - Aug 16, 2016 StemCells  +55.6% AH after disclosing an agreement to reorganize and merge with privately held Israeli company Microbot Medical. Current STEM shareholders are expected to own 5% of the combined company, while former Microbot&nbsp;...StemCells  Enters Merger Agreement with Microbot Medical - StreetInsider.com"
p5
aS'Microbot Medical Inc. Announces $3.5 Million Registered Direct Offering GlobeNewswire  - Jan 5, 2017 HINGHAM, Mass., Jan. 05, 2017  -- Microbot Medical Inc. , a medical device company specializing in the design and development of transformational micro-robotic medical technologies, announced today that it has&nbsp;...'
p6
aS'Microbot Medical: ~$250 Million Market Cap... Irrational Exuberance At Its Best Seeking Alpha - Jan 12, 2017 Years in the making. Microbot is an Israel-organized reverse-merger company offering an untested medical device idea that will take years to prove or disprove.'
p7
aS"Here's Who Just Bought Microbot Medical Inc.  Shares Small Cap Exclusive  - Dec 12, 2016 For those not familiar with the company, Microbot Medical Inc., formerly StemCells, Inc., is a medical device company. The Company specializes in the researching, designing, developing and commercializing transformational micro-robotic medical&nbsp;..."
p8
aS'Microbot Medical Inc. MarketWatch - Dec 16, 2016 Check out the returns on our 8 Lazy Portfolios that are made up of low-cost buy-and-hold index funds.  How to create your own Lazy Portfolio.'
p9
aS'BRIEF-Microbot Medical enters into securities exchange agreement With Alpha ... Reuters - Dec 16, 2016 Dec 16 Microbot Medical Inc : * Microbot Medical Inc - pursuant to agreement, Alpha would exchange about 9.7 million shares or rights to acquire shares of common stock of co.'
p10
a.