(lp0
S"Summer Infant, Inc.  to Ring The Nasdaq Stock Market Closing Bell GlobeNewswire  - Feb 24, 2017 Summer Infant, Inc. , a global leader in premium juvenile products, will visit the Nasdaq MarketSite in Times Square in celebration of its 10 year listing anniversary.Woonsocket's Summer Infant to ring Nasdaq closing bell Feb. 27 - Valley Breeze"
p1
aS'Summer Infant Reports Fourth Quarter Results GlobeNewswire  - Feb 22, 2017 WOONSOCKET, R.I., Feb. 22, 2017  -- Summer Infant, Inc.  , a global leader in premium infant and juvenile products, today announced financial results for the fiscal fourth quarter&nbsp;...'
p2
aS'Summer Infant Unveils New Product Lines, Receives Top Awards at ABC Kids Expo 2015 PR Newswire  - Oct 29, 2015 &quot;We are thrilled to honor products at the ABC Kids Expo that our judges regard as innovative and deserving,&quot; said Sharon Vinderine, founder &amp; CEO of PTPA Media, Inc. &quot;The Summer Infant products that were selected as our 2015 ABC Top Picks award stood&nbsp;...'
p3
aS'Traders Take Note: Summer Infant Inc  Stock Drops, Weakness in ... CML News - 20 hours ago Take Note: Summer Infant Inc  has hit some technical weakness in its momentum, and while it has not broken down all the way through support -- watch the key levels that we discuss below and further, watch the stochastics and technical&nbsp;...'
p4
aS'Summer Infant Names Seasoned Juvenile Products Leader Mark Messner as ... GlobeNewswire  - Jun 29, 2016 WOONSOCKET, R.I., June 29, 2016  -- Summer Infant, Inc.  , a global leader in premium infant and juvenile products, today announced that Mark Messner has been appointed&nbsp;...'
p5
aS"Insider Trading Activity Summer Infant, Inc.   Major Shareholder ... Market Exclusive - Mar 7, 2017 Wynnefield Partners Small Cap , Major Shareholder of Summer Infant, Inc.  reportedly Bought 6,707 shares of the company's stock at an average price of 1.82 for a total transaction amount of $12,206.74 SEC Form.Summer Infant, Inc.  Major Shareholder Wynnefield Partners Small Cap ... - Chaffey BreezeSummer Infant, Inc.  Major Shareholder Wynnefield Partners Small Cap ... - The Cerbat Gem"
p6
aS'Analyst Target Price Look at Summer Infant, Inc.  Nano Dimension ... Rives Journal - Mar 27, 2017 Sell-side analysts are offering a consensus Buy rating on shares of Summer Infant, Inc. . Using the following ratings scale: 1.0 Strong Buy, 2.0 Buy, 3.0 Hold, 4.0 Sell and 5.0 Strong Sell, analysts have an average recommendation of 2.00.'
p7
aS'Summer Infant Announces Passing of Board Member Richard Wenz GlobeNewswire  - Jun 30, 2016 WOONSOCKET, R.I., June 30, 2016  -- Summer Infant, Inc.  , a global leader in premium infant and juvenile products, today announced that board member Richard Wenz died earlier&nbsp;...'
p8
aS'Next Weeks Broker Price Targets For Summer Infant, Inc.  Fiscal Standard - 19 hours ago Stock market analysts and brokers have recently amended their target prices on shares of Summer Infant, Inc. .'
p9
aS"The Controversy At Summer Infant Provides Hints On Its Potential Seeking Alpha - Jun 2, 2015 ... as well as against several other executives in Summer Infant  and its consulting company, Rest Devices, Inc. Only a month ago, Carol Bramson was the respected CEO who was credited with leading successfully the company's turnaround&nbsp;..."
p10
a.