(lp0
S"Sunoco Logistics  Down 6.7% Since Earnings Report: Can It Rebound? Yahoo Finance - 23 hours ago A month has gone by since the last earnings report for Sunoco Logistics Partners LP SXL. Shares have lost about 6.7% in that time frame, underperforming the market.Digging Up the Facts on Sunoco Logistics Partners LP  - StockNewsJournalIs Sunoco Logistics Partners LP's  8.7% ROE Good Enough When Compared To ... - Simply Wall St"
p1
aS'Sunoco Logistics and Energy Transfer Partners Announce Form S-4 Registration ... Business Wire  - Mar 24, 2017 DALLAS &amp; NEWTOWN SQUARE, Pa.----Sunoco Logistics Partners L.P.  and Energy Transfer Partners, L.P.Energy Transfer Partners LP  Reaches $35.13 After 4.00% Up Move; MGT ... - HuronReportEnergy Transfer Partners LP  Stock Rating Upgraded by Zacks Investment ... - Community Financial News'
p2
aS'3 Things Investors Need to Know About the Energy Transfer Partners LP/Sunoco ... Motley Fool - Nov 23, 2016 These include not only its natural gas pipeline namesake Energy Transfer Partners and oil pipeline operator Sunoco Logistics but retail gas station owner Sunoco LP  and gathering and processing company PennTex Midstream Partners&nbsp;...Sunoco Logistics Partners  to Acquire Energy Transfer Partners, LP (ETP ... - StreetInsider.comSunoco Logistics Partners Has Advantage In Merger With Energy Transfer Partners - Seeking Alpha'
p3
aS'Sunoco Logistics Partners LP  Q3 2016 Results - Earnings Call Transcript Seeking Alpha - Nov 10, 2016 Welcome to Sunoco Logistics Q3 2016 Earnings Conference Call. All lines have been placed in a listen-only mode until the question-and-answer session.Sunoco Logistics Announces Strategic Crude Oil Joint Venture with ExxonMobil - Business Wire ExxonMobil, Sunoco partner on Longview, other pipelines - Longview News-Journal'
p4
aS'Which High-Yield MLP Is Better For Dividends: Sunoco Logistics Partners Or ... Seeking Alpha - Mar 16, 2017 The oil price crash of 2015-2016 was a huge blow to the oil and gas industry. It created ripple effects that were felt across the entire energy sector.'
p5
aS'Sunoco Logistics: The Highest Yielding Dividend Achiever Seeking Alpha - Jan 12, 2017 To be considered a Dividend Achiever, a company must have 10+ years of consecutive dividend increases and meet certain size and liquidity requirements.'
p6
aS"Featured Stock to Focus: Sunoco Logistics Partners LP  HugoPress - Mar 24, 2017 Mizuho Upgrades Sunoco Logistics Partners L.P. 's stock to Buy with the price target of $30. This rating was issued on 2/27/17."
p7
aS'Sunoco Logistics Partners LP  Ex-Dividend Date Scheduled for November 07 ... Nasdaq - Nov 4, 2016 Sunoco Logistics Partners LP  will begin trading ex-dividend on November 07, 2016. A cash dividend payment of $0.51 per share is scheduled to be paid on November 14, 2016.'
p8
aS"Why Investors remained confident on Thermo Fisher Scientific Inc. (TMO ... StockNewsJournal - Mar 24, 2017 The average of this ratio is 9.92 for the industry and sector's best figure appears 12.03. Sunoco Logistics Partners L.P. , at its latest closing price of $23.74, it has a price-to-book ratio of 0.97, compared to an industry average at 41.22 ..."
p9
aS'Reminder - Sunoco Logistics Partners Goes Ex-Dividend Soon Forbes - Feb 1, 2017 Looking at the universe of stocks we cover at Dividend Channel, on 2/3/17, Sunoco Logistics Partners LP  will trade ex-dividend, for its quarterly dividend of $0.52, payable on 2/14/17.Which Is A Better Buy - ETE, ETP, Or SXL? - Seeking Alpha'
p10
a.