(lp0
S'Stock Alert: Teradyne Inc Realized Volatility Hits A Substantially Lowered Level CML News - 11 hours ago Before we cover the full analysis we make a quick alert here that Teradyne Inc  has seen its stock price move at a depressed level.'
p1
aS"Teradyne, Inc.  Receives Average Recommendation of Buy from Analysts Chaffey Breeze - 14 hours ago Teradyne logo Shares of Teradyne, Inc.  have received an average recommendation of Buy from the fourteen ratings firms that are currently covering the company.Noticeable Buzzer: Teradyne, Inc.'s  - Is storiesTeradyne, Inc.  Broker Price Targets For The Coming Week - Fiscal Standard"
p2
aS"Unusual Volume Spikes For: Teradyne Inc.  HugoPress - Mar 21, 2017 Deutsche Bank Maintains Teradyne Inc. 's stock to Buy with the price target of $22. This rating was issued on 7/29/16.Why Investors remained confident on Teradyne, Inc. , KBR, Inc. ? - StockNewsJournal"
p3
aS"Taking a Fresh Look at Teradyne, Inc.  StockNewsJournal - Feb 27, 2017 Teradyne, Inc.  is an interesting player in the Technology space, with a focus on Semiconductor Equipment &amp; Materials.Why You Shouldn't Bet Against Teradyne  Stock - Yahoo FinanceTeradyne, Inc.  added to 67 new portfolios - Post Analyst"
p4
aS"Zacks.com featured highlights: Foot Locker, Teradyne, Raymond James Financial ... Yahoo Finance - Mar 27, 2017 Chicago, IL - March 27, 2017 - Stocks in this week's article includeFoot Locker, Inc. , Teradyne, Inc. , Raymond James Financial, Inc. , CSX Corporation (NASDAQ: CSX - Free&nbsp;..."
p5
aS'Company Stock Watch: Teradyne, Inc.  Searcy News - 2 hours ago Investors may be checking on some financial ratios for Teradyne, Inc. . Currently, the company has a Gross Margin  ratio of 0.347355.'
p6
aS"Hot Stock Overview: Teradyne Inc.  HugoPress - Mar 16, 2017 Deutsche Bank Maintains Teradyne Inc. 's stock to Buy with the price target of $22. This rating was issued on 7/29/16.Guggenheim Capital LLC Acquires 5115 Shares of Teradyne, Inc.  - The Cerbat GemBiggest Tech Movers: Teradyne, Inc. , First Solar, Inc.  - TWN"
p7
aS'Teradyne Inc.  Moves Higher on Volume Spike for March 13 Equities.com - Mar 13, 2017 Teradyne Inc.  traded on unusually high volume on Mar. 13, as the stock gained 1.21% to close at $30.10. On the day, Teradyne Inc. saw 3.23 million shares trade hands on 19,971 trades. Considering that the stock averages only a daily volume of 2 ...Teradyne, Inc.  Shares Sold by Tudor Investment Corp Et Al - BNB Daily '
p8
aS"Why to Keeping Eye on DexCom, Inc. , Teradyne, Inc. ? StockNewsJournal - Mar 8, 2017 Teradyne, Inc. , maintained return on investment for the last twelve months at -1.90, higher than what Reuters data shows regarding industry's average.Analyst's Proposition on Teradyne, Inc. , Western Refining, Inc.  - The USA Commerce161 hedge funds sold their entire positions in Teradyne, Inc.  - Post Analyst"
p9
aS"Today's Brokerage Rating: Teradyne, Inc. , TEGNA Inc.  StockNewsJournal - Mar 6, 2017 Investors who are keeping close eye on the stock of Teradyne, Inc.  established that the company was able to keep return on investment at -1.90 in the trailing twelve month while Reuters data showed that industry's average stands at 13.15 and&nbsp;..."
p10
a.