(lp0
S"TreeHouse Foods Announces Management Developments to Capitalize on Growth ... PR Newswire  - 11 hours ago OAK BROOK, Ill., March 28, 2017 /PRNewswire/ -- TreeHouse Foods, Inc.  today announced that Rachel Bishop, currently Senior Vice President &amp; Chief Strategy Officer, will assume the role of President of the Company's Snacks division.Successful Earnings Option Trading: Treehouse Foods Inc  - CML NewsBroker Outlook For The Week Ahead Treehouse Foods, Inc.  - Fiscal Standard"
p1
aS'TreeHouse Foods Announces Webcast of First Quarter 2017 Earnings Conference Call PR Newswire  - Mar 23, 2017 OAK BROOK, Ill., March 23, 2017 /PRNewswire/ -- TreeHouse Foods, Inc.  will host a live audio Webcast of its first quarter earnings results conference call on Thursday, May 4, 2017 at 8:30 a.m.'
p2
aS'Why TreeHouse Foods Inc. Stock Popped Today Fox Business - Feb 9, 2017 Shares of TreeHouse Foods Inc.  were surging today after the private-label food producer topped estimates in its fourth-quarter earnings report.TreeHouse Foods, Inc. Reports Fourth Quarter 2016 Results and Provides Outlook ... - PR Newswire TreeHouse Foods  Q4 2016 Results - Earnings Call Transcript - Seeking Alpha'
p3
aS'TreeHouse Foods Announces Voluntary Product Recall Due to Possible Health Risk PR Newswire  - Dec 11, 2016 OAK BROOK, Ill., Dec. 11, 2016 /PRNewswire/ -- TreeHouse Foods, Inc.  today announced a voluntary recall of certain macaroni and cheese cup products containing cheddar cheese seasoning which may be contaminated with Salmonella.TreeHouse Foods, Inc. recalls macaroni and cheese cups due to threat of Salmonella - fox6now.comTreeHouse Foods recalls some products citing salmonella risk - Fox News'
p4
aS"TreeHouse Foods' Shares Fall Amid Executive Shuffle Wall Street Journal - Nov 3, 2016 Shares of TreeHouse Foods Inc. plunged Thursday, as the company struggles to digest its acquisition of ConAgra Foods Inc.'s private-label business, a decision that has led to plant shutdowns, a lowered annual profit outlook and a reshuffling of ...TreeHouse Foods Announces the Appointment of Matthew Foulston as CFO - PR Newswire Why TreeHouse Foods Inc. Stock Tumbled Today - Motley Fool"
p5
aS'Treehouse Foods - A Value Play Seeking Alpha - Feb 21, 2017 TreeHouse Foods, Inc.  is a leader in private label branded food and is growing their &quot;good for you&quot; category while matching value with quality.'
p6
aS'TreeHouse Foods Announces Webcast of Fourth Quarter 2016 Earnings Conference Call PR Newswire  - Jan 5, 2017 OAK BROOK, Ill., Jan. 5, 2017 /PRNewswire/ -- TreeHouse Foods, Inc.  will host a live audio Webcast of its fourth quarter earnings results on Thursday, February 9, 2017 at 9:00 a.m.'
p7
aS'Brokerage Firm Target Update for Treehouse Foods, Inc.  Aiken Advocate - 11 hours ago Street analysts that cover the company have provided target price projections on the stock. The current consensus target price is $93 on the stock.'
p8
aS'TreeHouse Foods Issues Voluntary Product Recall Due to Possible Health Risk PR Newswire  - May 3, 2016 OAK BROOK, Ill., May 3, 2016 /PRNewswire/ -- TreeHouse Foods, Inc.  today announced the voluntary recall of products that may be impacted by sunflower seeds contaminated with Listeria monocytogenes (L.TreeHouse Foods revenue up on acquisition - MarketWatchSnacks, nuts, protein bars recalled for Listeria concerns - Food Safety News'
p9
aS'TreeHouse Foods CFO Dennis Riordan to Retire Yahoo Finance - Aug 4, 2016 4, 2016 /PRNewswire/ -- TreeHouse Foods, Inc.  announced today that Dennis F. Riordan, Executive Vice President, Chief Financial Officer and Interim President of Private Brands, will transition to a Senior Advisor role upon the appointment of a&nbsp;...'
p10
a.