(lp0
S"Taylor Morrison Home Corp. TMHC  Wall Street Journal - Apr 8, 2013 P/E Ratio : The Price to Earnings  ratio, a key valuation measure, is calculated by dividing the stock's most recent closing price by the sum of the diluted earnings per share from continuing operations for the trailing 12 month period ..."
p1
aS'Investor Box: Viewing Levels on Shares of Taylor Morrison Home Corp  Baxter Review - 17 hours ago At the time of writing, the 14-day ADX for Taylor Morrison Home Corp  is standing at 21.78. Many chart analysts believe that an ADX reading over 25 would suggest a strong trend.'
p2
aS"Taylor Morrison pays $85 million for Atlanta homebuilder azcentral.com - Jan 11, 2016 Acadia Homes &amp; Neighborhoods has 20 communities with homes for sale in Georgia. This is Taylor Morrison's second acquisition in Atlanta. Last year, the homebuilder bought JEH. With Acadia joining the Taylor Morrison family, we'll be able to expand our&nbsp;..."
p3
aS'Home Builder Taylor Morrison Sells Canadian Unit Wall Street Journal - Dec 16, 2014 Home builder Taylor Morrison Home Corp. is pulling out of Canada, agreeing to sell its Canadian operations to competitor Mattamy Homes Ltd.Mattamy Homes to buy Monarch Corp. in $330-million deal - The Globe and Mail Mattamy Homes to buy Monarch Homes for $330 million - Ottawa Citizen'
p4
aS'Taylor Morrison Buys Three Markets From Orleans Homes Wall Street Journal - Jul 21, 2015 Taylor Morrison Home Corp. has clinched its fourth major deal in the past 16 months, establishing itself as more of a buyer than a seller as the home-building industry consolidates.After 25 years, Orleans Homes departs Triangle market - Triangle Business Journal National homebuilder enters Charlotte market via $166M portfolio buy - Charlotte Business Journal'
p5
aS"BRIEF-Taylor Morrison Home Corp announces pricing of public offering Reuters - Mar 26, 2013 Reuters is the news and media division of Thomson Reuters. Thomson Reuters is the world's largest international multimedia news agency, providing investing news, world news, business news, technology news, headline news, small business news, news&nbsp;..."
p6
aS'Zacks Industry Outlook Highlights: KB Home, DR Horton, TRI Pointe, Taylor ... Yahoo Finance - Feb 27, 2017 Chicago, IL - February 27, 2017 - Today, Zacks Equity Research discusses the Industry: Housing, Part 3, including KB Home , D.R.'
p7
aS"Today's Brokerage Rating: Taylor Morrison Home Corp. , Xylem Inc.  StockNewsJournal - Mar 20, 2017 Investors who are keeping close eye on the stock of Taylor Morrison Home Corporation  established that the company was able to keep return on investment at 9.33 in the trailing twelve month while Reuters data showed that industry's average&nbsp;...Taylor Morrison Home Corporation Class A  Breaks into New 52-Week High ... - Equities.comCompany Stock Price of Taylor Morrison Home Corporation  Increases 4.34% - Times Money"
p8
aS'Latest Stocks: The Taylor Morrison Home Corp  Given Average Rating of ... Petro Global News 24 - Mar 27, 2017 Shares of Taylor Morrison Home Corp  have received a consensus recommendation of Hold from the thirteen ratings firms that are covering the company.Finish Line  Reaches $13.54 After 6.00% Up Move; Shorts at Taylor ... - Herald KSUS Silica Holdings  Reaches $46.82 After 8.00% Gap Up, 3 Analysts ... - NormanObserver.com'
p9
aS'Arizona home builder Taylor Morrison to buy coastal OC land Los Angeles Times - Apr 3, 2014 Arizona home builder Taylor Morrison Home Corp. has agreed to buy a swath of coastal Orange County land, kick-starting a long-stalled development that fell victim to the recession.Only female builder CEO on weather, women and rates - MarketWatch'
p10
a.