(lp0
S"TRI Pointe Group, Inc. Announces First Quarter 2017 Earnings Release and ... EconoTimes - Mar 27, 2017 IRVINE, Calif., March 27, 2017 -- TRI Pointe Group, Inc.  announced today that it will release financial results for the first quarter of 2017 before the market opens on Wednesday, April 26, 2017.TRI Pointe Group, Inc.'s  stock price is Currently Worth at $12.60; What ... - Hot Stocks Point"
p1
aS'TRI Pointe Group, Inc. Announces Secondary Offering of Common Stock GlobeNewswire  - Mar 17, 2017 IRVINE, Calif., March 17, 2017  -- TRI Pointe Group, Inc.   today announced the commencement of an underwritten offering of 11,985,905 shares of its common stock by VIII/TPC Holdings, L.L.Starwood Exits TRI Pointe - Orange County Business JournalRevenue Approximations Analysis: Associated Banc-Corp , TRI Pointe Group ... - StockNewsJournal'
p2
aS'TRI Pointe Group, Inc. Announces Authorization of $100 Million Stock ... GlobeNewswire  - Feb 28, 2017 IRVINE, Calif., Feb. 28, 2017  -- TRI Pointe Group, Inc.   today announced that its Board of Directors has approved a $100 million stock repurchase program, effective February 23, 2017 (the Repurchase&nbsp;...TRI Pointe Group Inc.  Moves Lower on Volume Spike for February 27 - Equities.comTechnical Roundup On Two Stocks TRI Pointe Group, Inc. , 3D Systems ... - Post Analyst'
p3
aS'Stock Alert and Holding Pattern: TRI Pointe Group Inc Price Volatility Hits An ... CML News - 18 hours ago Before we cover the full analysis we make a quick alert here that TRI Pointe Group Inc  has seen its stock price move at an inflection point level.'
p4
aS"Let's Get Technical With TRI Pointe Group, Inc.  USA Commerce Daily - 11 hours ago With all other things going on, TRI Pointe Group, Inc.  has been on a run - rising 4.48 percent in just three months."
p5
aS"TRI Pointe Group, Inc.  Files An 8-K Other Events Market Exclusive - Mar 22, 2017 TRI Pointe Group, Inc. is a homebuilder company. The Company's operations are organized in two principal businesses, including homebuilding and financial services.Buy or Sell? Average Brokerage Ratings on TRI Pointe Group, Inc. (TPH ... - StockNewsJournalTRI Pointe Group Inc Risk Points versus Consumer Discretionary - CML News"
p6
aS"TRI Pointe Group, Inc.  : How Do the Technicals Stack Up? The USA Commerce - Mar 20, 2017 We have gathered the technical data on TRI Pointe Group, Inc. , and see some interesting trends in the stock's behavior of late."
p7
aS'Stock Value Analysis: TRI Pointe Group, Inc.  The Oracle Examiner - 14 hours ago While predicting the next move of TRI Pointe Group, Inc. , volatility is an important factor to look at. Currently TRI Pointe Group, Inc.  has weekly volatility of 2.54%% and monthly volatility of 2.71%%. In the words of investopedia.com ...'
p8
aS"Equity Perception: Analyst's Indicator Review for Molson Coors Brewing Company ... The USA Commerce - Mar 27, 2017 Shares of Molson Coors Brewing Company  dropped -0.24% to $97.02. During the trading on 03/24/2017, Company's stock ranged from $97.73 to $96.74. The relative strength index or RSI highlights overbought  and oversold (below&nbsp;..."
p9
aS'Lookout for Price Target? TRI Pointe Group, Inc. , WPX Energy, Inc.  StockNewsJournal - Mar 20, 2017 ROI deals with the invested cash in the company and the return the investor realize on that money based on the net profit of the business.'
p10
a.