(lp0
S"Is It Time to go for RSP Permian, Inc. , Trimble Inc. ? StockNewsJournal - Mar 20, 2017 Trimble Inc. , maintained return on investment for the last twelve months at 4.40, higher than what Reuters data shows regarding industry's average."
p1
aS"Sell-Side Analyst's Predictions: Trimble Inc. , PRA Health Sciences, Inc ... The USA Commerce - Mar 27, 2017 Shares of Trimble Inc.  surged 0.26% to $31.32. During the trading on 03/24/2017, Company's stock ranged from $31.74 to $31.15."
p2
aS'Trimble and Caterpillar to Deliver Connected On-Highway Telematics Solutions ... PR Newswire  - Mar 8, 2017 LAS VEGAS, March 8, 2017 /PRNewswire/ -- Trimble  and Caterpillar Inc.  announced today that they are partnering to bring on-highway telematics to construction operations.Julie A. Shepard Sells 3826 Shares of Trimble Inc  Stock - The Cerbat GemRating Change on Trimble Inc.  - Energy Index'
p3
aS"Trimble's Twin Buyouts to Boost Connected Forest Solutions Yahoo Finance - Mar 6, 2017 Technology solutions provider Trimble Inc.'s TRMB share price appreciated 25.7% over the last one year compared with the Zacks Electronics - Miscellaneous Products industry's gain of 22%."
p4
aS'Latest Stocks: Capital International Sarl Increases Position in Trimble ... Petro Global News 24 - 7 hours ago Capital International Sarl raised its position in shares of Trimble Navigation Ltd.  by 54.5% during the third quarter, Holdings Channel reports.Insider Selling: Trimble Inc  VP Sells 3826 Shares of Stock - Chaffey BreezeTrimble Inc  Given Average Rating of Hold by Brokerages - Sports Perspectives'
p5
aS'Form 4 TRIMBLE INC. For: Mar 06 Filed by: KIRKLAND JAMES A StreetInsider.com - Mar 8, 2017 Check this box if no longer subject to Section 16. Form 4 or Form 5 obligations may continue. See Instruction 1. 1. Name and Address of Reporting Person *. KIRKLAND JAMES A. , , . C/O TRIMBLE INC. 935 STEWART DRIVE. &nbsp;...'
p6
aS'Sales Growth Analysis: Dell Technologies Inc. , Trimble Inc.  USA Commerce Daily - Mar 27, 2017 Shares of Dell Technologies Inc.  are making a strong comeback as they have jumped 50.81% since bottoming out at $42.02 on Sep. 07, 2016.'
p7
aS"Looking at the Tea Leaves for Trimble Inc.  The USA Commerce - Mar 24, 2017 We have gathered the technical data on Trimble Inc. , and see some interesting trends in the stock's behavior of late."
p8
aS"Analyst's Predictions on Trimble Inc. , Trinity Industries, Inc.  StockNewsJournal - Mar 10, 2017 Investors who are keeping close eye on the stock of Trimble Inc.  established that the company was able to keep return on investment at 4.40 in the trailing twelve month while Reuters data showed that industry's average stands at 9.99 and&nbsp;..."
p9
aS'Why to Keeping Eye on Dana Incorporated , Trimble Inc. ? StockNewsJournal - Feb 28, 2017 Trimble Inc. , at its latest closing price of $31.48, it has a price-to-book ratio of 3.49, compared to an industry average at 4.96.'
p10
a.