(lp0
S'Concur Acquires TRX, Inc. PR Newswire  - Jul 16, 2013 BELLEVUE, Wash., July 16, 2013 /PRNewswire/ -- Concur , the global leader in integrated travel and expense management, today announced it acquired TRX, Inc., a leader in travel data and Travel Management Company  mid-office&nbsp;...'
p1
aS'TRX Names David Cathcart President And Chief Executive Officer To Succeed ... PR Newswire  - Dec 11, 2012 ATLANTA, Dec. 11, 2012 /PRNewswire/ -- TRX, Inc.  , a global leader in travel data and technology, today named Chief Financial Officer David D. Cathcart as President and Chief Executive Officer.'
p2
aS'TRX Launches Web Reporting 7.0 for TRAVELTRAX at the 2013 Global Business ... PR Newswire  - Aug 6, 2013 ATLANTA, Aug. 6, 2013 /PRNewswire/ -- TRX, Inc. , a Concur Company and global leader in travel data and technology, today announced the release of Web Reporting 7.0 for its data intelligence solution TRAVELTRAX at the 2013 Global&nbsp;...'
p3
aS"Walking the Walk  Inc.com - May 23, 2011 TRX sells physical-fitness products and programs, but that only begins to explain this company's obsession with fitness."
p4
aS'TRX Europe to develop Leicester support base Travel Weekly UK - Dec 15, 2015 TRX supplies automated fulfilment services for on-line booking systems, including the issuing and despatching of tickets, customer service support, quality control and travel policy checking.'
p5
aS'Morningstar, Inc. to Acquire tRx Investment Portfolio Rebalancing Platform for ... PR Newswire  - Oct 8, 2015 CHICAGO, Oct. 8, 2015 /PRNewswire/ -- Morningstar, Inc. , a leading provider of independent investment research, has entered into a definitive agreement to acquire Total Rebalance Expert , an automated, tax-efficient investment&nbsp;...'
p6
aS"Amazon Sues Pair Of Sellers In Counterfeit Goods Crackdown Law360  - Nov 16, 2016 Law360, Los Angeles  -- Amazon.com Inc. filed two lawsuits in Washington state court on Monday against retailers selling an allegedly fake Forearm Forklift and imitation TRX workout products, marking the website's first&nbsp;...Amazon Sues Merchants Over Selling Counterfeit Items - FortuneAmazon Files Lawsuits to Keep Counterfeit Goods Off Website - Bloomberg"
p7
aS"Australia's Lendlease set to unveil showcase Tun Razak Exchange project The Star Online - Mar 26, 2017 SYDNEY: Australia's property group Lendlease, which was the first company to tie up with 1Malaysia Development Bhd  to develop the 70-acre Tun Razak Exchange , is finally ready to unveil its showcase project in the development. ... hotel and ..."
p8
aS'1MDB to be a run-off company New Straits Times Online - Jul 16, 2016 So far, 1MDB has transferred the ownership of Bandar Malaysia Sdn Bhd and TRX City Sdn Bhd to MOF Inc. 1MDB also owns land in Air Itam in Penang, and Pulau Indah in Klang.'
p9
aS'MoF Inc Not Taking Over 1MDB Debts - Johari malaysiandigest.com - Mar 16, 2017 He said there was a clear distinction between 1MDB debts, which would not be taken over by MoF Inc., and the Bandar Malaysia Sdn Bhd  and TRX City Sdn Bhd  project company operating debts. The BMSB and TRCX project company&nbsp;...Some facts for Tony Pua - Malaysiakini MoF will not take over 1MDB debts, says Johari - The Star Online'
p10
a.