(lp0
S'Stock Returns: Tristate Capital Holdings Inc  is Beating Stock ... CML News - 17 hours ago This is a snapshot to compare the stock returns for Stock Yards Bancorp Inc  versus Tristate Capital Holdings Inc  . The stock return points we compare look at the last three-months, six-months and twelve-months. At the end of&nbsp;...'
p1
aS'TriState Capital Holdings Inc.  Moves Lower on Volume Spike for March 22 Equities.com - Mar 22, 2017 TriState Capital Holdings Inc.  traded on unusually high volume on Mar. 22, as the stock lost 1.1% to close at $22.40.'
p2
aS"TriState Capital Holdings'  CEO Jim Getz on Q4 2016 Results - Earnings ... Seeking Alpha - Jan 26, 2017 Before turning the call over to management, I would like to remind everyone that today's call may contain forward-looking statements related to TriState Capital that may generally be identified as describing the Company's future plans, objectives or goals."
p3
aS'TriState Capital Holdings Inc.  Moves Lower on Volume Spike for February 28 Equities.com - Feb 28, 2017 TriState Capital Holdings Inc.  traded on unusually high volume on Feb. 28, as the stock lost 1.05% to close at $23.55.Insider Selling: Tristate Capital Holdings Inc  Director Sells $142200.00 ... - The Cerbat GemTriState Capital Holdings, Inc.  Receives An Update From Brokers - The De Soto Edge'
p4
aS'TriState Capital Holdings Inc.  Moves Lower on Volume Spike for March 21 Equities.com - Mar 21, 2017 TriState Capital Holdings Inc.  traded on unusually high volume on Mar. 21, as the stock lost 3.82% to close at $22.65.'
p5
aS'TriState Capital Holdings Inc.  Breaks into New 52-Week High on March 07 ... Equities.com - Mar 7, 2017 Shares of TriState Capital Holdings Inc.  broke into a new 52-week high yesterday, hitting a peak of $24.70. Shares closed at $24.55 after opening at $23.75 for a move of 4.47%.Tristate Capital Holdings Inc  Coverage Initiated by Analysts at DA Davidson - The Cerbat GemTristate Capital Holdings Inc  target price raised to $29.00 ... - Breaking Finance News'
p6
aS'TriState Capital to Acquire Chartwell Investment Partners Business Wire  - Jan 7, 2014 PITTSBURGH----TriState Capital Holdings, Inc.  entered into a definitive asset-purchase agreement to acquire Chartwell Investment Partners, L.P.Berwyn investment firm acquired for $60M - Philadelphia Business Journal'
p7
aS'TriState Capital Holdings Inc.  Moves Higher on Volume Spike for March 17 Equities.com - Mar 17, 2017 TriState Capital Holdings Inc.  traded on unusually high volume on Mar. 17, as the stock gained 0.21% to close at $23.50.Latest Stocks: The ART Advisors LLC Buys Shares of 17310 Tristate Capital ... - Petro Global News 2482099 Shares in Tristate Capital Holdings Inc  Acquired by Two Sigma ... - Community Financial News'
p8
aS'TriState Capital Provides Updates on Its Chartwell Investment Partners Business Business Wire  - Dec 5, 2016 PITTSBURGH----TriState Capital Holdings, Inc.  provided updates related to its Chartwell Investment Partners business, which is expected to grow investment management revenues by more than 20% in 2016 to about $37&nbsp;...TriState cancels acquisition for its Chartwell arm - Pittsburgh Business Times'
p9
aS'TriState Capital Closes Acquisition of The Killen Group Business Wire  - Apr 29, 2016 PITTSBURGH----TriState Capital Holdings, Inc.  today closed its previously announced acquisition of investment management firm The Killen Group, Inc. , advisor to The Berwyn Funds.'
p10
a.