(lp0
S'Textron Inc.  Ex-Dividend Date Scheduled for March 08, 2017 Nasdaq - Mar 7, 2017 Textron Inc.  will begin trading ex-dividend on March 08, 2017. A cash dividend payment of $0.02 per share is scheduled to be paid on April 01, 2017.TEXTRON INC.  Files An 8-K Other Events - Market ExclusiveThe Textron Inc.  Position Raised by Marshall Wace LLP - DailyQuint'
p1
aS"Analyst's Indicator Review for Textron Inc. , Hasbro, Inc.  The USA Commerce - 18 hours ago Textron Inc.  share price increased in the last trading session with a previous 52-week high of $50.91. The stock was trading on below-average volume.Big Banks Continue to be Large Stakeholders in Textron Inc.  - Midway MonitorMost recent Trading report: Textron Inc.'s  - Is stories"
p2
aS"Why to Keeping Eye on Textron Inc. , ShoreTel, Inc. ? StockNewsJournal - Mar 27, 2017 Investors who are keeping close eye on the stock of Textron Inc.  established that the company was able to keep return on investment at 7.53 in the trailing twelve month while Reuters data showed that industry's average stands at 2.18 and ..."
p3
aS'Textron Inc. Announces Acquisition of Arctic Cat Inc., a Leading Company in ... Yahoo Finance - Mar 6, 2017 Going forward, Arctic Cat will operate as a subsidiary of Textron Specialized Vehicles Inc. This business, based in Augusta, Ga.Textron Inc. Announces Completion of Initial Offering Period and Intent to ... - Business Wire '
p4
aS'Textron Inc. Announces Acquisition of Arctic Cat American Hunter   - Mar 15, 2017 Going forward, Arctic Cat will operate as a subsidiary of Textron Specialized Vehicles Inc. The business, based in Augusta, Ga.'
p5
aS'Textron Inc.: Textron to Release First Quarter Results on April 19, 2017 The Wall Street Transcript - Mar 20, 2017 Textron Inc. is a multi-industry company that leverages its global network of aircraft, defense, industrial and finance businesses to provide customers with innovative solutions and services.Numeric Investors LLC Buys New Position in Textron Inc.  - BNB Daily Jefferies Group LLC Reaffirms Buy Rating for Textron Inc.  - Chaffey Breeze'
p6
aS'Looking Mainly At Fundamentals: Textron Inc. , Entergy Corporation  USA Commerce Daily - 19 hours ago Shares of Textron Inc.  are on a recovery track as they have regained 36.53% since bottoming out at $34 on Jun. 29, 2016.'
p7
aS'Textron Inc. Completes Acquisition of Arctic Cat Inc. Motorcycle & Powersports News  - Mar 8, 2017 Textron Inc. has announced it has completed the acquisition of Arctic Cat Inc. by means of a short-form merger under Minnesota law.'
p8
aS"Average Brokerage Rating Of Lockheed Martin Corporation , Textron Inc.  The USA Commerce - Mar 20, 2017 Shares of Lockheed Martin Corporation  surged 1.51% to $271.98. During the trading on 03/17/2017, Company's stock ranged from $268.30 to $272.18."
p9
aS"Lookout for Price Target? Alexandria Real Estate Equities, Inc. , Textron ... StockNewsJournal - Mar 15, 2017 Textron Inc. , maintained return on investment for the last twelve months at 7.53, higher than what Reuters data shows regarding industry's average."
p10
a.