(lp0
S'United Bancorp, Inc. Declares Quarterly Cash Dividend Payment of $0.11 per ... PR Newswire  - Feb 23, 2017 MARTINS FERRY, Ohio, Feb. 23, 2017 /PRNewswire/ -- On February 22, 2017, the Board of Directors of United Bancorp, Inc.  declared the first quarter dividend payment of $0.11 per common share for shareholders of record on March 10, 2017, with a&nbsp;...'
p1
aS'Traders Take Note: United Bancorp Inc  Stock Drops, Weakness in ... CML News - Mar 20, 2017 Take Note: United Bancorp Inc  has hit some technical weakness in its momentum, and while it has not broken down all the way through support -- watch the key levels that we discuss below and further, watch the stochastics and technical&nbsp;...'
p2
aS'United Bancorp Inc  Stock Technicals Hit Weakness CML News - Feb 23, 2017 This is a technical analysis stock rating for United Bancorp Inc  . The company has a two bull technical rating which indicates some weakness.'
p3
aS'United Bancorp, Inc. Declares Quarterly Dividend of $0.11  Sports Perspectives - Mar 3, 2017 United Bancorp logo United Bancorp, Inc.  announced a quarterly dividend on Thursday, February 23rd. Shareholders of record on Friday, March 10th will be paid a dividend of 0.11 per share by the financial services provider on Monday,&nbsp;...'
p4
aS"POSCO   Reaches $61.19 After 9.00% Gap Down; United Bancorp 's ... Wolcott Daily - Mar 27, 2017 Commonwealth Financial Services Llc holds 0.69% of its portfolio in United Bancorp, Inc. for 55,427 shares. Wesbanco Bank Inc owns 260,279 shares or 0.2% of their US portfolio."
p5
aS'Stock Returns: First United Corporation  versus Northrim BanCorp ... CML News - 11 hours ago This is a snapshot to compare the stock returns for First United Corporation  versus Northrim BanCorp Inc  . The stock return points we compare look at the last three-months, six-months and twelve-months. At the end of this&nbsp;...'
p6
aS'Stock Returns: United Financial Bancorp Inc  is Beating ... CML News - 17 hours ago This is a snapshot to compare the stock returns for Beneficial Bancorp Inc  versus United Financial Bancorp Inc  . The stock return points we compare look at the last three-months, six-months and twelve-months. At the end of&nbsp;...Should You Buy Or Sell United Financial Bancorp, Inc.  On Analyst ... - NewsDen'
p7
aS"Stock Returns: NBT Bancorp Inc  versus People's United Financial ... CML News - Mar 23, 2017 This is a snapshot to compare the stock returns for NBT Bancorp Inc  versus People's United Financial Inc  . The stock return points we compare look at the last three-months, six-months and twelve-months. At the end of this&nbsp;..."
p8
aS'Sun Bancorp, Inc. Announces Election of James B. Lockhart III to Company and ... PR Newswire  - 10 hours ago MOUNT LAUREL, N.J., March 28, 2017 /PRNewswire/ -- Sun Bancorp, Inc.  , the holding company for Sun National Bank , today announced that the Board of Directors of the Company  has elected James B ...'
p9
aS'United Financial Bancorp Inc.  Plunges 6.11% on March 21 Equities.com - Mar 21, 2017 United Financial Bancorp Inc.  had a rough trading day for Tuesday March 21 as shares tumbled 6.11%, or a loss of $-1.05 per share, to close at $16.14.'
p10
a.