(lp0
S'Highpower International Inc versus Ultralife Corporation Head to Head Compare CML News - 17 hours ago Highpower International Inc has a higher fundamental rating than Ultralife Corporation which has an impact on the head-to-head comparison.'
p1
aS"Ultralife Corp. wins government contract Rochester Business Journal - Mar 3, 2017 Ultralife Corp. has received an indefinite quantity contract for purchases not to exceed $21.4 million from the United States government's Defense Logistics Agency.Ultralife Corp.  Director Acquires $70231.62 in Stock - The Cerbat Gem"
p2
aS'Ultralife Corp. ULBI  Wall Street Journal - Feb 11, 2011 Ultralife Corp. ULBI . search. View All companies. AT CLOSE 3:53 PM EDT 03/20/17. $5.50 USD; 0.00 0.00%.'
p3
aS'Hydrogenics Corporation versus Ultralife Corporation Head to Head Compare CML News - Mar 25, 2017 Ultralife Corporation has a substantially higher fundamental rating then Hydrogenics Corporation which has an impact on the head-to-head comparison.'
p4
aS'Ultralife Corporation Acquires Accutronics Ltd. for Approximately $11.0 Million GlobeNewswire  - Jan 13, 2016 NEWARK, N.Y., Jan. 13, 2016  -- Ultralife Corporation  has acquired all of the outstanding shares of Accutronics Ltd.'
p5
aS'Ultralife Corporation Receives Award for Its BA-5390 Military Batteries from ... GlobeNewswire  - Mar 1, 2017 NEWARK, N.Y., March 01, 2017  -- Ultralife Corporation  has received a firm-fixed price, indefinite quantity contract for purchases not to exceed $21.4 million from the U.S.ULTRALIFE CORPORATION  Files An 8-K Other Events - Market ExclusiveStock Returns: Ultralife Corporation  is Beating Espey Mfg ... - CML News'
p6
aS'Ultralife Corp.  Upgraded by TheStreet to B- The Cerbat Gem - Mar 9, 2017 Ultralife Corp. logo TheStreet upgraded shares of Ultralife Corp.  from a c rating to a b- rating in a research note released on Monday morning.Ultralife Corp.  Stock Rating Upgraded by TheStreet - Chaffey Breeze'
p7
aS'Ultralife Corporation Announces Retirement of John D. Kavazanjian, President ... Business Wire  - Dec 8, 2010 NEWARK, N.Y.----Ultralife Corporation  announced today that its Board of Directors has appointed Michael D. Popielec president and chief executive officer, effective December 30, 2010.'
p8
aS'The Ultralife Corp.  Raised to B- at TheStreet Petro Global News 24 - Mar 9, 2017 Ultralife Corp.  was upgraded by analysts at TheStreet from a c rating to a b- rating in a research report issued to clients and investors on Monday.'
p9
aS'Ultralife Corp fourth-quarter profit jumps 247.61 percent on a YOY basis Myiris.com - Mar 23, 2017 Ultralife Corporation  has reported 247.61 percent jump in profit for the quarter ended Dec. 31, 2016. The company has earned $1.74 million, or $0.11 a share in the quarter, compared with $0.50 million, or $0.03 a share for the same period last year.'
p10
a.