(lp0
S'Stock Returns: Union Bankshares Inc  is Beating Summit State Bank ... CML News - 19 hours ago This is a snapshot to compare the stock returns for Summit State Bank  versus Union Bankshares Inc  .'
p1
aS'Union Bankshares Inc.  Moves Higher on Volume Spike for March 17 Equities.com - Mar 17, 2017 Union Bankshares Inc.  traded on unusually high volume on Mar. 17, as the stock gained 8.45% to close at $45.55. On the day, Union Bankshares Inc. saw 48,673 shares trade hands on 400 trades. Considering that the stock averages only a daily&nbsp;...'
p2
aS'Breaking: Union Bankshares Inc  Stock Through Resistance ... CML News - Mar 25, 2017 Breaking: Union Bankshares Inc  has hit maximum technical strength -- watch the technical oscillators for momentum gaps.'
p3
aS"Union Bankshares Inc.  Moves Lower on Volume Spike for March 20 Equities.com - Mar 20, 2017 Union Bankshares Inc.  traded on unusually high volume on Mar. 20, as the stock lost 3.18% to close at $44.10. On the day, Union Bankshares Inc. saw 8,087 shares trade hands on 96 trades. Considering that the stock averages only a daily volume of&nbsp;...Union Bankshares, Inc.  EPS Estimated At $0.00; KDDI CORPORATION (KDDIF ... - HuronReportTop Positive Mover of Friday: Union Bankshares, Inc.'s  stock price ... - WsNews 4investors"
p4
aS'Union Bankshares Inc.  Moves Lower on Volume Spike for March 10 Equities.com - Mar 10, 2017 Union Bankshares Inc.  traded on unusually high volume on Mar. 10, as the stock lost 1.34% to close at $40.55. On the day, Union Bankshares Inc. saw 4,544 shares trade hands on 42 trades. Considering that the stock averages only a daily volume of&nbsp;...'
p5
aS'Traders Take Note: Union Bankshares Inc  Stock Has Droppped ... CML News - Mar 16, 2017 Take Note: Union Bankshares Inc  has hit some technical weakness in its momentum, and while it has not broken down all the way through support -- watch the key levels that we discuss below and further, watch the stochastics and technical&nbsp;...'
p6
aS'Stock Returns: Union Bankshares Corporation  is Beating United ... CML News - Mar 1, 2017 This is a snapshot to compare the stock returns for Union Bankshares Corporation  versus United Bankshares Inc  . The stock return points we compare look at the last three-months, six-months and twelve-months. At the end&nbsp;...'
p7
aS'Union Bankshares Corp. MarketWatch - Jun 2, 2009 Union Bankshares Corp. NASDAQ: UBSH. GO. Set Alerts &middot; Find a Broker &middot; Join TD Ameritrade &middot; Market Index &middot; Overview Profile News Charts Financials Historical Quotes Analyst Estimates Options SEC Filings Insiders.'
p8
aS'Stock Returns: Union Bankshares Corporation  is Beating ... CML News - Mar 7, 2017 This is a snapshot to compare the stock returns for Union Bankshares Corporation  versus WashingtonFirst Bankshares Inc  . The stock return points we compare look at the last three-months, six-months and twelve-months.Baird Financial Group Inc. Reduces Stake in Union Bankshares Corp  - BNB Daily Union Bankshares Corp - Receive News &amp; Ratings Daily - BBNS'
p9
aS"Form 4 UNION BANKSHARES INC For: Dec 31 Filed by: Silverman David Scott StreetInsider.com - Mar 16, 2017 Find out which companies are about to raise their dividend well before the news hits the Street with StreetInsider.com's Dividend Insider Elite."
p10
a.