(lp0
S"Performance Food Group Company versus United Natural Foods Inc Head to Head ... CML News - 17 hours ago These companies have the same star rating so the head-to-head compare will rely on a deep dive into specific metric comparisons. The CML Star Rating is an objective, quantifiable measure of a company's operating and financial condition. The rating is&nbsp;..."
p1
aS'United Natural Foods Inc. Expanding in Rhode Island PR Newswire  - Feb 15, 2017 PROVIDENCE, R.I., Feb. 15, 2017 /PRNewswire/ -- Rhode Island Governor Gina M. Raimondo and the Rhode Island Commerce Corporation today announced that United Natural Foods Inc.  intends to significantly expand its footprint in Rhode Island,&nbsp;...United Natural Foods to add 150 jobs at RI headquarters - WPRI 12 Eyewitness NewsRI-based distributor of natural, organic food to add 150 jobs - The Providence Journal'
p2
aS'Sources report layoffs at United Natural Foods The Keene Sentinel - Feb 23, 2017 Starting in upcoming months, a little less than 100 employees will be laid off from the Chesterfield division of United Natural Foods, Inc., a source told The Sentinel. The Sentinel granted this source and others, who include current employees ...United Natural Foods To Expand In Providence, RI - Gourmet RetailerEarnings Preview: United Natural Foods, Inc.  moved down 18 times ... - The Independent Republic'
p3
aS'United Natural Foods Inc. Announces Restructuring Plan Amid Q2 Fiscal Results And Now U Know - Mar 10, 2017 PROVIDENCE, RI - In tandem with its Q2 2017 financial report, United Natural Foods, Inc.  has announced a new multi-million dollar restructuring program with the aim of streamlining both cost and efficiency.United Natural Foods, Inc. Announces Second Quarter Fiscal 2017 Results - Yahoo FinanceUnited Natural  Posts In-Line Q2 Earnings; Cuts View - Zacks.com'
p4
aS'Can United Natural  Spring a Surprise in Q2 Earnings? Nasdaq - Mar 2, 2017 United Natural Foods, Inc. UNFI is set to report second quarter of fiscal 2017 results on Mar 7 after the market closes .Stock inside Investors Spotlight: United Natural Foods, Inc.  - Is storiesUnited Natural Foods, Inc.  PEG Ratio At 3.83 - Equities Focus'
p5
aS'United Natural Foods is Now Oversold  Nasdaq - Feb 17, 2017 In trading on Friday, shares of United Natural Foods Inc.  entered into oversold territory, hitting an RSI reading of 28.4, after changing hands as low as $44.27 per share.'
p6
aS'Stock Levels in View for United Natural Foods, Inc.  Rives Journal - 12 hours ago United Natural Foods, Inc.  currently has a Gross Margin  ratio of 0.474514. Robert Novy-Marx has provided investors with insights on finding high-quality value stocks.'
p7
aS"Post Earnings Coverage as United Natural Foods' Quarterly Sales Jumped 11.6 ... Yahoo Finance - Mar 22, 2017 LONDON, UK / ACCESSWIRE / March 22, 2017 / Active Wall St. announces its post-earnings coverage on United Natural Foods, Inc. . The Company announced its second quarter fiscal 2017 financial results on March 08, 2017. The organic&nbsp;..."
p8
aS'Stock Trading Focus for United Natural Foods, Inc.  Searcy News - 1 hour ago Investors may be checking on some financial ratios for United Natural Foods, Inc. . Currently, the company has a Gross Margin  ratio of 0.474514.Is United Natural Foods, Inc.  Fairly Valued? - TCT'
p9
aS'Stock Alert: United Natural Foods Inc Realized Volatility Hits A Deteriorated ... CML News - Mar 22, 2017 Before we cover the full analysis we make a quick alert here that United Natural Foods Inc  has seen its stock price move at a deteriorated level.'
p10
a.