(lp0
S'UQM Technologies Inc  Given Average Recommendation of  by Analysts Chaffey Breeze - 19 hours ago UQM Technologies logo Shares of UQM Technologies Inc  have earned a consensus broker rating score of 0.00  from the one analysts that cover the stock, Zacks Investment Research reports.Is UQM Technologies, Inc.  Preparing For A Breakout Trade? - Post AnalystTo Buy Or Sell UQM TECHNOLOGIES INC  On Latest Analyst Consensus - Fiscal Standard'
p1
aS"UQM Technologies'  CEO Joe Mitchell on Q2 2017 Results - Earnings Call ... Seeking Alpha - Nov 11, 2016 Good afternoon, ladies and gentlemen, and welcome to the UQM Technologies, Inc. Conference Call. My name is Angel and I'll be your coordinator for today."
p2
aS'UQM Technologies Signs Ten Year Supply Agreement with Chinese Customer Business Wire  - Oct 26, 2015 LONGMONT, Colo.----UQM Technologies Inc.  today announced the signing of a ten year supply agreement  with ITL Efficiency Corporation  in China, a subsidiary of Eastlake New Energy .'
p3
aS'UQM Technologies Announces Strategic Alliance with Meritor to Jointly Develop ... Business Wire  - Feb 2, 2017 BUSINESS WIRE)--UQM Technologies, Inc.  announced today the signing of a development agreement with Meritor, Inc., located in Troy, Michigan.'
p4
aS'UQM Technologies, Inc.  Files An 8-K Creation of a Direct ... Market Exclusive - Mar 20, 2017 On March 15, 2017, UQM Technologies, Inc.  entered into a non-revolving line of credit for $5.6 million with a bank.Zacks: UQM Technologies Inc  Given Consensus Rating of  by Analysts - Sports Perspectives'
p5
aS'UQM Technologies Inc  Short Interest Update The Cerbat Gem - Mar 25, 2017 UQM Technologies logo UQM Technologies Inc  was the recipient of a significant growth in short interest in the month of March.'
p6
aS"UQM Technologies  Say Insufficient Shares Were Voted in Favor of Proposal ... StreetInsider.com - Dec 21, 2016 UQM TECHNOLOGIES, INC.  announced results from its Annual Shareholder Meeting that reconvened today with respect to two separate proposals to amend UQM's Articles of Incorporation: one proposal which, among other things, would&nbsp;..."
p7
aS'UQM Technologies Inc  Receives Consensus Rating of  from Brokerages The Cerbat Gem - Mar 24, 2017 UQM Technologies logo UQM Technologies Inc  has received a consensus broker rating score of 0.00  from the one brokers that cover the stock, Zacks Investment Research reports.UQM Technologies to Hold Conference Call Thursday, March 30, 2017 at 4:30 PM ... - MilTech'
p8
aS'UQM Technologies Announces Termination of Stock Purchase Agreement with Hybrid ... Yahoo Finance - Dec 27, 2016 UQM TECHNOLOGIES, INC. , announced that on December 26, 2016 it terminated the Stock Issuance and Purchase Agreement  with Hybrid Kinetic Group Limited.'
p9
aS'UQM Technologies Granted Patent on Innovative Permanent Magnet Electric Motor ... Business Wire  - Jan 20, 2015 BUSINESS WIRE)--UQM Technologies Inc.  announced today that it was granted a U.S. patent for its electric and hybrid electric vehicle motor design using non-rare earth magnets.UQM Technologies Granted Patent on Electric Vehicle Motor Design that Allows ... - Green Energy News'
p10
a.