(lp0
S'First US Bancshares, Inc. Declares Cash Dividend GlobeNewswire  - Feb 22, 2017 THOMASVILLE, Ala., Feb. 22, 2017  -- First US Bancshares, Inc.   announced that the Board of Directors, at a meeting held today, declared a quarterly cash dividend of $0.02 per share.'
p1
aS'First US Bancshares, Inc. Reports Fourth Quarter and Year-End Results GlobeNewswire  - Feb 10, 2017 10, 2017  -- First US Bancshares, Inc.   today reported a net loss of $0.1 million, or $0.02 per diluted common share, for the quarter ended December 31, 2016, compared to net income of $0.4 million,&nbsp;...'
p2
aS'First US Bancshares, Inc.  Ex-Dividend Date Scheduled for March 08, 2017 Nasdaq - Mar 7, 2017 First US Bancshares, Inc.  will begin trading ex-dividend on March 08, 2017. A cash dividend payment of $0.02 per share is scheduled to be paid on April 03, 2017.'
p3
aS'First US Bancshares Inc  To Go Ex-Dividend on March 8th Chaffey Breeze - Mar 3, 2017 First US Bancshares logo First US Bancshares Inc  declared a quarterly dividend on Thursday, February 23rd. Investors of record on Friday, March 10th will be paid a dividend of 0.02 per share by the financial services provider on Monday,&nbsp;...'
p4
aS'Form 4 FIRST US BANCSHARES INC For: Feb 22 Filed by: Dozier Beverly J StreetInsider.com - Feb 24, 2017 News and research before you hear about it on CNBC and others. Claim your 2-week free trial to StreetInsider Premium here. FORM 4, UNITED STATES SECURITIES AND EXCHANGE COMMISSION Washington, D.C. 20549. STATEMENT OF CHANGES IN&nbsp;...'
p5
aS'First US Bancshares swings to fourth-quarter loss on a YOY basis Myiris.com - Mar 21, 2017 Non-interest income for the quarter fell 0.94 percent over the last year period to $1.16 million. First US Bancshares, Inc.'
p6
aS'This Rich Bank Deal Is No Big Stretch Bloomberg - 12 hours ago Arkansas lender Home BancShares Inc. said late Monday that it would buy Stonegate Bank for $780 million, taking its total assets to roughly $13.5 billion.'
p7
aS'Servisfirst Bancshares, Inc. To Announce First Quarter 2017 Financial Results ... Yahoo Finance - 9 hours ago BIRMINGHAM, Ala., March 28, 2017 /PRNewswire/ -- ServisFirst Bancshares, Inc.  is scheduled to announce earnings and operating results for the quarter ended March 31, 2017 on April 17, 2017 at 4 p.m.'
p8
aS"Insider Deal: Leighton Cubbage Sold 965 Shares of Southern First Bancshares ... Herald KS - 20 hours ago In view of the deal Leighton Cubbage made he is in the investor's attention today. The director of Southern First Bancshares Inc and an insider, unloaded 965 shares worth $30,796 US Dollars. The average price was $31.9 per share. The transaction was&nbsp;..."
p9
aS"Gunster Guides Bank Deal as Share Value Climbs Daily Business Review  - 13 hours ago For shareholders of Sarasota-based Insignia Bank, the stock market's so-called Trump Bump has meant an $11.6 million windfall."
p10
a.