(lp0
S'IMPORTANT SHAREHOLDER ALERT: Lundin Law PC Announces Securities Class Action ... Business Wire  - 6 hours ago LOS ANGELES----Lundin Law PC, a shareholder rights firm, announces a class action lawsuit against USANA Health Sciences, Inc.   concerning possible violations of federal securities laws&nbsp;...'
p1
aS'SHAREHOLDER ALERT: Faruqi &amp; Faruqi, LLP Encourages Investors Who Suffered ... GlobeNewswire  - 12 hours ago NEW YORK, March 28, 2017  -- Faruqi &amp; Faruqi, LLP, a leading national securities law firm, reminds investors in USANA Health Sciences, Inc.   of the April 14, 2017 deadline to seek the role of&nbsp;...'
p2
aS'SHAREHOLDER ALERT: Levi &amp; Korsinsky, LLP Reminds Shareholders of USANA Health ... Yahoo Finance - 14 hours ago To: All persons or entities who purchased or otherwise acquired securities of USANA Health Sciences, Inc.   between March 14, 2014 and February 7, 2017.AQR Capital Management LLC Buys 18814 Shares of USANA Health Sciences, Inc.  - Sports Perspectives'
p3
aS'Should You Get Rid of USANA Health Sciences  Now? Nasdaq - Mar 6, 2017 One such stock that you may want to consider dropping is USANA Health Sciences, Inc. USNA , which has witnessed a significant price decline in the past four weeks, and it has seen negative earnings estimate revisions for the current quarter and the ...'
p4
aS'RM LAW Announces Class Action Lawsuit Against USANA Health Sciences, Inc. PR Newswire  - Mar 9, 2017 BERWYN, Pa., March 9, 2017 /PRNewswire/ -- RM LAW, P.C. announces that a class action lawsuit has been filed in United States District Court for the District of Utah on behalf of all persons or entities that purchased USANA Health Sciences, Inc ...'
p5
aS"USANA Health Sciences'  CEO David Wentz on Q4 2016 Results - Earnings ... Seeking Alpha - Feb 8, 2017 Good day and welcome to the USANA Health Sciences Fourth Quarter Conference Call. As a reminder, today's conference is being recorded.USANA Health Sciences Inc.  announces fourth quarter financial results - TechNewsGazette"
p6
aS'Earnings Reaction History: USANA Health Sciences Inc., 100.0% Follow-Through ... Nasdaq - Feb 7, 2017 USANA Health Sciences Inc.  is due to issue its quarterly earnings report in the upcoming extended-hours session. Given its history, traders can expect light trading in the issue immediately following its quarterly earnings announcement ...'
p7
aS"USANA Health Sciences' China Subsidiary, BabyCare Ltd., Becomes an Official ... PR Newswire  - Feb 20, 2017 SALT LAKE CITY, Feb. 20, 2017 /PRNewswire/ -- USANA Health Sciences, a global nutritional company, announced today that its China subsidiary BabyCare Ltd."
p8
aS'SHAREHOLDER NOTICE: Khang &amp; Khang LLP Announces Securities Class Action ... Yahoo Finance - Mar 22, 2017 IRVINE, CA / ACCESSWIRE / March 22, 2017 / Khang &amp; Khang LLP  announces the filing of a class action lawsuit against USANA Health Sciences, Inc.   concerning possible violations of federal securities laws.'
p9
aS"USANA Health Sciences'  CEO David Wentz on Q3 2016 Results - Earnings ... Seeking Alpha - Oct 26, 2016 Our call today is being broadcast live on the webcast and can be accessed directly from our website at www.usanahealthsciences.com. Shortly following the call, a replay will be available on our website. As a reminder, during the course of this call ..."
p10
a.