(lp0
S'TTM Technologies, Inc. Completes Acquisition of Viasystems Group, Inc. GlobeNewswire  - Jun 1, 2015 COSTA MESA, Calif., June 1, 2015  -- TTM Technologies, Inc.  , a major global printed circuit board  manufacturer, announced today that the company has completed its acquisition of Viasystems Group, Inc&nbsp;...TTM Closes on $380 Million Acquisition of Viasystems - Wall Street JournalTTM Technologies  Announces Completion of Viasystems Acquisition - StreetInsider.com'
p1
aS'TTM Technologies acquiring Viasystems Group St. Louis Business Journal - Sep 22, 2014 In the 12 months ended June 30, 2014, the combined company would have had pro forma revenue of $2.5 billion. Viasystems has about 14,800 employees worldwide.TTM Technologies To Acquire Viasystems Group - Manufacturing.netTTM Technologies to Acquire Viasystems for More Than $250 Million - Wall Street Journal'
p2
aS'China Buys The US - TTM Technologies To Acquire Viasystems Group Seeking Alpha - Dec 10, 2014 22, 2014, TTM Technologies, Inc.   and Viasystems Group, Inc.   announced a merger agreement under which TTM will pay $11.33 per share cash and will exchange 0.706 shares of TTM for each of&nbsp;...'
p3
aS'TTM Technologies, Inc. and Viasystems Group, Inc. Receive Second Request From FTC GlobeNewswire  - Dec 4, 2014 COSTA MESA, Calif. and ST. LOUIS, Dec. 4, 2014  -- TTM Technologies, Inc.   and Viasystems Group, Inc.   today announced that they have each received a second request from the&nbsp;...'
p4
aS'Viasystems Group, Inc.  Reviewed By Analysts The De Soto Edge - Mar 26, 2017 Stock market analysts watching Viasystems Group, Inc.  have recently changed their ratings on the stock. The latest reports which are outstanding on Sunday 26th of March state 0 analysts have a rating of strong buy, 0 analysts buy, 0 analysts&nbsp;...'
p5
aS'Viasystems to Acquire DDi Business Wire  - Apr 4, 2012 ST. LOUIS &amp; ANAHEIM, Calif.----Viasystems Group, Inc. , and DDi Corp.  announced today that they have entered into a definitive merger agreement pursuant to which Viasystems will acquire DDi for&nbsp;...Viasystems to acquire DDi Corp. for $282 million - Bizjournals.com'
p6
aS'Viasystems Guangzhou China Facility Experiences a Fire EON: Enhanced Online News  - Sep 5, 2012 ST. LOUIS----Viasystems Group, Inc. , a leading provider of complex multilayer printed circuit boards and electro-mechanical solutions, today announced that early on the morning of September 5, 2012, it experienced a fire&nbsp;...'
p7
aS'Update: China Buys The US - TTM Technologies To Acquire Viasystems Group Seeking Alpha - Jan 15, 2015 The merger will close early, so you can earn the last part of the spread. The strategy that we implemented worked great and we earned 2% in one month .'
p8
aS"Viasystems CEO's pay rises 3 percent to $4.5 million STLtoday.com - Mar 19, 2013 ... $8,235 for out-of-pocket medical costs and $23,000 in charitable contributions. The car allowance, club dues and financial consulting fees were grossed up to cover taxes."
p9
aS'Viasystems completes acquisition of DDi Bizjournals.com - Jun 1, 2012 Viasystems Group Inc.  officials said that it has completed its $283 million acquisition of DDi Corp.  , which was announced April 4. The combined company has more than 15,600 employees and manufacturing floor space&nbsp;...'
p10
a.