(lp0
S'VOXX International Corporation Successfully Completes its Acquisition of a ... PR Newswire  - Sep 2, 2015 2, 2015 /PRNewswire/ -- VOXX International Corporation  today announced that it has successfully completed its acquisition, effective September 1, 2015, to acquire a controlling stake of biometrics leader, EyeLock.'
p1
aS'VOXX - Untapped Potential Seeking Alpha - Mar 14, 2017 I think one unseen company that could potentially benefit from these good tidings is VOXX International Corp .Market Cap Of VOXX International Corporation  Of $109.93M - Equities Focus'
p2
aS'Brokerages Expect VOXX International Corp  to Announce $0.06 Earnings ... BNB Daily  - 23 hours ago VOXX International Corp logo VOXX International Corp  has received an average broker rating score of 0.00  from the one brokers that provide coverage for the stock, Zacks Investment Research reports.Latest Stocks: The VOXX International Corp  Upgraded by Zacks Investment ... - Petro Global News 24'
p3
aS'VOXX International Corp. Cl A MarketWatch - Jun 14, 2009 VOXX International Corp. Cl A. NASDAQ: VOXX. GO. Set Alerts &middot; Find a Broker &middot; Join TD Ameritrade &middot; Market Index &middot; Overview Profile News Charts Financials Historical Quotes Analyst Estimates Options SEC Filings Insiders.'
p4
aS'VOXX International Corporation Reports Fiscal 2015 Third Quarter And Nine ... PR Newswire  - Jan 8, 2015 VOXX International Corporation , today announced financial results for its Fiscal 2015 third quarter and nine-months ended November 30, 2014.'
p5
aS'VOXX International Corporation Reports Fiscal 2015 Financial Results PR Newswire  - May 13, 2015 VOXX International Corporation  has grown into a worldwide leader in many automotive and consumer electronics and accessories categories, as well as premium high-end audio.'
p6
aS"VOXX International Corporation Directors Elected At Annual Shareholders Meeting PR Newswire  - Jul 28, 2015 HAUPPAUGE, N.Y., July 28, 2015 /PRNewswire/ -- VOXX International Corporation , today announced that all of the eight nominees to its Board of Directors were elected at the Company's Fiscal 2015 Annual Meeting of Shareholders."
p7
aS'VOXX International Corp  Rating Increased to Hold at Zacks Investment ... The Cerbat Gem - Mar 25, 2017 VOXX International Corp  was upgraded by Zacks Investment Research from a sell rating to a hold rating in a research report issued to clients and investors on Saturday.Latest Stocks: VOXX International Corporation  Position Held by Spark ... - Petro Global News 24Zacks Investment Research upgraded VOXX International Corp  to ... - Breaking Finance News'
p8
aS'VOXX International Corporation Makes Key Leadership Appointments Dealerscope - Mar 3, 2016 First, Tom Malonewho was recently inducted into the Dealerscope Hall of Famewas named president of VOXX Advanced Solutions, a division of VOXX International Corporation. And VOXXHirschmann Corporation, a wholly-owned subsidiary of VOXX&nbsp;...'
p9
aS'VOXX to build new Orlando manufacturing center, headquarters Orlando Sentinel - Jan 12, 2015 Car electronics manufacturer Voxx International Corp. is beginning construction on a new, $17 million manufacturing center and executive offices in South Orlando, the company announced Monday.Governor Scott Announces 134 New Jobs At VOXX International - PR Newswire '
p10
a.