(lp0
S'Is Vermillion Inc  Financially Strong Enough To Weather A Storm? Simply Wall St - 8 hours ago Vermillion Inc  is a small-cap company - a market capitalization of less than $2 billion. Such companies have the highest growth potential, primarily due to their small-size.Vermillion, Inc.  Scheduled to Post Quarterly Earnings on Wednesday - The Cerbat GemNext Weeks Broker Price Targets For Vermillion, Inc.  - Fiscal Standard'
p1
aS'ASPiRA LABs Announces Contracted In-Network Agreement with Blue Cross Blue ... PR Newswire  - Mar 1, 2017 &quot;We are pleased to announce our Blue Cross Blue Shield of Michigan agreement for OVA1 ,&quot; said Valerie Palmieri, President and CEO of Vermillion, Inc. &quot;We continue to execute on our managed care strategy, which has direct impact on access for&nbsp;...'
p2
aS'Vermillion Announces FDA Clearance of Overa, Second Generation OVA1 Test PR Newswire  - Mar 21, 2016 AUSTIN, Texas, March 21, 2016 /PRNewswire/ -- Vermillion, Inc. , a bio-analytical solutions company focused on gynecologic disease, announced today the receipt of 510 marketing clearance from the U.S.'
p3
aS'Vermillion, Inc.  Pops Higher on New Investment The Oracle Dispatch - Feb 18, 2017 Vermillion, Inc.  is a diagnostics firm with strong growth on the top line in its latest reports. The stock has started to rip higher recently.Vermillion, Inc.  Insider Acquires $864823.40 in Stock - The Cerbat GemValerie Barber Palmieri Purchases 10042 Shares of Vermillion, Inc.  Stock - Sports Perspectives'
p4
aS"Vermillion and ASPiRA LABs Applaud the FDA's Position on Ovarian Cancer Screening PR Newswire  - Sep 9, 2016 Vermillion, Inc. is dedicated to the discovery, development and commercialization of novel high-value diagnostic and bio-analytical solutions that help physicians diagnose, treat and improve gynecologic health outcomes for women."
p5
aS"Given Its Low Debt-Load, Is Vermillion Inc  A Financially Sound Company? Simply Wall St - Mar 4, 2017 Vermillion Inc , with a market capitalization of USD $137 Million, is considered a small-cap company. Although such businesses are the ones which could grow the most, they are also highly prone to a downturn in the country's economy or&nbsp;..."
p6
aS'Vermillion to Showcase Comparison of Overa and ROMA Algorithms at ACOG ... PR Newswire  - May 16, 2016 AUSTIN, Texas, May 16, 2016 /PRNewswire/ -- Vermillion, Inc. , a bio-analytical solutions company today announced positive top line results from a study entitled, &quot;Clinical Performance Comparison of Two IVDMIAs for Pre-Surgical&nbsp;...'
p7
aS'Vermillion Strengthens Board of Directors with Appointments of Veronica Jordan ... PR Newswire  - Dec 12, 2014 12, 2014 /PRNewswire/ -- Vermillion, Inc. , a bio-analytical solutions company focused on gynecologic disease, announced today the appointments of Veronica G. H. Jordan, Ph.'
p8
aS'EPS for Vermillion, Inc.  Expected At $0.00, Profile of 4 Analysts ... MoneyMakingArticles - 19 hours ago Among 5 analysts covering Enerflex , 4 have Buy rating, 0 Sell and 1 Hold. Therefore 80% are positive. Enerflex had 24 analyst reports since July 21, 2015 according to SRatingsIntel.'
p9
aS"Vermillion, Inc.  to Release Earnings on Wednesday Chaffey Breeze - Mar 27, 2017 Enter your email address below to receive a concise daily summary of the latest news and analysts' ratings for Vermillion Inc. and related companies with MarketBeat.com's FREE daily ratings newsletter."
p10
a.