(lp0
S'Vishay Intertechnology Automotive Grade Power Metal Strip Battery Shunt ... GlobeNewswire  - Mar 27, 2017 MALVERN, Pa., March 27, 2017  -- Vishay Intertechnology, Inc.  today announced a new Automotive Grade Power Metal Strip battery shunt resistor that offers a 36 W power capacity in the 8518 case size with tin plating on&nbsp;...'
p1
aS'Vishay Intertechnology High Speed PIN Photodiode Delivers Precise Signal ... GlobeNewswire  - Mar 22, 2017 MALVERN, Pa., March 22, 2017  -- Vishay Intertechnology, Inc.  today broadens its optoelectronics portfolio with the introduction of a new high speed silicon PIN photodiode with enhanced sensitivity for visible light.Buy, Sell or Hold? Analysts Approach: Vishay Intertechnology, Inc. (VSH ... - The USA CommerceRisk Malaise Alert in Option Market: Vishay Intertechnology Inc Implied Price ... - CML News'
p2
aS"Vishay Intertechnology  Appoints Raanan Zilberman to Its Board of Directors StreetInsider.com - Feb 27, 2017 Vishay Intertechnology, Inc., , one of the world's largest manufacturers of discrete semiconductors and passive electronic components, announced the appointment, effective February 23, 2017, of a new independent member to its Board of&nbsp;...Vishay Intertechnology Inc.  Moves Lower on Volume Spike for February 28 - Equities.com"
p3
aS'Vishay Intertechnology Native Top-View IR Receivers in Through-Hole Package ... GlobeNewswire  - Mar 6, 2017 MALVERN, Pa., March 06, 2017  -- Vishay Intertechnology, Inc.  today broadened its optoelectronics portfolio with the introduction of two new series of miniature infrared  receiver modules for IR remote control&nbsp;...Should income investors buy Vishay Intertechnology Inc  before its ex ... - Simply Wall StThe Vishay Intertechnology  Stake Decreased by Loomis Sayles &amp; Co. LP - DailyQuint'
p4
aS'Belden Inc versus Vishay Intertechnology Inc Head to Head Compare CML News - 17 hours ago Belden Inc has a substantially higher fundamental rating then Vishay Intertechnology Inc which has an impact on the head-to-head comparison.'
p5
aS'Vishay Intertechnology, Inc.  Ex-Dividend Date Scheduled for March 10, 2017 Nasdaq - Mar 9, 2017 Vishay Intertechnology, Inc.  will begin trading ex-dividend on March 10, 2017. A cash dividend payment of $0.063 per share is scheduled to be paid on March 29, 2017.'
p6
aS'Vishay Intertechnology, Inc.  Files An 8-K Other Events Market Exclusive - Feb 17, 2017 Vishay Intertechnology, Inc. is a global manufacturer and supplier of discrete semiconductors and passive components. The Company operates through five segments.'
p7
aS"Vishay Intertechnology's  CEO Gerald Paul on Q4 2016 Results - Earnings ... Seeking Alpha - Feb 7, 2017 Good morning and welcome to Vishay Intertechnology's fourth quarter and year 2016 conference call. With me today are Dr.Featured Stock to See: Vishay Intertechnology Inc.  - HugoPressVishay Intertechnology, Inc.  Scheduled to Post Earnings on Tuesday - Sports Perspectives"
p8
aS"Today's Brokerage Rating: Masimo Corporation , Vishay Intertechnology ... StockNewsJournal - Mar 23, 2017 Vishay Intertechnology, Inc. , maintained return on investment for the last twelve months at 1.86, higher than what Reuters data shows regarding industry's average."
p9
aS'Next Weeks Broker Price Targets For Vishay Intertechnology, Inc.  Fiscal Standard - 17 hours ago Stock market analysts and brokers have recently amended their target prices on shares of Vishay Intertechnology, Inc. .'
p10
a.