(lp0
S'A New Kind of Stock Chart: Verastem Inc  Critical Pivot Points CML News - 21 hours ago This is a real time view of the critical technical pivot points for Verastem Inc  . The technical pivot points we look at all surround the stock price movement from the last 10-trading days through the last year.'
p1
aS'HC Wainwright Increases Verastem Inc  Price Target to $6.50 Chaffey Breeze - 18 hours ago Verastem logo Verastem Inc  had its price target upped by HC Wainwright from $5.00 to $6.50 in a research report issued to clients and investors on Friday.Verastem Inc  Closed 2016 With $80.9 Million In Cash/Cash ... - StockNewsUnionVerastem Inc  Shares Up 6% on Analyst Upgrade - BNB Daily '
p2
aS"What Analysts are Predicting For Sanchez Energy Corporation , Verastem ... The USA Commerce - Mar 27, 2017 Shares of Sanchez Energy Corporation  surged 0.89% to $9.07. During the trading on 03/24/2017, Company's stock ranged from $9.23 to $8.96."
p3
aS"Buy or Sell? What Analysts Recommends: Verastem, Inc. , Fox Factory ... StockNewsJournal - Mar 27, 2017 Investors who are keeping close eye on the stock of Verastem, Inc.  established that the company was able to keep return on investment at -41.50 in the trailing twelve month while Reuters data showed that industry's average stands at -2.56&nbsp;..."
p4
aS"Top Bullish Mover of Monday: Verastem, Inc.'s  stock price finalizes at ... WsNews 4investors - 16 hours ago Verastem, Inc.  stock price distance from twenty day simple moving average surged at 43.28% while its distance from fifty day simple moving average raised 51.61% along with 49.90% above distance from two hundred simple moving averages."
p5
aS'Act On Key Analyst Price Target Shifts: Verastem, Inc. , Helios and ... USA Commerce Daily - Mar 28, 2017 Shares of Verastem, Inc.  are making a strong comeback as they have jumped 83.81% since bottoming out at $1.05 on Dec. 06, 2016.'
p6
aS"Take a look at Price Fluctuations: Verastem, Inc.'s  Is stories - 21 hours ago Verastem, Inc.'s  witnessed a gain of 16.27% in recent trading period with closing price of $ 1.93. The company's last traded volume of 0.92 million shares was above it's an average volume of 0.26 million shares."
p7
aS'Predictive Movement Analysis of Verastem, Inc.  The Oracle Examiner - 21 hours ago While predicting the next move of Verastem, Inc. , volatility is an important factor to look at. Currently Verastem, Inc.  has weekly volatility of 12.61%% and monthly volatility of 8.72%%. In the words of investopedia.com, volatility ...'
p8
aS'Verastem to Present at the Oppenheimer 27th Annual Healthcare Conference Yahoo Finance - Mar 15, 2017 Verastem, Inc. , focused on discovering and developing drugs to treat cancer, today announced that the company will present at the Oppenheimer 27th Annual Healthcare Conference on Tuesday, March 21st at 2:10 p.m. ET at the Westin Grand&nbsp;...'
p9
aS'Verastem to Present at the Oppenheimer 27 Business Wire  - Feb 22, 2017 BOSTON----Verastem, Inc. , focused on discovering and developing drugs to treat cancer, today announced that the company will present at the Oppenheimer 27th Annual Healthcare Conference on Tuesday, March 21st at&nbsp;...'
p10
a.