(lp0
S'Should You Expect Wellesley Bancorp Inc  To Deliver A Superior ROE To ... Simply Wall St - Mar 22, 2017 Wellesley Bancorp Inc  delivered 5.5% ROE over the past year, compared to 9.28% generated by its industry. While an inferior ROE points towards a relatively inefficient performance, knowing the nuts and bolts of ROE calculation may&nbsp;...'
p1
aS'Wellesley Bancorp, Inc. Declares Quarterly Dividend Yahoo Finance - Feb 22, 2017 WELLESLEY, Mass., Feb. 22, 2017 /PRNewswire/ -- Wellesley Bancorp, Inc.  , the holding company for Wellesley Bank today announced that on February 22, 2017 its Board of Directors approved a quarterly&nbsp;...WELLESLEY BANCORP, INC.  Files An 8-K Other Events - Market Exclusive'
p2
aS'Wellesley Bancorp, Inc. Announces Date Of 2017 Annual Meeting Of Shareholders Yahoo Finance - Feb 13, 2017 Wellesley Bank and its wholly-owned wealth management company, Wellesley Investment Partners, LLC, are subsidiaries of Wellesley Bancorp, Inc. Wellesley Bank provides comprehensive premier banking and wealth management services to successful&nbsp;...'
p3
aS'Wellesley Bancorp, Inc. Appoints Kathryn M. Hinderhofer As Director PR Newswire  - Sep 21, 2016 WELLESLEY, Mass., Sept. 21, 2016 /PRNewswire/ -- Wellesley Bancorp, Inc.  , the parent company of Wellesley Bank , today announced that Kathryn M. Hinderhofer has been appointed as a member of the Board&nbsp;...'
p4
aS"Why Wellesley Bancorp Inc  Delivered An Inferior ROE Compared To The ... Simply Wall St - Mar 3, 2017 Wellesley Bancorp Inc  generated a 5.5% ROE in the last year, compared to its industry's 9.83% ROE. But the profitability ratio, often called 'the mother of all ratios', reflects a company's performance both on its income statement and ..."
p5
aS'WELLESLEY BANCORP, INC.  Files An 8-K Departure of Directors or ... Market Exclusive - Mar 10, 2017 On March 6, 2017, Eloise C. Thibault notified Wellesley Bancorp, Inc.  and Wellesley Bank  that she intends to retire from her position as Corporate Secretary of the Company and Vice President and Treasurer of the Bank ...'
p6
aS'Wellesley Bancorp Inc  to Issue Quarterly Dividend of $0.04 on March 22nd Sports Perspectives - Feb 24, 2017 Wellesley Bancorp logo Wellesley Bancorp Inc  declared a quarterly dividend on Thursday, February 23rd. Stockholders of record on Monday, March 6th will be given a dividend of 0.04 per share on Wednesday, March 22nd.'
p7
aS'The Wellesley Bancorp Inc Announces Quarterly Dividend of $0.04  DailyQuint - Mar 1, 2017 Wellesley Bancorp Inc  announced a quarterly dividend on Thursday, February 23rd. Investors of record on Monday, March 6th will be given a dividend of 0.04 per share on Wednesday, March 22nd.'
p8
aS'Wellesley Bancorp Inc  Announces $0.04 Quarterly Dividend Sports Perspectives - Feb 25, 2017 Wellesley Bancorp logo Wellesley Bancorp Inc  announced a quarterly dividend on Thursday, February 23rd. Stockholders of record on Monday, March 6th will be paid a dividend of 0.04 per share on Wednesday, March 22nd.'
p9
aS'RBC Capital Mkts Reports Inmarsat  Upgrade from Sector Perform ... NormanObserver.com - 18 hours ago Wellesley Bancorp, Inc. is the holding firm for Wellesley Bank . The company has market cap of $63.91 million. The Bank operates as a community-oriented financial institution offering traditional financial services to clients and businesses.'
p10
a.