(lp0
S'Halliburton and Weatherford International Experience Higher Operating Costs in ... Yahoo Finance - 17 hours ago NEW YORK, NY / ACCESSWIRE / March 28, 2017 / Halliburton and Weatherford both made announcements yesterday that will impact their first quarter financial reports to investors.New Schlumberger, Weatherford JV takes aim at Halliburton - WorldOil A Rare Win-Win Scenario For Weatherford And Schlumberger - Benzinga'
p1
aS'Weatherford International plc   Moves Higher on Volume Spike for ... Equities.com - Mar 27, 2017 Weatherford International plc   traded on unusually high volume on Mar. 27, as the stock gained 7.98% to close at $6.36.Unusual Volume Spikes For: Weatherford International plc  - HugoPressInstitutions Continue To Be Top Holders in Weatherford International plc (NYSE ... - Midway Monitor'
p2
aS"Is their more upside for Weatherford International Plc  FX Daily Report - Mar 8, 2017 Analysts have been bullish on Weatherford International Plc  in this month. Clarkson Capital enhanced their rating from Neutral while Cowen and Company reiterated their Outperform rating.Weatherford International: Euphoria From New CEO Begins To Fade - BenzingaUPDATE 1-Weatherford International names Halliburton's McCollum as CEO - Reuters UK"
p3
aS'Weatherford International plc   Moves Lower on Volume Spike for ... Equities.com - Mar 14, 2017 Weatherford International plc   traded on unusually high volume on Mar. 14, as the stock lost 5.38% to close at $5.98.Crazy Volume Spikes for: Weatherford International plc  - HugoPressVetr Downgrades Weatherford Following CEO Announcement - Benzinga'
p4
aS"Schlumberger and Weatherford form JV targeting North America Houston Business Journal - Mar 24, 2017 Schluberger Ltd.  and Weatherford International PLC  announced March 24 they're forming a joint venture to provide completions products and services, targeting unconventional resource plays in North America.New Schlumberger Venture Takes Aim at Toppling King of Fracking - BloombergSchlumberger, Weatherford to form joint venture - Daily Mail"
p5
aS"Most recent Trading report: Weatherford International plc  Is stories - Mar 22, 2017 Weatherford International plc's  witnessed a loss of -1.13% in recent trading period with closing price of $ 6.11.Weatherford International plc  hit its 52 Week low of $3.73 on Nov 8, 2016 - The Newburgh PressWeatherford International plc declined in the Previous Trading Session with ... - Free Observer"
p6
aS"Most Active Stock Update: Weatherford International plc  HugoPress - Mar 24, 2017 Clarksons Platou Upgrades Weatherford International plc 's stock to Neutral with no specific Price Target. This rating was issued on 3/08/17."
p7
aS"Weatherford International plc  Quant Investor Update Business Review - Mar 28, 2017 Weatherford International plc  currently has a Q.i. Value of 72.00000. Checking in on some valuation rankings, Weatherford International plc  has a Value Composite score of 77. Developed by James O'Shaughnessy, the VC score&nbsp;..."
p8
aS'Weatherford International Plc  Earns Buy Rating from Analysts at Tudor ... Community Financial News - Mar 9, 2017 Finally, Jefferies Group LLC downgraded Weatherford International Plc from a buy rating to a hold rating and set a $6.00 price objective for the company.'
p9
aS'Street Consensus Update on Rexahn Pharmaceuticals, Inc.  Weatherford ... Rives Journal - Mar 27, 2017 Brokerage firms currently have a positive stance on shares of Rexahn Pharmaceuticals, Inc. . The majority of analysts covering the equity have either a Buy or Strong Buy recommendation on the stock, yielding a consensus score of 1.50.'
p10
a.