(lp0
S"Today Analysts Focus on Oclaro, Inc. , Whiting Petroleum Corporation  StockNewsJournal - 20 hours ago Whiting Petroleum Corporation , at its latest closing price of $8.31, it has a price-to-book ratio of 0.58, compared to an industry average at 0.54.Putting Whiting Petroleum's Cash Flow In Perspective - Seeking AlphaActive Volume Stock: Whiting Petroleum Corp.  - HugoPress"
p1
aS"Whiting Petroleum - The Risks Are As High As Ever Seeking Alpha - Mar 3, 2017 The plan by Whiting Petroleum  to spend $1.1 billion on capital expenditures in 2017 raises concerns in light of several credit-related ratios moving in the wrong direction since 2015, despite the narrative of deleveraging last year.What are Analyst's Indicators for CyrusOne Inc. , Whiting Petroleum ... - The USA Commerce"
p2
aS'Whiting Petroleum Corp  is Attracting Smart Money Small Cap Exclusive  - Mar 7, 2017 In a just published Form 13, filed with the US Securities and Exchange Commission , Whiting Petroleum Corp  reported that Senator Investment Group has picked up 21,500,000 of common stock as of 2017-03-06.'
p3
aS"Whiting Petroleum Corporation : The Technicals As Seen Today NY Stock News - 13 hours ago Whiting Petroleum Corporation  has presented a rich pool of technical data in recent sessions. These are the trends we've been tracking and how we feel they should be played in the current environment."
p4
aS'SHAREHOLDER ALERT: Purcell Julie &amp; Lefkowitz LLP Is Investigating Whiting ... Yahoo Finance - Mar 20, 2017 NEW YORK, NY / ACCESSWIRE / March 20, 2017 / Purcell Julie &amp; Lefkowitz LLP, a class action law firm dedicated to representing shareholders nationwide, is investigating a potential breach of fiduciary duty claim involving the board of directors of ...'
p5
aS"Crazy Volume Spikes for: Whiting Petroleum Corp.  HugoPress - Mar 24, 2017 UBS Downgrades Whiting Petroleum Corp. 's stock to Sell with no specific Price Target. This rating was issued on 3/23/17.Whiting Petroleum Corp. performed Poor with a change of -0.71% in the Last Trade - Free Observer"
p6
aS'Right time to invest?  Whiting Petroleum Corporation , Brookdale Senior ... USA Commerce Daily - 19 hours ago Shares of Whiting Petroleum Corporation  are on a recovery track as they have regained 30.25% since bottoming out at $6.38 on Aug. 01, 2016.'
p7
aS'Whiting Petroleum  Shares Cross Below 200 DMA Nasdaq - Mar 8, 2017 In trading on Wednesday, shares of Whiting Petroleum Corp  crossed below their 200 day moving average of $9.89, changing hands as low as $9.21 per share.Hot Stock Update: Whiting Petroleum Corp.  - HugoPress'
p8
aS"Whiting Petroleum Corporation President and CEO James J. Volker to Present at ... Business Wire  - Mar 6, 2017 DENVER----Whiting Petroleum Corporation  today announced that James J. Volker, Whiting's President and CEO, will present at the Raymond James Institutional Investors Conference at the JW Marriott Grande Lakes in&nbsp;..."
p9
aS"Unusual Volume Spikes For: Whiting Petroleum Corp.  HugoPress - Mar 22, 2017 Wells Fargo Downgrades Whiting Petroleum Corp. 's stock to Market Perform with no specific Price Target. This rating was issued on 12/16/16."
p10
a.