(lp0
S'Why Is WPX Energy  Down 9.7% Since the Last Earnings Report? Nasdaq - 23 hours ago A month has gone by since the last earnings report for WPX Energy, Inc. WPX . Shares have lost about 9.7% in that time frame, underperforming the market.Latest Stocks: The Scotiabank Reaffirms Buy Rating for WPX Energy Inc  - Petro Global News 24Stock Showing Surging Activity: WPX Energy, Inc.  - HugoPress'
p1
aS'What WPX Energy, Inc.  Is Telling Investors Via Its Technical Chart NY Stock News - 16 hours ago WPX Energy, Inc.  has created a compelling message for traders in the most recent trading. That message has grown stronger as the technical chart setup has developed into a more composite picture for the stock.'
p2
aS'Trade of the Day: WPX Energy Inc  Stock Surging Again Investorplace.com - Feb 28, 2017 WPX Energy Inc  - WPX was first reviewed by me on April 12, 2016, suggesting a buy at $7 with a target of $8.50. I am obviously delighted by the subsequent advance, but at the same time wish that I had followed the sell signal on Jan. 5 at ...175 institutional investors are raising stakes in WPX Energy, Inc.  - Post AnalystWPX Energy Inc  Upgraded to Buy by Zacks Investment Research - The Cerbat Gem'
p3
aS'The Dirty Secret to Trading Under Armour, Inc. , WPX Energy, Inc.  USA Commerce Daily - Mar 27, 2017 Shares of Under Armour, Inc.  observed rebound of 6.51% since bottoming out at $17.05 on Mar. 22, 2017. Thanks to a rise of almost 0.44% in the past five days, the stock price is now down -27.85% so far on the year - still in weak territory.'
p4
aS"Pulse Biosciences, Inc. , WPX Energy, Inc.  Stock Eyes Ahead of ... The USA Commerce - Mar 27, 2017 Shares of Pulse Biosciences, Inc.  surged 17.19% to $30.34. During the trading on 03/24/2017, Company's stock ranged from $30.61 to $25.62. The relative strength index or RSI highlights overbought  and oversold &nbsp;..."
p5
aS'WPX Energy, Inc.  And Its Technicals Provide Timely Picture NY Stock News - Mar 27, 2017 The technicals for WPX Energy, Inc.  has spoken via its technical chart and the message is loud and clear. Based on that message, this is the relevant information necessary to make sense of that current setup.'
p6
aS'Drilling Down Into WPX Energy, Inc.  StockNewsJournal - Mar 17, 2017 WPX Energy, Inc.  is an interesting player in the Basic Materials space, with a focus on Independent Oil &amp; Gas.Buy, Sell or Hold? Analysts Approach: WPX Energy, Inc. , Denbury ... - The USA CommerceMost Active Stock Update: WPX Energy, Inc.  - HugoPress'
p7
aS'Oil and Gas Stocks Under Review -- Denbury Resources, WPX Energy ... PR Newswire  - Mar 27, 2017 Stock-Callers.com today focuses on four Independent Oil and Gas stocks to see how they have fared at the close of the last trading session.'
p8
aS'WPX Energy Breaks Below 200-Day Moving Average - Notable for WPX Nasdaq - Mar 8, 2017 In trading on Wednesday, shares of WPX Energy, Inc.  crossed below their 200 day moving average of $12.17, changing hands as low as $11.85 per share.Mover inside Traders Limelight: WPX Energy, Inc.  - Is stories'
p9
aS'Trading Sheet: Watching the Levels for WPX Energy, Inc.  The Standard - Mar 28, 2017 Tracking shares of WPX Energy, Inc. , the company has a current EV  of 7697632. Enterprise Value measures the total value of a specific company.'
p10
a.