(dp0
S'200509'
p1
(lp2
sS'200508'
p3
(lp4
sS'200505'
p5
(lp6
sS'200504'
p7
(lp8
sS'200507'
p9
(lp10
sS'200506'
p11
(lp12
sS'200501'
p13
(lp14
sS'200503'
p15
(lp16
sS'200502'
p17
(lp18
sS'200511'
p19
(lp20
sS'201006'
p21
(lp22
sS'200211'
p23
(lp24
sS'200210'
p25
(lp26
sS'201207'
p27
(lp28
sS'200212'
p29
(lp30
sS'201201'
p31
(lp32
sS'201203'
p33
(lp34
sS'201202'
p35
(lp36
sS'201111'
p37
(lp38
sS'201110'
p39
(lp40
sS'201112'
p41
(lp42
sS'200001'
p43
(lp44
sS'200002'
p45
(lp46
sS'200003'
p47
(lp48
sS'200004'
p49
(lp50
sS'200005'
p51
(lp52
sS'200006'
p53
(lp54
sS'200007'
p55
(lp56
sS'200008'
p57
(lp58
sS'200009'
p59
(lp60
sS'201005'
p61
(lp62
sS'201004'
p63
(lp64
sS'201305'
p65
(lp66
sS'201209'
p67
(lp68
sS'200808'
p69
(lp70
sS'200809'
p71
(lp72
sS'200801'
p73
(lp74
sS'200802'
p75
(lp76
sS'200803'
p77
(lp78
sS'200804'
p79
(lp80
sS'200805'
p81
(lp82
sS'200806'
p83
(lp84
sS'200807'
p85
(lp86
sS'200404'
p87
(lp88
sS'200405'
p89
(lp90
sS'200406'
p91
(lp92
sS'200407'
p93
(lp94
sS'200401'
p95
(lp96
sS'200402'
p97
(lp98
sS'200403'
p99
(lp100
sS'200910'
p101
(lp102
sS'200408'
p103
(lp104
sS'200012'
p105
(lp106
sS'200011'
p107
(lp108
sS'200010'
p109
(lp110
sS'199810'
p111
(lp112
sS'199811'
p113
(lp114
sS'199812'
p115
(lp116
sS'200810'
p117
(lp118
sS'201008'
p119
(lp120
sS'200309'
p121
(lp122
sS'200308'
p123
(lp124
sS'199612'
p125
(lp126
sS'199610'
p127
(lp128
sS'199611'
p129
(lp130
sS'200412'
p131
(lp132
sS'200411'
p133
(lp134
sS'200410'
p135
(lp136
sS'200512'
p137
(lp138
sS'199803'
p139
(lp140
sS'199802'
p141
(lp142
sS'199801'
p143
(lp144
sS'199807'
p145
(lp146
sS'199806'
p147
(lp148
sS'199805'
p149
(lp150
sS'199804'
p151
(lp152
sS'199809'
p153
(lp154
sS'199808'
p155
(lp156
sS'200710'
p157
(lp158
sS'201308'
p159
(lp160
sS'201309'
p161
(lp162
sS'200711'
p163
(lp164
sS'201304'
p165
(lp166
sS'200307'
p167
(lp168
sS'201306'
p169
(lp170
sS'201307'
p171
(lp172
sS'200712'
p173
(lp174
sS'201302'
p175
(lp176
sS'199709'
p177
(lp178
sS'199609'
p179
(lp180
sS'199608'
p181
(lp182
sS'201312'
p183
(lp184
sS'199605'
p185
(lp186
sS'200905'
p187
(lp188
sS'199607'
p189
(lp190
sS'199606'
p191
(lp192
sS'200904'
p193
(lp194
sS'201109'
p195
(lp196
sS'200906'
p197
(lp198
sS'200812'
p199
(lp200
sS'200709'
p201
(lp202
sS'200708'
p203
(lp204
sS'200707'
p205
(lp206
sS'200706'
p207
(lp208
sS'200705'
p209
(lp210
sS'200704'
p211
(lp212
sS'200703'
p213
(lp214
sS'200702'
p215
(lp216
sS'200701'
p217
(lp218
sS'201205'
p219
(lp220
sS'201204'
p221
(lp222
sS'201210'
p223
(lp224
sS'201311'
p225
(lp226
sS'201310'
p227
(lp228
sS'201206'
p229
(lp230
sS'201010'
p231
(lp232
sS'201011'
p233
(lp234
sS'201012'
p235
(lp236
sS'200310'
p237
(lp238
sS'200311'
p239
(lp240
sS'200312'
p241
(lp242
sS'201211'
p243
(lp244
sS'200409'
p245
(lp246
sS'201007'
p247
(lp248
sS'200912'
p249
(lp250
sS'199908'
p251
(lp252
sS'199909'
p253
(lp254
sS'201003'
p255
(lp256
sS'201002'
p257
(lp258
sS'201001'
p259
(lp260
sS'199902'
p261
(lp262
sS'199903'
p263
(lp264
sS'199901'
p265
(lp266
sS'199906'
p267
(lp268
sS'199907'
p269
(lp270
sS'199904'
p271
(lp272
sS'199905'
p273
(lp274
VA partial list for this week.
p275
asS'199704'
p276
(lp277
sS'199705'
p278
(lp279
sS'199706'
p280
(lp281
sS'199707'
p282
(lp283
sS'199701'
p284
(lp285
sS'199702'
p286
(lp287
sS'199703'
p288
(lp289
sS'200303'
p290
(lp291
sS'200302'
p292
(lp293
sS'200301'
p294
(lp295
sS'199708'
p296
(lp297
sS'200306'
p298
(lp299
sS'200305'
p300
(lp301
sS'200304'
p302
(lp303
sS'200811'
p304
(lp305
sS'200112'
p306
(lp307
sS'200110'
p308
(lp309
sS'200111'
p310
(lp311
sS'201208'
p312
(lp313
sS'201301'
p314
(lp315
sS'200606'
p316
(lp317
sS'200607'
p318
(lp319
sS'200604'
p320
(lp321
sS'200605'
p322
(lp323
sS'200602'
p324
(lp325
sS'200603'
p326
(lp327
VLIKE a crazed doomsayer who keeps changing the date on his poster foretelling the end of the world, economists have been saying since last summer that the Federal Reserve is about to stop raising interest rates. They will be correct eventually, so how should investors in the stock market prepare for the event? When interest rates top out, the stock market typically rallies in gratitude that credit conditions will become no worse, investment advisers note. But uncertainty about when the current tightening cycle will end, and concern that a rate peak will also herald slower growth in the economy and corporate earnings, leave much difference of opinion about what portfolio adjustments to make -- and when to make them.
p328
asS'200601'
p329
(lp330
sS'201303'
p331
(lp332
sS'200911'
p333
(lp334
sS'200608'
p335
(lp336
sS'200609'
p337
(lp338
sS'199911'
p339
(lp340
sS'199910'
p341
(lp342
sS'199912'
p343
(lp344
sS'199712'
p345
(lp346
sS'199711'
p347
(lp348
sS'199710'
p349
(lp350
sS'201009'
p351
(lp352
sS'201212'
p353
(lp354
sS'200109'
p355
(lp356
sS'200108'
p357
(lp358
sS'201108'
p359
(lp360
sS'200101'
p361
(lp362
sS'200103'
p363
(lp364
sS'200102'
p365
(lp366
sS'200105'
p367
(lp368
sS'200104'
p369
(lp370
sS'200107'
p371
(lp372
VWall Street began its fiscal third quarter on a mostly positive note yesterday as blue chips shrugged off an earnings warning from Minnesota Mining and Manufacturing to rally on some better-than-expected economic news. Technology stocks were more mixed, as investors cashed in those holdings to take advantage of last week's strong performance. Analysts said the selling reflected investors' worries about the future.
p373
asS'200106'
p374
(lp375
sS'200901'
p376
(lp377
sS'201106'
p378
(lp379
sS'200903'
p380
(lp381
sS'200902'
p382
(lp383
sS'200611'
p384
(lp385
sS'200610'
p386
(lp387
sS'200907'
p388
(lp389
sS'200612'
p390
(lp391
sS'200909'
p392
(lp393
sS'200908'
p394
(lp395
sS'201104'
p396
(lp397
sS'201105'
p398
(lp399
sS'200202'
p400
(lp401
sS'200203'
p402
(lp403
sS'200201'
p404
(lp405
sS'200206'
p406
(lp407
sS'200207'
p408
(lp409
sS'200204'
p410
(lp411
sS'200205'
p412
(lp413
sS'200510'
p414
(lp415
sS'201107'
p416
(lp417
sS'200208'
p418
(lp419
sS'200209'
p420
(lp421
sS'201102'
p422
(lp423
sS'201103'
p424
(lp425
sS'201101'
p426
(lp427
s.