(dp0
S'200509'
p1
(lp2
sS'200508'
p3
(lp4
sS'200505'
p5
(lp6
sS'200504'
p7
(lp8
sS'200507'
p9
(lp10
sS'200506'
p11
(lp12
sS'200501'
p13
(lp14
sS'200503'
p15
(lp16
sS'200502'
p17
(lp18
sS'201205'
p19
(lp20
sS'201204'
p21
(lp22
sS'201207'
p23
(lp24
sS'201206'
p25
(lp26
sS'201201'
p27
(lp28
sS'201203'
p29
(lp30
sS'201202'
p31
(lp32
sS'201111'
p33
(lp34
sS'201110'
p35
(lp36
sS'201112'
p37
(lp38
sS'200808'
p39
(lp40
sS'200809'
p41
(lp42
sS'200801'
p43
(lp44
sS'200802'
p45
(lp46
sS'200803'
p47
(lp48
sS'200804'
p49
(lp50
sS'200805'
p51
(lp52
sS'200806'
p53
(lp54
sS'200807'
p55
(lp56
sS'200404'
p57
(lp58
sS'200405'
p59
(lp60
sS'200406'
p61
(lp62
sS'200407'
p63
(lp64
sS'200401'
p65
(lp66
sS'200402'
p67
(lp68
sS'200403'
p69
(lp70
sS'200408'
p71
(lp72
sS'200409'
p73
(lp74
sS'200812'
p75
(lp76
sS'200811'
p77
(lp78
sS'200810'
p79
(lp80
sS'200412'
p81
(lp82
sS'200411'
p83
(lp84
sS'200410'
p85
(lp86
sS'200710'
p87
(lp88
sS'200711'
p89
(lp90
sS'200712'
p91
(lp92
sS'201308'
p93
(lp94
sS'201309'
p95
(lp96
sS'201304'
p97
(lp98
sS'201305'
p99
(lp100
sS'201306'
p101
(lp102
sS'201307'
p103
(lp104
sS'201301'
p105
(lp106
sS'201302'
p107
(lp108
sS'201303'
p109
(lp110
sS'200905'
p111
(lp112
sS'200610'
p113
(lp114
sS'200906'
p115
(lp116
sS'200709'
p117
(lp118
sS'200708'
p119
(lp120
sS'200707'
p121
(lp122
sS'200706'
p123
(lp124
sS'200705'
p125
(lp126
sS'200704'
p127
(lp128
sS'200703'
p129
(lp130
sS'200702'
p131
(lp132
sS'200701'
p133
(lp134
sS'201312'
p135
(lp136
sS'201311'
p137
(lp138
sS'201310'
p139
(lp140
sS'201010'
p141
(lp142
sS'201011'
p143
(lp144
sS'201012'
p145
(lp146
sS'200310'
p147
(lp148
sS'200311'
p149
(lp150
sS'200312'
p151
(lp152
sS'200912'
p153
(lp154
sS'201007'
p155
(lp156
sS'201006'
p157
(lp158
sS'201005'
p159
(lp160
sS'201004'
p161
(lp162
sS'201003'
p163
(lp164
sS'201002'
p165
(lp166
sS'201001'
p167
(lp168
sS'201209'
p169
(lp170
sS'200910'
p171
(lp172
sS'201009'
p173
(lp174
sS'201008'
p175
(lp176
sS'200911'
p177
(lp178
sS'201208'
p179
(lp180
sS'200606'
p181
(lp182
sS'200607'
p183
(lp184
sS'200604'
p185
(lp186
sS'200605'
p187
(lp188
sS'200602'
p189
(lp190
sS'200603'
p191
(lp192
sS'200601'
p193
(lp194
sS'200608'
p195
(lp196
sS'200609'
p197
(lp198
sS'201210'
p199
(lp200
sS'201211'
p201
(lp202
sS'200512'
p203
(lp204
sS'200510'
p205
(lp206
sS'200511'
p207
(lp208
sS'200901'
p209
(lp210
sS'200903'
p211
(lp212
sS'200902'
p213
(lp214
sS'200611'
p215
(lp216
sS'200904'
p217
(lp218
sS'200907'
p219
(lp220
sS'200612'
p221
(lp222
sS'200909'
p223
(lp224
sS'200908'
p225
(lp226
sS'201212'
p227
(lp228
sS'201108'
p229
(lp230
sS'201109'
p231
(lp232
sS'201106'
p233
(lp234
sS'201107'
p235
(lp236
sS'201104'
p237
(lp238
sS'201105'
p239
(lp240
sS'201102'
p241
(lp242
sS'201103'
p243
(lp244
sS'201101'
p245
(lp246
s.