(dp0
S'NSE/SOFTTECHGR'
p1
S'Software Technology Group International Limited'
p2
sS'NSE/DENABANK'
p3
S'Dena Bank'
p4
sS'NSE/IFBIND'
p5
S'IFB Industries Limited'
p6
sS'NSE/CHETTINAD'
p7
S'Chettinad Cement Corporation Limited'
p8
sS'NSE/CMICABLES'
p9
S'CMI Limited'
p10
sS'NSE/UNIONBANK'
p11
S'Union Bank of India'
p12
sS'NSE/SHREERAMA'
p13
S'Shree Rama Multi-Tech Limited'
p14
sS'NSE/MALWACOTT'
p15
S'Malwa Cotton Spg. Mills Limited'
p16
sS'NSE/AKZOINDIA'
p17
S'Akzo Nobel India Limited'
p18
sS'NSE/UJJIVAN'
p19
S'UJJIVAN FINANCIAL SERVICES LIMITED'
p20
sS'NSE/SUNDARMFIN'
p21
S'Sundaram Finance Limited'
p22
sS'NSE/CGCL'
p23
S'Capri Global Capital Limited'
p24
sS'NSE/WELCORP'
p25
S'Welspun Corp Limited'
p26
sS'NSE/VRLLOG'
p27
S'VRL Logistics Limited'
p28
sS'NSE/DHANUS'
p29
S'Dhanus Technologies Limited'
p30
sS'NSE/NIFTY_100'
p31
S'National Stock Exchange of India (NSE) Stock Index - Nifty 100'
p32
sS'NSE/KEI'
p33
S'KEI Industries Limited'
p34
sS'NSE/TVVISION'
p35
S'TV Vision Limited'
p36
sS'NSE/QUICKHEAL'
p37
S'Quick Heal Technologies Limited'
p38
sS'NSE/SKSMICRO'
p39
S'SKS Microfinance Limited'
p40
sS'NSE/SCHNEIDER'
p41
S'Schneider Electric Infrastructure Limited'
p42
sS'NSE/SHAKTIPUMP'
p43
S'Shakti Pumps (India) Limited'
p44
sS'NSE/HITACHIHOM'
p45
S'Hitachi Home and Life Solutions (India) Limited'
p46
sS'NSE/DHARSUGAR'
p47
S'Dharani Sugars & Chemicals Limited'
p48
sS'NSE/PFS'
p49
S'PTC India Financial Services Limited'
p50
sS'NSE/TALWALKARS'
p51
S'Talwalkars Better Value Fitness Limited'
p52
sS'NSE/GMRINFRA'
p53
S'GMR Infrastructure Limited'
p54
sS'NSE/MIRZAINT'
p55
S'Mirza International Limited'
p56
sS'NSE/FEL'
p57
S'FUTURE ENTERPRISES LIMITED'
p58
sS'NSE/PFC'
p59
S'Power Finance Corporation Limited'
p60
sS'NSE/EMMBI'
p61
S'Emmbi Industries Limited'
p62
sS'NSE/ASTEC'
p63
S'Astec LifeSciences Limited'
p64
sS'NSE/INDIANCARD'
p65
S'Indian Card Clothing Company Limited'
p66
sS'NSE/CPSE_INDEX'
p67
S'National Stock Exchange of India (NSE) Stock Index - CPSE'
p68
sS'NSE/SKFINDIA'
p69
S'SKF India Limited'
p70
sS'NSE/DEEPIND'
p71
S'Deep Industries Limited'
p72
sS'NSE/CREWBOS'
p73
S'Crew B.O.S. Products Limited'
p74
sS'NSE/IBIPL'
p75
S'Indiabulls Infrastructure and Power Limited'
p76
sS'NSE/INOXLEISUR'
p77
S'INOX Leisure Limited'
p78
sS'NSE/PROVOGE'
p79
S'Provogue (India) Limited'
p80
sS'NSE/BIL'
p81
S'Bhartiya International Limited'
p82
sS'NSE/TFCILTD'
p83
S'Tourism Finance Corporation of India Limited'
p84
sS'NSE/MGL'
p85
S'Mahanagar Gas Limited'
p86
sS'NSE/INGERRAND'
p87
S'Ingersoll Rand (India) Limited'
p88
sS'NSE/ALBK'
p89
S'Allahabad Bank'
p90
sS'NSE/BHAGYNAGAR'
p91
S'Bhagyanagar India Limited'
p92
sS'NSE/DBREALTY'
p93
S'D B Realty Limited'
p94
sS'NSE/TNPL'
p95
S'Tamil Nadu Newsprint & Papers Limited'
p96
sS'NSE/KARURVYSYA'
p97
S'Karur Vysya Bank Limited'
p98
sS'NSE/SUVEN'
p99
S'Suven Life Sciences Limited'
p100
sS'NSE/HBSTOCK'
p101
S'HB Stockholdings Limited'
p102
sS'NSE/UNITECH'
p103
S'Unitech Limited'
p104
sS'NSE/ALMONDZ'
p105
S'Almondz Global Securities Limited'
p106
sS'NSE/UNIVCABLES'
p107
S'Universal Cables Limited'
p108
sS'NSE/CILNOVA'
p109
S'CIL Nova Petrochemicals Limited'
p110
sS'NSE/IIFLNIFTY'
p111
S'IIFL Mutual Fund - Nifty ETF'
p112
sS'NSE/GSFC'
p113
S'Gujarat State Fertilizers & Chemicals Limited'
p114
sS'NSE/NIFTY_FIN_SERVICE'
p115
S'National Stock Exchange of India (NSE) Stock Index - Nifty Financial Services'
p116
sS'NSE/HMT'
p117
S'HMT Limited'
p118
sS'NSE/HCC'
p119
S'Hindustan Construction Company Limited'
p120
sS'NSE/ORCHIDCHEM'
p121
S'Orchid Chemicals & Pharmaceuticals Limited'
p122
sS'NSE/MAXVIL'
p123
S'Max Ventures and Industries Limited'
p124
sS'NSE/GSCLCEMENT'
p125
S'Gujarat Sidhee Cement Limited'
p126
sS'NSE/DECOLIGHT'
p127
S'Decolight Ceramics Limited'
p128
sS'NSE/VTL'
p129
S'Vardhman Textiles Limited'
p130
sS'NSE/JSL'
p131
S'Jindal Stainless Limited'
p132
sS'NSE/MAHABANK'
p133
S'Bank of Maharashtra'
p134
sS'NSE/LAOPALA'
p135
S'La Opala RG Limited'
p136
sS'NSE/ALPA'
p137
S'Alpa Laboratories Limited'
p138
sS'NSE/TIPSINDLTD'
p139
S'TIPS Industries Limited'
p140
sS'NSE/STOREONE'
p141
S'Store One Retail India Limited'
p142
sS'NSE/VHL'
p143
S'Vardhman Holdings Limited'
p144
sS'NSE/CPIL'
p145
S'Career Point Infosystems Limited'
p146
sS'NSE/ABB'
p147
S'ABB India Limited'
p148
sS'NSE/ROHITFERRO'
p149
S'Rohit Ferro-Tech Limited'
p150
sS'NSE/GAMMNINFRA'
p151
S'Gammon Infrastructure Projects Limited'
p152
sS'NSE/CEBBCO'
p153
S'Commercial Engineers & Body Builders Co Limited'
p154
sS'NSE/JKLAKSHMI'
p155
S'JK Lakshmi Cement Limited'
p156
sS'NSE/DIGJAM'
p157
S'Digjam Limited'
p158
sS'NSE/SPANCO'
p159
S'Spanco Limited'
p160
sS'NSE/BIGBLOC'
p161
S'Bigbloc Construction Limited'
p162
sS'NSE/TAKE'
p163
S'Take Solutions Limited'
p164
sS'NSE/EICHERMOT'
p165
S'Eicher Motors Limited'
p166
sS'NSE/STAMPEDE'
p167
S'Stampede Capital Limited'
p168
sS'NSE/CNOVAPETRO'
p169
S'CIL Nova Petrochemicals Limited'
p170
sS'NSE/MERCATOR'
p171
S'Mercator Limited'
p172
sS'NSE/KINGFA'
p173
S'Kingfa Science & Technology (India) Limited'
p174
sS'NSE/CORPBANK'
p175
S'Corporation Bank'
p176
sS'NSE/GOLDIWIN'
p177
S'ICICI Prudential Gold Exchange Traded Fund'
p178
sS'NSE/KEC'
p179
S'KEC International Limited'
p180
sS'NSE/UGARSUGAR'
p181
S'The Ugar Sugar Works Limited'
p182
sS'NSE/SARLAPOLY'
p183
S'Sarla Performance Fibers Limited'
p184
sS'NSE/NOESISIND'
p185
S'Noesis Industries Limited'
p186
sS'NSE/HIRAFERRO'
p187
S'Hira Ferro Alloys Limited'
p188
sS'NSE/COMPINFO'
p189
S'Compuage Infocom Limited'
p190
sS'NSE/POWERGRID'
p191
S'Power Grid Corporation of India Limited'
p192
sS'NSE/RELGOLD'
p193
S'R* Shares Gold ETF'
p194
sS'NSE/MOLDTKPAC'
p195
S'Mold-Tek Packaging Limited'
p196
sS'NSE/UCOBANK'
p197
S'UCO Bank'
p198
sS'NSE/ASHIMASYN'
p199
S'Ashima Limited'
p200
sS'NSE/3MINDIA'
p201
S'3M India Limited'
p202
sS'NSE/UFO'
p203
S'UFO Moviez India Limited'
p204
sS'NSE/PENIND'
p205
S'Pennar Industries Limited'
p206
sS'NSE/GESHIP'
p207
S'The Great Eastern Shipping Company Limited'
p208
sS'NSE/TATAMOTORS'
p209
S'Tata Motors Limited'
p210
sS'NSE/BFINVEST'
p211
S'BF Investment Limited'
p212
sS'NSE/AUTOIND'
p213
S'Autoline Industries Limited'
p214
sS'NSE/ASHAPURMIN'
p215
S'Ashapura Minechem Limited'
p216
sS'NSE/JBFIND'
p217
S'JBF Industries Limited'
p218
sS'NSE/ISENSEX'
p219
S'ICICI Prudential Sensex ETF'
p220
sS'NSE/CPSEETF'
p221
S'CPSE ETF*'
p222
sS'NSE/ASTERSILI'
p223
S'Aster Silicates Limited'
p224
sS'NSE/ESSDEE'
p225
S'Ess Dee Aluminium Limited'
p226
sS'NSE/DALMIASUG'
p227
S'Dalmia Bharat Sugar and Industries Limited'
p228
sS'NSE/DISHTV'
p229
S'Dish TV India Limited'
p230
sS'NSE/LUMAXAUTO'
p231
S'Lumax Automotive Systems Limited'
p232
sS'NSE/SELAN'
p233
S'Selan Exploration Technology Limited'
p234
sS'NSE/NET4'
p235
S'Net 4 India Limited'
p236
sS'NSE/SICAGEN'
p237
S'Sicagen India Limited'
p238
sS'NSE/HINDSYNTEX'
p239
S'Hind Syntex Limited'
p240
sS'NSE/HNGSNGBEES'
p241
S'R*Shares Hang Seng BeES'
p242
sS'NSE/SOTL'
p243
S'Savita Oil Technologies Limited'
p244
sS'NSE/DUNCANSIND'
p245
S'Duncans Industries Limited'
p246
sS'NSE/RUCHINFRA'
p247
S'Ruchi Infrastructure Limited'
p248
sS'NSE/VICEROY'
p249
S'Viceroy Hotels Limited'
p250
sS'NSE/ITDCEM'
p251
S'ITD Cementation India Limited'
p252
sS'NSE/STAR'
p253
S'Strides Shasun Limited'
p254
sS'NSE/GSS'
p255
S'GSS Infotech Limited'
p256
sS'NSE/ASIL'
p257
S'Amit Spinning Industries Limited'
p258
sS'NSE/TVSMOTOR'
p259
S'TVS Motor Company Limited'
p260
sS'NSE/GULFPETRO'
p261
S'GP Petroleums Limited'
p262
sS'NSE/GTL'
p263
S'GTL Limited'
p264
sS'NSE/NIFTY100_LIQ_15'
p265
S'National Stock Exchange of India (NSE) Stock Index - Nifty100 LIQ 15'
p266
sS'NSE/NATIONALUM'
p267
S'National Aluminium Company Limited'
p268
sS'NSE/LGBBROSLTD'
p269
S'LG Balakrishnan & Bros Limited'
p270
sS'NSE/DHAMPURSUG'
p271
S'Dhampur Sugar Mills Limited'
p272
sS'NSE/GAYAPROJ'
p273
S'Gayatri Projects Limited'
p274
sS'NSE/NMDC'
p275
S'NMDC Limited'
p276
sS'NSE/SUBEX'
p277
S'Subex Limited'
p278
sS'NSE/SHOPERSTOP'
p279
S'Shoppers Stop Limited'
p280
sS'NSE/CYIENT'
p281
S'Cyient Limited'
p282
sS'NSE/MANUGRAPH'
p283
S'Manugraph India Limited'
p284
sS'NSE/ZYLOG'
p285
S'Zylog Systems Limited'
p286
sS'NSE/SAHPETRO'
p287
S'Sah Petroleums Limited'
p288
sS'NSE/ALFALAVAL'
p289
S'Alfa Laval (India) Limited'
p290
sS'NSE/FDC'
p291
S'FDC Limited'
p292
sS'NSE/ADANIPORTS'
p293
S'Adani Ports and Special Economic Zone Limited'
p294
sS'NSE/VARDHACRLC'
p295
S'Vardhman Acrylics Limited'
p296
sS'NSE/LOTUSEYE'
p297
S'Lotus Eye Care Hospital Limited'
p298
sS'NSE/CLASSIC'
p299
S'Classic Diamonds (India) Limited'
p300
sS'NSE/MONTECARLO'
p301
S'Monte Carlo Fashions Limited'
p302
sS'NSE/FTCSF5YDIV'
p303
S'Franklin Templeton Mutual Fund-Capital Safety Fund-5Y Dividend Option'
p304
sS'NSE/ENIL'
p305
S'Entertainment Network (India) Limited'
p306
sS'NSE/CAPF'
p307
S'Capital First Limited'
p308
sS'NSE/BODHTREE'
p309
S'Bodhtree Consulting Limited'
p310
sS'NSE/CENTUM'
p311
S'Centum Electronics Limited'
p312
sS'NSE/VSTIND'
p313
S'VST Industries Limited'
p314
sS'NSE/DAAWAT'
p315
S'LT Foods Limited'
p316
sS'NSE/SETF10GILT'
p317
S'SBIAMC - SETF10GILT'
p318
sS'NSE/HIRECT'
p319
S'Hind Rectifiers Limited'
p320
sS'NSE/NAUKRI'
p321
S'Info Edge (India) Limited'
p322
sS'NSE/ANDHRACEMT'
p323
S'Andhra Cements Limited'
p324
sS'NSE/RESURGERE'
p325
S'Resurgere Mines & Minerals India Limited'
p326
sS'NSE/SYNDIBANK'
p327
S'Syndicate Bank'
p328
sS'NSE/TARMAT'
p329
S'Tarmat Limited'
p330
sS'NSE/PSL'
p331
S'PSL Limited'
p332
sS'NSE/ACCELYA'
p333
S'Accelya Kale Solutions Limited'
p334
sS'NSE/ABAN'
p335
S'Aban Offshore Limited'
p336
sS'NSE/PSB'
p337
S'Punjab & Sind Bank'
p338
sS'NSE/APIL'
p339
S'Alstom Projects India Limited'
p340
sS'NSE/TATAMETALI'
p341
S'Tata Metaliks Limited'
p342
sS'NSE/HSCL'
p343
S'Himadri Speciality Chemical Limited'
p344
sS'NSE/TV18BRDCST'
p345
S'TV18 Broadcast Limited'
p346
sS'NSE/MVL'
p347
S'MVL Limited'
p348
sS'NSE/RCF'
p349
S'Rashtriya Chemicals and Fertilizers Limited'
p350
sS'NSE/KALECONSUL'
p351
S'Kale Consultants Limited'
p352
sS'NSE/NIFTY_LOW_VOLATILITY_50'
p353
S'National Stock Exchange of India (NSE) Stock Index - Nifty Low Volatility 50'
p354
sS'NSE/EMKAY'
p355
S'Emkay Global Financial Services Limited'
p356
sS'NSE/SABEVENTS'
p357
S'Sab Events & Governance Now Media Limited'
p358
sS'NSE/AYMSYNTEX'
p359
S'AYM Syntex Limited'
p360
sS'NSE/ROLLT'
p361
S'Rollatainers Limited'
p362
sS'NSE/NAGREEKCAP'
p363
S'Nagreeka Capital & Infrastructure Limited'
p364
sS'NSE/SMOBILITY'
p365
S'S Mobility Limited'
p366
sS'NSE/JAYSREETEA'
p367
S'Jayshree Tea & Industries Limited'
p368
sS'NSE/HGSL'
p369
S'Hinduja Global Solutions Limited'
p370
sS'NSE/GUJRATGAS'
p371
S'Gujarat Gas Company Limited'
p372
sS'NSE/REFEX'
p373
S'Refex Industries Limited'
p374
sS'NSE/GOKUL'
p375
S'Gokul Refoils and Solvent Limited'
p376
sS'NSE/MANPASAND'
p377
S'Manpasand Beverages Limited'
p378
sS'NSE/SURYAPHARM'
p379
S'Surya Pharmaceutical Limited'
p380
sS'NSE/TATAPOWER'
p381
S'Tata Power Company Limited'
p382
sS'NSE/MANINFRA'
p383
S'Man Infraconstruction Limited'
p384
sS'NSE/IVC'
p385
S'IL&FS Investment Managers Limited'
p386
sS'NSE/RAYMOND'
p387
S'Raymond Limited'
p388
sS'NSE/KFA'
p389
S'Kingfisher Airlines Limited'
p390
sS'NSE/IVP'
p391
S'IVP Limited'
p392
sS'NSE/ASAHIINDIA'
p393
S'Asahi India Glass Limited'
p394
sS'NSE/SMSPHARMA'
p395
S'SMS Pharmaceuticals Limited'
p396
sS'NSE/HESTERBIO'
p397
S'Hester Biosciences Limited'
p398
sS'NSE/CENTENKA'
p399
S'Century Enka Limited'
p400
sS'NSE/CALSOFT'
p401
S'California Software Company Limited'
p402
sS'NSE/TARAJEWELS'
p403
S'Tara Jewels Limited'
p404
sS'NSE/DATAMATICS'
p405
S'Datamatics Global Services Limited'
p406
sS'NSE/CENTRALBK'
p407
S'Central Bank of India'
p408
sS'NSE/PRISMCEM'
p409
S'Prism Cement Limited'
p410
sS'NSE/AICHAMP'
p411
S'AI Champdany Industries Limited'
p412
sS'NSE/BHARTIARTL'
p413
S'Bharti Airtel Limited'
p414
sS'NSE/ALCHEM'
p415
S'Alchemist Limited'
p416
sS'NSE/TUBEINVEST'
p417
S'Tube Investments of India Limited'
p418
sS'NSE/MARUTI'
p419
S'Maruti Suzuki India Limited'
p420
sS'NSE/RAJSREESUG'
p421
S'Rajshree Sugars & Chemicals Limited'
p422
sS'NSE/NHPC'
p423
S'NHPC Limited'
p424
sS'NSE/RAMCOCEM'
p425
S'The Ramco Cements Limited'
p426
sS'NSE/LGBFORGE'
p427
S'LGB Forge Limited'
p428
sS'NSE/GEECEE'
p429
S'GeeCee Ventures Limited'
p430
sS'NSE/VINYLINDIA'
p431
S'Vinyl Chemicals (India) Limited'
p432
sS'NSE/A2ZMES'
p433
S'A2Z Maintenance & Engineering Services Limited'
p434
sS'NSE/ZENITHEXPO'
p435
S'Zenith Exports Limited'
p436
sS'NSE/N100'
p437
S'Motilal Oswal Mutual Fund-Motilal Oswal MOSt Shares NASDAQ 100 ETF -GO'
p438
sS'NSE/BRFL'
p439
S'Bombay Rayon Fashions Limited'
p440
sS'NSE/BSELINFRA'
p441
S'BSEL Infrastructure Realty Limited'
p442
sS'NSE/PROZONE'
p443
S'Prozone Capital Shopping Centres Limited'
p444
sS'NSE/TRICOM'
p445
S'Tricom India Limited'
p446
sS'NSE/EIHAHOTELS'
p447
S'EIH Associated Hotels Limited'
p448
sS'NSE/CNXNIFTYJUNIOR'
p449
S'National Stock Exchange of India Stock Index - CNX NIFTY JUNIOR'
p450
sS'NSE/BODALCHEM'
p451
S'Bodal Chemicals Limited'
p452
sS'NSE/GRASIM'
p453
S'Grasim Industries Limited'
p454
sS'NSE/NDGL'
p455
S'Naga Dhunseri Group Limited'
p456
sS'NSE/KALYANIFRG'
p457
S'Kalyani Forge Limited'
p458
sS'NSE/COREEDUTEC'
p459
S'CORE Education & Technologies Limited'
p460
sS'NSE/JUBLFOOD'
p461
S'Jubilant Foodworks Limited'
p462
sS'NSE/INDSWFTLTD'
p463
S'Ind-Swift Limited'
p464
sS'NSE/SHASUNPHAR'
p465
S'Shasun Pharmaceuticals Limited'
p466
sS'NSE/STCINDIA'
p467
S'The State Trading Corporation of India Limited'
p468
sS'NSE/TCIDEVELOP'
p469
S'TCI Developers Limited'
p470
sS'NSE/ARCHIDPLY'
p471
S'Archidply Industries Limited'
p472
sS'NSE/SPCNXNIFTYSHARIAH'
p473
S'National Stock Exchange of India Stock Index - S&P CNX NIFTY SHARIAH'
p474
sS'NSE/PALREDTEC'
p475
S'Palred Technologies Limited'
p476
sS'NSE/GUJSIDHCEM'
p477
S'Gujarat Sidhee Cements Limited'
p478
sS'NSE/AFTEK'
p479
S'Aftek Limited'
p480
sS'NSE/EMAMIINFRA'
p481
S'Emami Infrastructure Limited'
p482
sS'NSE/ASSAMCO'
p483
S'Assam Company India Limited'
p484
sS'NSE/ORIENTBANK'
p485
S'Oriental Bank of Commerce'
p486
sS'NSE/BAJFINANCE'
p487
S'Bajaj Finance Limited'
p488
sS'NSE/APCOTEXIND'
p489
S'Apcotex Industries Limited'
p490
sS'NSE/JKPAPER'
p491
S'JK Paper Limited'
p492
sS'NSE/PRAKASH'
p493
S'Prakash Industries Limited'
p494
sS'NSE/NEPCMICON'
p495
S'NEPC India Limited'
p496
sS'NSE/OPTOCIRCUI'
p497
S'Opto Circuits (India) Limited'
p498
sS'NSE/SITICABLE'
p499
S'Siti Cable Network Limited'
p500
sS'NSE/JSLHISAR'
p501
S'Jindal Stainless (Hisar) Limited'
p502
sS'NSE/TCIFINANCE'
p503
S'TCI Finance Limited'
p504
sS'NSE/HOTELRUGBY'
p505
S'Hotel Rugby Limited'
p506
sS'NSE/PALRED'
p507
S'Palred Technologies Limited'
p508
sS'NSE/MUTHOOTFIN'
p509
S'Muthoot Finance Limited'
p510
sS'NSE/EON'
p511
S'Eon Electric Limited'
p512
sS'NSE/INDLMETER'
p513
S'IMP Powers Limited'
p514
sS'NSE/GEOMETRIC'
p515
S'Geometric Limited'
p516
sS'NSE/JDORGOCHEM'
p517
S'JD Orgochem Limited'
p518
sS'NSE/SUNDRMFAST'
p519
S'Sundram Fasteners Limited'
p520
sS'NSE/ELNET'
p521
S'Elnet Technologies Limited'
p522
sS'NSE/NIFTY_BANK'
p523
S'National Stock Exchange of India (NSE) Stock Index - Nifty Bank'
p524
sS'NSE/NLCINDIA'
p525
S'NLC India Limited'
p526
sS'NSE/ARIES'
p527
S'Aries Agro Limited'
p528
sS'NSE/KOKUYOCMLN'
p529
S'Kokuyo Camlin Limited'
p530
sS'NSE/HINDALCO'
p531
S'Hindalco Industries Limited'
p532
sS'NSE/PRETAILDVR'
p533
S'Pantaloon Retail (India) Limited'
p534
sS'NSE/HCLTECH'
p535
S'HCL Technologies Limited'
p536
sS'NSE/EKC'
p537
S'Everest Kanto Cylinder Limited'
p538
sS'NSE/AMTEKAUTO'
p539
S'Amtek Auto Limited'
p540
sS'NSE/MANALIPETC'
p541
S'Manali Petrochemicals Limited'
p542
sS'NSE/MAANALU'
p543
S'Maan Aluminium Limited'
p544
sS'NSE/M100'
p545
S'Motilal Oswal Mutual Fund - Motilal Oswal MOSt Shares M100 ETF GO'
p546
sS'NSE/MANAKINDST'
p547
S'Manaksia Industries Limited'
p548
sS'NSE/SHARONBIO'
p549
S'Sharon Bio-Medicine Limited'
p550
sS'NSE/SPECTACLE'
p551
S'Spectacle Ventures Limited'
p552
sS'NSE/SURANATP'
p553
S'Surana Telecom and Power Limited'
p554
sS'NSE/ANSALAPI'
p555
S'Ansal Properties & Infrastructure Limited'
p556
sS'NSE/HALONIX'
p557
S'Halonix Limited'
p558
sS'NSE/RUCHISOYA'
p559
S'Ruchi Soya Industries Limited'
p560
sS'NSE/CASTROL'
p561
S'Castrol India Limited'
p562
sS'NSE/AROGRANITE'
p563
S'Aro Granite Industries Limited'
p564
sS'NSE/LICNMFET'
p565
S'LIC NOMURA MF - LIC NOMURA MF G-sec LT ETF - GO'
p566
sS'NSE/MIC'
p567
S'MIC Electronics Limited'
p568
sS'NSE/SUPERHOUSE'
p569
S'Superhouse Limited'
p570
sS'NSE/JINDALPHOT'
p571
S'Jindal Photo Limited'
p572
sS'NSE/RELGRNIFTY'
p573
S'Religare Invesco Nifty Exchange Traded Fund'
p574
sS'NSE/NIFTY_PSU_BANK'
p575
S'National Stock Exchange of India (NSE) Stock Index - Nifty PSU Bank'
p576
sS'NSE/SURANAVEL'
p577
S'Surana Ventures Limited'
p578
sS'NSE/TTKPRESTIG'
p579
S'TTK Prestige Limited'
p580
sS'NSE/SYMPHONY'
p581
S'Symphony Limited'
p582
sS'NSE/AEGISCHEM'
p583
S'Aegis Logistics Limited'
p584
sS'NSE/VOLTAMP'
p585
S'Voltamp Transformers Limited'
p586
sS'NSE/CNX_FINANCE'
p587
S'National Stock Exchange of India (NSE) Stock Index - CNX Finance'
p588
sS'NSE/JEYPORE'
p589
S'The Jeypore Sugar Company Limited'
p590
sS'NSE/NCC'
p591
S'NCC Limited'
p592
sS'NSE/WABCOINDIA'
p593
S'WABCO India Limited'
p594
sS'NSE/JPOLYINVST'
p595
S'Jindal Poly Investment and Finance Company Limited'
p596
sS'NSE/DELTACORP'
p597
S'Delta Corp Limited'
p598
sS'NSE/VINATIORGA'
p599
S'Vinati Organics Limited'
p600
sS'NSE/RENUKA'
p601
S'Shree Renuka Sugars Limited'
p602
sS'NSE/NECLIFE'
p603
S'Nectar Lifesciences Limited'
p604
sS'NSE/SSWL'
p605
S'Steel Strips Wheels Limited'
p606
sS'NSE/NIFTY_SERV_SECTOR'
p607
S'National Stock Exchange of India (NSE) Stock Index - Nifty Services Sector'
p608
sS'NSE/HINDDORROL'
p609
S'Hindustan Dorr-Oliver Limited'
p610
sS'NSE/TIIL'
p611
S'Technocraft Industries (India) Limited'
p612
sS'NSE/GICHSGFIN'
p613
S'GIC Housing Finance Limited'
p614
sS'NSE/GOLDENTOBC'
p615
S'Golden Tobacco Limited'
p616
sS'NSE/SANGHVIFOR'
p617
S'Sanghvi Forging and Engineering Limited'
p618
sS'NSE/CNX_REALTY'
p619
S'National Stock Exchange of India (NSE) Stock Index - CNX Realty'
p620
sS'NSE/ILFSTRANS'
p621
S'IL&FS Transportation Networks Limited'
p622
sS'NSE/RPGLIFE'
p623
S'RPG Life Sciences Limited'
p624
sS'NSE/THERMAX'
p625
S'Thermax Limited'
p626
sS'NSE/SINTEX'
p627
S'Sintex Industries Limited'
p628
sS'NSE/SUDARSCHEM'
p629
S'Sudarshan Chemical Industries Limited'
p630
sS'NSE/XCHANGING'
p631
S'Xchanging Solutions Limited'
p632
sS'NSE/TRIGYN'
p633
S'Trigyn Technologies Limited'
p634
sS'NSE/JAYBARMARU'
p635
S'Jay Bharat Maruti Limited'
p636
sS'NSE/SICAL'
p637
S'Sical Logistics Limited'
p638
sS'NSE/AARVEEDEN'
p639
S'Aarvee Denims & Exports Limited'
p640
sS'NSE/SELMCL'
p641
S'SEL Manufacturing Company Limited'
p642
sS'NSE/CRESTANI'
p643
S'Crest Animation Studios Limited'
p644
sS'NSE/CNXFINANCE'
p645
S'National Stock Exchange of India Stock Index - CNX FINANCE'
p646
sS'NSE/CNXSERVICE'
p647
S'National Stock Exchange of India Stock Index - CNX SERVICE'
p648
sS'NSE/THEMISMED'
p649
S'Themis Medicare Limited'
p650
sS'NSE/OIL'
p651
S'Oil India Limited'
p652
sS'NSE/SESHAPAPER'
p653
S'Seshasayee Paper and Boards Limited'
p654
sS'NSE/CONCOR'
p655
S'Container Corporation of India Limited'
p656
sS'NSE/OCCL'
p657
S'Oriental Carbon & Chemicals Limited'
p658
sS'NSE/MEP'
p659
S'MEP Infrastructure Developers Limited'
p660
sS'NSE/POLYPLEX'
p661
S'Polyplex Corporation Limited'
p662
sS'NSE/BIRLAMONEY'
p663
S'Aditya Birla Money Limited'
p664
sS'NSE/APPAPER'
p665
S'The Andhra Pradesh Paper Mills Limited'
p666
sS'NSE/ENDURANCE'
p667
S'Endurance Technologies Limited'
p668
sS'NSE/KGL'
p669
S'Karuturi Global Limited'
p670
sS'NSE/SADBHIN'
p671
S'Sadbhav Infrastructure Project Limited'
p672
sS'NSE/SAREGAMA'
p673
S'Saregama India Limited'
p674
sS'NSE/HCG'
p675
S'Healthcare Global Enterprises Limited'
p676
sS'NSE/GTLINFRA'
p677
S'GTL Infrastructure Limited'
p678
sS'NSE/MMFIN'
p679
S'Mahindra & Mahindra Financial Services Limited'
p680
sS'NSE/RBL'
p681
S'Rane Brake Lining Limited'
p682
sS'NSE/RBN'
p683
S'Reliance Broadcast Network Limited'
p684
sS'NSE/MOSERBAER'
p685
S'Moser-Baer (I) Limited'
p686
sS'NSE/NELCO'
p687
S'NELCO Limited'
p688
sS'NSE/BAYERCROP'
p689
S'Bayer Cropscience Limited'
p690
sS'NSE/KTKNV20ETF'
p691
S'KOTAKMAMC - KTKNV20ETF'
p692
sS'NSE/CESC'
p693
S'CESC Limited'
p694
sS'NSE/TI'
p695
S'Tilaknagar Industries Limited'
p696
sS'NSE/THEBYKE'
p697
S'The Byke Hospitality Limited'
p698
sS'NSE/GOENKA'
p699
S'Goenka Diamond and Jewels Limited'
p700
sS'NSE/DALMIAREF'
p701
S'Dalmia Refractories Limited'
p702
sS'NSE/BEL'
p703
S'Bharat Electronics Limited'
p704
sS'NSE/CNX_NIFTY_JUNIOR'
p705
S'National Stock Exchange of India (NSE) Stock Index - Junior Nifty'
p706
sS'NSE/PETRONET'
p707
S'Petronet LNG Limited'
p708
sS'NSE/NTPC'
p709
S'NTPC Limited'
p710
sS'NSE/KLRF'
p711
S'KLRF Limited'
p712
sS'NSE/JENSONICOL'
p713
S'Jenson & Nicholson (India) Limited'
p714
sS'NSE/PARAL'
p715
S'Parekh Aluminex Limited'
p716
sS'NSE/BLBLIMITED'
p717
S'BLB Limited'
p718
sS'NSE/JMA'
p719
S'Jullundur Motor Agency (Delhi) Limited'
p720
sS'NSE/TTML'
p721
S'Tata Teleservices (Maharashtra) Limited'
p722
sS'NSE/KIRIINDUS'
p723
S'Kiri Industries Limited'
p724
sS'NSE/PIRHEALTH'
p725
S'Piramal Healthcare Limited'
p726
sS'NSE/NITCO'
p727
S'Nitco Limited'
p728
sS'NSE/FARMAXIND'
p729
S'Farmax India Limited'
p730
sS'NSE/SMPL'
p731
S'Splendid Metal Products Limited'
p732
sS'NSE/MANINDS'
p733
S'Man Industries (India) Limited'
p734
sS'NSE/TRIDENT'
p735
S'Trident Limited'
p736
sS'NSE/HONDAPOWER'
p737
S'Honda Siel Power Products Limited'
p738
sS'NSE/RELINFRA'
p739
S'Reliance Infrastructure Limited'
p740
sS'NSE/SHRIRAMCIT'
p741
S'Shriram City Union Finance Limited'
p742
sS'NSE/ATNINTER'
p743
S'ATN International Limited'
p744
sS'NSE/IBWSL'
p745
S'Indiabulls Wholesale Services Limited'
p746
sS'NSE/KERNEX'
p747
S'Kernex Microsystems (India) Limited'
p748
sS'NSE/SAKSOFT'
p749
S'Saksoft Limited'
p750
sS'NSE/SPIC'
p751
S'Southern Petrochemicals Industries Corporation Limited'
p752
sS'NSE/MINDTREE'
p753
S'MindTree Limited'
p754
sS'NSE/KOLTEPATIL'
p755
S'Kolte - Patil Developers Limited'
p756
sS'NSE/OSWALMIN'
p757
S'Oswal Minerals Limited'
p758
sS'NSE/SHALPAINTS'
p759
S'Shalimar Paints Limited'
p760
sS'NSE/MURUDCERA'
p761
S'Murudeshwar Ceramics Limited'
p762
sS'NSE/FINPIPE'
p763
S'Finolex Industries Limited'
p764
sS'NSE/INIFTY'
p765
S'ICICI Prudential Nifty ETF'
p766
sS'NSE/ADLABS'
p767
S'Adlabs Entertainment Limited'
p768
sS'NSE/RELNIFTY'
p769
S'Reliance Mutual Fund - R* Shares Nifty ETF - Dividend Payout'
p770
sS'NSE/JPASSOCIAT'
p771
S'Jaiprakash Associates Limited'
p772
sS'NSE/MADHUCON'
p773
S'Madhucon Projects Limited'
p774
sS'NSE/KSERASERA'
p775
S'KSS Limited'
p776
sS'NSE/BHARATFIN'
p777
S'Bharat Financial Inclusion Limited'
p778
sS'NSE/HOVS'
p779
S'HOV Services Limited'
p780
sS'NSE/JINDALSWHL'
p781
S'Jindal South West Holdings Limited'
p782
sS'NSE/BEDMUTHA'
p783
S'Bedmutha Industries Limited'
p784
sS'NSE/GABRIEL'
p785
S'Gabriel India Limited'
p786
sS'NSE/GDL'
p787
S'Gateway Distriparks Limited'
p788
sS'NSE/NETWORK18'
p789
S'Network18 Media & Investments Limited'
p790
sS'NSE/SBBJ'
p791
S'State Bank of Bikaner and Jaipur'
p792
sS'NSE/VASWANI'
p793
S'Vaswani Industries Limited'
p794
sS'NSE/SEZALGLASS'
p795
S'Sezal Glass Limited'
p796
sS'NSE/SFL'
p797
S'Sheela Foam Limited'
p798
sS'NSE/SPCNX500SHARIAH'
p799
S'National Stock Exchange of India Stock Index - S&P CNX 500 SHARIAH'
p800
sS'NSE/UNITEDBNK'
p801
S'United Bank of India'
p802
sS'NSE/BLUESTINFO'
p803
S'Blue Star Infotech Limited'
p804
sS'NSE/TNPETRO'
p805
S'Tamilnadu PetroProducts Limited'
p806
sS'NSE/SBIGETS'
p807
S'SBI Mutual Fund - Gold ETF'
p808
sS'NSE/GHCL'
p809
S'GHCL Limited'
p810
sS'NSE/SARDAEN'
p811
S'Sarda Energy & Minerals Limited'
p812
sS'NSE/ISFT'
p813
S'Intrasoft Technologies Limited'
p814
sS'NSE/MANGTIMBER'
p815
S'Mangalam Timber Products Limited'
p816
sS'NSE/BYKE'
p817
S'The Byke Hospitality Ltd'
p818
sS'NSE/SHREEASHTA'
p819
S'Shree Ashtavinayak Cine Vision Limited'
p820
sS'NSE/GREENFIRE'
p821
S'Green Fire Agri Commodities Limited'
p822
sS'NSE/ORIENTREF'
p823
S'Orient Refractories Limited'
p824
sS'NSE/ANKITMETAL'
p825
S'Ankit Metal & Power Limited'
p826
sS'NSE/DCMSRMCONS'
p827
S'DCM Shriram Consolidated Limited'
p828
sS'NSE/BLISSGVS'
p829
S'Bliss GVS Pharma Limited'
p830
sS'NSE/AVANTI'
p831
S'Avanti Feeds Limited'
p832
sS'NSE/PANCARBON'
p833
S'Panasonic Carbon India Company Limited'
p834
sS'NSE/EXCELINFO'
p835
S'Excel Infoways Limited'
p836
sS'NSE/IPRINGLTD'
p837
S'IP Rings Limited'
p838
sS'NSE/FCSSOFT'
p839
S'FCS Software Solutions Limited'
p840
sS'NSE/MOLDTECH'
p841
S'Mold-Tek Technologies Limited'
p842
sS'NSE/GTNIND'
p843
S'GTN Industries Limited'
p844
sS'NSE/CAPTRUST'
p845
S'Capital Trust Limited'
p846
sS'NSE/KAMDHENU'
p847
S'Kamdhenu Limited'
p848
sS'NSE/NIFTY_REALTY'
p849
S'National Stock Exchange of India (NSE) Stock Index - Nifty Realty'
p850
sS'NSE/DHUNINV'
p851
S'Dhunseri Investments Limited'
p852
sS'NSE/MARKSANS'
p853
S'Marksans Pharma Limited'
p854
sS'NSE/BLUECOAST'
p855
S'Blue Coast Hotels Limited'
p856
sS'NSE/CORAL_HUB'
p857
S'Coral Hub Limited'
p858
sS'NSE/TTKHEALTH'
p859
S'TTK Healthcare Limited'
p860
sS'NSE/ARROWTEX'
p861
S'Arrow Textiles Limited'
p862
sS'NSE/ATULAUTO'
p863
S'Atul Auto Limited'
p864
sS'NSE/POWERMECH'
p865
S'Power Mech Projects Limited'
p866
sS'NSE/KMSUGAR'
p867
S'K.M.Sugar Mills Limited'
p868
sS'NSE/SILINV'
p869
S'SIL Investments Limited'
p870
sS'NSE/ESSARSHPNG'
p871
S'Essar Shipping Limited'
p872
sS'NSE/CIPLA'
p873
S'Cipla Limited'
p874
sS'NSE/MMTC'
p875
S'MMTC Limited'
p876
sS'NSE/TIMETECHNO'
p877
S'Time Technoplast Limited'
p878
sS'NSE/VGUARD'
p879
S'V-Guard Industries Limited'
p880
sS'NSE/REPRO'
p881
S'Repro India Limited'
p882
sS'NSE/HFCL'
p883
S'Himachal Futuristic Communications Limited'
p884
sS'NSE/TELEMARINE'
p885
S'Teledata Marine Solutions Limited'
p886
sS'NSE/ABIRLANUVO'
p887
S'Aditya Birla Nuvo Limited'
p888
sS'NSE/GIPCL'
p889
S'Gujarat Industries Power Company Limited'
p890
sS'NSE/PEARLPOLY'
p891
S'Pearl Polymers Limited'
p892
sS'NSE/COROMANDEL'
p893
S'Coromandel International Limited'
p894
sS'NSE/SERVALL'
p895
S'Servalakshmi Paper Limited'
p896
sS'NSE/CNX_INFRA'
p897
S'National Stock Exchange of India (NSE) Stock Index - CNX Infrastructure'
p898
sS'NSE/RECLTD'
p899
S'Rural Electrification Corporation Limited'
p900
sS'NSE/RAJESHEXPO'
p901
S'Rajesh Exports Limited'
p902
sS'NSE/JINDALPOLY'
p903
S'Jindal Poly Films Limited'
p904
sS'NSE/NECCLTD'
p905
S'North Eastern Carrying Corporation Limited'
p906
sS'NSE/CERA'
p907
S'Cera Sanitaryware Limited'
p908
sS'NSE/CLNINDIA'
p909
S'Clariant Chemicals (India) Limited'
p910
sS'NSE/JSWENERGY'
p911
S'JSW Energy Limited'
p912
sS'NSE/CINEPRO'
p913
S'Cinemax Properties Limited'
p914
sS'NSE/UNIENTER'
p915
S'Uniphos Enterprises Limited'
p916
sS'NSE/WINSOMEDJ'
p917
S'Winsome Diamonds and Jewellery Limited'
p918
sS'NSE/NUCHEM'
p919
S'Nuchem Limited'
p920
sS'NSE/JAMNAAUTO'
p921
S'Jamna Auto Industries Limited'
p922
sS'NSE/MMFL'
p923
S'MM Forgings Limited'
p924
sS'NSE/ARIHANT'
p925
S'Arihant Foundations & Housing Limited'
p926
sS'NSE/HINDCOPPER'
p927
S'Hindustan Copper Limited'
p928
sS'NSE/INSECTICID'
p929
S'Insecticides (India) Limited'
p930
sS'NSE/JAGRAN'
p931
S'Jagran Prakashan Limited'
p932
sS'NSE/CUBEXTUB'
p933
S'Cubex Tubings Limited'
p934
sS'NSE/NIFTY_MIDCAP_100'
p935
S'National Stock Exchange of India (NSE) Stock Index - Nifty Midcap 100'
p936
sS'NSE/MOHITIND'
p937
S'Mohit Industries Limited'
p938
sS'NSE/AMBIKCO'
p939
S'Ambika Cotton Mills Limited'
p940
sS'NSE/SANWARIA'
p941
S'Sanwaria Agro Oils Limited'
p942
sS'NSE/VIKASECO'
p943
S'Vikas EcoTech Limited'
p944
sS'NSE/ASIANPAINT'
p945
S'Asian Paints Limited'
p946
sS'NSE/UNIPLY'
p947
S'Uniply Industries Limited'
p948
sS'NSE/ITC'
p949
S'ITC Limited'
p950
sS'NSE/AKSHOPTFBR'
p951
S'Aksh Optifibre Limited'
p952
sS'NSE/DBCORP'
p953
S'D.B.Corp Limited'
p954
sS'NSE/DEEPAKFERT'
p955
S'Deepak Fertilizers and Petrochemicals Corporation Limited'
p956
sS'NSE/PAGEIND'
p957
S'Page Industries Limited'
p958
sS'NSE/FIRSTWIN'
p959
S'First Winner Industries Limited'
p960
sS'NSE/LAMBODHARA'
p961
S'Lambodhara Textiles Limited'
p962
sS'NSE/INDUSFILA'
p963
S'Indus Fila Limited'
p964
sS'NSE/GARWALLROP'
p965
S'Garware Wall Ropes Limited'
p966
sS'NSE/EASTSILK'
p967
S'Eastern Silk Industries Limited'
p968
sS'NSE/IITL'
p969
S'Industrial Investment Trust Limited'
p970
sS'NSE/MORARJETEX'
p971
S'Morarjee Textiles Limited'
p972
sS'NSE/NAVNETEDUL'
p973
S'Navneet Education Limited'
p974
sS'NSE/PBAINFRA'
p975
S'PBA Infrastructure Limited'
p976
sS'NSE/INDIAGLYCO'
p977
S'India Glycols Limited'
p978
sS'NSE/RELIANCE'
p979
S'Reliance Industries Limited'
p980
sS'NSE/ORIENTBELL'
p981
S'Orient Bell Limited'
p982
sS'NSE/ASTRAL'
p983
S'Astral Poly Technik Limited'
p984
sS'NSE/JYOTISTRUC'
p985
S'Jyoti Structures Limited'
p986
sS'NSE/HBLPOWER'
p987
S'HBL Power Systems Limited'
p988
sS'NSE/EDUCOMP'
p989
S'Educomp Solutions Limited'
p990
sS'NSE/COALINDIA'
p991
S'Coal India Limited'
p992
sS'NSE/VALUEIND'
p993
S'Value Industries Limited'
p994
sS'NSE/KARURKCP'
p995
S'Karur K.C.P. Packkagings Limited'
p996
sS'NSE/CNX_PSU_BANK'
p997
S'National Stock Exchange of India (NSE) Stock Index - CNX PSU Bank'
p998
sS'NSE/ONWARDTEC'
p999
S'Onward Technologies Limited'
p1000
sS'NSE/ZENITHCOMP'
p1001
S'Zenith Computers Limited'
p1002
sS'NSE/PANORAMUNI'
p1003
S'Panoramic Universal Limited'
p1004
sS'NSE/V2RETAIL'
p1005
S'V2 Retail Limited'
p1006
sS'NSE/SAKUMA'
p1007
S'Sakuma Exports Limited'
p1008
sS'NSE/DSSL'
p1009
S'Dynacons Systems & Solutions Limited'
p1010
sS'NSE/INDOTHAI'
p1011
S'Indo Thai Securities Limited'
p1012
sS'NSE/DCHL'
p1013
S'Deccan Chronicle Holdings Limited'
p1014
sS'NSE/SPESGINDIAINDEX'
p1015
S'National Stock Exchange of India Stock Index - S&P ESG INDIA INDEX'
p1016
sS'NSE/PILITA'
p1017
S'PIL ITALICA LIFESTYLE LIMITED'
p1018
sS'NSE/TATASTEEL'
p1019
S'Tata Steel Limited'
p1020
sS'NSE/CHROMATIC'
p1021
S'Chromatic India Limited'
p1022
sS'NSE/MONNETISPA'
p1023
S'Monnet Ispat and Energy Limited'
p1024
sS'NSE/SQSBFSI'
p1025
S'SQS India BFSI Limited'
p1026
sS'NSE/INDBANK'
p1027
S'Indbank Merchant Banking Services Limited'
p1028
sS'NSE/MVLIND'
p1029
S'MVL Industries Limited'
p1030
sS'NSE/AGRITECH'
p1031
S'Agri-Tech (India) Limited'
p1032
sS'NSE/TANLA'
p1033
S'Tanla Solutions Limited'
p1034
sS'NSE/CIMMCO'
p1035
S'Cimmco Limited'
p1036
sS'NSE/TATAINVEST'
p1037
S'Tata Investment Corporation Limited'
p1038
sS'NSE/NI15'
p1039
S'National Stock Exchange of India (NSE) Stock Index - NI15'
p1040
sS'NSE/CAMBRIDGE'
p1041
S'Cambridge Solutions Limited'
p1042
sS'NSE/SGL'
p1043
S'STL Global Limited'
p1044
sS'NSE/VIMALOIL'
p1045
S'Vimal Oil & Foods Limited'
p1046
sS'NSE/VAKRANGEE'
p1047
S'VAKRANGEE LIMITED'
p1048
sS'NSE/VIMTALABS'
p1049
S'Vimta Labs Limited'
p1050
sS'NSE/VENUSREM'
p1051
S'Venus Remedies Limited'
p1052
sS'NSE/VIPIND'
p1053
S'VIP Industries Limited'
p1054
sS'NSE/CNX_PHARMA'
p1055
S'National Stock Exchange of India (NSE) Stock Index - CNX Pharma'
p1056
sS'NSE/NIFTY_SMALL_100'
p1057
S'National Stock Exchange of India (NSE) Stock Index - Nifty Small 100'
p1058
sS'NSE/MADHAV'
p1059
S'Madhav Marbles and Granites Limited'
p1060
sS'NSE/AMARJOTHI'
p1061
S'Amarjothi Spinning Mills Limited'
p1062
sS'NSE/GENESYS'
p1063
S'Genesys International Corporation Limited'
p1064
sS'NSE/TORNTPOWER'
p1065
S'Torrent Power Limited'
p1066
sS'NSE/LICNETFN50'
p1067
S'LICNAMC - LICNFENGP'
p1068
sS'NSE/TVSELECT'
p1069
S'TVS Electronics Limited'
p1070
sS'NSE/ASIANTILES'
p1071
S'Asian Granito India Limited'
p1072
sS'NSE/IFGLREFRAC'
p1073
S'IFGL Refractories Limited'
p1074
sS'NSE/CHESLINTEX'
p1075
S'Cheslind Textiles Limited'
p1076
sS'NSE/CNXPHARMA'
p1077
S'National Stock Exchange of India Stock Index - CNX PHARMA'
p1078
sS'NSE/PROVOGUE'
p1079
S'Provogue (India) Limited'
p1080
sS'NSE/ALLSEC'
p1081
S'Allsec Technologies Limited'
p1082
sS'NSE/SRGINFOTEC'
p1083
S'SRG Infotec (India) Limited'
p1084
sS'NSE/CNX_200'
p1085
S'National Stock Exchange of India (NSE) Stock Index - CNX 200'
p1086
sS'NSE/GOLDBEES'
p1087
S'R*Shares Gold BeES'
p1088
sS'NSE/TULSI'
p1089
S'Tulsi Extrusions Limited'
p1090
sS'NSE/NESCO'
p1091
S'Nesco Limited'
p1092
sS'NSE/NEHAINT'
p1093
S'Neha International Limited'
p1094
sS'NSE/BASML'
p1095
S'Bannari Amman Spinning Mills Limited'
p1096
sS'NSE/CNX100'
p1097
S'National Stock Exchange of India Stock Index - CNX 100'
p1098
sS'NSE/UVSL'
p1099
S'Uttam Value Steels Limited'
p1100
sS'NSE/PLASTIBLEN'
p1101
S'Plastiblends India Limited'
p1102
sS'NSE/MTEDUCARE'
p1103
S'MT Educare Limited'
p1104
sS'NSE/SHREYAS'
p1105
S'Shreyas Shipping & Logistics Limited'
p1106
sS'NSE/NSIL'
p1107
S'Nalwa Sons Investments Limited'
p1108
sS'NSE/SONATSOFTW'
p1109
S'Sonata Software Limited'
p1110
sS'NSE/SKIPPER'
p1111
S'Skipper Limited'
p1112
sS'NSE/WEBELSOLAR'
p1113
S'Websol Energy System Limited'
p1114
sS'NSE/MAHASTEEL'
p1115
S'Mahamaya Steel Industries Limited'
p1116
sS'NSE/ADORWELD'
p1117
S'Ador Welding Limited'
p1118
sS'NSE/NORBTEAEXP'
p1119
S'Norben Tea & Exports Limited'
p1120
sS'NSE/CYBERMEDIA'
p1121
S'Cyber Media (India) Limited'
p1122
sS'NSE/VTMLTD'
p1123
S'VTM Limited'
p1124
sS'NSE/TECHNOFAB'
p1125
S'Technofab Engineering Limited'
p1126
sS'NSE/SBTINTL'
p1127
S'SB&T International Limited'
p1128
sS'NSE/DIAPOWER'
p1129
S'Diamond Power Infra Ltd'
p1130
sS'NSE/RASOYPR'
p1131
S'Rasoya Proteins Limited'
p1132
sS'NSE/CNX_CONSUMPTION'
p1133
S'National Stock Exchange of India (NSE) Stock Index - CNX Consumption'
p1134
sS'NSE/KICL'
p1135
S'Kalyani Investment Company Limited'
p1136
sS'NSE/SPECIALITY'
p1137
S'Speciality Restaurants Limited'
p1138
sS'NSE/KOTAKNV20'
p1139
S'KOTAKMAMC - KTKNV20ETF'
p1140
sS'NSE/GENUSPOWER'
p1141
S'Genus Power Infrastructures Limited'
p1142
sS'NSE/NAGAROIL'
p1143
S'Nagarjuna Oil Refinery Limited'
p1144
sS'NSE/MOIL'
p1145
S'MOIL Limited'
p1146
sS'NSE/CINEVISTA'
p1147
S'Cinevista Limited'
p1148
sS'NSE/CMAHENDRA'
p1149
S'C. Mahendra Exports Limited'
p1150
sS'NSE/MOREPENLAB'
p1151
S'Morepen Laboratories Limited'
p1152
sS'NSE/LINDEINDIA'
p1153
S'Linde India Limited'
p1154
sS'NSE/MONSANTO'
p1155
S'Monsanto India Limited'
p1156
sS'NSE/SWELECTES'
p1157
S'Swelect Energy Systems Limited'
p1158
sS'NSE/MOTOGENFIN'
p1159
S'The Motor & General Finance Limited'
p1160
sS'NSE/BHUSANSTL'
p1161
S'Bhushan Steel Limited'
p1162
sS'NSE/JSWISPAT'
p1163
S'JSW ISPAT Steel Limited'
p1164
sS'NSE/PDPL'
p1165
S'Parenteral Drugs (India) Limited'
p1166
sS'NSE/MIRCELECTR'
p1167
S'MIRC Electronics Limited'
p1168
sS'NSE/TATAGLOBAL'
p1169
S'Tata Global Beverages Limited'
p1170
sS'NSE/NIPPOBATRY'
p1171
S'Indo-National Limited'
p1172
sS'NSE/TIJARIA'
p1173
S'Tijaria Polypipes Limited'
p1174
sS'NSE/FTCSF5YGRO'
p1175
S'Franklin Templeton Mutual Fund-Capital Safety Fund-5Y (Growth Option)'
p1176
sS'NSE/KANDAGIRI'
p1177
S'Kandagiri Spinning Mills Limited'
p1178
sS'NSE/STERLINBIO'
p1179
S'Sterling Biotech Limited'
p1180
sS'NSE/KBIL'
p1181
S'Kirloskar Brothers Investments Limited'
p1182
sS'NSE/NUMERICPW'
p1183
S'Numeric Power Systems Limited'
p1184
sS'NSE/CNXMIDCAP'
p1185
S'National Stock Exchange of India Stock Index - CNX MIDCAP'
p1186
sS'NSE/IDBI'
p1187
S'IDBI Bank Limited'
p1188
sS'NSE/BEML'
p1189
S'BEML Limited'
p1190
sS'NSE/CELESTIAL'
p1191
S'Celestial Biolabs Limited'
p1192
sS'NSE/TCPLTD'
p1193
S'TCP Limited'
p1194
sS'NSE/BGRENERGY'
p1195
S'BGR Energy Systems Limited'
p1196
sS'NSE/HARRMALAYA'
p1197
S'Harrisons Malayalam Limited'
p1198
sS'NSE/PRECAM'
p1199
S'Precision Camshafts Limited'
p1200
sS'NSE/CRMFGETF'
p1201
S'Canara Robeco Mutual Fund - Canara Robeco - Gold ETF'
p1202
sS'NSE/SOBHA'
p1203
S'Sobha Limited'
p1204
sS'NSE/OISL'
p1205
S'OCL Iron and Steel Limited'
p1206
sS'NSE/PRECOT'
p1207
S'Precot Meridian Limited'
p1208
sS'NSE/MMWL'
p1209
S'Media Matrix Worldwide Limited'
p1210
sS'NSE/RAMSARUP'
p1211
S'Ramsarup Industries Limited'
p1212
sS'NSE/ADHUNIKIND'
p1213
S'Adhunik Industries Limited'
p1214
sS'NSE/SHEMAROO'
p1215
S'Shemaroo Entertainment Limited'
p1216
sS'NSE/SITASHREE'
p1217
S'Sita Shree Food Products Limited'
p1218
sS'NSE/IGL'
p1219
S'Indraprastha Gas Limited'
p1220
sS'NSE/NITINFIRE'
p1221
S'Nitin Fire Protection Industries Limited'
p1222
sS'NSE/DALMIABHA'
p1223
S'Dalmia Bharat Limited'
p1224
sS'NSE/ELDERPHARM'
p1225
S'Elder Pharmaceuticals Limited'
p1226
sS'NSE/MBECL'
p1227
S'Mcnally Bharat Engineering Company Limited'
p1228
sS'NSE/IVRCLINFRA'
p1229
S'IVRCL Limited'
p1230
sS'NSE/NITINSPIN'
p1231
S'Nitin Spinners Limited'
p1232
sS'NSE/LLOYDFIN'
p1233
S'Lloyds Finance Limited'
p1234
sS'NSE/DPSCLTD'
p1235
S'DPSC Limited'
p1236
sS'NSE/MGOLD'
p1237
S'Motilal Oswal Mutual Fund - Motilal Oswal MOSt Shares Gold ETF'
p1238
sS'NSE/BPCL'
p1239
S'Bharat Petroleum Corporation Limited'
p1240
sS'NSE/SUNPHARMA'
p1241
S'Sun Pharmaceuticals Industries Limited'
p1242
sS'NSE/GREENLAM'
p1243
S'Greenlam Industries Limited'
p1244
sS'NSE/PIDILITIND'
p1245
S'Pidilite Industries Limited'
p1246
sS'NSE/PARABDRUGS'
p1247
S'Parabolic Drugs Limited'
p1248
sS'NSE/STYABS'
p1249
S'Styrolution ABS (India) Limited'
p1250
sS'NSE/PATELENG'
p1251
S'Patel Engineering Limited'
p1252
sS'NSE/SPYL'
p1253
S'Shekhawati Poly-Yarn Limited'
p1254
sS'NSE/PDUMJEPULP'
p1255
S'Pudumjee Pulp & Paper Mills Limited'
p1256
sS'NSE/GUJNREDVR'
p1257
S'Gujarat NRE Coke Limited'
p1258
sS'NSE/BRITANNIA'
p1259
S'Britannia Industries Limited'
p1260
sS'NSE/BIRLAPOWER'
p1261
S'Birla Power Solutions Limited'
p1262
sS'NSE/BALKRISIND'
p1263
S'Balkrishna Industries Limited'
p1264
sS'NSE/BSLNIFTY'
p1265
S'Birla Sun Life Mutual Fund - Birla Sun Life Nifty ETF - Growth'
p1266
sS'NSE/MCX'
p1267
S'Multi Commodity Exchange of India Limited'
p1268
sS'NSE/MORARJEE'
p1269
S'Morarjee Textiles Limited'
p1270
sS'NSE/REGENCERAM'
p1271
S'Regency Ceramics Limited'
p1272
sS'NSE/SURYAROSNI'
p1273
S'Surya Roshni Limited'
p1274
sS'NSE/PIRPHYTO'
p1275
S'Piramal Phytocare Limited'
p1276
sS'NSE/PANASONIC'
p1277
S'Panasonic Appliances India Company Limited'
p1278
sS'NSE/SURANAIND'
p1279
S'Surana Industries Limited'
p1280
sS'NSE/KOPDRUGS'
p1281
S'KDL Biotech Limited'
p1282
sS'NSE/LFIC'
p1283
S'Lakshmi Finance & Industrial Corporation Limited'
p1284
sS'NSE/FMGOETZE'
p1285
S'Federal-Mogul Goetze (India) Limited.'
p1286
sS'NSE/PREMEXPLN'
p1287
S'Premier Explosives Limited'
p1288
sS'NSE/DRDATSONS'
p1289
S"Dr. Datson's Labs Limited"
p1290
sS'NSE/MPSLTD'
p1291
S'MPS Limited'
p1292
sS'NSE/TARAPUR'
p1293
S'Tarapur Transformers Limited'
p1294
sS'NSE/HATSUN'
p1295
S'Hatsun Agro Product Limited'
p1296
sS'NSE/KEMROCK'
p1297
S'Kemrock Industries and Exports Limited'
p1298
sS'NSE/NIFTYMIDCAP'
p1299
S'National Stock Exchange of India Stock Index - NIFTY MIDCAP 50'
p1300
sS'NSE/EMAMILTD'
p1301
S'Emami Limited'
p1302
sS'NSE/PEPL'
p1303
S'Pearl Engineering Polymers Limited'
p1304
sS'NSE/ECLERX'
p1305
S'eClerx Services Limited'
p1306
sS'NSE/ONELIFECAP'
p1307
S'Onelife Capital Advisors Limited'
p1308
sS'NSE/ABBOTINDIA'
p1309
S'Abbott India Limited'
p1310
sS'NSE/FRETAIL'
p1311
S'Future Retail Limited'
p1312
sS'NSE/EIMCOELECO'
p1313
S'Eimco Elecon (India) Limited'
p1314
sS'NSE/BELLCERATL'
p1315
S'Bell Ceramics Limited'
p1316
sS'NSE/VINDHYATEL'
p1317
S'Vindhya Telelinks Limited'
p1318
sS'NSE/NIFTY_50'
p1319
S'National Stock Exchange of India (NSE) Stock Index - Nifty 50'
p1320
sS'NSE/PEACOCKIND'
p1321
S'Peacock Industries Limited'
p1322
sS'NSE/SHREEPUSHK'
p1323
S'Shree Pushkar Chemicals & Fertilisers Limited'
p1324
sS'NSE/NV20IWIN'
p1325
S'ICICI Prudential NV20 ETF'
p1326
sS'NSE/DHFL'
p1327
S'Dewan Housing Finance Corporation Limited'
p1328
sS'NSE/KANANIIND'
p1329
S'Kanani Industries Limited'
p1330
sS'NSE/CNX_DEFTY'
p1331
S'National Stock Exchange of India (NSE) Stock Index - CNX Defty'
p1332
sS'NSE/PONDYOXIDE'
p1333
S'Pondy Oxides & Chemicals Limited'
p1334
sS'NSE/APOLLOHOSP'
p1335
S'Apollo Hospitals Enterprise Limited'
p1336
sS'NSE/MICROSEC'
p1337
S'Microsec Financial Services Limited'
p1338
sS'NSE/NIFTY_PHARMA'
p1339
S'National Stock Exchange of India (NSE) Stock Index - Nifty Pharma'
p1340
sS'NSE/KALINDEE'
p1341
S'Kalindee Rail Nirman (Engineers) Limited'
p1342
sS'NSE/NH'
p1343
S'Narayana Hrudayalaya Ltd.'
p1344
sS'NSE/VISHALRET'
p1345
S'Vishal Retail Limited'
p1346
sS'NSE/NIFTYDIVIDEND'
p1347
S'National Stock Exchange of India Stock Index - NIFTY DIVIDEND'
p1348
sS'NSE/NAVKARCORP'
p1349
S'Navkar Corporation Limited'
p1350
sS'NSE/EMCO'
p1351
S'Emco Limited'
p1352
sS'NSE/GANGOTRI'
p1353
S'Gangotri Textiles Limited'
p1354
sS'NSE/ULTRACEMCO'
p1355
S'UltraTech Cement Limited'
p1356
sS'NSE/RKDL'
p1357
S'Ravi Kumar Distilleries Limited'
p1358
sS'NSE/CNX_MEDIA'
p1359
S'National Stock Exchange of India (NSE) Stock Index - CNX Media'
p1360
sS'NSE/THOMASCOOK'
p1361
S'Thomas Cook (India) Limited'
p1362
sS'NSE/MANAKSIA'
p1363
S'Manaksia Limited'
p1364
sS'NSE/VARDMNPOLY'
p1365
S'Vardhman Polytex Limited'
p1366
sS'NSE/ORCHIDPHAR'
p1367
S'Orchid Pharma Limited'
p1368
sS'NSE/ZODIACLOTH'
p1369
S'Zodiac Clothing Company Limited'
p1370
sS'NSE/KTKBANK'
p1371
S'The Karnataka Bank Limited'
p1372
sS'NSE/FCONSUMER'
p1373
S'FUTURE CONSUMER LIMITED'
p1374
sS'NSE/CNXHIGHBETA'
p1375
S'National Stock Exchange of India Stock Index - CNX HIGH BETA'
p1376
sS'NSE/KOTAKBKETF'
p1377
S'Kotak Mahindra MF - Kotak Banking ETF - Dividend Payout Option'
p1378
sS'NSE/NIFTY_CONSUMPTION'
p1379
S'National Stock Exchange of India (NSE) Stock Index - Nifty India Consumption'
p1380
sS'NSE/MIDCAPIWIN'
p1381
S'ICICI Prudential Midcap Select ETF'
p1382
sS'NSE/BOMDYEING'
p1383
S'Bombay Dyeing & Mfg Company Limited'
p1384
sS'NSE/ACE'
p1385
S'Action Construction Equipment Limited'
p1386
sS'NSE/BANG'
p1387
S'Bang Overseas Limited'
p1388
sS'NSE/THANGAMAYL'
p1389
S'Thangamayil Jewellery Limited'
p1390
sS'NSE/SHYAMCENT'
p1391
S'Shyam Century Ferrous Limited'
p1392
sS'NSE/GRAPHITE'
p1393
S'Graphite India Limited'
p1394
sS'NSE/INDSWFTLAB'
p1395
S'Ind-Swift Laboratories Limited'
p1396
sS'NSE/KLGSYSTEL'
p1397
S'KLG Systel Limited'
p1398
sS'NSE/KPIT'
p1399
S'KPIT Technologies Limited'
p1400
sS'NSE/SATHAISPAT'
p1401
S'Sathavahana Ispat Limited'
p1402
sS'NSE/SRF'
p1403
S'SRF Limited'
p1404
sS'NSE/PINCON'
p1405
S'Pincon Spirit Limited'
p1406
sS'NSE/HANUNG'
p1407
S'Hanung Toys and Textiles Limited'
p1408
sS'NSE/CNX_SERVICE'
p1409
S'National Stock Exchange of India (NSE) Stock Index - CNX Service Sector'
p1410
sS'NSE/RAMKY'
p1411
S'Ramky Infrastructure Limited'
p1412
sS'NSE/PARSVNATH'
p1413
S'Parsvnath Developers Limited'
p1414
sS'NSE/SUDAR'
p1415
S'Sudar Industries Limited'
p1416
sS'NSE/ORTEL'
p1417
S'Ortel Communications Limited'
p1418
sS'NSE/CREST'
p1419
S'Crest Ventures Limited'
p1420
sS'NSE/LALPATHLAB'
p1421
S'Dr. Lal Path Labs Ltd.'
p1422
sS'NSE/FOURSOFT'
p1423
S'Four Soft Limited'
p1424
sS'NSE/CARERATING'
p1425
S'Credit Analysis And Research Limited'
p1426
sS'NSE/HERCULES'
p1427
S'Hercules Hoists Limited'
p1428
sS'NSE/GPIL'
p1429
S'Godawari Power And Ispat limited'
p1430
sS'NSE/KIL'
p1431
S'Kamdhenu Ispat Limited'
p1432
sS'NSE/BOSCHLTD'
p1433
S'Bosch Limited'
p1434
sS'NSE/NOL'
p1435
S'National Oxygen Limited'
p1436
sS'NSE/CINELINE'
p1437
S'Cineline India Limited'
p1438
sS'NSE/STEL'
p1439
S'Stel Holdings Limited'
p1440
sS'NSE/ELAND'
p1441
S'E-Land Apparel Limited'
p1442
sS'NSE/EUROCERA'
p1443
S'Euro Ceramics Limited'
p1444
sS'NSE/FINANTECH'
p1445
S'Financial Technologies (India) Limited'
p1446
sS'NSE/HINDNATGLS'
p1447
S'Hindusthan National Glass & Industries Limited'
p1448
sS'NSE/STER'
p1449
S'Sterlite Industries ( India ) Limited'
p1450
sS'NSE/CNX_500_SHARIAH'
p1451
S'National Stock Exchange of India (NSE) Stock Index - CNX 500 Shariah'
p1452
sS'NSE/BHANDARI'
p1453
S'Bhandari Hosiery Exports Limited'
p1454
sS'NSE/SPLIL'
p1455
S'SPL Industries Limited'
p1456
sS'NSE/NEOCURE'
p1457
S'Neocure Therapeutics Limited'
p1458
sS'NSE/NIFTY_DIVIDEND'
p1459
S'National Stock Exchange of India (NSE) Stock Index - CNX Nifty Dividend'
p1460
sS'NSE/KOTAKPSUBK'
p1461
S'Kotak Mahindra Mutual Fund'
p1462
sS'NSE/BHARATGEAR'
p1463
S'Bharat Gears Limited'
p1464
sS'NSE/MTNL'
p1465
S'Mahanagar Telephone Nigam Limited'
p1466
sS'NSE/ABCIL'
p1467
S'Aditya Birla Chemicals (India) Limited'
p1468
sS'NSE/ARL'
p1469
S'Arvind Remedies Limited'
p1470
sS'NSE/LIX15_MIDCAP'
p1471
S'National Stock Exchange of India (NSE) Stock Index - LIX15 Midcap'
p1472
sS'NSE/MUNJALSHOW'
p1473
S'Munjal Showa Limited'
p1474
sS'NSE/APOLSINHOT'
p1475
S'Apollo Sindoori Hotels Limited'
p1476
sS'NSE/ASTRAMICRO'
p1477
S'Astra Microwave Products Limited'
p1478
sS'NSE/PRIMESECU'
p1479
S'Prime Securities Limited'
p1480
sS'NSE/OMMETALS'
p1481
S'OM Metals Infraprojects Limited'
p1482
sS'NSE/DUNCANSLTD'
p1483
S'Duncans Industries Limited'
p1484
sS'NSE/DEEPAKNTR'
p1485
S'Deepak Nitrite Limited'
p1486
sS'NSE/ZENITHBIR'
p1487
S'Zenith Birla (India) Limited'
p1488
sS'NSE/REPCOHOME'
p1489
S'Repco Home Finance Limited'
p1490
sS'NSE/MURLIIND'
p1491
S'Murli Industries Limited'
p1492
sS'NSE/IDBIGOLD'
p1493
S'IDBI Mutual Fund - IDBI Gold Exchange Traded Fund'
p1494
sS'NSE/JUSTDIAL'
p1495
S'Just Dial Limited'
p1496
sS'NSE/GOKULAGRO'
p1497
S'Gokul Agro Resources Limited'
p1498
sS'NSE/HCL_INSYS'
p1499
S'HCL Infosystems Limited'
p1500
sS'NSE/AUTOAXLES'
p1501
S'Automotive Axles Limited'
p1502
sS'NSE/UBL'
p1503
S'United Breweries Limited'
p1504
sS'NSE/IZMO'
p1505
S'IZMO Limited'
p1506
sS'NSE/WEIZFOREX'
p1507
S'Weizmann Forex Limited'
p1508
sS'NSE/GLAXO'
p1509
S'GlaxoSmithKline Pharmaceuticals Limited'
p1510
sS'NSE/HIMATSEIDE'
p1511
S'Himatsingka Seide Limited'
p1512
sS'NSE/VARUNSHIP'
p1513
S'Varun Shipping Company Limited'
p1514
sS'NSE/ZUARIGLOB'
p1515
S'ZUARI GLOBAL LIMITED'
p1516
sS'NSE/AVENTIS'
p1517
S'Aventis Pharma Limited'
p1518
sS'NSE/GUJAPOLLO'
p1519
S'Gujarat Apollo Industries Limited'
p1520
sS'NSE/NV20'
p1521
S'National Stock Exchange of India (NSE) Stock Index - NV 20'
p1522
sS'NSE/A2ZINFRA'
p1523
S'A2Z INFRA ENGINEERING LIMITED'
p1524
sS'NSE/EASUNREYRL'
p1525
S'Easun Reyrolle Limited'
p1526
sS'NSE/ANIKINDS'
p1527
S'Anik Industries Limited'
p1528
sS'NSE/MANGALAM'
p1529
S'Mangalam Drugs And Organics Limited'
p1530
sS'NSE/PLETHICO'
p1531
S'Plethico Pharmaceuticals Limited'
p1532
sS'NSE/GLENMARK'
p1533
S'Glenmark Pharmaceuticals Limited'
p1534
sS'NSE/KANORICHEM'
p1535
S'Kanoria Chemicals & Industries Limited'
p1536
sS'NSE/MRF'
p1537
S'MRF Limited'
p1538
sS'NSE/PIIND'
p1539
S'PI Industries Limited'
p1540
sS'NSE/TAJGVK'
p1541
S'Taj GVK Hotels & Resorts Limited'
p1542
sS'NSE/ZYDUSWELL'
p1543
S'Zydus Wellness Limited'
p1544
sS'NSE/BEARDSELL'
p1545
S'Beardsell Limited'
p1546
sS'NSE/CNX_SMALLCAP'
p1547
S'National Stock Exchange of India (NSE) Stock Index - CNX Smallcap'
p1548
sS'NSE/AHMEDFORGE'
p1549
S'Ahmednagar Forgings Limited'
p1550
sS'NSE/MUKANDENGG'
p1551
S'Mukand Engineers Limited'
p1552
sS'NSE/KIRLOSBROS'
p1553
S'Kirloskar Brothers Limited'
p1554
sS'NSE/FAGBEARING'
p1555
S'FAG Bearings India Limited'
p1556
sS'NSE/PRATIBHA'
p1557
S'Pratibha Industries Limited'
p1558
sS'NSE/JIKIND'
p1559
S'JIK Industries Limited'
p1560
sS'NSE/JAYNECOIND'
p1561
S'Jayaswal Neco Industries Limited'
p1562
sS'NSE/KAKATCEM'
p1563
S'Kakatiya Cement Sugar & Industries Limited'
p1564
sS'NSE/RANKLIN'
p1565
S'Ranklin Solutions Limited'
p1566
sS'NSE/FEDDERLOYD'
p1567
S'Fedders Lloyd Corporation Limited'
p1568
sS'NSE/HMVL'
p1569
S'Hindustan Media Ventures Limited'
p1570
sS'NSE/KIRLOSIND'
p1571
S'Kirloskar Industries Limited'
p1572
sS'NSE/PIRGLASS'
p1573
S'Piramal Glass Limited'
p1574
sS'NSE/FLEXITUFF'
p1575
S'Flexituff International Limited'
p1576
sS'NSE/ICIL'
p1577
S'Indo Count Industries Limited'
p1578
sS'NSE/SWANENERGY'
p1579
S'Swan Energy Limited'
p1580
sS'NSE/POCHIRAJU'
p1581
S'Pochiraju Industries Limited'
p1582
sS'NSE/VENKEYS'
p1583
S"Venky's (India) Limited"
p1584
sS'NSE/SIRPAPER'
p1585
S'The Sirpur Paper Mills Limited'
p1586
sS'NSE/HINDPETRO'
p1587
S'Hindustan Petroleum Corporation Limited'
p1588
sS'NSE/LML'
p1589
S'LML Limited'
p1590
sS'NSE/OBEROIRLTY'
p1591
S'Oberoi Realty Limited'
p1592
sS'NSE/DALMIABEL'
p1593
S'Dalmia Bharat Enterprises Limited'
p1594
sS'NSE/ANSALHSG'
p1595
S'Ansal Housing and Construction Limited'
p1596
sS'NSE/LAKSHVILAS'
p1597
S'Lakshmi Vilas Bank Limited'
p1598
sS'NSE/SPMLINFRA'
p1599
S'SPML Infra Limited'
p1600
sS'NSE/JAIBALAJI'
p1601
S'Jai Balaji Industries Limited'
p1602
sS'NSE/ILFSENGG'
p1603
S'IL&FS Engineering and Construction Company Limited'
p1604
sS'NSE/CREATIVEYE'
p1605
S'Creative Eye Limited'
p1606
sS'NSE/CANFINHOME'
p1607
S'Can Fin Homes Limited'
p1608
sS'NSE/FAIRCHEM'
p1609
S'Fairchem Speciality Limited'
p1610
sS'NSE/NIFTY100_EQUAL_WEIGHT'
p1611
S'National Stock Exchange of India (NSE) Stock Index - Nifty 100 Equal Weight'
p1612
sS'NSE/MHRIL'
p1613
S'Mahindra Holidays & Resorts India Limited'
p1614
sS'NSE/HINDUJAFO'
p1615
S'Hinduja Foundries Limited'
p1616
sS'NSE/BANKINDIA'
p1617
S'Bank of India'
p1618
sS'NSE/APLAB'
p1619
S'Aplab Limited'
p1620
sS'NSE/SUMMITSEC'
p1621
S'Summit Securities Limited'
p1622
sS'NSE/MSPL'
p1623
S'MSP Steel & Power Limited'
p1624
sS'NSE/JUPITER'
p1625
S'Jupiter Bioscience Limited'
p1626
sS'NSE/CUMMINSIND'
p1627
S'Cummins India Limited'
p1628
sS'NSE/YESBANK'
p1629
S'Yes Bank Limited'
p1630
sS'NSE/LANCOIN'
p1631
S'Lanco Industries Limited'
p1632
sS'NSE/ESSARPORTS'
p1633
S'Essar Ports Limited'
p1634
sS'NSE/POLYMED'
p1635
S'Poly Medicure Limited'
p1636
sS'NSE/MINDACORP'
p1637
S'Minda Corporation Limited'
p1638
sS'NSE/JPINFRATEC'
p1639
S'Jaypee Infratech Limited'
p1640
sS'NSE/RAJPALAYAM'
p1641
S'Rajapalayam Mills Limited'
p1642
sS'NSE/PIRLIFE'
p1643
S'Piramal Life Sciences Limited'
p1644
sS'NSE/AUSOMENT'
p1645
S'Ausom Enterprise Limited'
p1646
sS'NSE/SHRENUJ'
p1647
S'Shrenuj & Company Limited'
p1648
sS'NSE/POKARNA'
p1649
S'Pokarna Limited'
p1650
sS'NSE/KOTAKGOLD'
p1651
S'Kotak Mutual Fund - Gold Exchange Traded Fund'
p1652
sS'NSE/BILENERGY'
p1653
S'Bil Energy Systems Limited'
p1654
sS'NSE/TEXMOPIPES'
p1655
S'Texmo Pipes and Products Limited'
p1656
sS'NSE/MBLINFRA'
p1657
S'MBL Infrastructures Limited'
p1658
sS'NSE/RSYSTEMS'
p1659
S'R Systems International Limited'
p1660
sS'NSE/AMBUJACEM'
p1661
S'Ambuja Cements Limited'
p1662
sS'NSE/ASIANHOTNR'
p1663
S'Asian Hotels (North) Limited'
p1664
sS'NSE/MANAKSTEEL'
p1665
S'Manaksia Steels Limited'
p1666
sS'NSE/NRC'
p1667
S'NRC Limited'
p1668
sS'NSE/CNXINFRA'
p1669
S'National Stock Exchange of India Stock Index - CNX INFRA'
p1670
sS'NSE/DICIND'
p1671
S'DIC India Limited'
p1672
sS'NSE/ABFRL'
p1673
S'Aditya Birla Fashion and Retail Limited'
p1674
sS'NSE/IBULHSGFIN'
p1675
S'Indiabulls Housing Finance Limited'
p1676
sS'NSE/PILIND'
p1677
S'Peacock Industries Limited'
p1678
sS'NSE/SPCNX'
p1679
S'National Stock Exchange of India Stock Index - S&P CNX 500'
p1680
sS'NSE/ARVIND'
p1681
S'Arvind Limited'
p1682
sS'NSE/ESTER'
p1683
S'Ester Industries Limited'
p1684
sS'NSE/INDORAMA'
p1685
S'Indo Rama Synthetics (India) Limited'
p1686
sS'NSE/HDFCBANK'
p1687
S'HDFC Bank Limited'
p1688
sS'NSE/BALAJITELE'
p1689
S'Balaji Telefilms Limited'
p1690
sS'NSE/ALKYLAMINE'
p1691
S'Alkyl Amines Chemicals Limited'
p1692
sS'NSE/BANCOINDIA'
p1693
S'Banco Products (I) Limited'
p1694
sS'NSE/PARAGMILK'
p1695
S'Parag Milk Foods Limited'
p1696
sS'NSE/TIMKEN'
p1697
S'Timken India Limited'
p1698
sS'NSE/PRITHVISOF'
p1699
S'Prithvi Softech Limited'
p1700
sS'NSE/BBL'
p1701
S'Bharat Bijlee Limited'
p1702
sS'NSE/IOLN'
p1703
S'IOL Netcom Limited'
p1704
sS'NSE/SABTN'
p1705
S'Sri Adhikari Brothers Television Network Limited'
p1706
sS'NSE/INDOTECH'
p1707
S'Indo Tech Transformers Limited'
p1708
sS'NSE/VIPCLOTHNG'
p1709
S'VIP CLOTHING LIMITED'
p1710
sS'NSE/TECHNO'
p1711
S'Techno Electric & Engineering Company Limited'
p1712
sS'NSE/NIITTECH'
p1713
S'NIIT Technologies Limited'
p1714
sS'NSE/MAXINDIA'
p1715
S'Max India Limited'
p1716
sS'NSE/INNOIND'
p1717
S'Innoventive Industries Limited'
p1718
sS'NSE/NILAINFRA'
p1719
S'Nila Infrastructures Limited'
p1720
sS'NSE/BRIGADE'
p1721
S'Brigade Enterprises Limited'
p1722
sS'NSE/KKCL'
p1723
S'Kewal Kiran Clothing Limited'
p1724
sS'NSE/ITI'
p1725
S'ITI Limited'
p1726
sS'NSE/SUZLON'
p1727
S'Suzlon Energy Limited'
p1728
sS'NSE/COUNCODOS'
p1729
S"Country Condo's Limited"
p1730
sS'NSE/MM'
p1731
S'Mahindra & Mahindra Limited'
p1732
sS'NSE/HONAUT'
p1733
S'Honeywell Automation India Limited'
p1734
sS'NSE/MEGASOFT'
p1735
S'Megasoft Limited'
p1736
sS'NSE/IGARASHI'
p1737
S'Igarashi Motors India Limited'
p1738
sS'NSE/CAIRN'
p1739
S'Cairn India Limited'
p1740
sS'NSE/ATFL'
p1741
S'Agro Tech Foods Limited'
p1742
sS'NSE/UCALFUEL'
p1743
S'Ucal Fuel Systems Limited'
p1744
sS'NSE/TRITURBINE'
p1745
S'Triveni Turbine Limited'
p1746
sS'NSE/TEXINFRA'
p1747
S'Texmaco Infrastructure & Holdings Limited'
p1748
sS'NSE/FIEMIND'
p1749
S'Fiem Industries Limited'
p1750
sS'NSE/INDOCO'
p1751
S'Indoco Remedies Limited'
p1752
sS'NSE/SHILPI'
p1753
S'Shilpi Cable Technologies Limited'
p1754
sS'NSE/JINDRILL'
p1755
S'Jindal Drilling And Industries Limited'
p1756
sS'NSE/VSTTILLERS'
p1757
S'V.S.T Tillers Tractors Limited'
p1758
sS'NSE/OMAXAUTO'
p1759
S'Omax Autos Limited'
p1760
sS'NSE/SETFBANK'
p1761
S'SBIAMC - SETFBANK'
p1762
sS'NSE/POLARIND'
p1763
S'Polar Industries Limited'
p1764
sS'NSE/BATAINDIA'
p1765
S'Bata India Limited'
p1766
sS'NSE/CYBERTECH'
p1767
S'Cybertech Systems And Software Limited'
p1768
sS'NSE/GLOBALVECT'
p1769
S'Global Vectra Helicorp Limited'
p1770
sS'NSE/COROENGG'
p1771
S'Coromandel Engineering Company Limited'
p1772
sS'NSE/HINDCOMPOS'
p1773
S'Hindustan Composites Limited'
p1774
sS'NSE/GLOBUSSPR'
p1775
S'Globus Spirits Limited'
p1776
sS'NSE/MERCK'
p1777
S'Merck Limited'
p1778
sS'NSE/TITAN'
p1779
S'Titan Company Limited'
p1780
sS'NSE/SENSEXIWIN'
p1781
S'ICICI Prudential Sensex ETF'
p1782
sS'NSE/EUROTEXIND'
p1783
S'Eurotex Industries and Exports Limited'
p1784
sS'NSE/KRBL'
p1785
S'KRBL Limited'
p1786
sS'NSE/CUPID'
p1787
S'Cupid Limited'
p1788
sS'NSE/CTE'
p1789
S'Cambridge Technology Enterprises Limited'
p1790
sS'NSE/EMPEESUG'
p1791
S'Empee Sugars and Chemicals Limited'
p1792
sS'NSE/ECEIND'
p1793
S'ECE Industries Limited'
p1794
sS'NSE/CENTEXT'
p1795
S'Century Extrusions Limited'
p1796
sS'NSE/LICNFNHGP'
p1797
S'LICNAMC - LICNFNHGP'
p1798
sS'NSE/SREINFRA'
p1799
S'SREI Infrastructure Finance Limited'
p1800
sS'NSE/SUNFLAG'
p1801
S'Sunflag Iron And Steel Company Limited'
p1802
sS'NSE/GUJGASLTD'
p1803
S'Gujarat Gas Limited'
p1804
sS'NSE/CNXMEDIA'
p1805
S'National Stock Exchange of India Stock Index - CNX MEDIA'
p1806
sS'NSE/RADAAN'
p1807
S'Radaan Mediaworks India Limited'
p1808
sS'NSE/BASF'
p1809
S'BASF India Limited'
p1810
sS'NSE/PANAMAPET'
p1811
S'Panama Petrochem Limited'
p1812
sS'NSE/CMC'
p1813
S'CMC Limited'
p1814
sS'NSE/PERSISTENT'
p1815
S'Persistent Systems Limited'
p1816
sS'NSE/LTFH'
p1817
S'L&T Finance Holdings Limited'
p1818
sS'NSE/KAJARIACER'
p1819
S'Kajaria Ceramics Limited'
p1820
sS'NSE/NAVINFLUOR'
p1821
S'Navin Fluorine International Limited'
p1822
sS'NSE/RKFORGE'
p1823
S'Ramkrishna Forgings Limited'
p1824
sS'NSE/REMSONSIND'
p1825
S'Remsons Industries Limited'
p1826
sS'NSE/SHIV_VANI'
p1827
S'Shiv-Vani Oil & Gas Exploration Services Limited'
p1828
sS'NSE/AMTEKINDIA'
p1829
S'Amtek India Limited'
p1830
sS'NSE/NKIND'
p1831
S'NK Industries Limited'
p1832
sS'NSE/CAMLIN'
p1833
S'Camlin Limited'
p1834
sS'NSE/ESL'
p1835
S'Electrosteel Steels Limited'
p1836
sS'NSE/JKBANK'
p1837
S'The Jammu & Kashmir Bank Limited'
p1838
sS'NSE/BAJAJELEC'
p1839
S'Bajaj Electricals Limited'
p1840
sS'NSE/GVKPIL'
p1841
S'GVK Power & Infrastructure Limited'
p1842
sS'NSE/NAVNETPUBL'
p1843
S'Navneet Publications India Limited'
p1844
sS'NSE/NIFTY_PSE'
p1845
S'National Stock Exchange of India (NSE) Stock Index - Nifty PSE'
p1846
sS'NSE/CNXREALTY'
p1847
S'National Stock Exchange of India Stock Index - CNX REALTY'
p1848
sS'NSE/JSWHL'
p1849
S'JSW Holdings Limited'
p1850
sS'NSE/NIFTY_500'
p1851
S'National Stock Exchange of India (NSE) Stock Index - Nifty 500'
p1852
sS'NSE/IGPL'
p1853
S'IG Petrochemicals Limited'
p1854
sS'NSE/VEDL'
p1855
S'Vedanta Limited'
p1856
sS'NSE/DBSTOCKBRO'
p1857
S'DB (International) Stock Brokers Limited'
p1858
sS'NSE/GEPIL'
p1859
S'GE Power India Limited'
p1860
sS'NSE/SAVERA'
p1861
S'Savera Industries Limited'
p1862
sS'NSE/HILTON'
p1863
S'Hilton Metal Forging Limited'
p1864
sS'NSE/RAMCOIND'
p1865
S'Ramco Industries Limited'
p1866
sS'NSE/LPDC'
p1867
S'Landmark Property Development Company Limited'
p1868
sS'NSE/BSLIMITED'
p1869
S'BS LIMITED'
p1870
sS'NSE/BALMLAWRIE'
p1871
S'Balmer Lawrie & Company Limited'
p1872
sS'NSE/GANDHITUBE'
p1873
S'Gandhi Special Tubes Limited'
p1874
sS'NSE/NEOCORP'
p1875
S'Neo Corp International Limited'
p1876
sS'NSE/SOUISPAT'
p1877
S'Southern Ispat And Energy Limited'
p1878
sS'NSE/HYDROSS'
p1879
S'Hydro S & S Industries Limited'
p1880
sS'NSE/MAX'
p1881
S'Max India Limited'
p1882
sS'NSE/SITINET'
p1883
S'Siti Networks Limited'
p1884
sS'NSE/CNX_ALPHA_INDEX'
p1885
S'National Stock Exchange of India (NSE) Stock Index - CNX Alpha'
p1886
sS'NSE/PGHH'
p1887
S'Procter & Gamble Hygiene and Health Care Limited'
p1888
sS'NSE/FSL'
p1889
S'Firstsource Solutions Limited'
p1890
sS'NSE/HDFC'
p1891
S'Housing Development Finance Corporation Limited'
p1892
sS'NSE/BSL'
p1893
S'BSL Limited'
p1894
sS'NSE/BSE'
p1895
S'BSE Limited'
p1896
sS'NSE/PRITHVI'
p1897
S'Prithvi Information Solutions Limited'
p1898
sS'NSE/ARROWGREEN'
p1899
S'Arrow Greentech Limited'
p1900
sS'NSE/ISMTLTD'
p1901
S'ISMT Limited'
p1902
sS'NSE/BIRLAERIC'
p1903
S'Birla Ericsson Optical Limited'
p1904
sS'NSE/COXKINGS'
p1905
S'Cox & Kings Limited'
p1906
sS'NSE/KCP'
p1907
S'KCP Limited'
p1908
sS'NSE/PNB'
p1909
S'Punjab National Bank'
p1910
sS'NSE/PNC'
p1911
S'Pritish Nandy Communications Limited'
p1912
sS'NSE/ACKRUTI'
p1913
S'Ackruti City Limited'
p1914
sS'NSE/BHARATWIRE'
p1915
S'Bharat Wire Ropes Limited'
p1916
sS'NSE/PFOCUS'
p1917
S'Prime Focus Limited'
p1918
sS'NSE/NIRVIKARA'
p1919
S'Nirvikara Paper Mills Limited'
p1920
sS'NSE/TEAMLEASE'
p1921
S'Teamlease Services Limited'
p1922
sS'NSE/SHARDACROP'
p1923
S'Sharda Cropchem Limited'
p1924
sS'NSE/UTISENSETF'
p1925
S'UTI Mutual Fund - UTI-Sensex Exchange Traded Fund'
p1926
sS'NSE/CNXPSE'
p1927
S'National Stock Exchange of India Stock Index - CNX PSE'
p1928
sS'NSE/LTTS'
p1929
S'L&T Technology Services Limited'
p1930
sS'NSE/DENSO'
p1931
S'Denso India Limited'
p1932
sS'NSE/SETFNIFJR'
p1933
S'SBIAMC - SETFNIFJR'
p1934
sS'NSE/CELEBRITY'
p1935
S'Celebrity Fashions Limited'
p1936
sS'NSE/IBVENTURES'
p1937
S'Indiabulls Ventures Limited'
p1938
sS'NSE/HIL'
p1939
S'HIL Limited'
p1940
sS'NSE/ROSSELLIND'
p1941
S'Rossell India Limited'
p1942
sS'NSE/TANTIACONS'
p1943
S'Tantia Constructions Limited'
p1944
sS'NSE/JYOTHYLAB'
p1945
S'Jyothy Laboratories Limited'
p1946
sS'NSE/DISHMAN'
p1947
S'Dishman Pharmaceuticals and Chemicals Limited'
p1948
sS'NSE/CNXSMALLCAP'
p1949
S'National Stock Exchange of India Stock Index - CNX SMALLCAP'
p1950
sS'NSE/INDHOTEL'
p1951
S'The Indian Hotels Company Limited'
p1952
sS'NSE/HDFCSENETF'
p1953
S'HDFCAMC - HDFCSENETF'
p1954
sS'NSE/INFODRIVE'
p1955
S'Info-Drive Software Limited'
p1956
sS'NSE/ENTEGRA'
p1957
S'Entegra Limited'
p1958
sS'NSE/ENERGYDEV'
p1959
S'Energy Development Company Limited'
p1960
sS'NSE/INDIANHUME'
p1961
S'Indian Hume Pipe Company Limited'
p1962
sS'NSE/SIMPLEX'
p1963
S'Simplex Projects Limited'
p1964
sS'NSE/TRF'
p1965
S'TRF Limited'
p1966
sS'NSE/ONGC'
p1967
S'Oil & Natural Gas Corporation Limited'
p1968
sS'NSE/GOLDTECH'
p1969
S'Goldstone Technologies Limited'
p1970
sS'NSE/VBL'
p1971
S'Varun Beverages Limited'
p1972
sS'NSE/ZEENEWS'
p1973
S'Zee News Limited'
p1974
sS'NSE/WELENT'
p1975
S'Welspun Enterprises Limited'
p1976
sS'NSE/LT'
p1977
S'Larsen & Toubro Limited'
p1978
sS'NSE/CNX_MIDCAP'
p1979
S'National Stock Exchange of India (NSE) Stock Index - CNX Midcap'
p1980
sS'NSE/SARTHAKIND'
p1981
S'Sarthak Industries Limited'
p1982
sS'NSE/BROADCAST'
p1983
S'Broadcast Initiatives Limited'
p1984
sS'NSE/INDIACEM'
p1985
S'The India Cements Limited'
p1986
sS'NSE/GKWLIMITED'
p1987
S'GKW Limited'
p1988
sS'NSE/AUROPHARMA'
p1989
S'Aurobindo Pharma Limited'
p1990
sS'NSE/KOUTONS'
p1991
S'Koutons Retail India Limited'
p1992
sS'NSE/CNX_MNC'
p1993
S'National Stock Exchange of India (NSE) Stock Index - CNX MNC'
p1994
sS'NSE/SIMPLEXCAS'
p1995
S'Simplex Castings Limited'
p1996
sS'NSE/JAGSNPHARM'
p1997
S'Jagsonpal Pharmaceuticals Limited'
p1998
sS'NSE/MANAKCOAT'
p1999
S'Manaksia Coated Metals & Industries Limited'
p2000
sS'NSE/GULFOILLUB'
p2001
S'Gulf Oil Lubricants India Limited'
p2002
sS'NSE/BERGEPAINT'
p2003
S'Berger Paints (I) Limited'
p2004
sS'NSE/3IINFOTECH'
p2005
S'3i Infotech Limited'
p2006
sS'NSE/WABAG'
p2007
S'VA Tech Wabag Limited'
p2008
sS'NSE/KSE'
p2009
S'KSE Limited'
p2010
sS'NSE/SORILINFRA'
p2011
S'SORIL Infra Resources Limited'
p2012
sS'NSE/BAGFILMS'
p2013
S'B.A.G Films and Media Limited'
p2014
sS'NSE/TDPOWERSYS'
p2015
S'TD Power Systems Limited'
p2016
sS'NSE/TEXRAIL'
p2017
S'Texmaco Rail & Engineering Limited'
p2018
sS'NSE/WELENTRP'
p2019
S'Welspun Enterprises Limited'
p2020
sS'NSE/CORDSCABLE'
p2021
S'Cords Cable Industries Limited'
p2022
sS'NSE/RPOWER'
p2023
S'Reliance Power Limited'
p2024
sS'NSE/KESORAMIND'
p2025
S'Kesoram Industries Limited'
p2026
sS'NSE/AMLSTEEL'
p2027
S'AML Steel Limited'
p2028
sS'NSE/MAHSEAMLES'
p2029
S'Maharashtra Seamless Limited'
p2030
sS'NSE/EDL'
p2031
S'Empee Distilleries Limited'
p2032
sS'NSE/MAHINDUGIN'
p2033
S'Mahindra Ugine Steel Company Limited'
p2034
sS'NSE/RELIGAREGO'
p2035
S'Religare Invesco Gold Exchange Traded Fund'
p2036
sS'NSE/CUB'
p2037
S'City Union Bank Limited'
p2038
sS'NSE/CAREERP'
p2039
S'Career Point Limited'
p2040
sS'NSE/PKTEA'
p2041
S'The Peria Karamalai Tea & Produce Company Limited'
p2042
sS'NSE/DAMODARIND'
p2043
S'Damodar Industries Limited'
p2044
sS'NSE/TPLPLASTEH'
p2045
S'TPL Plastech Limited'
p2046
sS'NSE/SANCO'
p2047
S'Sanco Industries Limited'
p2048
sS'NSE/SEINV'
p2049
S'S.E. Investments Limited'
p2050
sS'NSE/RANEHOLDIN'
p2051
S'Rane Holdings Limited'
p2052
sS'NSE/DIGJAMLTD'
p2053
S'Digjam Limited'
p2054
sS'NSE/JOCIL'
p2055
S'Jocil Limited'
p2056
sS'NSE/INDOSOLAR'
p2057
S'Indosolar Limited'
p2058
sS'NSE/LINCPEN'
p2059
S'Linc Pen & Plastics Limited'
p2060
sS'NSE/AJANTPHARM'
p2061
S'Ajanta Pharma Limited'
p2062
sS'NSE/SHARDAMOTR'
p2063
S'Sharda Motor Industries Limited'
p2064
sS'NSE/SBT'
p2065
S'State Bank of Travancore'
p2066
sS'NSE/NIF100IWIN'
p2067
S'ICICI Prudential Nifty 100 ETF'
p2068
sS'NSE/MCDHOLDING'
p2069
S'McDowell Holdings Limited'
p2070
sS'NSE/TECHM'
p2071
S'Tech Mahindra Limited'
p2072
sS'NSE/WHIRLPOOL'
p2073
S'Whirlpool of India Limited'
p2074
sS'NSE/GREAVESCOT'
p2075
S'Greaves Cotton Limited'
p2076
sS'NSE/NUCLEUS'
p2077
S'Nucleus Software Exports Limited'
p2078
sS'NSE/EQ30'
p2079
S'EDELAMC - EQ30'
p2080
sS'NSE/SPICEMOBI'
p2081
S'Spice Mobility Limited'
p2082
sS'NSE/MAHLIFE'
p2083
S'Mahindra Lifespace Developers Limited'
p2084
sS'NSE/ALPSINDUS'
p2085
S'Alps Industries Limited'
p2086
sS'NSE/COLPAL'
p2087
S'Colgate Palmolive (India) Limited'
p2088
sS'NSE/LCCINFOTEC'
p2089
S'LCC Infotech Limited'
p2090
sS'NSE/CNX_FMCG'
p2091
S'National Stock Exchange of India (NSE) Stock Index - CNX FMCG'
p2092
sS'NSE/PATINTLOG'
p2093
S'Patel Integrated Logistics Limited'
p2094
sS'NSE/GTOFFSHORE'
p2095
S'GOL Offshore Limited'
p2096
sS'NSE/ALANKIT'
p2097
S'Alankit Limited'
p2098
sS'NSE/TIRUMALCHM'
p2099
S'Thirumalai Chemicals Limited'
p2100
sS'NSE/ATUL'
p2101
S'Atul Limited'
p2102
sS'NSE/PONNIERODE'
p2103
S'Ponni Sugars (Erode) Limited'
p2104
sS'NSE/STERTOOLS'
p2105
S'Sterling Tools Limited'
p2106
sS'NSE/QGOLDHALF'
p2107
S'Quantum Gold Fund -Exchange Traded Fund (ETF)'
p2108
sS'NSE/REIAGROLTD'
p2109
S'Rei Agro Limited'
p2110
sS'NSE/VIPUL'
p2111
S'Vipul Limited'
p2112
sS'NSE/UTTAMVALUE'
p2113
S'Uttam Value Steels Limited'
p2114
sS'NSE/HEXAWARE'
p2115
S'Hexaware Technologies Limited'
p2116
sS'NSE/VIJAYABANK'
p2117
S'Vijaya Bank'
p2118
sS'NSE/TOKYOPLAST'
p2119
S'Tokyo Plast International Limited'
p2120
sS'NSE/ANANTRAJ'
p2121
S'Anant Raj Limited'
p2122
sS'NSE/KRIDHANINF'
p2123
S'Kridhan Infra Limited'
p2124
sS'NSE/SHYAMTEL'
p2125
S'Shyam Telecom Limited'
p2126
sS'NSE/TATAMTRDVR'
p2127
S'Tata Motors Limited'
p2128
sS'NSE/TODAYS'
p2129
S'Todays Writing Instruments Limited'
p2130
sS'NSE/ANTGRAPHIC'
p2131
S'Antarctica Limited'
p2132
sS'NSE/CNX_500'
p2133
S'National Stock Exchange of India (NSE) Stock Index - CNX 500'
p2134
sS'NSE/SUPRAJIT'
p2135
S'Suprajit Engineering Limited'
p2136
sS'NSE/APOLLOTYRE'
p2137
S'Apollo Tyres Limited'
p2138
sS'NSE/CROMPGREAV'
p2139
S'Crompton Greaves Limited'
p2140
sS'NSE/NUTEK'
p2141
S'Nu Tek India Limited'
p2142
sS'NSE/SOMATEX'
p2143
S'Soma Textiles & Industries Limited'
p2144
sS'NSE/BLKASHYAP'
p2145
S'B. L. Kashyap and Sons Limited'
p2146
sS'NSE/BHAGERIA'
p2147
S'Bhageria Industries Limited'
p2148
sS'NSE/SUBROS'
p2149
S'Subros Limited'
p2150
sS'NSE/AXISCADES'
p2151
S'AXISCADES Engineering Technologies Limited'
p2152
sS'NSE/JAYAGROGN'
p2153
S'Jayant Agro Organics Limited'
p2154
sS'NSE/MAZDA'
p2155
S'Mazda Limited'
p2156
sS'NSE/INFRATEL'
p2157
S'Bharti Infratel Limited'
p2158
sS'NSE/SUNDARAM'
p2159
S'Sundaram Multi Pap Limited'
p2160
sS'NSE/RML'
p2161
S'Rane (Madras) Limited'
p2162
sS'NSE/VALECHAENG'
p2163
S'Valecha Engineering Limited'
p2164
sS'NSE/PDMJEPAPER'
p2165
S'Pudumjee Paper Products Limited'
p2166
sS'NSE/JUBILANT'
p2167
S'Jubilant Life Sciences Limited'
p2168
sS'NSE/FELDVR'
p2169
S'Future Enterprises Limited'
p2170
sS'NSE/NIFTYIWIN'
p2171
S'ICICI Prudential Nifty Exchange Traded Fund'
p2172
sS'NSE/SALONACOT'
p2173
S'Salona Cotspin Limited'
p2174
sS'NSE/GOLDINFRA'
p2175
S'Goldstone Infratech Limited'
p2176
sS'NSE/EXCELCROP'
p2177
S'Excel Crop Care Limited'
p2178
sS'NSE/WONDERLA'
p2179
S'Wonderla Holidays Limited'
p2180
sS'NSE/DCM'
p2181
S'DCM Limited'
p2182
sS'NSE/M50'
p2183
S'Motilal Oswal Mutual Fund - Motilal Oswal MOSt Shares M50 ETF'
p2184
sS'NSE/BAJAJ_AUTO'
p2185
S'Bajaj Auto Limited'
p2186
sS'NSE/CONSOFINVT'
p2187
S'Consolidated Finvest & Holdings Limited'
p2188
sS'NSE/ESCORTS'
p2189
S'Escorts Limited'
p2190
sS'NSE/LITL'
p2191
S'Lanco Infratech Limited'
p2192
sS'NSE/JPPOWER'
p2193
S'Jaiprakash Power Ventures Limited'
p2194
sS'NSE/UMESLTD'
p2195
S'Usha Martin Education & Solutions Limited'
p2196
sS'NSE/FIRSTLEASE'
p2197
S'First Leasing Company of India Limited'
p2198
sS'NSE/LIQUIDBEES'
p2199
S'R*Shares Liquid BeES'
p2200
sS'NSE/THYROCARE'
p2201
S'Thyrocare Technologies Limited'
p2202
sS'NSE/GODREJPROP'
p2203
S'Godrej Properties Limited'
p2204
sS'NSE/IPAPPM'
p2205
S'International Paper APPM Limited'
p2206
sS'NSE/QUESS'
p2207
S'Quess Corp Limited'
p2208
sS'NSE/INDRAMEDCO'
p2209
S'Indraprastha Medical Corporation Limited'
p2210
sS'NSE/TCS'
p2211
S'Tata Consultancy Services Limited'
p2212
sS'NSE/PILANIINVS'
p2213
S'Pilani Investment and Industries Corporation Limited'
p2214
sS'NSE/LICNFENGP'
p2215
S'LICNAMC - LICNFENGP'
p2216
sS'NSE/ICSA'
p2217
S'ICSA (India) Limited'
p2218
sS'NSE/GTNTEX'
p2219
S'GTN Textiles Limited'
p2220
sS'NSE/DHANBANK'
p2221
S'Dhanlaxmi Bank Limited'
p2222
sS'NSE/TCI'
p2223
S'Transport Corporation of India Limited'
p2224
sS'NSE/VISAKAIND'
p2225
S'Visaka Industries Limited'
p2226
sS'NSE/TMRVL'
p2227
S'The Mandhana Retail Ventures Limited'
p2228
sS'NSE/AANJANEYA'
p2229
S'Aanjaneya Lifecare Limited'
p2230
sS'NSE/CNX200'
p2231
S'National Stock Exchange of India Stock Index - CNX 200'
p2232
sS'NSE/NIFTY50_VALUE_20'
p2233
S'National Stock Exchange of India (NSE) Stock Index - Nifty50 Value 20'
p2234
sS'NSE/JKCEMENT'
p2235
S'JK Cement Limited'
p2236
sS'NSE/CIGNITITEC'
p2237
S'Cigniti Technologies Limited'
p2238
sS'NSE/SOMANYCERA'
p2239
S'Somany Ceramics Limited'
p2240
sS'NSE/JUBLINDS'
p2241
S'Jubilant Industries Limited'
p2242
sS'NSE/NIFTY_DIV_OPPS_50'
p2243
S'National Stock Exchange of India (NSE) Stock Index - Nifty Dividend Opportunities 50'
p2244
sS'NSE/SUTLEJTEX'
p2245
S'Sutlej Textiles and Industries Limited'
p2246
sS'NSE/BANARBEADS'
p2247
S'Banaras Beads Limited'
p2248
sS'NSE/GEODESIC'
p2249
S'Geodesic Limited'
p2250
sS'NSE/VIKASHMET'
p2251
S'Vikash Metal & Power Limited'
p2252
sS'NSE/RAJTV'
p2253
S'Raj Television Network Limited'
p2254
sS'NSE/ARROWCOAT'
p2255
S'Arrow Coated Products Limited'
p2256
sS'NSE/IIFL'
p2257
S'IIFL Holdings Limited'
p2258
sS'NSE/GARDENSILK'
p2259
S'Garden Silk Mills Limited'
p2260
sS'NSE/WELPROJ'
p2261
S'Welspun Projects Limited'
p2262
sS'NSE/KTIL'
p2263
S'Kesar Terminals & Infrastructure Limited'
p2264
sS'NSE/ALICON'
p2265
S'Alicon Castalloy Limited'
p2266
sS'NSE/FRL'
p2267
S'FUTURE ENTERPRISES LIMITED'
p2268
sS'NSE/PGIL'
p2269
S'Pearl Global Industries Limited'
p2270
sS'NSE/LUMAXIND'
p2271
S'Lumax Industries Limited'
p2272
sS'NSE/SIMBHALS'
p2273
S'Simbhaoli Sugars Limited'
p2274
sS'NSE/ANKURDRUGS'
p2275
S'Ankur Drugs And Pharma Limited'
p2276
sS'NSE/INGVYSYABK'
p2277
S'ING Vysya Bank Limited'
p2278
sS'NSE/SANDESH'
p2279
S'The Sandesh Limited'
p2280
sS'NSE/NIFTYEES'
p2281
S'Edelweiss ETF - Nifty 50'
p2282
sS'NSE/RESPONIND'
p2283
S'Responsive Industries Limited'
p2284
sS'NSE/MANJUSHREE'
p2285
S'Manjushree Technopack Limited'
p2286
sS'NSE/SYNCOM'
p2287
S'Syncom Healthcare Limited'
p2288
sS'NSE/RELCAPITAL'
p2289
S'Reliance Capital Limited'
p2290
sS'NSE/TULIP'
p2291
S'Tulip Telecom Limited'
p2292
sS'NSE/USHERAGRO'
p2293
S'Usher Agro Limited'
p2294
sS'NSE/MENONBE'
p2295
S'Menon Bearings Limited'
p2296
sS'NSE/SHRIASTER'
p2297
S'SHRI ASTER SILICATES LIMITED'
p2298
sS'NSE/SRHHLINDST'
p2299
S'SRHHL Industries Limited'
p2300
sS'NSE/SCI'
p2301
S'Shipping Corporation Of India Limited'
p2302
sS'NSE/ASHIANA'
p2303
S'Ashiana Housing Limited'
p2304
sS'NSE/WANBURY'
p2305
S'Wanbury Limited'
p2306
sS'NSE/SYNGENE'
p2307
S'Syngene International Limited'
p2308
sS'NSE/AXIS_ITT'
p2309
S'Axis-IT&T Limited'
p2310
sS'NSE/IMIDCAP'
p2311
S'ICICIPRAMC - IMIDCAP'
p2312
sS'NSE/PCJEWELLER'
p2313
S'PC Jeweller Limited'
p2314
sS'NSE/ARVINDREM'
p2315
S'Arvind Remedies Limited'
p2316
sS'NSE/HAVELLS'
p2317
S'Havells India Limited'
p2318
sS'NSE/VLSFINANCE'
p2319
S'VLS Finance Limited'
p2320
sS'NSE/JUNIORBEES'
p2321
S'R*Shares Junior BeES'
p2322
sS'NSE/BAJAJHLDNG'
p2323
S'Bajaj Holdings & Investment Limited'
p2324
sS'NSE/PARACABLES'
p2325
S'Paramount Communications Limited'
p2326
sS'NSE/PRABHAT'
p2327
S'Prabhat Dairy Limited'
p2328
sS'NSE/KAYA'
p2329
S'Kaya Limited'
p2330
sS'NSE/INVENTURE'
p2331
S'Inventure Growth & Securities Limited'
p2332
sS'NSE/PIONEEREMB'
p2333
S'Pioneer Embroideries Limited'
p2334
sS'NSE/NIFTY_METAL'
p2335
S'National Stock Exchange of India (NSE) Stock Index - Nifty Metal'
p2336
sS'NSE/DCMSHRIRAM'
p2337
S'DCM Shriram Limited'
p2338
sS'NSE/JHS'
p2339
S'JHS Svendgaard Laboratories Limited'
p2340
sS'NSE/DLF'
p2341
S'DLF Limited'
p2342
sS'NSE/TIMESGTY'
p2343
S'Times Guaranty Limited'
p2344
sS'NSE/BHARTISHIP'
p2345
S'Bharati Shipyard Limited'
p2346
sS'NSE/PNEUMATIC'
p2347
S'Pneumatic Holdings Limited'
p2348
sS'NSE/GANECOS'
p2349
S'Ganesha Ecosphere Limited'
p2350
sS'NSE/JBCHEPHARM'
p2351
S'JB Chemicals & Pharmaceuticals Limited'
p2352
sS'NSE/JMTAUTOLTD'
p2353
S'JMT Auto Limited'
p2354
sS'NSE/SURANACORP'
p2355
S'Surana Corporation Limited'
p2356
sS'NSE/KANSAINER'
p2357
S'Kansai Nerolac Paints Limited'
p2358
sS'NSE/NIFTY_MNC'
p2359
S'National Stock Exchange of India (NSE) Stock Index - Nifty MNC'
p2360
sS'NSE/NIFTY500_SHARIAH'
p2361
S'National Stock Exchange of India (NSE) Stock Index - Nifty500 Shariah'
p2362
sS'NSE/RATNAMANI'
p2363
S'Ratnamani Metals & Tubes Limited'
p2364
sS'NSE/NIFTY_IT'
p2365
S'National Stock Exchange of India (NSE) Stock Index - Nifty IT'
p2366
sS'NSE/VETO'
p2367
S'Veto Switchgears And Cables Limited'
p2368
sS'NSE/HOTELEELA'
p2369
S'Hotel Leela Venture Limited'
p2370
sS'NSE/BIOCON'
p2371
S'Biocon Limited'
p2372
sS'NSE/ELECON'
p2373
S'Elecon Engineering Company Limited'
p2374
sS'NSE/BHARATRAS'
p2375
S'Bharat Rasayan Limited'
p2376
sS'NSE/MARATHON'
p2377
S'Marathon Nextgen Realty Limited'
p2378
sS'NSE/SAMBANDAM'
p2379
S'Sambandam Spinning Mills Limited'
p2380
sS'NSE/BINDALAGRO'
p2381
S'Oswal Chemicals & Fertilizers Limited'
p2382
sS'NSE/RDEL'
p2383
S'Reliance Defence and Engineering Limited'
p2384
sS'NSE/IMPEXFERRO'
p2385
S'Impex Ferro Tech Limited'
p2386
sS'NSE/ESABINDIA'
p2387
S'Esab India Limited'
p2388
sS'NSE/THOMASCOTT'
p2389
S'Thomas Scott (India) Limited'
p2390
sS'NSE/SAMINDUS'
p2391
S'SAM Industries Limited'
p2392
sS'NSE/NFL'
p2393
S'National Fertilizers Limited'
p2394
sS'NSE/HIGHGROUND'
p2395
S'High Ground Enterprise Limited'
p2396
sS'NSE/JKIL'
p2397
S'J.Kumar Infraprojects Limited'
p2398
sS'NSE/AFL'
p2399
S'Accel Frontline Limited'
p2400
sS'NSE/VADILALIND'
p2401
S'Vadilal Industries Limited'
p2402
sS'NSE/RSWM'
p2403
S'RSWM Limited'
p2404
sS'NSE/BAJAJHIND'
p2405
S'Bajaj Hindusthan Sugar Limited'
p2406
sS'NSE/SUNCLAYLTD'
p2407
S'Sundaram Clayton Limited'
p2408
sS'NSE/CROMPTON'
p2409
S'Crompton Greaves Consumer Electricals Limited'
p2410
sS'NSE/SOLARINDS'
p2411
S'Solar Industries India Limited'
p2412
sS'NSE/EIDPARRY'
p2413
S'EID Parry India Limited'
p2414
sS'NSE/PRESTIGE'
p2415
S'Prestige Estates Projects Limited'
p2416
sS'NSE/CNX_METAL'
p2417
S'National Stock Exchange of India (NSE) Stock Index - CNX Metal'
p2418
sS'NSE/SALONA'
p2419
S'Salona Cotspin Limited'
p2420
sS'NSE/AGRE'
p2421
S'Agre Developers Limited'
p2422
sS'NSE/QUINTEGRA'
p2423
S'Quintegra Solutions Limited'
p2424
sS'NSE/ZEELEARN'
p2425
S'Zee Learn Limited'
p2426
sS'NSE/NIFTYMIDCAP50'
p2427
S'National Stock Exchange of India Stock Index - NIFTY MIDCAP 50'
p2428
sS'NSE/CEATLTD'
p2429
S'CEAT Limited'
p2430
sS'NSE/GPTINFRA'
p2431
S'GPT Infraprojects Limited'
p2432
sS'NSE/IDFC'
p2433
S'IDFC Limited'
p2434
sS'NSE/SAGCEM'
p2435
S'Sagar Cements Limited'
p2436
sS'NSE/KDDL'
p2437
S'KDDL Limited'
p2438
sS'NSE/ORISSAMINE'
p2439
S'The Orissa Minerals Development Company Limited'
p2440
sS'NSE/SRTRANSFIN'
p2441
S'Shriram Transport Finance Company Limited'
p2442
sS'NSE/RCOM'
p2443
S'Reliance Communications Limited'
p2444
sS'NSE/GODFRYPHLP'
p2445
S'Godfrey Phillips India Limited'
p2446
sS'NSE/PATNI'
p2447
S'Patni Computer Systems Limited'
p2448
sS'NSE/JKTYRE'
p2449
S'JK Tyre & Industries Limited'
p2450
sS'NSE/ACROPETAL'
p2451
S'Acropetal Technologies Limited'
p2452
sS'NSE/TVTODAY'
p2453
S'TV Today Network Limited'
p2454
sS'NSE/INFOMEDIA'
p2455
S'INFOMEDIA PRESS LIMITED'
p2456
sS'NSE/NIITLTD'
p2457
S'NIIT Limited'
p2458
sS'NSE/JBMA'
p2459
S'JBM Auto Limited'
p2460
sS'NSE/NELCAST'
p2461
S'Nelcast Limited'
p2462
sS'NSE/INFIBEAM'
p2463
S'Infibeam Incorporation Limited'
p2464
sS'NSE/GKB'
p2465
S'GKB Ophthalmics Limited'
p2466
sS'NSE/KARMAENG'
p2467
S'Karma Energy Limited'
p2468
sS'NSE/SHANTIGEAR'
p2469
S'Shanthi Gears Limited'
p2470
sS'NSE/CNXALPHAINDEX'
p2471
S'National Stock Exchange of India Stock Index - CNX ALPHA INDEX'
p2472
sS'NSE/KSK'
p2473
S'KSK Energy Ventures Limited'
p2474
sS'NSE/TINPLATE'
p2475
S'The Tinplate Company of India Limited'
p2476
sS'NSE/KSL'
p2477
S'Kalyani Steels Limited'
p2478
sS'NSE/CHEMFALKAL'
p2479
S'Chemfab Alkalis Limited'
p2480
sS'NSE/SFCL'
p2481
S'Star Ferro and Cement Limited'
p2482
sS'NSE/NATHSEED'
p2483
S'Nath Seeds  Limited'
p2484
sS'NSE/WYETH'
p2485
S'Wyeth Limited'
p2486
sS'NSE/NATHBIOGEN'
p2487
S'Nath Bio-Genes (India) Limited'
p2488
sS'NSE/NATCOPHARM'
p2489
S'Natco Pharma Limited'
p2490
sS'NSE/GINNIFILA'
p2491
S'Ginni Filaments Limited'
p2492
sS'NSE/AMARAJABAT'
p2493
S'Amara Raja Batteries Limited'
p2494
sS'NSE/UPERGANGES'
p2495
S'Upper Ganges Sugar & Industries Limited'
p2496
sS'NSE/EIHOTEL'
p2497
S'EIH Limited'
p2498
sS'NSE/SUNTECK'
p2499
S'Sunteck Realty Limited'
p2500
sS'NSE/BALRAMCHIN'
p2501
S'Balrampur Chini Mills Limited'
p2502
sS'NSE/SADBHAV'
p2503
S'Sadbhav Engineering Limited'
p2504
sS'NSE/LOGIXMICRO'
p2505
S'Logix Microsystems Limited'
p2506
sS'NSE/IBREALEST'
p2507
S'Indiabulls Real Estate Limited'
p2508
sS'NSE/NIFTY_ENERGY'
p2509
S'National Stock Exchange of India (NSE) Stock Index - Nifty Energy'
p2510
sS'NSE/KPRMILL'
p2511
S'K.P.R. Mill Limited'
p2512
sS'NSE/KOVAI'
p2513
S'Kovai Medical Center & Hospital Limited'
p2514
sS'NSE/LAKSHMIMIL'
p2515
S'The Lakshmi Mills Company Limited'
p2516
sS'NSE/KSCL'
p2517
S'Kaveri Seed Company Limited'
p2518
sS'NSE/SHIVAMAUTO'
p2519
S'Shivam Autotech Limited'
p2520
sS'NSE/UNITEDTEA'
p2521
S'The United Nilgiri Tea Estates Company Limited'
p2522
sS'NSE/CNX_LOW_VOLATILITY'
p2523
S'National Stock Exchange of India (NSE) Stock Index - CNX Low Volatility'
p2524
sS'NSE/CNXIT'
p2525
S'National Stock Exchange of India Stock Index - CNX IT'
p2526
sS'NSE/HATHWAY'
p2527
S'Hathway Cable & Datacom Limited'
p2528
sS'NSE/KAVVERITEL'
p2529
S'Kavveri Telecom Products Limited'
p2530
sS'NSE/RAMCOSYS'
p2531
S'Ramco Systems Limited'
p2532
sS'NSE/NICCO'
p2533
S'Nicco Corporation Limited'
p2534
sS'NSE/FCL'
p2535
S'Fineotex Chemical Limited'
p2536
sS'NSE/ORBITCORP'
p2537
S'Orbit Corporation Limited'
p2538
sS'NSE/FCH'
p2539
S'Future Capital Holdings Limited'
p2540
sS'NSE/NBCC'
p2541
S'NBCC (INDIA) LIMITED'
p2542
sS'NSE/BFUTILITIE'
p2543
S'BF Utilities Limited'
p2544
sS'NSE/WINDMACHIN'
p2545
S'Windsor Machines Limited'
p2546
sS'NSE/HOPFL'
p2547
S'House of Pearl Fashions Limited'
p2548
sS'NSE/SPENTEX'
p2549
S'Spentex Industries Limited'
p2550
sS'NSE/WWIL'
p2551
S'Wire and Wireless (India) Limited'
p2552
sS'NSE/RELCNX100'
p2553
S'Reliance Mutual Fund - R* Shares CNX 100 Fund'
p2554
sS'NSE/MMFSL'
p2555
S'Money Matters Financial Services Limited'
p2556
sS'NSE/ZEEMEDIA'
p2557
S'Zee Media Corporation Limited'
p2558
sS'NSE/BBTC'
p2559
S'Bombay Burmah Trading Corporation Limited'
p2560
sS'NSE/BOC'
p2561
S'BOC India Limited'
p2562
sS'NSE/SHARIABEES'
p2563
S'R*Shares Shariah BeES'
p2564
sS'NSE/CNXENERGY'
p2565
S'National Stock Exchange of India Stock Index - CNX ENERGY'
p2566
sS'NSE/TTL'
p2567
S'T T Limited'
p2568
sS'NSE/PARRYSUGAR'
p2569
S'Parrys Sugar Industries Limited'
p2570
sS'NSE/HIKAL'
p2571
S'Hikal Limited'
p2572
sS'NSE/SASTASUNDR'
p2573
S'Sastasundar Ventures Limited'
p2574
sS'NSE/SKUMARSYNF'
p2575
S'S. Kumars Nationwide Limited'
p2576
sS'NSE/IPGETF'
p2577
S'ICICI Prudential Mutual Fund-ICICI Prudential Gold Exchange Traded Fund'
p2578
sS'NSE/RUBYMILLS'
p2579
S'The Ruby Mills Limited'
p2580
sS'NSE/TBZ'
p2581
S'Tribhovandas Bhimji Zaveri Limited'
p2582
sS'NSE/DONEAR'
p2583
S'Donear Industries Limited'
p2584
sS'NSE/EXCEL'
p2585
S'Excel Realty N Infra Limited'
p2586
sS'NSE/ICRA'
p2587
S'ICRA Limited'
p2588
sS'NSE/JAICORPLTD'
p2589
S'Jai Corp Limited'
p2590
sS'NSE/ASHCONIUL'
p2591
S'Ashco Niulab Industries Limited'
p2592
sS'NSE/VOLTAS'
p2593
S'Voltas Limited'
p2594
sS'NSE/HEG'
p2595
S'HEG Limited'
p2596
sS'NSE/20MICRONS'
p2597
S'20 Microns Limited'
p2598
sS'NSE/OMAXE'
p2599
S'Omaxe Limited'
p2600
sS'NSE/RAIREKMOH'
p2601
S'Raisaheb Reckhchand Mohota Spinning & Weaving Mills Limited'
p2602
sS'NSE/NAKODA'
p2603
S'Nakoda Limited'
p2604
sS'NSE/ZENTEC'
p2605
S'Zen Technologies Limited'
p2606
sS'NSE/RELBANK'
p2607
S'R* Shares Banking ETF'
p2608
sS'NSE/AUSTRAL'
p2609
S'Austral Coke & Projects Limited'
p2610
sS'NSE/INTELLECT'
p2611
S'Intellect Design Arena Limited'
p2612
sS'NSE/GEMINI'
p2613
S'Gemini Communication Limited'
p2614
sS'NSE/ENGINERSIN'
p2615
S'Engineers India Limited'
p2616
sS'NSE/NAHARSPING'
p2617
S'Nahar Spinning Mills Limited'
p2618
sS'NSE/WOCKPHARMA'
p2619
S'Wockhardt Limited'
p2620
sS'NSE/PARASPETRO'
p2621
S'Paras Petrofils Limited'
p2622
sS'NSE/SIEMENS'
p2623
S'Siemens Limited'
p2624
sS'NSE/BIRLACOT'
p2625
S'Birla Cotsyn (India) Limited'
p2626
sS'NSE/HOCL'
p2627
S'Hindustan Organic Chemicals Limited'
p2628
sS'NSE/BVCL'
p2629
S'Barak Valley Cements Limited'
p2630
sS'NSE/PENINLAND'
p2631
S'Peninsula Land Limited'
p2632
sS'NSE/TRIL'
p2633
S'Transformers And Rectifiers (India) Limited'
p2634
sS'NSE/REVATHI'
p2635
S'Revathi Equipment Limited'
p2636
sS'NSE/DTIL'
p2637
S'Dhunseri Tea & Industries Limited'
p2638
sS'NSE/RANBAXY'
p2639
S'Ranbaxy Laboratories Limited'
p2640
sS'NSE/ANGIND'
p2641
S'ANG Industries Limited'
p2642
sS'NSE/CNXCONSUMPTION'
p2643
S'National Stock Exchange of India Stock Index - CNX CONSUMPTION'
p2644
sS'NSE/TELEDATAIT'
p2645
S'Teledata Technology Solutions Limited'
p2646
sS'NSE/KILITCH'
p2647
S'Kilitch Drugs (India) Limited'
p2648
sS'NSE/LAKSHMIEFL'
p2649
S'Lakshmi Energy and Foods Limited'
p2650
sS'NSE/ARVSMART'
p2651
S'Arvind SmartSpaces Limited'
p2652
sS'NSE/SURAJDIAMN'
p2653
S'Su-Raj Diamonds and Jewellery Limited'
p2654
sS'NSE/MAYURUNIQ'
p2655
S'Mayur Uniquoters Ltd'
p2656
sS'NSE/CHOLAFIN'
p2657
S'Cholamandalam Investment and Finance Company Limited'
p2658
sS'NSE/NEULANDLAB'
p2659
S'Neuland Laboratories Limited'
p2660
sS'NSE/HCIL'
p2661
S'Himadri Chemicals and Industries Limited'
p2662
sS'NSE/ALPHAGEO'
p2663
S'Alphageo (India) Limited'
p2664
sS'NSE/VASCONEQ'
p2665
S'Vascon Engineers Limited'
p2666
sS'NSE/RAINCOM'
p2667
S'Rain Commodities  Limited'
p2668
sS'NSE/DLINKINDIA'
p2669
S'D-Link (India) Limited'
p2670
sS'NSE/NIFTY_CPSE'
p2671
S'National Stock Exchange of India (NSE) Stock Index - Nifty CPSE'
p2672
sS'NSE/KITEX'
p2673
S'Kitex Garments Limited'
p2674
sS'NSE/MYSOREBANK'
p2675
S'State Bank of Mysore'
p2676
sS'NSE/EXCELINDUS'
p2677
S'Excel Industries Limited'
p2678
sS'NSE/IVZINGOLD'
p2679
S'Invesco India Gold Exchange Traded Fund'
p2680
sS'NSE/VISUINTL'
p2681
S'Visu International Limited'
p2682
sS'NSE/MANAPPURAM'
p2683
S'Manappuram Finance Limited'
p2684
sS'NSE/VMART'
p2685
S'V-Mart Retail Limited'
p2686
sS'NSE/ADSL'
p2687
S'Allied Digital Services Limited'
p2688
sS'NSE/UPL'
p2689
S'UPL Limited'
p2690
sS'NSE/TWILITAKA'
p2691
S'Twilight Litaka Pharma Limited'
p2692
sS'NSE/ADFFOODS'
p2693
S'ADF Foods Limited'
p2694
sS'NSE/ARVINFRA'
p2695
S'Arvind Infrastructure Limited'
p2696
sS'NSE/HEROMOTOCO'
p2697
S'Hero MotoCorp Limited'
p2698
sS'NSE/TRENT'
p2699
S'Trent Limited'
p2700
sS'NSE/ADVANIHOTR'
p2701
S'Advani Hotels & Resorts (India) Limited'
p2702
sS'NSE/AMTL'
p2703
S'Advance Metering Technology Limited'
p2704
sS'NSE/CNXLOWVOLATILITY'
p2705
S'National Stock Exchange of India Stock Index - CNX LOW VOLATILITY'
p2706
sS'NSE/DOLPHINOFF'
p2707
S'Dolphin Offshore Enterprises (India) Limited'
p2708
sS'NSE/MADRASFERT'
p2709
S'Madras Fertilizers Limited'
p2710
sS'NSE/HEXATRADEX'
p2711
S'Hexa Tradex Limited'
p2712
sS'NSE/ASAL'
p2713
S'Automotive Stampings and Assemblies Limited'
p2714
sS'NSE/NRBBEARING'
p2715
S'NRB Bearing Limited'
p2716
sS'NSE/BIRLACABLE'
p2717
S'Birla Cable Limited'
p2718
sS'NSE/JAIHINDPRO'
p2719
S'Jaihind Projects Limited'
p2720
sS'NSE/NIFTY_ALPHA_50'
p2721
S'National Stock Exchange of India (NSE) Stock Index - Nifty Alpha 50'
p2722
sS'NSE/ICICIPRULI'
p2723
S'ICICI Prudential Life Insurance Company Limited'
p2724
sS'NSE/LSIL'
p2725
S'Lloyds Steels Industries Limited'
p2726
sS'NSE/SATIN'
p2727
S'Satin Creditcare Network Limited'
p2728
sS'NSE/GENUSPAPER'
p2729
S'Genus Paper & Boards Limited'
p2730
sS'NSE/SHARRESLTD'
p2731
S'Sharyans Resources Limited'
p2732
sS'NSE/PRADIP'
p2733
S'Pradip Overseas Limited'
p2734
sS'NSE/APARINDS'
p2735
S'Apar Industries Limited'
p2736
sS'NSE/RUSHIL'
p2737
S'Rushil Decor Limited'
p2738
sS'NSE/ESSELPACK'
p2739
S'Essel Propack Limited'
p2740
sS'NSE/BATLIBOI'
p2741
S'Batliboi Limited'
p2742
sS'NSE/BHEL'
p2743
S'Bharat Heavy Electricals Limited'
p2744
sS'NSE/NUCENT'
p2745
S'Nucent Finance Limited'
p2746
sS'NSE/KINETICMOT'
p2747
S'Kinetic Motor Company Limited'
p2748
sS'NSE/HDFCNIFETF'
p2749
S'HDFCAMC - HDFCNIFETF'
p2750
sS'NSE/GODREJCP'
p2751
S'Godrej Consumer Products Limited'
p2752
sS'NSE/GLORY'
p2753
S'Glory Polyfilms Limited'
p2754
sS'NSE/PAEL'
p2755
S'PAE Limited'
p2756
sS'NSE/RELAXO'
p2757
S'Relaxo Footwears Limited'
p2758
sS'NSE/TERASOFT'
p2759
S'Tera Software Limited'
p2760
sS'NSE/KOHINOOR'
p2761
S'Kohinoor Foods Limited'
p2762
sS'NSE/SRHHYPOLTD'
p2763
S'Sree Rayalaseema Hi-Strength Hypo Limited'
p2764
sS'NSE/EUROMULTI'
p2765
S'Euro Multivision Limited'
p2766
sS'NSE/SENTINEL'
p2767
S'Sentinel Tea and Exports Limited'
p2768
sS'NSE/RANASUG'
p2769
S'Rana Sugars Limited'
p2770
sS'NSE/NORTHGATE'
p2771
S'Northgate Technologies Limited'
p2772
sS'NSE/ICNX100'
p2773
S'ICICI Prudential Nifty 100 ETF'
p2774
sS'NSE/KHANDSE'
p2775
S'Khandwala Securities Limited'
p2776
sS'NSE/GOCLCORP'
p2777
S'GOCL Corporation Limited'
p2778
sS'NSE/CENTURYTEX'
p2779
S'Century Textiles & Industries Limited'
p2780
sS'NSE/SABERORGAN'
p2781
S'Sabero Organics Gujarat Limited'
p2782
sS'NSE/GILLETTE'
p2783
S'Gillette India Limited'
p2784
sS'NSE/CNX_PSE'
p2785
S'National Stock Exchange of India (NSE) Stock Index - CNX PSE'
p2786
sS'NSE/FINCABLES'
p2787
S'Finolex Cables Limited'
p2788
sS'NSE/IMFA'
p2789
S'Indian Metals & Ferro Alloys Limited'
p2790
sS'NSE/GODREJIND'
p2791
S'Godrej Industries Limited'
p2792
sS'NSE/ZENSARTECH'
p2793
S'Zensar Technologies Limited'
p2794
sS'NSE/LIX_15'
p2795
S'National Stock Exchange of India (NSE) Stock Index - LIX 15'
p2796
sS'NSE/LOVABLE'
p2797
S'Lovable Lingerie Limited'
p2798
sS'NSE/PNCINFRA'
p2799
S'PNC Infratech Limited'
p2800
sS'NSE/BPL'
p2801
S'BPL Limited'
p2802
sS'NSE/JISLJALEQS'
p2803
S'Jain Irrigation Systems Limited'
p2804
sS'NSE/LAXMIMACH'
p2805
S'Lakshmi Machine Works Limited'
p2806
sS'NSE/BGLOBAL'
p2807
S'Bharatiya Global Infomedia Limited'
p2808
sS'NSE/LYPSAGEMS'
p2809
S'Lypsa Gems & Jewellery Limited'
p2810
sS'NSE/LUPIN'
p2811
S'Lupin Limited'
p2812
sS'NSE/GREENPLY'
p2813
S'Greenply Industries Limited'
p2814
sS'NSE/BECREL'
p2815
S'Best & Crompton Engg. Limited'
p2816
sS'NSE/CNXPSUBANK'
p2817
S'National Stock Exchange of India Stock Index - CNX PSU BANK'
p2818
sS'NSE/LYCOS'
p2819
S'Lycos Internet Limited'
p2820
sS'NSE/LTI'
p2821
S'Larsen & Toubro Infotech Limited'
p2822
sS'NSE/UBHOLDINGS'
p2823
S'United Breweries (Holdings) Limited'
p2824
sS'NSE/BHARATFORG'
p2825
S'Bharat Forge Limited'
p2826
sS'NSE/PDSMFL'
p2827
S'PDS Multinational Fashions Limited'
p2828
sS'NSE/PRECWIRE'
p2829
S'Precision Wires India Limited'
p2830
sS'NSE/FUTUREVENT'
p2831
S'Future Ventures India Limited'
p2832
sS'NSE/MPHASIS'
p2833
S'MphasiS Limited'
p2834
sS'NSE/JMFINANCIL'
p2835
S'JM Financial Limited'
p2836
sS'NSE/GMDCLTD'
p2837
S'Gujarat Mineral Development Corporation Limited'
p2838
sS'NSE/NIFTY_SHARIAH_25'
p2839
S'National Stock Exchange of India (NSE) Stock Index - Nifty Shariah 25'
p2840
sS'NSE/TALBROAUTO'
p2841
S'Talbros Automotive Components Limited'
p2842
sS'NSE/LOKESHMACH'
p2843
S'Lokesh Machines Limited'
p2844
sS'NSE/MADRASCEM'
p2845
S'Madras Cements Limited'
p2846
sS'NSE/MLL'
p2847
S'Mercator Lines Limited'
p2848
sS'NSE/KAUSHALYA'
p2849
S'Kaushalya Infrastructure Development Corporation Limited'
p2850
sS'NSE/CNXCOMMODITIES'
p2851
S'National Stock Exchange of India Stock Index - CNX COMMODITIES'
p2852
sS'NSE/SUJANAUNI'
p2853
S'Sujana Universal Industries Limited'
p2854
sS'NSE/RMCL'
p2855
S'Radha Madhav Corporation Limited'
p2856
sS'NSE/WHEELS'
p2857
S'Wheels India Limited'
p2858
sS'NSE/INEOSSTYRO'
p2859
S'INEOS Styrolution India Limited'
p2860
sS'NSE/FCEL'
p2861
S'Future Consumer Enterprise Limited'
p2862
sS'NSE/PRESSMN'
p2863
S'Pressman Advertising Limited'
p2864
sS'NSE/MALUPAPER'
p2865
S'Malu Paper Mills Limited'
p2866
sS'NSE/JCTEL'
p2867
S'JCT Electronics Limited'
p2868
sS'NSE/FTCPOF5YDV'
p2869
S'Franklin Templeton Capital Protection Oriented Fund'
p2870
sS'NSE/ARCOTECH'
p2871
S'Arcotech Limited'
p2872
sS'NSE/ZICOM'
p2873
S'Zicom Electronic Security Systems Limited'
p2874
sS'NSE/DECCANCE'
p2875
S'Deccan Cements Limited'
p2876
sS'NSE/BALAMINES'
p2877
S'Balaji Amines Limited'
p2878
sS'NSE/SPARC'
p2879
S'Sun Pharma Advanced Research Company Limited'
p2880
sS'NSE/ZUARIAGRO'
p2881
S'Zuari Industries Limited'
p2882
sS'NSE/LUXIND'
p2883
S'Lux Industries Limited'
p2884
sS'NSE/CNX_BANK'
p2885
S'National Stock Exchange of India (NSE) Stock Index - CNX Bank'
p2886
sS'NSE/MANGCHEFER'
p2887
S'Mangalore Chemicals & Fertilizers Limited'
p2888
sS'NSE/LAKSHMIFIN'
p2889
S'The Lakshmi Finance & Industrial Corporation Limited'
p2890
sS'NSE/LINCOLN'
p2891
S'Lincoln Pharmaceuticals Limited'
p2892
sS'NSE/DHANUKA'
p2893
S'Dhanuka Agritech Limited'
p2894
sS'NSE/CEREBRAINT'
p2895
S'Cerebra Integrated Technologies Limited'
p2896
sS'NSE/OMNITECH'
p2897
S'Omnitech Infosolutions Limited'
p2898
sS'NSE/PFIZER'
p2899
S'Pfizer Limited'
p2900
sS'NSE/VIDHIDYE'
p2901
S'Vidhi Dyestuffs Manufacturing Limited'
p2902
sS'NSE/PDUMJEIND'
p2903
S'Pudumjee Industries Limited'
p2904
sS'NSE/TWL'
p2905
S'Titagarh Wagons Limited'
p2906
sS'NSE/CNX_COMMODITIES'
p2907
S'National Stock Exchange of India (NSE) Stock Index - CNX Commodities'
p2908
sS'NSE/PIPAVAVDOC'
p2909
S'Pipavav Defence and Offshore Engineering Company Limited'
p2910
sS'NSE/CNXMETAL'
p2911
S'National Stock Exchange of India Stock Index - CNX METAL'
p2912
sS'NSE/RAIN'
p2913
S'Rain Industries Limited'
p2914
sS'NSE/ICICIBANK'
p2915
S'ICICI Bank Limited'
p2916
sS'NSE/SEZAL'
p2917
S'Sezal Glass Limited'
p2918
sS'NSE/GALLANTT'
p2919
S'Gallantt Metal Limited'
p2920
sS'NSE/SGJHL'
p2921
S'SHREE GANESH JEWELLERY HOUSE (I) LIMITED'
p2922
sS'NSE/CNXBANK'
p2923
S'National Stock Exchange of India Stock Index - CNX BANK'
p2924
sS'NSE/TEXMACOLTD'
p2925
S'Texmaco Limited'
p2926
sS'NSE/NATNLSTEEL'
p2927
S'National Steel And Agro Industries Limited'
p2928
sS'NSE/MARICO'
p2929
S'Marico Limited'
p2930
sS'NSE/MUKTAARTS'
p2931
S'Mukta Arts Limited'
p2932
sS'NSE/VIVIDHA'
p2933
S'Visagar Polytex Limited'
p2934
sS'NSE/XPROINDIA'
p2935
S'Xpro India Limited'
p2936
sS'NSE/PREMIER'
p2937
S'Premier Limited'
p2938
sS'NSE/SAMTEL'
p2939
S'Samtel Color Limited'
p2940
sS'NSE/PARAPRINT'
p2941
S'Paramount Printpackaging Limited'
p2942
sS'NSE/BANKBARODA'
p2943
S'Bank of Baroda'
p2944
sS'NSE/CAPLIPOINT'
p2945
S'Caplin Point Laboratories Limited'
p2946
sS'NSE/VIDEOIND'
p2947
S'Videocon Industries Limited'
p2948
sS'NSE/AGARIND'
p2949
S'Agarwal Industrial Corporation Limited'
p2950
sS'NSE/NAHARINDUS'
p2951
S'Nahar Industrial Enterprises Limited'
p2952
sS'NSE/ESSAROIL'
p2953
S'Essar Oil Limited'
p2954
sS'NSE/ADI'
p2955
S'Adi Finechem Limited'
p2956
sS'NSE/RMMIL'
p2957
S'Resurgere Mines & Minerals Limited'
p2958
sS'NSE/LICNETFSEN'
p2959
S'LICNAMC - LICNFESGP'
p2960
sS'NSE/OMKARCHEM'
p2961
S'Omkar Speciality Chemicals Limited'
p2962
sS'NSE/PETRONENGG'
p2963
S'Petron Engineering Construction Limited'
p2964
sS'NSE/ALEMBICLTD'
p2965
S'Alembic Limited'
p2966
sS'NSE/DFMFOODS'
p2967
S'DFM Foods Limited'
p2968
sS'NSE/MAKE'
p2969
S'Marico Kaya Enterprises Limited'
p2970
sS'NSE/IGOLD'
p2971
S'ICICI Prudential Gold ETF'
p2972
sS'NSE/GPPL'
p2973
S'Gujarat Pipavav Port Limited'
p2974
sS'NSE/NDL'
p2975
S'Nandan Denim Limited'
p2976
sS'NSE/GLODYNE'
p2977
S'Glodyne Technoserve Limited'
p2978
sS'NSE/SOMICONVEY'
p2979
S'Somi Conveyor Beltings Limited'
p2980
sS'NSE/MUDRA'
p2981
S'Mudra Lifestyle Limited'
p2982
sS'NSE/GLFL'
p2983
S'Gujarat Lease Financing Limited'
p2984
sS'NSE/EDELWEISS'
p2985
S'Edelweiss Financial Services Limited'
p2986
sS'NSE/HITECHPLAS'
p2987
S'Hitech Plast Limited'
p2988
sS'NSE/IOLCP'
p2989
S'IOL Chemicals and Pharmaceuticals Limited'
p2990
sS'NSE/GSLNOVA'
p2991
S'GSL Nova Petrochemicals Limited'
p2992
sS'NSE/TIDEWATER'
p2993
S'Tide Water Oil Company (India) Limited'
p2994
sS'NSE/CNXMNC'
p2995
S'National Stock Exchange of India Stock Index - CNX MNC'
p2996
sS'NSE/PUNJLLOYD'
p2997
S'Punj Lloyd Limited'
p2998
sS'NSE/SRICHAMUND'
p2999
S'Sri Chamundeswari Sugars Limited'
p3000
sS'NSE/IPCALAB'
p3001
S'IPCA Laboratories Limited'
p3002
sS'NSE/DPTL'
p3003
S'Dhunseri Petrochem & Tea Limited'
p3004
sS'NSE/REISIXTEN'
p3005
S'REI Six Ten Retail Limited'
p3006
sS'NSE/VSSL'
p3007
S'Vardhman Special Steels Limited'
p3008
sS'NSE/ANANDAMRUB'
p3009
S'The Anandam Rubber Company Limited'
p3010
sS'NSE/OFSS'
p3011
S'Oracle Financial Services Software Limited'
p3012
sS'NSE/HORIZONINF'
p3013
S'Horizon Infrastructure Limited'
p3014
sS'NSE/BINANIIND'
p3015
S'Binani Industries Limited'
p3016
sS'NSE/RAJVIR'
p3017
S'Rajvir Industries Limited'
p3018
sS'NSE/APTECHT'
p3019
S'Aptech Limited'
p3020
sS'NSE/BALLARPUR'
p3021
S'Ballarpur Industries Limited'
p3022
sS'NSE/ASHOKLEY'
p3023
S'Ashok Leyland Limited'
p3024
sS'NSE/MANAKALUCO'
p3025
S'Manaksia Aluminium Company Limited'
p3026
sS'NSE/JCHAC'
p3027
S'Johnson Controls Hitachi Air Conditioning India Limited'
p3028
sS'NSE/RAJRAYON'
p3029
S'Raj Rayon Industries Limited'
p3030
sS'NSE/REDINGTON'
p3031
S'Redington (India) Limited'
p3032
sS'NSE/SMARTLINK'
p3033
S'Smartlink Network Systems Limited'
p3034
sS'NSE/PURVA'
p3035
S'Puravankara Limited'
p3036
sS'NSE/SETFGOLD'
p3037
S'SBI-ETF Gold'
p3038
sS'NSE/LUMAXTECH'
p3039
S'Lumax Auto Technologies Limited'
p3040
sS'NSE/RELCONS'
p3041
S'Reliance MF - R*Shares Consumption Fund - R* SHARES CONSUMPTION FUND'
p3042
sS'NSE/SUNILHITEC'
p3043
S'Sunil Hitech Engineers Limited'
p3044
sS'NSE/SJVN'
p3045
S'SJVN Limited'
p3046
sS'NSE/SAIL'
p3047
S'Steel Authority of India Limited'
p3048
sS'NSE/GAEL'
p3049
S'Gujarat Ambuja Exports Limited'
p3050
sS'NSE/EDSERV'
p3051
S'Edserv Softsystems Limited'
p3052
sS'NSE/NGCT'
p3053
S'Northgate Com Tech Limited'
p3054
sS'NSE/HITECHGEAR'
p3055
S'The Hi-Tech Gears Limited'
p3056
sS'NSE/TAKSHEEL'
p3057
S'Taksheel Solutions Limited'
p3058
sS'NSE/UFLEX'
p3059
S'UFLEX Limited'
p3060
sS'NSE/BILPOWER'
p3061
S'Bilpower  Limited'
p3062
sS'NSE/SUMEETINDS'
p3063
S'Sumeet Industries Limited'
p3064
sS'NSE/SETFNIF50'
p3065
S'SBI-ETF Nifty 50'
p3066
sS'NSE/ORIENTABRA'
p3067
S'Orient Abrasives Limited'
p3068
sS'NSE/PTL'
p3069
S'PTL Enterprises Limited'
p3070
sS'NSE/TRIVENI'
p3071
S'Triveni Engineering & Industries Limited'
p3072
sS'NSE/RELMEDIA'
p3073
S'Reliance MediaWorks Limited'
p3074
sS'NSE/ADANIPOWER'
p3075
S'Adani Power Limited'
p3076
sS'NSE/EVEREADY'
p3077
S'Eveready Industries India Limited'
p3078
sS'NSE/THIRUSUGAR'
p3079
S'Thiru Arooran Sugars Limited'
p3080
sS'NSE/MEGH'
p3081
S'Meghmani Organics Limited'
p3082
sS'NSE/TAINWALCHM'
p3083
S'Tainwala Chemical and Plastic (I) Limited'
p3084
sS'NSE/LLOYDSTEEL'
p3085
S'Lloyds Steel Industries Limited'
p3086
sS'NSE/BROOKS'
p3087
S'Brooks Laboratories Limited'
p3088
sS'NSE/RICOAUTO'
p3089
S'Rico Auto Industries Limited'
p3090
sS'NSE/NEXTMEDIA'
p3091
S'Next Mediaworks Limited'
p3092
sS'NSE/UBENGG'
p3093
S'UB Engineering Limited'
p3094
sS'NSE/TATASPONGE'
p3095
S'Tata Sponge Iron Limited'
p3096
sS'NSE/GSPL'
p3097
S'Gujarat State Petronet Limited'
p3098
sS'NSE/RJL'
p3099
S'Renaissance Jewellery Limited'
p3100
sS'NSE/WELINV'
p3101
S'Welspun Investments and Commercials Limited'
p3102
sS'NSE/SPAL'
p3103
S'S. P. Apparels Limited'
p3104
sS'NSE/INEABS'
p3105
S'INEOS ABS (India) Limited'
p3106
sS'NSE/ZANDUREALT'
p3107
S'Zandu Realty Limited'
p3108
sS'NSE/NESTLEIND'
p3109
S'Nestle India Limited'
p3110
sS'NSE/KOTHARIPRO'
p3111
S'Kothari Products Limited'
p3112
sS'NSE/GUJFLUORO'
p3113
S'Gujarat Fluorochemicals Limited'
p3114
sS'NSE/CCHHL'
p3115
S'Country Club Hospitality & Holidays Limited'
p3116
sS'NSE/ASTRAZEN'
p3117
S'AstraZeneca Pharma India Limited'
p3118
sS'NSE/OCL'
p3119
S'OCL India Limited'
p3120
sS'NSE/ORIENTLTD'
p3121
S'Orient Press Limited'
p3122
sS'NSE/UNIPHOS'
p3123
S'United Phosphorus Limited'
p3124
sS'NSE/CASTEXTECH'
p3125
S'Castex Technologies Limited'
p3126
sS'NSE/TECHIN'
p3127
S'TECHINDIA NIRMAN LIMITED'
p3128
sS'NSE/XLENERGY'
p3129
S'XL Energy Limited'
p3130
sS'NSE/NCOPPER'
p3131
S'Nissan Copper Limited'
p3132
sS'NSE/JAINSTUDIO'
p3133
S'Jain Studios Limited'
p3134
sS'NSE/BANARISUG'
p3135
S'Bannari Amman Sugars Limited'
p3136
sS'NSE/DQE'
p3137
S'DQ Entertainment (International) Limited'
p3138
sS'NSE/GULFOILCOR'
p3139
S'Gulf Oil Corporation Limited'
p3140
sS'NSE/CRISIL'
p3141
S'CRISIL Limited'
p3142
sS'NSE/TANFACIND'
p3143
S'Tanfac Industries Limited'
p3144
sS'NSE/VISHNU'
p3145
S'Vishnu Chemicals Limited'
p3146
sS'NSE/HGS'
p3147
S'Hinduja Global Solutions Limited'
p3148
sS'NSE/NOIDATOLL'
p3149
S'Noida Toll Bridge Company Limited'
p3150
sS'NSE/FOSECOIND'
p3151
S'Foseco India Limited'
p3152
sS'NSE/SUPER'
p3153
S'Super Sales India Limited'
p3154
sS'NSE/SUPERSPIN'
p3155
S'Super Spinning Mills Limited'
p3156
sS'NSE/KRITIIND'
p3157
S'Kriti Industries (India) Limited'
p3158
sS'NSE/MUKANDLTD'
p3159
S'Mukand Limited'
p3160
sS'NSE/RANEENGINE'
p3161
S'Rane Engine Valve Limited'
p3162
sS'NSE/AVTNPL'
p3163
S'AVT Natural Products Limited'
p3164
sS'NSE/ALLCARGO'
p3165
S'Allcargo Logistics Limited'
p3166
sS'NSE/SANGHIIND'
p3167
S'Sanghi Industries Limited'
p3168
sS'NSE/SEQUENT'
p3169
S'Sequent Scientific Limited'
p3170
sS'NSE/WALCHANNAG'
p3171
S'Walchandnagar Industries Limited'
p3172
sS'NSE/HERITGFOOD'
p3173
S'Heritage Foods Limited'
p3174
sS'NSE/CNX_NIFTY'
p3175
S'National Stock Exchange of India (NSE) Stock Index - CNX Nifty'
p3176
sS'NSE/JINDALSAW'
p3177
S'Jindal Saw Limited'
p3178
sS'NSE/MUTHOOTCAP'
p3179
S'Muthoot Capital Services Limited'
p3180
sS'NSE/DCB'
p3181
S'Development Credit Bank Limited'
p3182
sS'NSE/ADANIENT'
p3183
S'Adani Enterprises Limited'
p3184
sS'NSE/MCDOWELL_N'
p3185
S'United Spirits Limited'
p3186
sS'NSE/UMANGDAIRY'
p3187
S'Umang Dairies Limited'
p3188
sS'NSE/DCW'
p3189
S'DCW Limited'
p3190
sS'NSE/EXIDEIND'
p3191
S'Exide Industries Limited'
p3192
sS'NSE/SASKEN'
p3193
S'Sasken Communication Technologies Limited'
p3194
sS'NSE/SRSLTD'
p3195
S'SRS Limited'
p3196
sS'NSE/CNX_AUTO'
p3197
S'National Stock Exchange of India (NSE) Stock Index - CNX Auto'
p3198
sS'NSE/PTC'
p3199
S'PTC India Limited'
p3200
sS'NSE/MASTEK'
p3201
S'Mastek Limited'
p3202
sS'NSE/TATACOFFEE'
p3203
S'Tata Coffee Limited'
p3204
sS'NSE/SRIPIPES'
p3205
S'Srikalahasthi Pipes Limited'
p3206
sS'NSE/BAJAJCORP'
p3207
S'Bajaj Corp Limited'
p3208
sS'NSE/MBSWITCH'
p3209
S'M AND B Switchgears Limited'
p3210
sS'NSE/KOPRAN'
p3211
S'Kopran Limited'
p3212
sS'NSE/AQUA'
p3213
S'Aqua Logistics Limited'
p3214
sS'NSE/CHAMBLFERT'
p3215
S'Chambal Fertilizers & Chemicals Limited'
p3216
sS'NSE/CNX_DIVIDEND_OPPT'
p3217
S'National Stock Exchange of India (NSE) Stock Index - CNX Dividend Opportunities'
p3218
sS'NSE/DSKULKARNI'
p3219
S'DS Kulkarni Developers Limited'
p3220
sS'NSE/DRREDDY'
p3221
S"Dr. Reddy's Laboratories Limited"
p3222
sS'NSE/PHOENIXLL'
p3223
S'Phoenix Lamps Limited'
p3224
sS'NSE/CADILAHC'
p3225
S'Cadila Healthcare Limited'
p3226
sS'NSE/SANGAMIND'
p3227
S'Sangam (India) Limited'
p3228
sS'NSE/HDFCMFGETF'
p3229
S'HDFC Mutual Fund-HDFC Gold Exchange Traded Fund'
p3230
sS'NSE/FTCPOF5YGR'
p3231
S'Franklin Templeton Capital Protection Oriented Fund'
p3232
sS'NSE/DYNATECH'
p3233
S'Dynacons Technologies Limited'
p3234
sS'NSE/SIL'
p3235
S'Standard Industries Limited'
p3236
sS'NSE/PUNJABCHEM'
p3237
S'Punjab Chemicals & Crop Protection Limited'
p3238
sS'NSE/IBSEC'
p3239
S'Indiabulls Securities Limited'
p3240
sS'NSE/SUJANATOW'
p3241
S'Sujana Tower Limited'
p3242
sS'NSE/NIFTY_MIDCAP_LIQUID_15'
p3243
S'National Stock Exchange of India (NSE) Stock Index - Nifty Midcap Liquid 15'
p3244
sS'NSE/SONASTEER'
p3245
S'Sona Koyo Steering Systems Limited'
p3246
sS'NSE/BURNPUR'
p3247
S'Burnpur Cement Limited'
p3248
sS'NSE/SAKTHIFIN'
p3249
S'Sakthi Finance Limited'
p3250
sS'NSE/SKMEGGPROD'
p3251
S'SKM Egg Products Export (India) Limited'
p3252
sS'NSE/ARSHIYA'
p3253
S'Arshiya Limited'
p3254
sS'NSE/OUDHSUG'
p3255
S'The Oudh Sugar Mills Limited'
p3256
sS'NSE/CCL'
p3257
S'CCL Products (India) Limited'
p3258
sS'NSE/GNA'
p3259
S'GNA Axles Limited'
p3260
sS'NSE/AIFL'
p3261
S'Ashapura Intimates Fashion Limited'
p3262
sS'NSE/RUPA'
p3263
S'Rupa & Company Limited'
p3264
sS'NSE/TATACOMM'
p3265
S'Tata Communications Limited'
p3266
sS'NSE/COMPUSOFT'
p3267
S'Compucom Software Limited'
p3268
sS'NSE/NCLIND'
p3269
S'NCL Industries Limited'
p3270
sS'NSE/CINEMAX'
p3271
S'Cinemax India Limited'
p3272
sS'NSE/PALREDTECH'
p3273
S'Palred Technologies Limited'
p3274
sS'NSE/FORTIS'
p3275
S'Fortis Healthcare Limited'
p3276
sS'NSE/SUJANATWR'
p3277
S'Sujana Tower Limited'
p3278
sS'NSE/UTISUNDER'
p3279
S'Nifty'
p3280
sS'NSE/KOTAKBANK'
p3281
S'Kotak Mahindra Bank Limited'
p3282
sS'NSE/ALPINEHOU'
p3283
S'Alpine Housing Development Corporation Limited'
p3284
sS'NSE/DABUR'
p3285
S'Dabur India Limited'
p3286
sS'NSE/ORIENTALTL'
p3287
S'Oriental Trimex Limited'
p3288
sS'NSE/NIFTY_GROWSECT_15'
p3289
S'National Stock Exchange of India (NSE) Stock Index - Nifty Growth Sectors 15'
p3290
sS'NSE/ARMANFIN'
p3291
S'Arman Financial Services Limited'
p3292
sS'NSE/VESUVIUS'
p3293
S'Vesuvius India Limited'
p3294
sS'NSE/DELTAMAGNT'
p3295
S'Delta Magnets Limited'
p3296
sS'NSE/SUPPETRO'
p3297
S'Supreme Petrochem Limited'
p3298
sS'NSE/INTEGRA'
p3299
S'Integra Garments and Textiles Limited'
p3300
sS'NSE/SSLT'
p3301
S'Sesa Sterlite Limited'
p3302
sS'NSE/GRUH'
p3303
S'Gruh Finance Limited'
p3304
sS'NSE/NIFTY50_DIV_POINT'
p3305
S'National Stock Exchange of India (NSE) Stock Index - Nifty50 Dividend Points'
p3306
sS'NSE/SNOWMAN'
p3307
S'Snowman Logistics Limited'
p3308
sS'NSE/SPCNX500'
p3309
S'National Stock Exchange of India Stock Index - S&P CNX 500'
p3310
sS'NSE/SALORAINTL'
p3311
S'Salora International Limited'
p3312
sS'NSE/PEL'
p3313
S'Piramal Enterprises Limited'
p3314
sS'NSE/GETD'
p3315
S'GE T&D India Limited'
p3316
sS'NSE/KALPATPOWR'
p3317
S'Kalpataru Power Transmission Limited'
p3318
sS'NSE/CHENNPETRO'
p3319
S'Chennai Petroleum Corporation Limited'
p3320
sS'NSE/VISESHINFO'
p3321
S'Visesh Infotecnics Limited'
p3322
sS'NSE/BEPL'
p3323
S'Bhansali Engineering Polymers Limited'
p3324
sS'NSE/HSIL'
p3325
S'HSIL Limited'
p3326
sS'NSE/GMBREW'
p3327
S'GM Breweries Limited'
p3328
sS'NSE/UTTAMSUGAR'
p3329
S'Uttam Sugar Mills Limited'
p3330
sS'NSE/MUNJALAU'
p3331
S'Munjal Auto Industries Limited'
p3332
sS'NSE/NIFTY_MEDIA'
p3333
S'National Stock Exchange of India (NSE) Stock Index - Nifty Media'
p3334
sS'NSE/ORIENTCERA'
p3335
S'Orient Ceramics and Industries Limited'
p3336
sS'NSE/ROLTA'
p3337
S'Rolta India Limited'
p3338
sS'NSE/PATSPINLTD'
p3339
S'Patspin India Limited'
p3340
sS'NSE/MARG'
p3341
S'Marg Limited'
p3342
sS'NSE/SHLAKSHMI'
p3343
S'Shri Lakshmi Cotsyn Limited'
p3344
sS'NSE/NAHARCAP'
p3345
S'Nahar Capital and Financial Services Limited'
p3346
sS'NSE/IDEA'
p3347
S'Idea Cellular Limited'
p3348
sS'NSE/INFOTECENT'
p3349
S'Infotech Enterprises Limited'
p3350
sS'NSE/STINDIA'
p3351
S'STI India Limited'
p3352
sS'NSE/SESAGOA'
p3353
S'Sesa Goa Limited'
p3354
sS'NSE/PGEL'
p3355
S'PG Electroplast Limited'
p3356
sS'NSE/AXISBANK'
p3357
S'Axis Bank Limited'
p3358
sS'NSE/HDIL'
p3359
S'Housing Development and Infrastructure Limited'
p3360
sS'NSE/BLUESTARCO'
p3361
S'Blue Star Limited'
p3362
sS'NSE/ARCHIES'
p3363
S'Archies Limited'
p3364
sS'NSE/ORIENTCEM'
p3365
S'Orient Cement Limited'
p3366
sS'NSE/SURANASOL'
p3367
S'SURANA SOLAR LIMITED'
p3368
sS'NSE/GEINDSYS'
p3369
S'GEI Industrial Systems Limited'
p3370
sS'NSE/ALKALI'
p3371
S'Alkali Metals Limited'
p3372
sS'NSE/SPCNXDEFTY'
p3373
S'National Stock Exchange of India Stock Index - S&P CNX DEFTY'
p3374
sS'NSE/CANDC'
p3375
S'C & C Constructions Limited'
p3376
sS'NSE/ATLASCYCLE'
p3377
S'Atlas Cycles (Haryana) Limited'
p3378
sS'NSE/GRINDWELL'
p3379
S'Grindwell Norton Limited'
p3380
sS'NSE/BIRLACORPN'
p3381
S'Birla Corporation Limited'
p3382
sS'NSE/LYKALABS'
p3383
S'Lyka Labs Limited'
p3384
sS'NSE/ELGIRUBCO'
p3385
S'Elgi Rubber Company Limited'
p3386
sS'NSE/GEOJITBNPP'
p3387
S'Geojit BNP Paribas Financial Services Limited'
p3388
sS'NSE/IFCI'
p3389
S'IFCI Limited'
p3390
sS'NSE/SAYAJIHOTL'
p3391
S'Sayaji Hotels Limited'
p3392
sS'NSE/SIMPLEXINF'
p3393
S'Simplex Infrastructures Limited'
p3394
sS'NSE/IRB'
p3395
S'IRB Infrastructure Developers Limited'
p3396
sS'NSE/ELGIEQUIP'
p3397
S'Elgi Equipments Limited'
p3398
sS'NSE/AHLEAST'
p3399
S'Asian Hotels (East) Limited'
p3400
sS'NSE/COFFEEDAY'
p3401
S'Coffee Day Enterprises Limited'
p3402
sS'NSE/VTXIND'
p3403
S'VTX Industries Limited'
p3404
sS'NSE/VAIBHAVGBL'
p3405
S'Vaibhav Global Limited'
p3406
sS'NSE/HINDUNILVR'
p3407
S'Hindustan Unilever Limited'
p3408
sS'NSE/SWARAJENG'
p3409
S'Swaraj Engines Limited'
p3410
sS'NSE/JINDWORLD'
p3411
S'Jindal Worldwide Limited'
p3412
sS'NSE/ASAHISONG'
p3413
S'Asahi Songwon Colors Limited'
p3414
sS'NSE/MAGNUM'
p3415
S'Magnum Ventures Limited'
p3416
sS'NSE/RRSLGETF'
p3417
S'RELCAPAMC - RRSLGETF'
p3418
sS'NSE/SHRIRAMEPC'
p3419
S'Shriram EPC Limited'
p3420
sS'NSE/BALPHARMA'
p3421
S'Bal Pharma Limited'
p3422
sS'NSE/GUJALKALI'
p3423
S'Gujarat Alkalies and Chemicals Limited'
p3424
sS'NSE/NTL'
p3425
S'Neueon Towers Limited'
p3426
sS'NSE/MAHINDCIE'
p3427
S'Mahindra CIE Automotive Limited'
p3428
sS'NSE/GREENPOWER'
p3429
S'Orient Green Power Company Limited'
p3430
sS'NSE/HINDUJAVEN'
p3431
S'Hinduja Ventures Limited'
p3432
sS'NSE/KAMATHOTEL'
p3433
S'Kamat Hotels (I) Limited'
p3434
sS'NSE/MOTILALOFS'
p3435
S'Motilal Oswal Financial Services Limited'
p3436
sS'NSE/MCLEODRUSS'
p3437
S'Mcleod Russel India Limited'
p3438
sS'NSE/NILKAMAL'
p3439
S'Nilkamal Limited'
p3440
sS'NSE/NANDANEXIM'
p3441
S'Nandan Exim Limited'
p3442
sS'NSE/CRONIMET'
p3443
S'Cronimet Alloys India Limited'
p3444
sS'NSE/UTTAMSTL'
p3445
S'Uttam Galva Steels Limited'
p3446
sS'NSE/AXISGOLD'
p3447
S'Axis Mutual Fund - Axis Gold ETF'
p3448
sS'NSE/SHAHALLOYS'
p3449
S'Shah Alloys Limited'
p3450
sS'NSE/MICROTECH'
p3451
S'Micro Technologies (India) Limited'
p3452
sS'NSE/ZENITHINFO'
p3453
S'Zenith Infotech Limited'
p3454
sS'NSE/PIONDIST'
p3455
S'Pioneer Distilleries Limited'
p3456
sS'NSE/GULFCORP'
p3457
S'Gulf Oil Corporation Limited'
p3458
sS'NSE/HPL'
p3459
S'HPL Electric & Power Limited'
p3460
sS'NSE/FKONCO'
p3461
S'Fresenius Kabi Oncology Limited'
p3462
sS'NSE/CNXFMCG'
p3463
S'National Stock Exchange of India Stock Index - CNX FMCG'
p3464
sS'NSE/SPHEREGSL'
p3465
S'Sphere Global Services Limited'
p3466
sS'NSE/PNBHOUSING'
p3467
S'PNB Housing Finance Limited'
p3468
sS'NSE/TGBHOTELS'
p3469
S'TGB BANQUETS AND HOTELS LIMITED'
p3470
sS'NSE/BLS'
p3471
S'BLS International Services Limited'
p3472
sS'NSE/DPL'
p3473
S'Dhunseri Petrochem Limited'
p3474
sS'NSE/BRANDHOUSE'
p3475
S'Brandhouse Retails Limited'
p3476
sS'NSE/BHARATIDIL'
p3477
S'Bharati Defence and Infrastructure Limited'
p3478
sS'NSE/OILCOUNTUB'
p3479
S'Oil Country Tubular Limited'
p3480
sS'NSE/AHLWEST'
p3481
S'Asian Hotels (West) Limited'
p3482
sS'NSE/ROMAN'
p3483
S'Roman Tarmat Limited'
p3484
sS'NSE/GOLDIAM'
p3485
S'Goldiam International Limited'
p3486
sS'NSE/IDFCBANK'
p3487
S'IDFC Bank Limited'
p3488
sS'NSE/WELSPUNIND'
p3489
S'Welspun India Limited'
p3490
sS'NSE/CARBORUNIV'
p3491
S'Carborundum Universal Limited'
p3492
sS'NSE/ORIENTPPR'
p3493
S'Orient Paper & Industries Limited'
p3494
sS'NSE/VIKASGLOB'
p3495
S'Vikas GlobalOne Limited'
p3496
sS'NSE/HEIDELBERG'
p3497
S'HeidelbergCement India Limited'
p3498
sS'NSE/SREEL'
p3499
S'Sreeleathers Limited'
p3500
sS'NSE/GNFC'
p3501
S'Gujarat Narmada Valley Fertilizers and Chemicals Limited'
p3502
sS'NSE/GRANULES'
p3503
S'Granules India Limited'
p3504
sS'NSE/SURYALAXMI'
p3505
S'Suryalakshmi Cotton Mills Limited'
p3506
sS'NSE/NIFTY_AUTO'
p3507
S'National Stock Exchange of India (NSE) Stock Index - Nifty Auto'
p3508
sS'NSE/ORICONENT'
p3509
S'Oricon Enterprises Limited'
p3510
sS'NSE/DBL'
p3511
S'Dilip Buildcon Limited'
p3512
sS'NSE/INFY'
p3513
S'Infosys Limited'
p3514
sS'NSE/UJAAS'
p3515
S'Ujaas Energy Limited'
p3516
sS'NSE/GLOBOFFS'
p3517
S'Global Offshore Services Limited'
p3518
sS'NSE/GOACARBON'
p3519
S'Goa Carbon Limited'
p3520
sS'NSE/RAMASTEEL'
p3521
S'Rama Steel Tubes Limited'
p3522
sS'NSE/PRAJIND'
p3523
S'Praj Industries Limited'
p3524
sS'NSE/VIPULLTD'
p3525
S'Vipul Limited'
p3526
sS'NSE/GALLISPAT'
p3527
S'Gallantt Ispat Limited'
p3528
sS'NSE/SETFNN50'
p3529
S'SBI-ETF Nifty Next 50'
p3530
sS'NSE/SUNTV'
p3531
S'Sun TV Network Limited'
p3532
sS'NSE/PHILIPCARB'
p3533
S'Phillips Carbon Black Limited'
p3534
sS'NSE/NIFTY_FMCG'
p3535
S'National Stock Exchange of India (NSE) Stock Index - Nifty FMCG'
p3536
sS'NSE/KELLTONTEC'
p3537
S'Kellton Tech Solutions Limited'
p3538
sS'NSE/UTINIFTETF'
p3539
S'UTI Mutual Fund - UTI-Nifty Exchange Traded Fund'
p3540
sS'NSE/ORTINLABSS'
p3541
S'Ortin Laboratories Limited'
p3542
sS'NSE/CCCL'
p3543
S'Consolidated Construction Consortium Limited'
p3544
sS'NSE/FRLDVR'
p3545
S'Future Enterprises Limited'
p3546
sS'NSE/GUJSTATFIN'
p3547
S'Gujarat State Financial Corporation'
p3548
sS'NSE/GOODLUCK'
p3549
S'Goodluck India Limited'
p3550
sS'NSE/SIMBHSUGAR'
p3551
S'Simbhaoli Sugars Limited'
p3552
sS'NSE/HUBTOWN'
p3553
S'Hubtown Limited'
p3554
sS'NSE/HTMEDIA'
p3555
S'HT Media Limited'
p3556
sS'NSE/GOLDSHARE'
p3557
S'UTI Mutual Fund - UTI Gold Exchange Traded Fund'
p3558
sS'NSE/GRABALALK'
p3559
S'Grabal Alok Impex Limited'
p3560
sS'NSE/FEDERALBNK'
p3561
S'The Federal Bank Limited'
p3562
sS'NSE/NBVENTURES'
p3563
S'Nava Bharat Ventures Limited'
p3564
sS'NSE/SVOGL'
p3565
S'SVOGL OIL GAS AND ENERGY LIMITED'
p3566
sS'NSE/DYNAMATECH'
p3567
S'Dynamatic Technologies Limited'
p3568
sS'NSE/VARUN'
p3569
S'Varun Industries Limited'
p3570
sS'NSE/INDIANB'
p3571
S'Indian Bank'
p3572
sS'NSE/SANGHVIMOV'
p3573
S'Sanghvi Movers Limited'
p3574
sS'NSE/ASHOKA'
p3575
S'Ashoka Buildcon Limited'
p3576
sS'NSE/CNX_100_EQUAL_WEIGHT'
p3577
S'National Stock Exchange of India (NSE) Stock Index - CNX 100 Equal Weight'
p3578
sS'NSE/MANJEERA'
p3579
S'Manjeera Constructions Limited'
p3580
sS'NSE/GANESHHOUC'
p3581
S'Ganesh Housing Corporation Limited'
p3582
sS'NSE/WELGLOB'
p3583
S'Welspun Global Brands Limited'
p3584
sS'NSE/CNX_NIFTY_SHARIAH'
p3585
S'National Stock Exchange of India (NSE) Stock Index - CNX Nifty Shariah'
p3586
sS'NSE/ELECTCAST'
p3587
S'Electrosteel Castings Limited'
p3588
sS'NSE/KWALITY'
p3589
S'kwality limited'
p3590
sS'NSE/8KMILES'
p3591
S'8K Miles Software Services Limited'
p3592
sS'NSE/NIFTY50_SHARIAH'
p3593
S'National Stock Exchange of India (NSE) Stock Index - Nifty50 Shariah'
p3594
sS'NSE/CNX_SHARIAH25'
p3595
S'National Stock Exchange of India (NSE) Stock Index - CNX Shariah25'
p3596
sS'NSE/SIGNETIND'
p3597
S'Signet Industries Limited'
p3598
sS'NSE/PAPERPROD'
p3599
S'Huhtamaki PPL Limited'
p3600
sS'NSE/SPCNXSHARIAH'
p3601
S'National Stock Exchange of India Stock Index - S&P CNX 500 SHARIAH'
p3602
sS'NSE/IOB'
p3603
S'Indian Overseas Bank'
p3604
sS'NSE/IOC'
p3605
S'Indian Oil Corporation Limited'
p3606
sS'NSE/WELSYNTEX'
p3607
S'Welspun Syntex Limited'
p3608
sS'NSE/JISLDVREQS'
p3609
S'Jain Irrigation Systems Limited'
p3610
sS'NSE/MINDTECK'
p3611
S'Mindteck (India) Limited'
p3612
sS'NSE/TULSYAN'
p3613
S'Tulsyan Nec Limited'
p3614
sS'NSE/JUMBO'
p3615
S'Jumbo Bag Limited'
p3616
sS'NSE/TORNTPHARM'
p3617
S'Torrent Pharmaceuticals Limited'
p3618
sS'NSE/RELDIVOPP'
p3619
S'Reliance MF - R*Shares Dividend Opportunities Fund - RSDOETF'
p3620
sS'NSE/BHAGWATIHO'
p3621
S'Bhagwati Banquets and Hotels Limited'
p3622
sS'NSE/ARSSINFRA'
p3623
S'ARSS Infrastructure Projects Limited'
p3624
sS'NSE/KIRLOSENG'
p3625
S'Kirloskar Oil Engines Limited'
p3626
sS'NSE/SHRINATRAJ'
p3627
S'Shri Nataraj Ceramic and Chemical Industries Limited'
p3628
sS'NSE/NOVOPANIND'
p3629
S'Novopan Industries Limited'
p3630
sS'NSE/USHAMART'
p3631
S'Usha Martin Limited'
p3632
sS'NSE/ALOKTEXT'
p3633
S'Alok Industries Limited'
p3634
sS'NSE/PITTILAM'
p3635
S'Pitti Laminations Limited'
p3636
sS'NSE/ANDHRABANK'
p3637
S'Andhra Bank'
p3638
sS'NSE/TATAELXSI'
p3639
S'Tata Elxsi Limited'
p3640
sS'NSE/GISOLUTION'
p3641
S'GI Engineering Solutions Limited'
p3642
sS'NSE/HINDZINC'
p3643
S'Hindustan Zinc Limited'
p3644
sS'NSE/WILLAMAGOR'
p3645
S'Williamson Magor & Company Limited'
p3646
sS'NSE/ALBERTDAVD'
p3647
S'Albert David Limited'
p3648
sS'NSE/RUCHIRA'
p3649
S'Ruchira Papers Limited'
p3650
sS'NSE/PRAKASHSTL'
p3651
S'Prakash Steelage Limited'
p3652
sS'NSE/VAIBHAVGEM'
p3653
S'Vaibhav Gems Limited'
p3654
sS'NSE/DEWANHOUS'
p3655
S'Dewan Housing Finance Corporation Limited'
p3656
sS'NSE/SHILPAMED'
p3657
S'Shilpa Medicare Limited'
p3658
sS'NSE/BSLGOLDETF'
p3659
S'Birla Sun Life Mutual Fund - Birla Sun Life Gold ETF - Growth'
p3660
sS'NSE/KCPSUGIND'
p3661
S'KCP Sugar and Industries Corporation Limited'
p3662
sS'NSE/FAME'
p3663
S'Fame India Limited'
p3664
sS'NSE/FACT'
p3665
S'Fertilizers and Chemicals Travancore Limited'
p3666
sS'NSE/PROZONINTU'
p3667
S'Prozone Intu Properties Limited'
p3668
sS'NSE/SETFNIFTY'
p3669
S'SBIAMC - SETFNIFTY'
p3670
sS'NSE/QNIFTY'
p3671
S'Quantum Index Fund -Exchange Traded Fund (ETF)'
p3672
sS'NSE/WINSOME'
p3673
S'Winsome Yarns Limited'
p3674
sS'NSE/APLAPOLLO'
p3675
S'APL Apollo Tubes Limited'
p3676
sS'NSE/MAXWELL'
p3677
S'Maxwell Industries Limited'
p3678
sS'NSE/ADVANTA'
p3679
S'Advanta Limited'
p3680
sS'NSE/CANBK'
p3681
S'Canara Bank'
p3682
sS'NSE/SIGNET'
p3683
S'Signet Industries Limited'
p3684
sS'NSE/SUNDRMBRAK'
p3685
S'Sundaram Brake Linings Limited'
p3686
sS'NSE/VIVIMEDLAB'
p3687
S'Vivimed Labs Limited'
p3688
sS'NSE/PRAKASHCON'
p3689
S'Prakash Constrowell Limited'
p3690
sS'NSE/CAROLINFO'
p3691
S'Carol Info Services Limited'
p3692
sS'NSE/MANGLMCEM'
p3693
S'Mangalam Cement Limited'
p3694
sS'NSE/AJMERA'
p3695
S'Ajmera Realty & Infra India Limited'
p3696
sS'NSE/RBLBANK'
p3697
S'RBL Bank Limited'
p3698
sS'NSE/TVSSRICHAK'
p3699
S'TVS Srichakra Limited'
p3700
sS'NSE/EBANK'
p3701
S'Edelweiss ETF - Nifty Bank'
p3702
sS'NSE/SUPREMETEX'
p3703
S'Supreme Tex Mart Limited'
p3704
sS'NSE/PANCHSHEEL'
p3705
S'Panchsheel Organics Limited'
p3706
sS'NSE/TATACHEM'
p3707
S'Tata Chemicals Limited'
p3708
sS'NSE/RTNPOWER'
p3709
S'RattanIndia Power Limited'
p3710
sS'NSE/POLARIS'
p3711
S'POLARIS CONSULTING & SERVICES LIMITED'
p3712
sS'NSE/AHLUCONT'
p3713
S'Ahluwalia Contracts (India) Limited'
p3714
sS'NSE/RALLIS'
p3715
S'Rallis India Limited'
p3716
sS'NSE/SETFNIFBK'
p3717
S'SBI-ETF Nifty Bank'
p3718
sS'NSE/ALSTOMTD'
p3719
S'Alstom T&D India Limited'
p3720
sS'NSE/PVR'
p3721
S'PVR Limited'
p3722
sS'NSE/PVP'
p3723
S'PVP Ventures Limited'
p3724
sS'NSE/BLUEBLENDS'
p3725
S'Blue Blends (I) Limited'
p3726
sS'NSE/UNITY'
p3727
S'Unity Infraprojects Limited'
p3728
sS'NSE/AVANTIFEED'
p3729
S'Avanti Feeds Limited'
p3730
sS'NSE/INDIGO'
p3731
S'InterGlobe Aviation Limited'
p3732
sS'NSE/GAIL'
p3733
S'GAIL (India) Limited'
p3734
sS'NSE/SEAMECLTD'
p3735
S'Seamec Limited'
p3736
sS'NSE/CURATECH'
p3737
S'Cura Technologies Limited'
p3738
sS'NSE/RAMANEWS'
p3739
S'Shree Rama Newsprint Limited'
p3740
sS'NSE/TFL'
p3741
S'Transwarranty Finance Limited'
p3742
sS'NSE/INFRABEES'
p3743
S'R*Shares Infra BeES'
p3744
sS'NSE/COMPUAGE'
p3745
S'Compuage Infocom Limited'
p3746
sS'NSE/IBPOW'
p3747
S'Indiabulls Power Limited'
p3748
sS'NSE/MAHINDFORG'
p3749
S'Mahindra Forgings Limited'
p3750
sS'NSE/AGCNET'
p3751
S'AGC Networks Limited'
p3752
sS'NSE/GUJNRECOKE'
p3753
S'Gujarat NRE Coke Limited'
p3754
sS'NSE/HINDMOTORS'
p3755
S'Hindustan Motors Limited'
p3756
sS'NSE/DEN'
p3757
S'Den Networks Limited'
p3758
sS'NSE/THINKSOFT'
p3759
S'Thinksoft Global Services Limited'
p3760
sS'NSE/NIFTYBEES'
p3761
S'R*Shares Nifty BeES'
p3762
sS'NSE/HYDRBADIND'
p3763
S'Hyderabad Industries Limited'
p3764
sS'NSE/HARITASEAT'
p3765
S'Harita Seating Systems Limited'
p3766
sS'NSE/VAKRANSOFT'
p3767
S'Vakrangee Softwares Limited'
p3768
sS'NSE/CAMLINFINE'
p3769
S'Camlin Fine Sciences Limited'
p3770
sS'NSE/KHAITANELE'
p3771
S'Khaitan Electricals Limited'
p3772
sS'NSE/SUPREMEINF'
p3773
S'Supreme Infrastructure India Limited'
p3774
sS'NSE/SUPREMEIND'
p3775
S'Supreme Industries Limited'
p3776
sS'NSE/BAFNAPHARM'
p3777
S'Bafna Pharmaceuticals Limited'
p3778
sS'NSE/PRAENG'
p3779
S'Prajay Engineers Syndicate Limited'
p3780
sS'NSE/NEYVELILIG'
p3781
S'Neyveli Lignite Corporation Limited'
p3782
sS'NSE/ERAINFRA'
p3783
S'Era Infra Engineering Limited'
p3784
sS'NSE/SURYAJYOTI'
p3785
S'Suryajyoti Spinning Mills Limited'
p3786
sS'NSE/CHEMPLAST'
p3787
S'Chemplast Sanmar Limited'
p3788
sS'NSE/AGRODUTCH'
p3789
S'Agro Dutch Industries Limited'
p3790
sS'NSE/PHOENIXLTD'
p3791
S'The Phoenix Mills Limited'
p3792
sS'NSE/CNXDIVIDENDOPPT'
p3793
S'National Stock Exchange of India Stock Index - CNX DIVIDEND OPPT'
p3794
sS'NSE/NIFTY_INFRA'
p3795
S'National Stock Exchange of India (NSE) Stock Index - Nifty Infra'
p3796
sS'NSE/ELFORGE'
p3797
S'EL Forge Limited'
p3798
sS'NSE/CNX_HIGH_BETA'
p3799
S'National Stock Exchange of India (NSE) Stock Index - CNX High Beta'
p3800
sS'NSE/CASTROLIND'
p3801
S'Castrol India Limited'
p3802
sS'NSE/ONMOBILE'
p3803
S'OnMobile Global Limited'
p3804
sS'NSE/INDNIPPON'
p3805
S'India Nippon Electricals Limited'
p3806
sS'NSE/KSOILS'
p3807
S'K S Oils Limited'
p3808
sS'NSE/PANACEABIO'
p3809
S'Panacea Biotec Limited'
p3810
sS'NSE/SHK'
p3811
S'S H Kelkar and Company Limited'
p3812
sS'NSE/AIL'
p3813
S'Alstom India Limited'
p3814
sS'NSE/NIFTY_COMMODITIES'
p3815
S'National Stock Exchange of India (NSE) Stock Index - Nifty Commodities'
p3816
sS'NSE/STARPAPER'
p3817
S'Star Paper Mills Limited'
p3818
sS'NSE/BSTRANSCOM'
p3819
S'BS TransComm Limited'
p3820
sS'NSE/ANDHRSUGAR'
p3821
S'The Andhra Sugars Limited'
p3822
sS'NSE/KEYCORPSER'
p3823
S'Keynote Corporate Services Limited'
p3824
sS'NSE/IMPAL'
p3825
S'India Motor Parts and Accessories Limited'
p3826
sS'NSE/KRISHNAENG'
p3827
S'Krishna Engineering Works Limited'
p3828
sS'NSE/MAWANASUG'
p3829
S'Mawana Sugars Limited'
p3830
sS'NSE/INFINITE'
p3831
S'Infinite Computer Solutions (India) Limited'
p3832
sS'NSE/NANDAN'
p3833
S'Nandan Exim Limited'
p3834
sS'NSE/WSTCSTPAPR'
p3835
S'West Coast Paper Mills Limited'
p3836
sS'NSE/MRO_TEK'
p3837
S'MRO-TEK Realty Limited'
p3838
sS'NSE/ABHISHEK'
p3839
S'Abhishek Corporation Limited'
p3840
sS'NSE/TCIEXP'
p3841
S'TCI Express Limited'
p3842
sS'NSE/NAGAFERT'
p3843
S'Nagarjuna Fertilizers and Chemicals Limited'
p3844
sS'NSE/METALFORGE'
p3845
S'Metalyst Forgings Limited'
p3846
sS'NSE/KABRAEXTRU'
p3847
S'Kabra Extrusion Technik Limited'
p3848
sS'NSE/NDTV'
p3849
S'New Delhi Television Limited'
p3850
sS'NSE/INDIABULLS'
p3851
S'Indiabulls Financial Services Limited'
p3852
sS'NSE/AURIONPRO'
p3853
S'Aurionpro Solutions Limited'
p3854
sS'NSE/LICHSGFIN'
p3855
S'LIC Housing Finance Limited'
p3856
sS'NSE/NIFTY_MIDCAP_50'
p3857
S'National Stock Exchange of India (NSE) Stock Index - Nifty Midcap 50'
p3858
sS'NSE/EQUITAS'
p3859
S'Equitas Holdings Limited'
p3860
sS'NSE/NIFTY_HIGH_BETA_50'
p3861
S'National Stock Exchange of India (NSE) Stock Index - Nifty High Beta 50'
p3862
sS'NSE/PENPEBS'
p3863
S'Pennar Engineered Building Systems Limited'
p3864
sS'NSE/GROBTEA'
p3865
S'The Grob Tea Company Limited'
p3866
sS'NSE/HISARMETAL'
p3867
S'Hisar Metal Industries Limited'
p3868
sS'NSE/AMRUTANJAN'
p3869
S'Amrutanjan Health Care Limited'
p3870
sS'NSE/HINDOILEXP'
p3871
S'Hindustan Oil Exploration Company Limited'
p3872
sS'NSE/CNX_ENERGY'
p3873
S'National Stock Exchange of India (NSE) Stock Index - CNX Energy'
p3874
sS'NSE/NIBL'
p3875
S'NRB Industrial Bearings Limited'
p3876
sS'NSE/LAKPRE'
p3877
S'Lakshmi Precision Screws Limited'
p3878
sS'NSE/ATLANTA'
p3879
S'Atlanta Limited'
p3880
sS'NSE/GSKCONS'
p3881
S'GlaxoSmithKline Consumer Healthcare Limited'
p3882
sS'NSE/IFBAGRO'
p3883
S'IFB Agro Industries Limited'
p3884
sS'NSE/63MOONS'
p3885
S'63 moons technologies limited'
p3886
sS'NSE/KESARENT'
p3887
S'Kesar Enterprises Limited'
p3888
sS'NSE/INDTERRAIN'
p3889
S'Indian Terrain Fashions Limited'
p3890
sS'NSE/BLUEDART'
p3891
S'Blue Dart Express Limited'
p3892
sS'NSE/PRICOL'
p3893
S'Pricol Limited'
p3894
sS'NSE/GUFICBIO'
p3895
S'Gufic Biosciences Limited'
p3896
sS'NSE/RAINBOWPAP'
p3897
S'Rainbow Papers Limited'
p3898
sS'NSE/NIFTY_200'
p3899
S'National Stock Exchange of India (NSE) Stock Index - Nifty 200'
p3900
sS'NSE/CANTABIL'
p3901
S'Cantabil Retail India Limited'
p3902
sS'NSE/RELNV20'
p3903
S'Reliance Mutual Fund - R*Shares NV20 ETF'
p3904
sS'NSE/TNTELE'
p3905
S'Tamilnadu Telecommunication Limited'
p3906
sS'NSE/SDBL'
p3907
S'Som Distilleries & Breweries Limited'
p3908
sS'NSE/ADVENZYMES'
p3909
S'Advanced Enzyme Technologies Limited'
p3910
sS'NSE/ROHLTD'
p3911
S'Royal Orchid Hotels Limited'
p3912
sS'NSE/WENDT'
p3913
S'Wendt (India) Limited'
p3914
sS'NSE/BARTRONICS'
p3915
S'Bartronics India Limited'
p3916
sS'NSE/INDIAINFO'
p3917
S'India Infoline Limited'
p3918
sS'NSE/JSWSTEEL'
p3919
S'JSW Steel Limited'
p3920
sS'NSE/GILLANDERS'
p3921
S'Gillanders Arbuthnot & Company Limited'
p3922
sS'NSE/EVERESTIND'
p3923
S'Everest Industries Limited'
p3924
sS'NSE/PODDARMENT'
p3925
S'Poddar Pigments Limited'
p3926
sS'NSE/DWARKESH'
p3927
S'Dwarikesh Sugar Industries Limited'
p3928
sS'NSE/PSUBNKBEES'
p3929
S'R*Shares PSU Bank BeES'
p3930
sS'NSE/KHAITANLTD'
p3931
S'Khaitan (India) Limited'
p3932
sS'NSE/MRPL'
p3933
S'Mangalore Refinery and Petrochemicals Limited'
p3934
sS'NSE/MAHSCOOTER'
p3935
S'Maharashtra Scooters Limited'
p3936
sS'NSE/BALKRISHNA'
p3937
S'Balkrishna Paper Mills Limited'
p3938
sS'NSE/SHREYANIND'
p3939
S'Shreyans Industries Limited'
p3940
sS'NSE/CONTROLPR'
p3941
S'Control Print Limited'
p3942
sS'NSE/UNICHEMLAB'
p3943
S'Unichem Laboratories Limited'
p3944
sS'NSE/UTVSOF'
p3945
S'UTV Software Communications Limited'
p3946
sS'NSE/BLUECHIP'
p3947
S'Blue Chip India Limited'
p3948
sS'NSE/GATI'
p3949
S'GATI Limited'
p3950
sS'NSE/BAJAJFINSV'
p3951
S'Bajaj Finserv Limited'
p3952
sS'NSE/FMNL'
p3953
S'Future Market Networks Limited'
p3954
sS'NSE/AARTIDRUGS'
p3955
S'Aarti Drugs Limited'
p3956
sS'NSE/PFRL'
p3957
S'Pantaloons Fashion & Retail Limited'
p3958
sS'NSE/MAITHANALL'
p3959
S'Maithan Alloys Limited'
p3960
sS'NSE/WEIZMANIND'
p3961
S'Weizmann Limited'
p3962
sS'NSE/MAJESCO'
p3963
S'Majesco Limited'
p3964
sS'NSE/RIIL'
p3965
S'Reliance Industrial Infrastructure Limited'
p3966
sS'NSE/JINDALSTEL'
p3967
S'Jindal Steel & Power Limited'
p3968
sS'NSE/PREMIERPOL'
p3969
S'Premier Polyfilm Limited'
p3970
sS'NSE/TIL'
p3971
S'TIL Limited'
p3972
sS'NSE/CLUTCHAUTO'
p3973
S'Clutch Auto Limited'
p3974
sS'NSE/INDOWIND'
p3975
S'Indowind Energy Limited'
p3976
sS'NSE/BANKBEES'
p3977
S'R*Shares Bank BeES'
p3978
sS'NSE/GOKEX'
p3979
S'Gokaldas Exports Limited'
p3980
sS'NSE/NAHARPOLY'
p3981
S'Nahar Poly Films Limited'
p3982
sS'NSE/SHREECEM'
p3983
S'Shree Cements Limited'
p3984
sS'NSE/HELIOSMATH'
p3985
S'Helios And Matheson Information Technology Limited'
p3986
sS'NSE/SPCENET'
p3987
S'Spacenet Enterprises India Limited'
p3988
sS'NSE/JVLAGRO'
p3989
S'JVL Agro Industries Limited'
p3990
sS'NSE/EVERONN'
p3991
S'Everonn Education Limited'
p3992
sS'NSE/DENORA'
p3993
S'De Nora India Limited'
p3994
sS'NSE/ADANITRANS'
p3995
S'Adani Transmission Limited'
p3996
sS'NSE/SAKHTISUG'
p3997
S'Sakthi Sugars Limited'
p3998
sS'NSE/ORBTEXP'
p3999
S'Orbit Exports Limited'
p4000
sS'NSE/SGFL'
p4001
S'Shree Ganesh Forgings Limited'
p4002
sS'NSE/PERIATEA'
p4003
S'The Peria Karamalai Tea & Produce Company Limited'
p4004
sS'NSE/PROZONECSC'
p4005
S'Prozone Capital Shopping Centres Limited'
p4006
sS'NSE/AUTOLITIND'
p4007
S'Autolite (India) Limited'
p4008
sS'NSE/AARTIIND'
p4009
S'Aarti Industries Limited'
p4010
sS'NSE/KOTAKNIFTY'
p4011
S'Kotak Mahindra Mutual Fund-Kotak Nifty ETF'
p4012
sS'NSE/WIPRO'
p4013
S'Wipro Limited'
p4014
sS'NSE/SHIRPUR_G'
p4015
S'Shirpur Gold Refinery Limited'
p4016
sS'NSE/JETAIRWAYS'
p4017
S'Jet Airways (India) Limited'
p4018
sS'NSE/ZUARI'
p4019
S'Zuari Agro Chemicals Limited'
p4020
sS'NSE/VISASTEEL'
p4021
S'Visa Steel Limited'
p4022
sS'NSE/MELSTAR'
p4023
S'Melstar Information Technologies Limited'
p4024
sS'NSE/RPPINFRA'
p4025
S'R.P.P. Infra Projects Limited'
p4026
sS'NSE/CNXMIDCAP200'
p4027
S'National Stock Exchange of India Stock Index - CNX MIDCAP 200'
p4028
sS'NSE/MARALOVER'
p4029
S'Maral Overseas Limited'
p4030
sS'NSE/AMDIND'
p4031
S'AMD Industries Limited'
p4032
sS'NSE/MAGMA'
p4033
S'Magma Fincorp Limited'
p4034
sS'NSE/IVRCLAH'
p4035
S'IVRCL Assets & Holdings Limited'
p4036
sS'NSE/NITESHEST'
p4037
S'Nitesh Estates Limited'
p4038
sS'NSE/LLOYDELENG'
p4039
S'Lloyd Electric & Engineering Limited'
p4040
sS'NSE/SALZERELEC'
p4041
S'Salzer Electronics Limited'
p4042
sS'NSE/KOTHARIPET'
p4043
S'Kothari Petrochemicals Limited'
p4044
sS'NSE/KNRCON'
p4045
S'KNR Constructions Limited'
p4046
sS'NSE/SOUTHBANK'
p4047
S'The South Indian Bank Limited'
p4048
sS'NSE/LIBERTSHOE'
p4049
S'Liberty Shoes Limited'
p4050
sS'NSE/DIVISLAB'
p4051
S"Divi's Laboratories Limited"
p4052
sS'NSE/CENTURYPLY'
p4053
S'Century Plyboards (India) Limited'
p4054
sS'NSE/RAJOIL'
p4055
S'Raj Oil Mills Limited'
p4056
sS'NSE/MANDHANA'
p4057
S'Mandhana Industries Limited'
p4058
sS'NSE/RSSOFTWARE'
p4059
S'R. S. Software (India) Limited'
p4060
sS'NSE/RADICO'
p4061
S'Radico Khaitan Limited'
p4062
sS'NSE/MUNDRAPORT'
p4063
S'Mundra Port and Special Economic Zone Limited'
p4064
sS'NSE/SKIL'
p4065
S'SKIL Infrastructure Limited'
p4066
sS'NSE/TTKHLTCARE'
p4067
S'TTK Healthcare Limited'
p4068
sS'NSE/SALSTEEL'
p4069
S'S.A.L. Steel Limited'
p4070
sS'NSE/BIMETAL'
p4071
S'Bimetal Bearings Limited'
p4072
sS'NSE/IVZINNIFTY'
p4073
S'Invesco India Nifty Exchange Traded Fund'
p4074
sS'NSE/KECL'
p4075
S'Kirloskar Electric Company Limited'
p4076
sS'NSE/ALKEM'
p4077
S'Alkem Laboratories Limited'
p4078
sS'NSE/PILANIINV'
p4079
S'Pilani Investment and Industries Corporation Limited'
p4080
sS'NSE/MINDAIND'
p4081
S'Minda Industries Limited'
p4082
sS'NSE/MOTHERSUMI'
p4083
S'Motherson Sumi Systems Limited'
p4084
sS'NSE/FILATEX'
p4085
S'Filatex India Limited'
p4086
sS'NSE/ZODJRDMKJ'
p4087
S'Zodiac JRD- MKJ Limited'
p4088
sS'NSE/ORIENTHOT'
p4089
S'Oriental Hotels Limited'
p4090
sS'NSE/BUTTERFLY'
p4091
S'Butterfly Gandhimathi Appliances Limited'
p4092
sS'NSE/TREEHOUSE'
p4093
S'Tree House Education & Accessories Limited'
p4094
sS'NSE/CNX_100'
p4095
S'National Stock Exchange of India (NSE) Stock Index - CNX 100'
p4096
sS'NSE/MFSL'
p4097
S'Max Financial Services Limited'
p4098
sS'NSE/SHIVTEX'
p4099
S'Shiva Texyarn Limited'
p4100
sS'NSE/CNXAUTO'
p4101
S'National Stock Exchange of India Stock Index - CNX AUTO'
p4102
sS'NSE/EONELECT'
p4103
S'Eon Electric Limited'
p4104
sS'NSE/SMLISUZU'
p4105
S'SML Isuzu Limited'
p4106
sS'NSE/SAMBHAAV'
p4107
S'Sambhaav Media Limited'
p4108
sS'NSE/JMCPROJECT'
p4109
S'JMC Projects (India) Limited'
p4110
sS'NSE/LAURUSLABS'
p4111
S'Laurus Labs Limited'
p4112
sS'NSE/WSI'
p4113
S'W S Industries (I) Limited'
p4114
sS'NSE/SIYSIL'
p4115
S'Siyaram Silk Mills Limited'
p4116
sS'NSE/SATYAMCOMP'
p4117
S'Satyam Computer Services Limited'
p4118
sS'NSE/SBIN'
p4119
S'State Bank of India'
p4120
sS'NSE/INDUSINDBK'
p4121
S'IndusInd Bank Limited'
p4122
sS'NSE/APLLTD'
p4123
S'Alembic Pharmaceuticals Limited'
p4124
sS'NSE/NOCIL'
p4125
S'NOCIL Limited'
p4126
sS'NSE/ABGSHIP'
p4127
S'ABG Shipyard Limited'
p4128
sS'NSE/STRTECH'
p4129
S'Sterlite Technologies Limited'
p4130
sS'NSE/DREDGECORP'
p4131
S'Dredging Corporation of India Limited'
p4132
sS'NSE/ADHUNIK'
p4133
S'Adhunik Metaliks Limited'
p4134
sS'NSE/AMAR'
p4135
S'Amar Remedies Limited'
p4136
sS'NSE/FLFL'
p4137
S'Future Lifestyle Fashions Limited'
p4138
sS'NSE/GRAVITA'
p4139
S'Gravita India Limited'
p4140
sS'NSE/EROSMEDIA'
p4141
S'Eros International Media Limited'
p4142
sS'NSE/PANTALOONR'
p4143
S'Pantaloon Retail (India) Limited'
p4144
sS'NSE/VIJIFIN'
p4145
S'Viji Finance Limited'
p4146
sS'NSE/KSBPUMPS'
p4147
S'KSB Pumps Limited'
p4148
sS'NSE/TIMBOR'
p4149
S'Timbor Home Limited'
p4150
sS'NSE/SETCO'
p4151
S'Setco Automotive Limited'
p4152
sS'NSE/LICNETFGSC'
p4153
S'LIC NOMURA MF - LIC NOMURA MF G-sec LT ETF - GO'
p4154
sS'NSE/SEPOWER'
p4155
S'S.E. Power Limited'
p4156
sS'NSE/COSMOFILMS'
p4157
S'Cosmo Films Limited'
p4158
sS'NSE/PPAP'
p4159
S'PPAP Automotive Limited'
p4160
sS'NSE/TECPRO'
p4161
S'Tecpro Systems Limited'
p4162
sS'NSE/NAGREEKEXP'
p4163
S'Nagreeka Exports Limited'
p4164
sS'NSE/SANOFI'
p4165
S'Sanofi India Limited'
p4166
sS'NSE/GRPLTD'
p4167
S'GRP Limited'
p4168
sS'NSE/KOTARISUG'
p4169
S'Kothari Sugars And Chemicals Limited'
p4170
sS'NSE/IDFNIFTYET'
p4171
S'IDFCAMC - IDFNIFTYET'
p4172
sS'NSE/ELECTHERM'
p4173
S'Electrotherm (India) Limited'
p4174
sS'NSE/PNBGILTS'
p4175
S'PNB Gilts Limited'
p4176
sS'NSE/BANSWRAS'
p4177
S'Banswara Syntex Limited'
p4178
sS'NSE/ITDC'
p4179
S'India Tourism Development Corporation Limited'
p4180
sS'NSE/DCBBANK'
p4181
S'DCB BANK LIMITED'
p4182
sS'NSE/GAMMONIND'
p4183
S'Gammon India Limited'
p4184
sS'NSE/RTNINFRA'
p4185
S'RattanIndia Infrastructure Limited'
p4186
sS'NSE/KITPLYIND'
p4187
S'Kitply Industries Limited'
p4188
sS'NSE/ACC'
p4189
S'ACC Limited'
p4190
sS'NSE/CNX'
p4191
S'National Stock Exchange of India Stock Index - CNX 200'
p4192
sS'NSE/SUNCLAYTON'
p4193
S'Sundaram Clayton Limited'
p4194
sS'NSE/INV20'
p4195
S'ICICIPRAMC - INV20'
p4196
sS'NSE/AIAENG'
p4197
S'AIA Engineering Limited'
p4198
sS'NSE/VIJSHAN'
p4199
S'Vijay Shanthi Builders Limited'
p4200
sS'NSE/DUCON'
p4201
S'Ducon Infratechnologies Limited'
p4202
sS'NSE/CNX_IT'
p4203
S'National Stock Exchange of India (NSE) Stock Index - CNX IT'
p4204
sS'NSE/GULPOLY'
p4205
S'Gulshan Polyols Limited'
p4206
sS'NSE/GITANJALI'
p4207
S'Gitanjali Gems Limited'
p4208
sS'NSE/VKSPL'
p4209
S'VKS Projects Limited'
p4210
sS'NSE/GAL'
p4211
S'Gyscoal Alloys Limited'
p4212
sS'NSE/ZEEL'
p4213
S'Zee Entertainment Enterprises Limited'
p4214
sS'NSE/METKORE'
p4215
S'Metkore Alloys & Industries Limited'
p4216
sS'NSE/RELIGARE'
p4217
S'Religare Enterprises Limited'
p4218
sS'NSE/INOXWIND'
p4219
S'Inox Wind Limited'
p4220
sS'NSE/JINDCOT'
p4221
S'Jindal Cotex Limited'
p4222
s.