(lp0
S'Arch Capital Group Ltd. Announces Resignation of Deanna Mulligan from the ... Yahoo Finance - Feb 24, 2017 Arch Capital Group Ltd. [NASDAQ:ACGL] today announced that Deanna Mulligan, CEO of The Guardian Life Insurance Company of America, had resigned from its Board of Directors because of a potential future conflict of interest.Insider Trading Activity Arch Capital Group Ltd.   CEO Sold ... - Market ExclusiveRevenue Update on Arch Capital Group Ltd. - Money Flow Index & Trends'
p1
aS'Arch Capital Group Ltd.  to Ring The Nasdaq Stock Market Opening ... GlobeNewswire  - Feb 10, 2017 Arch Capital Group Ltd. , a Bermuda public limited liability company, will visit the Nasdaq MarketSite in Times Square in celebration of its recent closing of the acquisition of United Guaranty Corporation.Arch Capital Group Ltd.  to Release Earnings on Monday - Sports PerspectivesArch Capital Group Ltd.  Shares Sold by HighVista Strategies LLC - The Cerbat Gem'
p2
aS"S&amp;P Lowers Outlook on Arch Capital Group Ltd  to Negative Amid United ... StreetInsider.com - Aug 17, 2016 S&amp;P Global Ratings said it affirmed its 'A-' long-term counterparty credit rating on Arch Capital Group Ltd.  as well as its counterparty credit and financial strength ratings on its operating subsidiaries.Arch Capital Group Ltd. to Acquire United Guaranty Corporation - Business Wire AIG Reaches Deal to Sell Mortgage-Insurance Unit to Arch Capital for About $3 ... - Wall Street Journal"
p3
aS'Baron Asset Fund Comments on Arch Capital Group Ltd. GuruFocus.com - Jan 25, 2017 Shares of Arch Capital Group Ltd. , the Bermuda-based specialty insurance and reinsurance company, gained on good financial results, which included profitable underwriting, modest catastrophe losses, and favorable reserve development.'
p4
aS"Insider Trading Activity Arch Capital Group Ltd.   CFO Sold ... Market Exclusive - Mar 10, 2017 Mark Donald Lyons , CFO of Arch Capital Group Ltd.  reportedly Sold 13,000 shares of the company's stock at an average price of 94.43 for a total transaction amount of $1,227,590.00 SEC Form.1242783 Shares in Arch Capital Group Ltd.  Acquired by Norges Bank - The Cerbat GemInsider Trading at Arch Capital Group Ltd.? - BBNS"
p5
aS'Arch Capital Group Ltd.  Files An 8-K Other Events Market Exclusive - Jan 10, 2017 Arch Capital Group Ltd. , together with its co-sponsor Kelso &amp; Co. , today launched Premia Reinsurance Ltd.Credit Suisse Group Upgrades Arch Capital Group Ltd.  to Outperform - Sports PerspectivesArch Insurance Group Names Parsons Vice President in California - Insurance Journal'
p6
aS'Arch Capital Group Ltd.  Files An 8-K Departure of Directors or ... Market Exclusive - Feb 27, 2017 Arch Capital Group Ltd. writes insurance and reinsurance on worldwide basis. The Company operates in five segments: insurance, reinsurance, mortgage, other and corporate.The Artisan Partners Limited Partnership Has $1592177000 Stake in Arch Capital ... - DailyQuint'
p7
aS'Arch Capital  Q4 Earnings Beat, Premiums Increase Y/Y Yahoo Finance - Feb 14, 2017 Arch Capital Group Limited ACGL reported fourth-quarter 2016 earnings per share of $1.13 that beat the Zacks Consensus Estimate of $1.01 by about 12%.3 Stocks to Watch on Tuesday: General Motors Company , Arch Capital Group ... - Nasdaq'
p8
aS"Insider Trading Activity Arch Capital Group Ltd.   CFO Sold 5635 ... Market Exclusive - Mar 6, 2017 Mark Donald Lyons , CFO of Arch Capital Group Ltd.  reportedly Sold 5,635 shares of the company's stock at an average price of 95.08 for a total transaction amount of $535,775.80 SEC Form.Arch Capital Group Ltd.  Files Form 4 Insider Selling : Marc Grandisson ... - Energy Index"
p9
aS'Arch Capital Group Reaches Analyst Target Price Nasdaq - Jan 11, 2017 In recent trading, shares of Arch Capital Group Ltd  have crossed above the average analyst 12-month target price of $85.60, changing hands for $86.31/share.'
p10
a.