(lp0
S'Ameren Corporation Fourth Quarter 2016 Earnings Webcast Feb. 16, 2017 PR Newswire  - Feb 1, 2017 , will join Martin J. Lyons, executive vice president and CFO of Ameren Corp., to discuss 2016 earnings, earnings guidance and other matters related to the company in a conference call with financial analysts on Thursday, Feb. 16, at 9 a.m.'
p1
aS'Ameren Corp Reports 10% Advance In Q4 Profit Nasdaq - Feb 16, 2017  - Ameren Corp  reported earnings for its fourth quarter that advanced from last year. The company said its bottom line came in at $32 million, or $0.13 per share.'
p2
aS'Ameren  Announces 2016 Results and Issues 2017 Earnings Guidance PR Newswire  - Feb 16, 2017 ST. LOUIS, Feb. 16, 2017 /PRNewswire/ -- Ameren Corporation  today announced 2016 net income attributable to common shareholders in accordance with Generally Accepted Accounting Principles  of $653 million, or $2.68 per diluted&nbsp;...Ameren Corporation  Misses on Q4 Earnings Estimates - Yahoo FinanceAmeren Corp  Releases Earnings Results, Misses Expectations By $-0.04 EPS - Highland Mirror'
p3
aS"Insider Trading Activity Ameren Corp   VP Sold 1320 shares of Stock Market Exclusive - Mar 3, 2017 On 5/15/2014 Charles Naslund, VP Sell, 1,920 $39.26 with an average share price of $75,379.20 View SEC Filing 5/15/2014 per share and the total transaction amounting to Fadi Diya.Martin J. Lyons Sells 1320 Shares of Ameren Corp  Stock - Chaffey BreezeToday's Top Gainers in the Market Ameren Corporation  from Utilities - The Daily Leicester"
p4
aS'Ameren Corporation  Common Share Dividend Payout Ratio Energy Index - 17 hours ago The dividend growth rate of Ameren Corporation calculated based on 20 historical quarterly dividends is 1.76% while the R-Squared dividend growth rate regression is 0.76.'
p5
aS'Ameren Corporation  Ex-Dividend Date Scheduled for March 10, 2017 Nasdaq - Mar 9, 2017 Ameren Corporation  will begin trading ex-dividend on March 10, 2017. A cash dividend payment of $0.44 per share is scheduled to be paid on March 31, 2017.The Credit Agricole SA Acquires 28206 Shares of Ameren Corp  - DailyQuintAmeren Corp  to Issue Quarterly Dividend of $0.44 on March 31st - The Cerbat Gem'
p6
aS"Why to Keeping Eye on Ameren Corporation , WEC Energy Group, Inc. ? StockNewsJournal - 20 hours ago Investors who are keeping close eye on the stock of Ameren Corporation  established that the company was able to keep return on investment at 3.04 in the trailing twelve month while Reuters data showed that industry's average stands at 5.36&nbsp;...Analyzing Analyst Recommendations: Intercontinental Exchange, Inc. (ICE ... - TWN"
p7
aS'Ameren Corporation  Moves Higher on Volume Spike for February 17 Equities.com - Feb 17, 2017 Ameren Corporation  traded on unusually high volume on Feb. 17, as the stock gained 0.81% to close at $53.37. On the day, Ameren Corporation saw 1.84 million shares trade hands on 12,558 trades. Considering that the stock averages only a daily&nbsp;...Ameren Corporation  Releases FY17 Earnings Guidance - Chaffey BreezeRevenue Approximations Analysis: Waste Management, Inc. , Ameren ... - StockNewsJournal'
p8
aS'Ameren Corporation  Moves Higher on Volume Spike for February 28 Equities.com - Feb 28, 2017 Ameren Corporation  traded on unusually high volume on Feb. 28, as the stock gained 0.74% to close at $54.69. On the day, Ameren Corporation saw 2.66 million shares trade hands on 18,746 trades. Considering that the stock averages only a daily&nbsp;...Revenue Update on Ameren Corp - Energy IndexCommonwealth of Pennsylvania Public School Empls Retrmt SYS Buys 51 Shares of ... - BNB Daily '
p9
aS"BRIEF-Ameren CEO Warner L. Baxter's 2016 compensation $6.6 mln vs $6.5 mln in 2015 Reuters - 11 hours ago BRIEF-Ameren CEO Warner L. Baxter's 2016 compensation $6.6 mln vs $6.5 mln in 2015. March 15 Ameren Corp. * Ameren corp- ceo warner l. Baxter's total 2016 compensation was $6.6 million versus $6.5 million in 2015 Source text for Eikon: Further&nbsp;..."
p10
a.