(lp0
S'American Electric Technologies, Inc.  Weathers The Storm Scibility Media - Aug 16, 2016 Though American Electric Technologies, Inc.  managed to post 2Q2016 earnings and revenue that improved from the previous quarter and beat consensus estimate, the management said that operating environment remains challenging.'
p1
aS"Bargain Hunter's Delight: What's the Latest on American Electric Technologies ... Morgan Research - 13 hours ago As of late, the Street has taken a bit closer look at shares of American Electric Technologies, Inc . In the latest session the stock moved -2.38%, putting the stock value at $2.05."
p2
aS"Top Decliner within Review: American Electric Technologies, Inc's  stock ... WsNews 4investors - Feb 27, 2017 American Electric Technologies, Inc's  stock price tumbled -7.14% to finalize at $1.95 throughout previous buying and selling session."
p3
aS"Sizzling Mover within Investor Spotlight: American Electric Technologies, Inc ... WsNews 4investors - Feb 8, 2017 American Electric Technologies, Inc's  stock price unchanged to finalize at $1.85 throughout previous buying and selling session."
p4
aS'Company Stock Review for American Electric Technologies, Inc  Baldwin Journal - Mar 15, 2017 American Electric Technologies, Inc  presently has an EV or Enterprise Value of 27099. The EV helps show how the market assigns value to a company as a whole.'
p5
aS'M&amp;I Electric announces $6M of project awards for IntelliSafe arc-resistant ... GlobeNewswire  - Feb 21, 2017 HOUSTON, Feb. 21, 2017  -- American Electric Technologies, Inc. , a leading provider of power delivery solutions for the global energy industry, announced today that its M&amp;I Electric business has been awarded multiple&nbsp;...'
p6
aS"M&amp;I Electric's IntelliSafe Arc-Resistant Switchgear Wins EC&amp;M Magazine ... GlobeNewswire  - Apr 18, 2016 HOUSTON, April 18, 2016  -- M&amp;I Electric, the flagship business of American Electric Technologies, Inc. , a leading provider of power delivery solutions for the global energy industry, announced today that its new&nbsp;..."
p7
aS'Stock Focus: Checking Levels on American Electric Technologies Inc  Rives Journal - Oct 31, 2016 Investors are keeping a close eye on levels of American Electric Technologies Inc . The Average Directional Index or ADX is a technical analysis indicator used to describe if a market is trending or not trending.'
p8
aS"American Electric Technologies, Inc's , a stock from Industrial Goods ... Street Updates - Feb 23, 2017 American Electric Technologies, Inc's  , a stock from Industrial Electrical Equipment Industry, has a value of $2.40 per share, noted a price change of 23.08% in recent trade close."
p9
aS"25 Stocks Moving In Friday's Pre-Market Session Benzinga - Feb 24, 2017 American Electric Technologies, Inc.  shares rose 7.2 percent to $2.25 in pre-market trading after declining 12.48 percent on Thursday."
p10
a.