(lp0
S'Athens Bancshares Corporation Restates 2016 Financial Results PR Newswire  - Feb 10, 2017 ATHENS, Tenn., Feb. 9, 2017 /PRNewswire/ -- Athens Bancshares Corporation  , the holding company for Athens Federal Community Bank, National Association , on February 7, 2017 announced its results of&nbsp;...'
p1
aS'Athens Bancshares Corporation Reports 2016 Financial Results Yahoo Finance - Feb 6, 2017 ATHENS, Tenn., Feb. 6, 2017 /PRNewswire/ -- Athens Bancshares Corporation  , the holding company for Athens Federal Community Bank, National Association , today announced its results of operations&nbsp;...'
p2
aS'Athens Bancshares Corporation Announces Date Of Annual Meeting Satellite PR News  - Feb 3, 2017 Athens Bancshares Corporation is the parent holding company of Athens Federal Community Bank, National Association, a FDIC-insured national bank organized in 1934.'
p3
aS"Athens Federal, Your Hometown Bank Seeking Alpha - May 6, 2016 In 2009, depositors of Athens Federal Community Bank adopted a plan of conversion from a mutual form to a stock savings bank that would result in all Athens Federal's capital stock being owned by Athens Bancshares Corporation . AFCB offered 100% of its&nbsp;..."
p4
aS'Ray Grant elected to Athens Federal board of directors The Daily Post-Athenian - Apr 7, 2016 Athens Federal Community Bank announces that Raymond A. &quot;Ray&quot; Grant has been elected to serve as a director of both Athens Federal Community Bank and its holding company, Athens Bancshares Corporation. Well-regarded for his work with youth, Grant&nbsp;...'
p5
aS"13 Micro-Cap Bank Stocks That Could Add Big Profits to Your Portfolio TheStreet.com - Mar 24, 2015 &quot;The [small-to-mid-cap] bank group isn't without its challenges, most notably the impact on bank profitability from the persistently low interest rate environment both domestically and abroad,&quot; said Jefferson Harralson, Keefe, Bruyette &amp; Woods' head of&nbsp;..."
p6
aS'Top 200 community banks  where does yours rank? CFODailyNews.com - May 3, 2013 These days more and more of your peers are bringing their business to community banks in search of more personal and personalized service.'
p7
aS'Recent Activity In The Banking Industry: M&amp;As, Branch Openings And Buybacks Seeking Alpha - Jun 22, 2016 Simmons First National Corporation of Pine Bluff, Arkansas is acquiring 100% of Citizens National Bank of Athens, Tennessee. It was filed on June 11th, 2016. Peoples Equity Corporation of Wells, Minnesota is going to acquire 100% of Paragon Bank of ...'
p8
aS'Bank prospers during and after the recession Oconee Enterprise - Mar 1, 2017 Atlantic Capital Bank is focused on mid-sized corporations, small businesses and private clients. We are delighted to be a part of the Athens area, said May, joking that the arrow-like logo points to the northeast, meaning the Athens-Oconee area. The ...'
p9
aS"Closing an insolvent bank fairly simple process Online Athens - Jun 21, 2009 The Georgia Department of Banking and Finance closed Freedom Bank's branches in Commerce, Homer, Jefferson and Winder on March 6 for the weekend and turned them over to the Federal Deposit Insurance Corp., which in turn sold the bank to&nbsp;..."
p10
a.