(lp0
S'Albemarle Hosts Investor Day Today in New York City: March 16, 2017 Yahoo Finance - 51 minutes ago CHARLOTTE, N.C., March 16, 2017 /PRNewswire/ -- Albemarle Corporation , a leader in the global specialty chemicals industry, will discuss its strategy to capture growth, maximize profitability and drive shareholder value at its 2017 Investor Day ...'
p1
aS'Albemarle Corporation  Ex-Dividend Date Scheduled for March 13, 2017 Nasdaq - Mar 10, 2017 Albemarle Corporation  will begin trading ex-dividend on March 13, 2017. A cash dividend payment of $0.32 per share is scheduled to be paid on April 03, 2017.'
p2
aS'Common Share Dividend Yield of Albemarle Corporation  Energy Index - 21 hours ago The dividend growth rate of Albemarle Corporation calculated based on 20 historical quarterly dividends is 10.46% while the R-Squared dividend growth rate regression is 0.89.Zacks Investment Research downgraded Albemarle Corporation  to Hold ... - Breaking Finance NewsAlbemarle Corporation  in-depth technical analysis - Post Analyst'
p3
aS'ALBEMARLE CORPORATION  Files An 8-K Results of Operations and ... Market Exclusive - Feb 27, 2017 On February 27, 2017, Albemarle Corporation  issued a press release reporting its results for the fourth&gt;quarter ended December 31, 2016.Albemarle Corporation  Moves Higher on Volume Spike for February 28 - Equities.comAlbemarle raises dividend for 23rd consecutive year - PR Newswire '
p4
aS'Albemarle Corporation says bromine sales up 13 percent, lithium 30 percent ... Magnoliareporter - Feb 28, 2017 CHARLOTTE, NC -- Albemarle Corporation reported fourth quarter 2016 net sales of $696.7 million, net income from continuing operations of $50.3 million and adjusted EBITDA of $187.4 million.Albemarle  Q4 2016 Results - Earnings Call Transcript - Seeking AlphaAlbemarle  Tops Earnings, Revenue Estimates in Q4 - Yahoo Finance'
p5
aS'Albemarle reports strong 2016 earnings finish and record cash flow from operations PR Newswire  - Feb 27, 2017 Albemarle Corporation  reported fourth quarter 2016 net sales of $696.7 million, net income from continuing operations of $50.3 million and adjusted EBITDA of $187.4 million.'
p6
aS"Albemarle Corporation  Shows Strength: Stock Up 9.8% Yahoo Finance - Mar 1, 2017 Albemarle Corporation ALB was a big mover last session, as the company saw its shares rise almost 10% on the day. The upside was driven by the company's strong full-year 2016 results and record cash flow from operations."
p7
aS"Ruling stocks in today's market: Albemarle Corporation  The News Journal - 11 hours ago Albemarle Corporation , from the Basic Materials sector exhibited a worth of $ 103.95 today, demonstrating a change in price of -0.53%."
p8
aS'Albemarle Corporation  Shows Strength: Stock Up 9.8% March 01, 2017 Zacks.com - Mar 1, 2017 Albemarle Corporation  was a big mover last session, as the company saw its shares rise almost 10% on the day.'
p9
aS'Albemarle Corporation Stock Volatility Hits An Unsually High Level CML News - 13 hours ago This is a proprietary realized volatility rating created by Capital Market Laboratories  based on a large number of data interactions for Albemarle Corporation  . We examine the little used gem of daily stock volatility over a 20-day ...'
p10
a.