(lp0
S"Only 3 days left before Alon USA Energy Inc  will start trading ex ... Simply Wall St - Mar 3, 2017 Investors who want to cash in on Alon USA Energy's  upcoming dividend of $0.15 have only 3 days left to buy the shares before the so called ex-dividend date on the Tue 07 Mar 2017.Alon USA Energy, Inc.  Downgraded to Hold at Zacks Investment Research - BNB Daily Analyst Activity  Citigroup Inc Lowers Its Price Target On Alon USA Energy ... - Market Exclusive"
p1
aS"Refiner Delek to buy rest of Alon USA for $464 million Reuters - Jan 3, 2017 Refiner Delek U.S. Holdings Inc said it had agreed to buy the shares of Alon USA Energy Inc it does not already own for $464 million to increase its exposure to cheap crude produced in Texas's prolific Permian basin.Delek Just Revealed Its Position In Alon Usa Energy Inc.  - Small Cap Exclusive Permian: Delek US to Acquire Alon USA for $464 Million - Oil & Gas 360"
p2
aS"Alon USA Energy, Inc. Announces Receipt of Proposal to Purchase Its ... PR Newswire  - Oct 17, 2016 DALLAS, Oct. 17, 2016 /PRNewswire/ -- Alon USA Energy, Inc.   today announced that it received an offer from Delek US Holdings, Inc.   to acquire all of the Company's outstanding shares of common&nbsp;...Alon USA Energy  Affirms Receipt of Stock Purchase Proposal from Delek  - StreetInsider.comKrotz Springs refinery may be part of $300 million acquisition - The Advocate"
p3
aS"Alon USA Energy, Inc. Provides Update on the Activities of its Special ... PR Newswire  - Jul 11, 2016 DALLAS, July 11, 2016 /PRNewswire/ -- As noted in the Alon USA Energy, Inc.   proxy statement, filed with the SEC on April 1, 2016, Alon's Board of Directors has formed a Special Committee .Alon USA Energy Is No Longer Overvalued, But Downside Risks Remain - Seeking AlphaAlon USA Updates Strategic Review Progress - CSPDailyNews.com"
p4
aS"Here's Why Shares of Alon USA Energy Declined 15% in December Motley Fool - Jan 8, 2016 What: Shares of Alon USA Energy  fell 15% in December, mostly on the back of the announcement that Congress had lifted the ban on exporting crude from the United States."
p5
aS'Alon USA Energy Inc. common stick  Moves Higher on Volume Spike for ... Equities.com - Feb 28, 2017 Alon USA Energy Inc. common stick  traded on unusually high volume on Feb. 28, as the stock gained 4.47% to close at $12.16.Alon USA Energy, Inc.  Rating Lowered to Hold at Zacks Investment Research - Chaffey BreezeAlon USA Energy, Inc.  Downgraded by Zacks Investment Research to Hold - The Cerbat Gem'
p6
aS'Alon USA Energy Faces Tough Conditions In 2016 Seeking Alpha - Mar 22, 2016 Independent refiner Alon USA Energy  reported Q4 earnings late last month that missed slightly on both lines as U.S.'
p7
aS'Alon USA Energy Reports Fourth Quarter and Full Year 2016 Results Yahoo Finance - Feb 23, 2017 23, 2017 /PRNewswire/ -- Alon USA Energy, Inc.   today announced results for the fourth quarter and year ended December 31, 2016.Alon USA Energy Inc.: Alon USA Partners, LP Reports Fourth Quarter and Full ... - The Wall Street Transcript'
p8
aS'RINs Are Battering Alon Into Submission Seeking Alpha - Aug 31, 2016 Like most independent refiners, ALON USA Energy, Inc.  is being hard pressed by shrinking crack spreads and explosively increasing costs.'
p9
aS'Common Share Dividend Yield of Alon USA Energy, Inc.  Energy Index - 17 hours ago The dividend growth rate of Alon USA Energy calculated based on 20 historical quarterly dividends is 42.77% while the R-Squared dividend growth rate regression is 0.92.Alon USA Energy, Inc.  Receives An Update From Brokers - The De Soto Edge'
p10
a.