(lp0
S'The Allstate Corporation Announces Availability of Fourth Quarter 2016 Results PR Newswire  - Feb 1, 2017 NORTHBROOK, Ill., Feb. 1, 2017 /PRNewswire/ -- The Allstate Corporation  has filed its financial results for the quarter ended December 31, 2016, on its current report on Form 8-K.Allstate Corporation   Issues Quarterly Earnings Results - Sports PerspectivesThe Allstate Corporation  added 12.2 percent in its Stock After ... - FactsReporter'
p1
aS'Ex-Dividend Reminder: AGNC Investment, Allstate Corp. and Central Pacific ... Nasdaq - Feb 22, 2017 Looking at the universe of stocks we cover at Dividend Channel , on 2/24/17, AGNC Investment Corp , Allstate Corp. , and Central Pacific Financial Corp  will all trade ex-dividend for their respective upcoming&nbsp;...'
p2
aS'Allstate Corp Buys iShares Russell 2000, Bank of Americaoration, Citigroup ... GuruFocus.com - Feb 16, 2017 Northbrook, IL, based Investment company Allstate Corp buys iShares Russell 2000, Bank of Americaoration, Citigroup, CIT Group, Rite Aid, Williams, Monsanto Co, JPMorgan Chase, Capital One Financial, Morgan Stanley, sells iShares iBoxx $ Investment&nbsp;...'
p3
aS'The Allstate Corp  Downgraded by Zacks Investment Research to Hold Petro Global News 24 - Mar 13, 2017 Zacks Investment Research lowered shares of Allstate Corp  from a buy rating to a hold rating in a research note released on Friday.Allstate Corp  Upgraded to Buy by Zacks Investment Research - Chaffey BreezeAllstate Corp  Downgraded by Zacks Investment Research - BBNS'
p4
aS'Allstate Corporation   Common Share Dividend Payout Ratio Energy Index - Mar 15, 2017 The dividend growth rate of Allstate Corporation  calculated based on 20 historical quarterly dividends is 10.03% while the R-Squared dividend growth rate regression is 0.95.'
p5
aS'Smart Money Buying the Price Weakness of Allstate Corporation   Energy Index - Mar 14, 2017 Allstate Corporation   saw its share price trade relatively negative in the recent trading session. The share price was last updated to $81.89 with a loss of -0.16 points or -0.2%.Allstate Corp  Downgraded by Zacks Investment Research to Hold - Chaffey BreezeThe Allstate Corp  Downgraded by Zacks Investment Research - Petro Global News 24'
p6
aS'Allstate Corp  Cut to Market Perform at Keefe, Bruyette &amp; Woods Chaffey Breeze - Mar 6, 2017 Allstate Corp logo Keefe, Bruyette &amp; Woods lowered shares of Allstate Corp  from an outperform rating to a market perform rating in a research report sent to investors on Wednesday morning.Keefe Bruyette &amp; Woods Downgrades Allstate Corp to Market Perform - Money Flow Index & TrendsThe Janus Capital Management LLC Has $137198000 Stake in Allstate Corporation ... - DailyQuint'
p7
aS"What are Analysts Expecting for Allstate Corp  Earnings? Aiken Advocate - 19 hours ago Company earnings numbers are typically highly analyzed by investors and analysts alike. Earnings are important because they can provide insight into a company's profitability."
p8
aS'Allstate Corporation   Stake Increased by State Street Corp BNB Daily  - Feb 18, 2017 Allstate Corporation  logo State Street Corp boosted its position in Allstate Corporation   by 9.3% during the fourth quarter, Holdings Channel reports.Cipher Capital LP Takes Position in Allstate Corporation   - The Cerbat GemAllstate Corporation  - Receive News &amp; Ratings Daily - BBNS'
p9
aS'Allstate Corp  is Downgraded by Keefe Bruyette to  Mkt Perform Highland Mirror - Mar 1, 2017 Allstate Corp  was Downgraded by Keefe Bruyette to  Mkt Perform. Earlier the firm had a rating of Outperform  on the company shares.The Allstate Corporation   Stake Maintained by Azimuth Capital ... - DailyQuintAllstate Corp  Price-to-Earnings-Growth Ratio At 0.93 - Equities Focus'
p10
a.