(lp0
S"Alaska Communications Systems Group, Inc.  Files An 8-K Entry ... Market Exclusive - 12 hours ago The Company also provides telecommunication services to consumers across Alaska. The Company's facilities-based communications network extends across Alaska and connects to the contiguous states through its undersea fiber optic cable systems and&nbsp;...ING Capital Agents $195MM Facility for Alaska Communications Systems - ABL AdvisorAlaska Communications posts 4Q profit - Yahoo Finance"
p1
aS'Boosted by broadband, Alaska Communications posts net gain Alaskajournal.com - 13 hours ago Alaska Communications Systems Group Inc. reported net income of nearly $2.4 million in 2016 and a $195 million credit and loan package that will help refinance existing debt, company officials said in a March 14 investor call.'
p2
aS'BRIEF-Alaska Communications enters into new $195 mln senior credit facility Reuters - Mar 14, 2017 Alaska Communications Systems Group Inc - Alaska Communications expects to launch a tender offer to repurchase convertible notes.'
p3
aS"Insider Trading Activity Alaska Communications Systems Group Inc (NASDAQ:ALSK ... Market Exclusive - Feb 25, 2017 The Company also provides telecommunication services to consumers across Alaska. The Company's facilities-based communications network extends across Alaska and connects to the contiguous states through its undersea fiber optic cable systems and&nbsp;...Alaska Communications Systems Group Inc  Receives Average Rating of ... - Chaffey Breeze"
p4
aS'Measuring the Levels on Shares of Alaska Communications Systems Group Inc  Rives Journal - 14 hours ago Traders may be trying to figure out whether it is a good time to enter or exit a position in Alaska Communications Systems Group Inc . The Average Directional Index or ADX is a technical analysis indicator used to describe if a market is trending ...'
p5
aS'Insider Trading Activity Alaska Communications Systems Group Inc (NASDAQ:ALSK ... Market Exclusive - Mar 10, 2017 On 3/8/2013 David W Karp, Director, bought 1,000 with an average share price of $1.63 per share and the total transaction amounting to $1,630.00.'
p6
aS"Alaska Communications Systems'  CEO Anand Vadapalli on Q1 2016 Results ... Seeking Alpha - May 9, 2016 Good day and welcome to the Alaska Communications' first quarter 2016 conference call. I'm Leonard Steinberg, Senior Vice President and General Counsel."
p7
aS'Alaska Communications: Better After The AWN Sale? Seeking Alpha - Dec 8, 2014 On December 4th, Alaska Communications Systems Group, Inc.  announced the sale of their 33% interest in Alaska Wireless Networks  to General Communication, Inc.  for $300mn in cash.'
p8
aS"Alaska Communications Systems Group Inc  Adding Value Over Past Week Business Review - 17 hours ago Shares of Alaska Communications Systems Group Inc  have seen strong upward momentum over the past week as they have moved higher 7.32% over the past five sessions, placing them on this week's winners list."
p9
aS"Alaska Communications' Stock Is A Bargain At $85 Million Seeking Alpha  - Jul 30, 2014 Alaska Communications  is a bargain company that is valued at a mere $85 million for the entire common share issue."
p10
a.