(lp0
S"Allison Transmission announces FuelSense 2.0 with DynActive Shifting PR Newswire  - Mar 14, 2017 INDIANAPOLIS, March 14, 2017 /PRNewswire/ -- Allison Transmission today announced FuelSense 2.0 featuring DynActive Shifting, delivering up to 6 percent additional fuel savings beyond the company's original FuelSense software."
p1
aS"Allison Transmission Holdings  Q4 2016 Results - Earnings Call Transcript Seeking Alpha - Feb 7, 2017 Welcome to Allison Transmission's Fourth Quarter 2016 Results Conference Call. My name is Melissa, and I'll be your conference operator today.Allison Transmission results top Wall Street forecast - Indianapolis Business Journal"
p2
aS'Allison Transmission Holdings, Inc.  Ex-Dividend Date Scheduled for ... Nasdaq - Mar 1, 2017 Allison Transmission Holdings, Inc.  will begin trading ex-dividend on March 02, 2017. A cash dividend payment of $0.15 per share is scheduled to be paid on March 15, 2017.Allison Transmission Holdings Inc  to Issue Quarterly Dividend of $0.15 ... - Chaffey Breeze'
p3
aS"Why Allison Transmission Holdings  Could Be Positioned for a Surge ... Zacks.com - Mar 3, 2017 Allison Transmission Holdings, Inc.  is a Automotive - Original Equipment company that could be an interesting play for investors.What are Analyst's Indicators for Tesaro, Inc. , Allison Transmission ... - The USA Commerce"
p4
aS'Allison Transmission announces Stock Repurchase Agreement with ValueAct ... PR Newswire  - Feb 6, 2017 INDIANAPOLIS, Feb. 6, 2017 /PRNewswire/ -- Allison Transmission Holdings Inc.  today announced that it has entered into a Stock Repurchase Agreement with ValueAct Capital Master Fund, L.P.'
p5
aS'Allison Transmission to present at Bank of America Merrill Lynch Global ... PR Newswire  - Mar 7, 2017 INDIANAPOLIS, March 7, 2017 /PRNewswire/ -- Allison Transmission Holdings Inc.  today announced that David S. Graziosi, President, Chief Financial Officer and Treasurer, and G. Frederick Bohley III, Vice President, Finance, will present at&nbsp;...Stock Returns: Allison Transmission Holdings Inc  versus The ... - CML News'
p6
aS'Why Allison Transmission  Stock Might be a Great Pick Yahoo Finance - Mar 10, 2017 One stock that might be an intriguing choice for investors right now is Allison Transmission Holdings, Inc. ALSN. This is because this security in the Automotive - Original Equipment space is seeing solid earnings estimate revision activity, and is in ...'
p7
aS'Common Share Dividend Yield of Allison Transmission Holdings, Inc.  Energy Index - 19 hours ago The dividend growth rate of Allison Transmission Holdings calculated based on 20 historical quarterly dividends is 24.16% while the R-Squared dividend growth rate regression is 0.71.Most Recent Stock Movements: Allison Transmission Holdings, Inc.  - Is stories'
p8
aS'Allison Transmission Schedules Fourth Quarter and Full Year 2016 Results ... PR Newswire  - Dec 21, 2016 INDIANAPOLIS, Jan. 18, 2017 /PRNewswire/ -- Allison Transmission Holdings Inc. , the largest global provider of commercial-duty fully automatic transmissions, today announced that it will hold its fourth quarter and full year 2016 financial&nbsp;...'
p9
aS"Allison Transmission announces stock repurchase program PR Newswire  - Nov 16, 2016 INDIANAPOLIS, Nov. 16, 2016 /PRNewswire/ -- Allison Transmission Holdings Inc.  today announced that its board of directors recently concluded a review of the Company's business plan including product development and capital spending&nbsp;..."
p10
a.