(lp0
S'EdgePoint Investment Group Inc. Buys Affiliated Managers Group, Manulife ... Nasdaq - Feb 15, 2017 EdgePoint Investment Group Inc. initiated holdings in Manulife Financial Corp. The purchase prices were between $14.08 and $18.73, with an estimated average price of $16.29.'
p1
aS'Smart Money Buying the Price Weakness of Affiliated Managers Group, Inc.  Energy Index - Mar 14, 2017 Affiliated Managers Group, Inc.  saw its share price trade relatively negative in the recent trading session. The share price was last updated to $163.8 with a loss of -0.1 points or -0.06%.Affiliated Managers Group, Inc.  Receives $167.50 Average PT from Analysts - Chaffey BreezeStock Returns: Affiliated Managers Group Inc  versus State Street ... - CML News'
p2
aS'Affiliated Managers Group, Inc.  Ex-Dividend Date Scheduled for February ... Nasdaq - Feb 6, 2017 Affiliated Managers Group, Inc.  will begin trading ex-dividend on February 07, 2017. A cash dividend payment of $0.2 per share is scheduled to be paid on February 23, 2017.Affiliated Managers Group, Inc.  Position Increased by Sirios Capital ... - The Cerbat GemShares of Affiliated Managers Group, Inc.  Sees Large Outflow of Money - Highland Mirror'
p3
aS"Affiliated Managers Group Finishes 2016 Strong, Sets First Dividend Motley Fool - Jan 30, 2017 Affiliated Managers Group's fourth-quarter results reflected the tough conditions in the financial industry and the company's efforts at overcoming them. Revenue was down 7% to $550.3 million, and that was worse than the roughly 4.5% decline that most&nbsp;...Affiliated Managers Group's  CEO Sean Healey on Q4 2016 Results ... - Seeking AlphaResearch Analysts Issue Forecasts for Affiliated Managers Group, Inc.'s Q4 ... - Sports Perspectives"
p4
aS'Affiliated Managers Group: A Bet That Active Management Is Not Dying Seeking Alpha - Jan 12, 2017 Affiliated Managers Group, Inc.  is a global asset management company which purchases equity stakes in other asset management firms.'
p5
aS"Investors Attention Alert: Affiliated Managers Group, Inc.  Is stories - 19 hours ago Affiliated Managers Group, Inc.'s  witnessed a gain of 0.30% in recent trading period with closing price of $ 164.29.Smart Money Selling the Price Strength of Affiliated Managers Group, Inc.  - Highland Mirror"
p6
aS'Affiliated Managers Group CEO paid $17.5m last year The Boston Globe - Apr 29, 2016 Sean Healey, the chief executive of investment company Affiliated Managers Group Inc., received $17.5 million in total compensation last year, more than triple his 2014 pay, but less than he earned the prior year.'
p7
aS'EdgePoint Investment Group Inc. Buys Affiliated Managers Group, Manulife ... GuruFocus.com - Feb 14, 2017 Toronto, A6, based Investment company EdgePoint Investment Group Inc. buys Affiliated Managers Group, Manulife Financial, Osisko Gold Royalties, Fiserv, sells WESCO International, American International Group, Arista Networks, Pegasystems, Gran&nbsp;...'
p8
aS'Affiliated Managers Group Inc  CEO and Chairman Sean M Healey Sold $9.6 ... GuruFocus.com - Dec 17, 2016 Affiliated Managers Group Inc., is an asset management company with equity investments in a group of boutique investment management firms or Affiliates.AMG Appoints Hugh Cutler as Head of Global Distribution - Business Wire Affiliated Managers Expands Wealth Portfolio and Managed Assets - Market Realist'
p9
aS'Affiliated Managers Group Inc Risk Points versus Financials CML News - Feb 17, 2017 This is a scatter plot analysis of the critical risk points from the option market for Affiliated Managers Group Inc  compared to its own past and the Financials ETF.'
p10
a.