(lp0
S"Insider Trading Activity AutoNation, Inc.   EVP Sold 110430 shares ... Market Exclusive - 6 hours ago Jonathan P Ferrando , EVP of AutoNation, Inc.  reportedly Sold 110,430 shares of the company's stock at an average price of 44.86 for a total transaction amount of $4,953,889.80 SEC Form."
p1
aS'AutoNation, Inc.  Stake Raised by Comerica Bank BNB Daily  - 57 minutes ago AutoNation logo Comerica Bank increased its position in AutoNation, Inc.  by 0.9% during the fourth quarter, Holdings Channel reports.AutoNation, Inc.  Broker Price Targets For The Coming Week - Fiscal StandardIn Volatile Markets Do Analysts Think You Should Buy AutoNation, Inc. ? - The De Soto Edge'
p2
aS'Form 4 AUTONATION, INC. For: Mar 13 Filed by: FERRANDO JONATHAN P StreetInsider.com - 11 hours ago Check this box if no longer subject to Section 16. Form 4 or Form 5 obligations may continue. See Instruction 1. 1. Name and Address of Reporting Person *. FERRANDO JONATHAN P. , , . 200 SW 1ST AVE. SUITE 1600. &nbsp;...'
p3
aS"AutoNation CEO: 'Trump administration is absolutely doing the right thing' on ... South Florida Business Journal - 22 hours ago AutoNation CEO Mike Jackson said the Trump administration is &quot;absolutely doing the right thing&quot; when it comes to rolling back environmental regulations from the Obama administration."
p4
aS'AutoNation Inc.  Moves Lower on Volume Spike for March 06 Equities.com - Mar 6, 2017 AutoNation Inc.  traded on unusually high volume on Mar. 06, as the stock lost 1.07% to close at $45.33. On the day, AutoNation Inc. saw 1.9 million shares trade hands on 11,487 trades. Considering that the stock averages only a daily volume of 1 ...Autonation, Inc.  Files Form 4 Insider Selling : Christopher Cade Sells ... - Energy IndexTheStreet Downgrades AutoNation, Inc.  to C+ - BNB Daily '
p5
aS'AutoNation, Inc.  Stake Held by Employees Retirement System of Texas BNB Daily  - 22 hours ago AutoNation logo Employees Retirement System of Texas continued to hold its position in AutoNation, Inc.  during the fourth quarter, according to its most recent filing with the Securities and Exchange Commission.'
p6
aS"AutoNation Announces Retirement of Jon Ferrando, Executive Vice President ... PR Newswire  - Mar 7, 2017 FORT LAUDERDALE, Fla., March 7, 2017 /PRNewswire/ -- AutoNation, Inc. , America's largest automotive retailer, today announced that Jon Ferrando, Executive Vice President - General Counsel, Corporate Development and Human Resources&nbsp;...AutoNation  Confirms Retirement of Jon Ferrando, EVP and General Counsel - StreetInsider.com"
p7
aS"Traders Actions to Focus: AutoNation, Inc.  Is stories - 20 hours ago AutoNation, Inc.'s  witnessed a loss of -0.02% in recent trading period with closing price of $ 44.82. The company's last traded volume of 0.56 million shares as compared to it's an average volume of 0.97 million shares."
p8
aS'Is AutoNation, Inc.  a Stock To Hold For The Long Haul? Aiken Advocate - 10 hours ago AutoNation, Inc.  has been recommended as a long term growth stock according to analysts at Beta Research. With their stock price currently trading around $45.38, the firm has proven a solid track record of growth over the past few years ...'
p9
aS'Stock Tracker: Checking on Shares of AutoNation, Inc.  Sherwood Daily - 15 hours ago Investors may be tracking fundamental and technical data for AutoNation, Inc. . The company has a current Value Composite Score of 7. Using a scale from 0 to 100, a lower score would represent an undervalued company and a higher score&nbsp;...'
p10
a.