(lp0
S'Farm Family prepares for Winter Storm Stella with claims teams and emergency ... GlobeNewswire  - Mar 14, 2017 This company serves 38 states not including NY. To better serve the unique insurance needs of the agricultural market, American National acquired the Farm Family group of insurance companies based in NY in 2001. For corporate and investor relations&nbsp;...'
p1
aS'American National Insurance Company Announces Filing Extension for Form 10-K Yahoo Finance - Mar 1, 2017 GALVESTON, Texas, March 01, 2017  -- American National Insurance Company   filed a Form 12b-25 Notification of Late Filing with the U.S.'
p2
aS'American National Insurance Company  Ex-Dividend Date Scheduled for ... Nasdaq - Mar 8, 2017 American National Insurance Company  will begin trading ex-dividend on March 09, 2017. A cash dividend payment of $0.82 per share is scheduled to be paid on March 17, 2017.American National Insurance Company  Posts Basic Consolidated EPS ... - Equities Focus'
p3
aS'American National Insurance Company Introduces a new One-Year Indexed Strategy ... Nasdaq - Feb 21, 2017 GALVESTON, Texas, Feb. 21, 2017  -- American National Insurance Company  announces the addition of a new indexed strategy for ANICO Strategy Indexed Annuity PLUS , available immediately.'
p4
aS'American National Insurance Company Introduces an Industry Leading Whole Life ... Yahoo Finance - Mar 1, 2017 GALVESTON, Texas, March 01, 2017  -- American National Insurance Company announces a new product, Signature Whole Life Insurance , available [March 1, 2017].'
p5
aS'American National Insurance posts 4Q profit Yahoo Finance - Feb 28, 2017 GALVESTON, Texas  _ American National Insurance Co.  on Monday reported fourth-quarter profit of $59.8 million. The Galveston, Texas-based company said it had profit of $2.22 per share.American National Insurance Company  Stock Technicals at Critical ... - CML News'
p6
aS'American National Insurance Company  Moves Lower on Volume Spike for ... Equities.com - Feb 24, 2017 American National Insurance Company  traded on unusually high volume on Feb. 24, as the stock lost 0.05% to close at $121.54.American National Insurance Company : A Low-Debt Company, But Is It ... - Simply Wall St'
p7
aS'The American National Insurance Co. TX Holds Stake in Corning Incorporated  Petro Global News 24 - Mar 13, 2017 American National Insurance Co. TX held its position in shares of Corning Incorporated  during the fourth quarter, Holdings Channel reports.American National Insurance Co. TX Holds Stake in Corning Incorporated  - The Cerbat Gem'
p8
aS'American National Life Insurance Company of New York Introduces Two New ... GlobeNewswire  - Feb 14, 2017 GLENMONT, N.Y., Feb. 14, 2017  -- American National Life Insurance Company of New York  announces two new Accelerated Benefit Riders for Terminal Illness and Chronic Illness, available [February 1, 2017].'
p9
aS'Successful Earnings Option Trading: American National Insurance Company ... CML News - Feb 15, 2017 As we look at American National Insurance Company we note that a short put is one of the most common implementations of an option strategy, but the analysis completed when employing the short put often times lacks the necessary rigor especially&nbsp;...'
p10
a.