(lp0
S'Why Investors remained confident on Ascena Retail Group, Inc. , Avon ... StockNewsJournal - Mar 10, 2017 ROI deals with the invested cash in the company and the return the investor realize on that money based on the net profit of the business.'
p1
aS'Ascena Retail Group Inc.  Settles Into New 52-Week Low on March 14 Session Equities.com - Mar 14, 2017 Shares of Ascena Retail Group Inc.  sank into a new 52-week low yesterday, and could be a company to watch at the open.'
p2
aS"Post-earnings bump for Ascena Retail Group Seeking Alpha - Mar 7, 2017 Shares of Ascena Retail Group  trade higher after the company's Q4 report showed some improvement. KeyBanc  points to the stable trend at Justice and e-commerce strength with the Catherines and Maurices chains.ASCENA RETAIL GROUP, INC.  Files An 8-K Results of Operations and ... - Market ExclusiveIs Ascena Retail Group Inc  A Financially Sound Company? - Simply Wall St"
p3
aS'Ascena Retail Group Inc.  Plunges 6.48% on February 16 Equities.com - Feb 16, 2017 Ascena Retail Group Inc.  had a rough trading day for Thursday February 16 as shares tumbled 6.48%, or a loss of $-0.35 per share, to close at $5.05.Ascena Retail Group, Inc. : How technical signals have emerged? - Post AnalystIn Volatile Markets Do Analysts Think You Should Buy Ascena Retail Group, Inc ... - The De Soto Edge'
p4
aS'Ascena Retail Group Inc.  Settles Into New 52-Week Low on March 13 Session Equities.com - Mar 13, 2017 Shares of Ascena Retail Group Inc.  sank into a new 52-week low yesterday, and could be a company to watch at the open.'
p5
aS"Ascena Retail Group Inc.  Insider Ownership stands at 6.7 The Newburgh Press - 18 hours ago Analysts estimated $-0.1/share for the previous Quarter, where Ascena Retail Group Inc.  reported Actual EPS of $-0.07/share with the difference of 0.03 percent and a surprise of 30 percent.Analyst's Indicator Review for Callon Petroleum Company , Ascena Retail ... - The USA CommerceToday Analysts Focus on Immunomedics, Inc. , Ascena Retail Group, Inc ... - StockNewsJournal"
p6
aS"Does Ascena Retail Offer a Good Value Buying Opportunity? Yahoo Finance - Mar 10, 2017 Value investing is easily one of the most popular ways to find great stocks in any market environment. After all, who wouldn't want to find stocks that are either flying under the radar and are compelling buys, or offer up tantalizing discounts when ..."
p7
aS'Is the Options Market Predicting a Spike in Ascena Retail Group  Stock? Nasdaq - Feb 28, 2017 Clearly, options traders are pricing in a big move for Ascena Retail Group shares, but what is the fundamental picture for the company? Currently, Ascena Retail Group is a Zacks Rank #4  in the Retail - Apparel and Shoes industry that ranks in ...Is the Options Market Predicting a Spike in Ascena Retail Group  Stock ... - Zacks.com'
p8
aS'Ascena Retail Group Inc.  Plunges 6.8% on March 09 Equities.com - Mar 9, 2017 Ascena Retail Group Inc.  had a rough trading day for Thursday March 09 as shares tumbled 6.8%, or a loss of $-0.31 per share, to close at $4.25.FY2017 EPS Estimates for Ascena Retail Group Inc  Raised by Analyst - Chaffey BreezeAnalysts Near-Term outlook: Ascena Retail Group, Inc. , Abraxas ... - The USA Commerce'
p9
aS"Ascena Retail Group Inc.  Soars 5.17% on February 27 Equities.com - Feb 27, 2017 Ascena Retail Group Inc.  had a good day on the market for Monday February 27 as shares jumped 5.17% to close at $5.09.Make a note of Analyst's Recommendations: Intuit Inc. , Ascena ... - TRAEPS Growth Analysis for Ascena Retail Group Inc.  - The Oracle Examiner"
p10
a.