(lp0
S"Avatar Holdings Inc. Becomes AV Homes, Inc. GlobeNewsWire  - Feb 15, 2012 KISSIMMEE, Fla., Feb. 15, 2012  -- With nearly 80 years of history behind it, builder and developer Avatar Holdings Inc. is changing its name.'Avatar' the movie overpowers Polk County-based home builder's name - Orlando Sentinel"
p1
aS'AV Homes Beats, But Shares Down Seeking Alpha - Feb 26, 2017 2016 was a great year for the company. The guidance was not loved by the market. What does the technical analysis show? The company is in its greatest shape - we recommend a long position from these attractive levels.The Zacks: Brokerages Set $18.00 Price Target for AV Homes Inc.  - DailyQuint'
p2
aS'AV Homes buying North Carolina builder Seeking Alpha - Mar 3, 2017 The $50M cash deal is for Raleigh-based Savvy Homes, which has more than 20 active communities and delivered over 250 homes last year. The purchase will make AV Homes  one of the largest builders in Greater Raleigh, with about 230&nbsp;...'
p3
aS'TPG Capital to Invest $135 Million Developer AV Homes Bloomberg - Jun 19, 2013 TPG Capital, the private-equity firm founded by David Bonderman and James Coulter, agreed to invest $135 million in AV Homes Inc. and take a more than 40 percent stake in the developer. TPG will make the investment at $14.65 a share, Scottsdale,&nbsp;...AV Homes, Inc. Announces $135 Million Equity Investment by TPG - GlobeNewswire '
p4
aS'AV Homes, Inc. Wins Nine National Association of Home Builders Best of 55+ ... Yahoo Finance - Feb 14, 2017 AV Homes, Inc., a developer and builder of active adult and conventional home communities in Florida, Arizona and the Carolinas, recently received a total of nine National Association of Home Builders  2017 Best of 55+ Housing Awards.'
p5
aS'16.10 MarketWatch - Nov 4, 2004 AV Homes Inc. UTC: AVHI. GO. Set Alerts &middot; Find a Broker &middot; Join TD Ameritrade &middot; Market Index &middot; Overview Profile News Charts Financials Historical Quotes Analyst Estimates Options SEC Filings Insiders.'
p6
aS"Celeritas' Small Cap Picks: Opportunity With AV Homes Seeking Alpha - Jan 9, 2017 Last time, as part of its periodic focus on small caps , Celeritas Investments chose US Murphy  as one of its small cap picks."
p7
aS'AV Homes to Acquire Bonterra Builders in Charlotte, North Carolina GlobeNewswire  - Jun 10, 2015 SCOTTSDALE, Ariz., June 10, 2015  -- AV Homes, Inc.  , a developer and builder of active adult and conventional home communities in Florida, Arizona and the Carolinas, today announced&nbsp;...'
p8
aS'AV Homes, Inc.  Files An 8-K Results of Operations and Financial ... Market Exclusive - Feb 23, 2017 AV Homes, Inc. is a homebuilder engaged in the business of homebuilding and community development in Florida, Arizona and the Carolinas.AV Homes posts 4Q profit - Yahoo Finance'
p9
aS'AV Homes, Inc. Appoints Roger A. Cregg President and CEO GlobeNewswire  - Nov 20, 2012 SCOTTSDALE, Ariz., Nov. 20, 2012  -- AV Homes, Inc.  a developer and builder of active adult and conventional home communities in Arizona and Florida, today announced the appointment of former PulteGroup executive&nbsp;...'
p10
a.