(lp0
S'BRIEF-Allied World Assurance Company Holdings Q4 operating EPS $0.48 Reuters - Feb 1, 2017 BRIEF-Allied World Assurance Company Holdings Q4 operating EPS $0.48. Feb 1 Allied World Assurance Company Holdings Ltd. * Allied World reports fourth quarter and full year 2016 results.'
p1
aS'Common Share Dividend Yield of Allied World Assurance Company Holdings, AG  Energy Index - 20 hours ago The dividend growth rate of Allied World Assurance Company Holdings, AG calculated based on 20 historical quarterly dividends is 21.39% while the R-Squared dividend growth rate regression is 0.89.Allied World Assurance Company Holdings Ltd  Stake Decreased by Credit ... - Sports Perspectives'
p2
aS'AWAC  Allied World Assurance Company Holdings Ltd.: Fairfax Financial and ... The Wall Street Transcript - Mar 3, 2017 Fairfax Financial Holdings Limited   and Allied World Assurance Company Holdings, AG   today announced that they have agreed to extend to March 10, 2017 the deadline by which Fairfax has the&nbsp;...The Renaissance Technologies LLC Cuts Stake in Allied World Assurance Company ... - DailyQuintAllied World Assurance Company Holdings, AG  Analyst Coverage - NewsDen'
p3
aS"Moody's rates Allied World Assurance senior notes at Baa1; outlook stable Moodys.com   - Oct 27, 2015 New York, October 26, 2015 -- Moody's Investors Service has assigned a Baa1 rating to the 10-year 4.35% senior notes issued by Allied World Assurance Company Holdings, Ltd  and guaranteed by the ultimate parent Allied World&nbsp;..."
p4
aS'Fairfax Financial raises cash component of offer for Allied World Reuters UK - Mar 10, 2017 March 10 Toronto-based insurance group Fairfax Financial Holdings Ltd said it would increase the cash component of its offer to buy Allied World Assurance Company Holdings AG by $18 per share. The increase in the cash component of the offer would&nbsp;...Allied World Assurance  Announces FairFaix to Increase Cash Consideration ... - StreetInsider.comAIMCo Announces Commitment to Invest in Allied World Transaction with Fairfax ... - PR Newswire UK '
p5
aS'Why Allied World Assurance Co. Holdings, AG. Stock Is Up 12% Today Motley Fool - Dec 19, 2016 The market is pricing Allied World Assurance shares as if the deal will go through without a hiccup. Shares of the insurer are trading at a single-digit discount to their implied value if the transaction were closed today, suggesting that investors see ...AM Best Places Credit Ratings of Allied World Assurance Company, AG and Its ... - Yahoo Finance'
p6
aS'Why Allied World Assurance Co. Holdings, AG Stock Is Soaring Today Motley Fool - Jul 20, 2016 What: Shares of Allied World Assurance Co Holdings  are soaring by more than 13% at 11:30 a.m. EDT as the company beat analyst expectations in the second quarter.Allied World profit surges as investments rebound - Business Insurance'
p7
aS'AM Best Affirms Ratings of Allied World Assurance Company Holdings, AG and Its ... Business Wire  - Feb 11, 2016 OLDWICK, N.J.----A.M. Best has affirmed the financial strength rating  of A  and the issuer credit ratings  of a+ of Allied World Assurance Company, Ltd  and its operating affiliates. The outlook for ...'
p8
aS"Vera Bradley, Inc. 's major shareholder Michael Ray Unloaded 30000 Shares ... HuronReport - 11 hours ago Allied Wrld Assur Com Hldg A now has $4.65B valuation. The stock increased 0.28% or $0.15 during the last trading session, reaching $53.37."
p9
aS'Allied World Assurance Company Holdings, AG  Ex-Dividend Date Scheduled ... Nasdaq - Dec 15, 2016 Allied World Assurance Company Holdings, AG  will begin trading ex-dividend on December 16, 2016. A cash dividend payment of $0.26 per share is scheduled to be paid on December 29, ... AWH is a part of the Finance sector, which includes ...'
p10
a.