(lp0
S'Watching Shares of Abraxas Petroleum Corporation  SKV News - Dec 15, 2016 Looking at shares of Abraxas Petroleum Corporation , the company presently has a Gross Margin  ratio of 0.144148.'
p1
aS"Abraxas Petroleum Corp.'s Surprise Profit Sends Stock Soaring Motley Fool - 17 hours ago Despite a challenging operating environment, Abraxas shocked the analyst community by reporting profit during the fourth quarter, ending a string of seven consecutive losing quarters.Earnings Reaction History: Abraxas Petroleum Corp., 33.3% Follow-Through ... - NasdaqAbraxas Petroleum Corporation  Soars 13.38% on March 15 - Equities.com"
p2
aS"Revenue Approximations Analysis: Abraxas Petroleum Corp. , RH  StockNewsJournal - Mar 14, 2017 Investors who are keeping close eye on the stock of Abraxas Petroleum Corporation  established that the company was able to keep return on investment at -76.36 in the trailing twelve month while Reuters data showed that industry's&nbsp;..."
p3
aS'Looking at the Gauges on Abraxas Petroleum Corp  Rives Journal - 15 hours ago Technical Traders may be interested in looking at the indicator levels on shares of Abraxas Petroleum Corp . The 14-day ADX for Abraxas Petroleum Corp  is currently 37.29. In general, an ADX value from 0-25 would signal an absent or weak&nbsp;...'
p4
aS'Abraxas Petroleum sells 25 million shares to fund new drilling San Antonio Business Journal - Jan 25, 2017 Bullish on the new year and recovering oil prices, Abraxas Petroleum Corp.  issued and sold 25 million new shares of stock to boost its drilling program in the Permian Basin, Bakken Shale and Eagle Ford.Why Abraxas Petroleum Corporation  Could Shock the Market Soon - Yahoo FinanceAbraxas Petroleum Corporation Announces Closing of Public Offering - Business Wire '
p5
aS'Abraxas Petroleum slows the bleeding; plans to sell Powder Basin assets amid ... San Antonio Business Journal - Nov 9, 2016 San Antonio-based exploration and production company Abraxas Petroleum Corp. is slowing the bleeding from a crude oil downtown that is now in its second year but nevertheless posted a multimillion-dollar loss in the third quarter.Abraxas Petroleum narrows its loss in the third quarter - mySanAntonio.comAbraxas Provides Operational, Financial and Divestiture Update; Addresses 2016 ... - Business Wire '
p6
aS'Abraxas Petroleum Corporation  Moves Higher on Volume Spike for January 31 Equities.com - Jan 31, 2017 Abraxas Petroleum Corporation  traded on unusually high volume on Jan. 31, as the stock gained 3.35% to close at $2.47.Trend Analysis Report: Abraxas Petroleum Corp.  - TopChronicle'
p7
aS'Abraxas Petroleum Corporation  Plunges 5.62% on March 10 Equities.com - Mar 10, 2017 Abraxas Petroleum Corporation  had a rough trading day for Friday March 10 as shares tumbled 5.62%, or a loss of $-0.1 per share, to close at $1.68.Consensus Earnings Estimate for Abraxas Petroleum Corporation - Energy IndexInsider Activity of Abraxas Petroleum Corp.  - FactsReporter'
p8
aS'Abraxas Petroleum Management Hit The Ball Seeking Alpha - Jan 6, 2017 The Permian well results, at nearly 1,000 BOE/D for the first thirty days, is a good result for the acreage and economically viable.'
p9
aS'Abraxas Petroleum Corporation  Moves Lower on Volume Spike for March 08 Equities.com - Mar 8, 2017 Abraxas Petroleum Corporation  traded on unusually high volume on Mar. 08, as the stock lost 12.75% to close at $1.78.Stock Returns: Abraxas Petroleum Corporation  versus W&amp;T Offshore ... - CML NewsInvestor Targeted Stocks: Abraxas Petroleum Corp. , USG ... - TRA'
p10
a.