(lp0
S"AXIS Capital's  Prospects Look Bright: Time to Buy? Nasdaq - 15 hours ago Shares of AXIS Capital Holdings Limited AXS gained 25.83% in the last one year, outperforming the Zacks categorized Property and Casualty insurance industry's growth of 23.37%.Analyst Activity  Deutsche Bank AG Reiterates Hold on Axis Capital Holdings ... - Market ExclusiveCommon Share Dividend Yield of Axis Capital Holdings Limited  - Energy Index"
p1
aS"Moody's rates AXIS Capital Holdings' preferred shares Baa3; stable outlook Moodys.com   - Nov 2, 2016 New York, November 01, 2016 -- Moody's Investors Service,  has assigned a Baa3 rating to new Series E preferred shares of AXIS Capital Holdings Limited Baa1). The offering will consist of&nbsp;..."
p2
aS'Axis Capital Holdings Limited  Ex-Dividend Date Scheduled for December 28 ... Nasdaq - Dec 27, 2016 Axis Capital Holdings Limited  will begin trading ex-dividend on December 28, 2016. A cash dividend payment of $0.38 per share is scheduled to be paid on January 17, 2017.Axis Capital Holdings Ltd.  Shares Sold by BlackRock Advisors LLC - Sports Perspectives'
p3
aS'Guess Who Just Picked Up Axis Capital Holdings Ltd.  Shares Small Cap Exclusive  - Feb 14, 2017 For those not familiar with the company, AXIS Capital Holdings Limited is a holding company for the AXIS group of companies.Axis Capital Holdings Limited  Shares Sold by Scout Investments Inc. - The Cerbat Gem'
p4
aS"Axis Capital operating earnings fall MarketWatch - Feb 1, 2017 Axis Capital Holdings Ltd.'s operating earnings declined 16% in the latest quarter as catastrophe losses spiked. The Bermuda-based insurer posted pretax catastrophe and weather-related losses of $48 million, mostly owing to Hurricane Matthew and U.S.AXIS Capital Holdings Limited  4Q16 earnings; Beats Street View - Stock Market DailyAxis Capital Holdings Limited  Releases Earnings Results, Beats ... - Highland Mirror"
p5
aS"Fitch Rates AXIS Capital Holdings Ltd.'s Depositary Shares Issuance 'BBB' Reuters - Nov 1, 2016  CHICAGO, November 01  Fitch Ratings has assigned a 'BBB' rating to AXIS Capital Holdings Limited's  issuance of 22 million depository shares ($550 million aggregate&nbsp;...AXIS Offering 5.50% Series E Preferred Shares - Bernews"
p6
aS"Axis Capital Holdings'  CEO Albert Benchimol on Q4 2016 Results ... Seeking Alpha - Feb 2, 2017 Welcome to the AXIS Capital Fourth Quarter and Full-Year 2016 Earnings Conference Call. [Operator Instructions]. Please note, this event is being recorded.AXIS Capital 2016 Q4 Net Income: $131 Million - Bernews"
p7
aS"A Pair Trade Opportunity In AXIS Capital Holdings Preferred Stocks Seeking Alpha - Jan 24, 2017 In this article I want to talk about one such opportunity in two of AXIS Capital Holdings'  preferred stocks."
p8
aS"Julian Brown Joins AXIS Insurance to Lead London Market Professional Lines MGA ... Yahoo Finance - Feb 21, 2017 AXIS Capital Holdings Limited   today announced that Julian Brown has joined AXIS Insurance as Vice President and Underwriter, responsible for leading growth initiatives and product development for the Company's London market&nbsp;..."
p9
aS"AXIS Capital Launches Miami Office to Expand Presence in Latin America and the ... Business Wire  - Jan 26, 2017 PEMBROKE, Bermuda &amp; MIAMI----AXIS Capital Holdings Limited   today announced the formation of AXIS Specialty Underwriters Inc., based in Miami , to operate as the Company's Latin American&nbsp;..."
p10
a.