(lp0
S'Booz Allen Hamilton Holding  Q3 2017 Results - Earnings Call Transcript Seeking Alpha - Jan 30, 2017 Horacio D. Rozanski - Booz Allen Hamilton Holding Corp. Thank you, Curt. Good morning, everyone. Happy Monday. Thank you for joining us.Booz Allen Revenue Rises; Dividend Raised - Wall Street JournalKeep an Eye on These 7 Stocks for January 30, 2017 - Benzinga'
p1
aS'Option Trading: Booz Allen Hamilton Holding Corporation  Powerful ... CML News - 20 hours ago We find a very powerful outcome examining short put spreads for Booz Allen Hamilton Holding Corporation when we use a clever earnings risk management approach.The Booz Allen Hamilton Holding Co.  Stake Lowered by Janus Capital ... - Petro Global News 24Booz Allen Hamilton Holding Corporation  Common Share Dividend Payout Ratio - Energy Index'
p2
aS"Booz Allen Hamilton Holding  Q2 2017 Results - Earnings Call Transcript Seeking Alpha - Nov 2, 2016 Horacio D. Rozanski - Booz Allen Hamilton Holding Corp. Thank you, Curt. Good morning, everyone. Thanks for joining us. Today, we're very pleased to report that in the quarter ended September 30, the people of Booz Allen turned in another solid&nbsp;...Booz Allen profit up 12% as revenue jumps - MarketWatch"
p3
aS'Booz Allen Hamilton Holding Corporation  Security Scandal Sparks Options ... Schaeffers Research  - Oct 5, 2016 Booz Allen Hamilton Holding Corporation  is under fire this afternoon, after the New York Times reported that another BAH employee was caught stealing classified information .'
p4
aS"At Booz Allen, a Vast US Spy Operation, Run for Private Profit New York Times - Oct 7, 2016 Booz Allen Hamilton, with its headquarters located in McLean, Va., has made billions from its contracting business with the American intelligence community.Booz Allen Hamilton Holding Corporation  Stock Falls on NSA Contractor's ... - Investorplace.comAnalysts Speculate on Booz Allen Hamilton Holding Corporation  - Post Registrar"
p5
aS'RSI Alert: Booz Allen Hamilton Holding Corp. Now Oversold Nasdaq - Jan 30, 2017 But making Booz Allen Hamilton Holding Corp. an even more interesting and timely stock to look at, is the fact that in trading on Monday, shares of BAH entered into oversold territory, changing hands as low as $32.75 per share.'
p6
aS"Booz Allen Hamilton Holding Corporation a Defense Contractor On the Move  Investorplace.com - Jan 26, 2017 In yesterday's edition of StreetAuthority Daily, I made the case that investors should look to increased military spending by the new Trump administration and Republican-controlled congress as a strong catalyst for investing in the sector.Earnings Whispers: Booz Allen Hamilton Holding Corporation  &amp; Affiliated ... - TCCBooz Allen Completes Aquilent Purchase to Expand Digital Footprint - GovConWire"
p7
aS'Booz Allen Hamilton acquires Aquilent Seeking Alpha - Nov 29, 2016 Booz Allen Hamilton  announces that it acquired digital services firm eGov Holdings, Inc. for $250M. Also known as Aquilent, eGov is the digital and cloud architect of .Blog Coverage Booz Allen Hamilton Expands Government Business with Acquisition ... - Yahoo FinanceBooz Allen Hamilton Agrees to Acquire Digital Service Business Aquilent - Business Wire '
p8
aS"Booz Allen Faces More Fallout After NSA Contractor's Arrest Wall Street Journal - Oct 5, 2016 With new charges that one of its contractors mishandled government secrets, Booz Allen Hamilton Holding Corp. is facing its second major personnel scandal in three years.Booz Allen Hamilton Shares Plunge On Reports Of NSA Contractor Arrest For ... - BenzingaBooz Allen stock stops its fall after news of worker arrest - U.S. News & World Report"
p9
aS"Booz Allen Hamilton's Backlog Booming Seeking Alpha - Aug 10, 2016 Booz Allen is a provider of management and technology consulting services, and its largest client is the US Army. The company's backlog trends appear to be turning in the right direction, which should translate into solid top-line growth in coming periods."
p10
a.