(lp0
S"Bed Bath &amp; Beyond Inc.  Ex-Dividend Date Scheduled for March 15, 2017 Nasdaq - Mar 14, 2017 Bed Bath &amp; Beyond Inc.  will begin trading ex-dividend on March 15, 2017. A cash dividend payment of $0.125 per share is scheduled to be paid on April 18, 2017.Analyst's Predictions on Intrexon Corporation , Bed Bath &amp; Beyond Inc.  - StockNewsJournalAnalyst's Indicator Review for Bed Bath &amp; Beyond Inc. , GrubHub Inc.  - The USA Commerce"
p1
aS'Ex-Dividend Reminder: Big Lots, Bed, Bath &amp; Beyond and South Jersey Industries Nasdaq - Mar 13, 2017 Looking at the universe of stocks we cover at Dividend Channel , on 3/15/17, Big Lots, Inc. , Bed, Bath &amp; Beyond, Inc. , and South Jersey Industries, Inc.  will all trade ex-dividend for their respective upcoming&nbsp;...'
p2
aS"Option Market: Bed Bath &amp; Beyond Inc Risk Hits A Weakened Level CML News - Mar 6, 2017 We're going to look at a proprietary risk rating for the next 30-days built by Capital Market Laboratories  based on a large number of interactions of data points, many of which come directly from the option market for Bed Bath &amp; Beyond Inc&nbsp;..."
p3
aS"Bed Bath &amp; Beyond Stock Looks Bound For a Breakout Schaeffers Research  - Mar 1, 2017 Retailer Bed Bath &amp; Beyond Inc.  has recently carved out a foothold atop the round-number $40 area. This level is significant on multiple levels, representing the year-to-date breakeven mark, two times the stock's 2008 lows, and half its&nbsp;...How Analysts See Bed Bath &amp; Beyond Inc  Perform In The Year Ahead? - Simply Wall StBed Bath &amp; Beyond Inc.  Moves Lower on Volume Spike for February 28 - Equities.com"
p4
aS"Bed Bath &amp; Beyond Inc. : What's the Story? StockNewsJournal - Mar 9, 2017 Bed Bath &amp; Beyond Inc.  is an interesting player in the Services space, with a focus on Home Furnishing Stores. The stock has been active on the tape, currently trading at $39.64, up from yesterday's close by 1.61%.Stock Returns: Aaron's Inc  is Beating Bed Bath &amp; Beyond Inc (NASDAQ ... - CML News"
p5
aS"Bed Bath &amp; Beyond Inc.  : How Do the Technicals Stack Up? The USA Commerce - Mar 14, 2017 We have gathered the technical data on Bed Bath &amp; Beyond Inc. , and see some interesting trends in the stock's behavior of late."
p6
aS"How Does the Chart Look for Bed Bath &amp; Beyond Inc.  ? The USA Commerce - Mar 8, 2017 We have gathered the technical data on Bed Bath &amp; Beyond Inc. , and see some interesting trends in the stock's behavior of late."
p7
aS"Bed Bath &amp; Beyond Does Not Have The Right Board Of Directors Seeking Alpha - Feb 16, 2017 Well, ok, it is fine. Old retailers do need to compete with Amazon, but definitely they are not going to disappear. I believe that they will only have to transform their business.Today's Brokerage Rating: VeriSign, Inc. , Bed Bath &amp; Beyond Inc.  - StockNewsJournalBed Bath &amp; Beyond Inc.  Receives Consensus Recommendation of Hold from ... - The Cerbat Gem"
p8
aS"Today's Brokerage Rating: Bed Bath &amp; Beyond Inc. , Skechers USA, Inc.  StockNewsJournal - Mar 10, 2017 Investors who are keeping close eye on the stock of Bed Bath &amp; Beyond Inc.  established that the company was able to keep return on investment at 15.36 in the trailing twelve month while Reuters data showed that industry's average stands&nbsp;..."
p9
aS"Analysts Near-Term outlook: Huntsman Corporation , Bed Bath &amp; Beyond Inc ... The USA Commerce - Mar 9, 2017 Shares of Huntsman Corporation  dropped -1.03% to $22.14. During the trading on 03/08/2017, Company's stock ranged from $22.10 to $22.71."
p10
a.