(lp0
S"Is Big Lots, Inc.  a Great Stock for Value Investors? Nasdaq - Mar 14, 2017 If we focus on the long-term trend of the stock, the current level puts Big Lots, Inc.'s current PE lower than its median  over the past five years."
p1
aS"Big Lots' Big Surprise Seeking Alpha - Mar 3, 2017 Big Lots, Inc.  is one of the best discount retailers out there hands down. It has managed to compete with both the big box stores and the dollar stores.Big Lots designing store of the future with furniture sales in mind - Columbus Business First"
p2
aS'Big Lots, Inc.  Ex-Dividend Date Scheduled for March 15, 2017 Nasdaq - Mar 14, 2017 Big Lots, Inc.  will begin trading ex-dividend on March 15, 2017. A cash dividend payment of $0.25 per share is scheduled to be paid on March 31, 2017.'
p3
aS'Ex-Dividend Reminder: Big Lots, Bed, Bath &amp; Beyond and South Jersey Industries Nasdaq - Mar 13, 2017 Looking at the universe of stocks we cover at Dividend Channel , on 3/15/17, Big Lots, Inc. , Bed, Bath &amp; Beyond, Inc. , and South Jersey Industries, Inc.  will all trade ex-dividend for their respective upcoming&nbsp;...'
p4
aS"Big Lots, Inc.  Insider Timothy A. Johnson Sells 4406 Shares Chaffey Breeze - 12 hours ago Big Lots logo Big Lots, Inc.  insider Timothy A. Johnson sold 4,406 shares of the company's stock in a transaction on Monday, March 13th.Insider Trading Activity Big Lots, Inc.   Insider Sold 4406 shares ... - Market ExclusiveBig Lots, Inc.  Common Share Dividend Payout Ratio - Energy Index"
p5
aS"BIG LOTS, INC.  Files An 8-K Departure of Directors or Certain ... Market Exclusive - Mar 10, 2017  Effective on March 10, 2017, Andrew D. Stein's employment with Big Lots, Inc. and its subsidiaries terminated."
p6
aS'Big Lots  Strategic Efforts Bode well: Should You Hold? Yahoo Finance - Mar 7, 2017 Big Lots, Inc. BIG has been riding high on strategic endeavors, recent uptrend in the gross margin and positive earnings surprise streak in the trailing five quarters.Stocks to Track: Big Lots, Inc.  , KT Corporation  - NYSE Journal '
p7
aS"Revenue Approximations Analysis: Big Lots, Inc. , Paramount Group, Inc ... StockNewsJournal - Mar 14, 2017 Investors who are keeping close eye on the stock of Big Lots, Inc.  established that the company was able to keep return on investment at 16.16 in the trailing twelve month while Reuters data showed that industry's average stands at 12.94 and&nbsp;..."
p8
aS"Big Lots  to Post Q4 Earnings: What's in the Cards? Yahoo Finance - Feb 28, 2017 Big Lots Inc. BIG is scheduled to report fourth-quarter fiscal 2016 results on Mar 3, before the opening bell. In the preceding quarter, the company's earnings surpassed the Zacks Consensus Estimate by a whopping 300%."
p9
aS"Average Brokerage Rating Of Big Lots, Inc. , Lattice Semiconductor ... The USA Commerce - 22 hours ago Shares of Big Lots, Inc.  dropped -1.62% to $48.69. During the trading on 03/14/2017, Company's stock ranged from $48.40 to $49.75."
p10
a.