(lp0
S'Bancorp of New Jersey, Inc. Announces Earnings for Full Year and Fourth Quarter GlobeNewswire  - Feb 10, 2017 FORT LEE, N.J., Feb. 10, 2017  -- Bancorp of New Jersey, Inc.  , holding company for Bank of New Jersey, reported net income for the year ended December 31, 2016 of $4.0 million compared to net&nbsp;...'
p1
aS'Bancorp of New Jersey, Inc. Announces Nancy E. Graves as New President and ... GlobeNewswire  - Apr 5, 2016 FORT LEE, N.J., April 05, 2016  -- Bancorp of New Jersey, Inc. , the holding company of Bank of New Jersey, today announced the appointment of Nancy E. Graves as the new President and Chief Executive Officer of the&nbsp;...'
p2
aS'Stock Returns: Bancorp Of New Jersey Inc  is Beating Mackinac ... CML News - Feb 24, 2017 This is a snapshot to compare the stock returns for Bancorp Of New Jersey Inc  versus Mackinac Financial Corporation  .'
p3
aS'Stock Returns: Bank of Commerce Holdings  is Beating Bancorp Of ... CML News - 18 hours ago This is a snapshot to compare the stock returns for Bancorp Of New Jersey Inc  versus Bank of Commerce Holdings  .'
p4
aS'Stock Returns: Bancorp Of New Jersey Inc  versus Eagle Bancorp ... CML News - Mar 13, 2017 This is a snapshot to compare the stock returns for Bancorp Of New Jersey Inc  versus Eagle Bancorp Montana Inc  .'
p5
aS'Stock Returns: Bancorp Of New Jersey Inc  versus Civista Bancshares ... CML News - Mar 8, 2017 This is a snapshot to compare the stock returns for Bancorp Of New Jersey Inc  versus Civista Bancshares Inc  .'
p6
aS'Stock Returns: Bancorp Of New Jersey Inc  versus The First ... CML News - Mar 10, 2017 This is a snapshot to compare the stock returns for Bancorp Of New Jersey Inc  versus The First Bancshares Inc  .'
p7
aS'A New Kind of Stock Chart: Bancorp Of New Jersey Inc  Critical Pivot ... CML News - Feb 27, 2017 This is a real time view of the critical technical pivot points for Bancorp Of New Jersey Inc  . The technical pivot points we look at all surround the stock price movement from the last 10-trading days through the last year.'
p8
aS"Stock Inside Investors Radar: Bancorp Of New Jersey, Inc.'s  stock price ... WsNews 4investors - Feb 23, 2017 Bancorp Of New Jersey, Inc.'s  stock price tumbled -0.68% to finalize at $14.65 throughout previous buying and selling session."
p9
aS'BUYINS.NET: BKJ SqueezeTrigger Price is $11.78. There is $75250 That Short ... MENAFN.COM - Mar 13, 2017 March 13, 2017 / M2 PRESSWIRE / BUYINS.NET / www.buyins.net is monitoring Bancorp of New Jersey, Inc.  in real time and just received an alert that BKJ is crossing above its primary SqueezeTrigger Price, the price that a short squeeze can&nbsp;...'
p10
a.