(lp0
S"Blackbaud, Inc. Earnings Fly Higher Into the Cloud Motley Fool - Feb 9, 2017 Blackbaud's  transition to a cloud-based software provider continues to pay dividends. Not only has it enabled the company to generate higher-margin subscription-based revenue but these solutions are driving sales growth.Blackbaud Inc.  Soars 13.44% on February 09 - Equities.comBlackbaud, Inc.'s Stock Soars on Strong Earnings and a Bright Outlook - Nasdaq"
p1
aS'Blackbaud Inc.  Breaks into New 52-Week High on March 14 Session Equities.com - Mar 14, 2017 Shares of Blackbaud Inc.  broke into a new 52-week high yesterday, hitting a peak of $75.82. Shares closed at $75.23 after opening at $74.81 for a move of 0%.'
p2
aS"Blackbaud, Inc. Earnings Rise on Strong Organic Growth Motley Fool - Nov 2, 2016 Blackbaud's  software offerings powering social good continue to sell at a brisk pace as new customers sign up for its cloud-based services.Blackbaud Announces 2016 Third Quarter Results - PR Newswire "
p3
aS"Blackbaud's Luminate Online Catapults Nonprofits' Digital Marketing and ... PR Newswire  - Jan 19, 2017 CHARLESTON, S.C., Jan. 19, 2017 /PRNewswire/ -- Blackbaud, Inc. , the world's leading cloud software company powering social good, today announced that customers using Luminate Online, its digital marketing solution, are reporting&nbsp;..."
p4
aS"Blackbaud Announces General Availability of SKY API PR Newswire  - Dec 8, 2016 CHARLESTON, S.C., Dec. 8, 2016 /PRNewswire/ -- Blackbaud, Inc. , the world's leading cloud software company powering social good, today announced that SKY API for Raiser's Edge NXT and Financial Edge NXT is now generally&nbsp;..."
p5
aS'Blackbaud, Inc.  Ex-Dividend Date Scheduled for February 24, 2017 Nasdaq - Feb 23, 2017 Blackbaud, Inc.  will begin trading ex-dividend on February 24, 2017. A cash dividend payment of $0.12 per share is scheduled to be paid on March 15, 2017.Blackbaud, Inc.  to Issue Quarterly Dividend of $0.12 on March 15th - Chaffey BreezeBlackbaud, Inc.  Receives Consensus Rating of Hold from Brokerages - BBNS'
p6
aS"Blackbaud's Total Solutions Help Organizations Boost Donations, Improve ... PR Newswire  - Jan 5, 2017 CHARLESTON, S.C., Jan. 5, 2017 /PRNewswire/ -- Blackbaud, Inc.  today announced the results of a commissioned Total Economic Impact  study conducted by Forrester Consulting on behalf of Blackbaud, examining the potential&nbsp;..."
p7
aS'Blackbaud, Inc. Earnings Continue to Soar Into the Cloud Motley Fool - Aug 2, 2016 Blackbaud  delivered another solid quarter after the closing bell on Monday. Thanks to excellent organic growth and the continued contributions from acquisitions, it achieved double-digit growth on both the top and bottom lines.'
p8
aS"Blackbaud Reveals This Year's Most Fascinating Philanthropy Stats PR Newswire  - Dec 19, 2016 19, 2016 /PRNewswire/ -- Blackbaud, Inc. , the world's leading cloud software company powering social good, today announced that its comprehensive, trusted collection of 50 Fascinating Philanthropy Stats has been updated with trend data&nbsp;..."
p9
aS"Blackbaud Announces Keynote Speakers for 17th Annual Conference for the Social ... PR Newswire  - Oct 17, 2016 CHARLESTON, S.C., Oct. 17, 2016 /PRNewswire/ -- Blackbaud, Inc. , the world's leading cloud software company powering social good, today announced the lineup for the largest annual conference exclusively for the social good&nbsp;..."
p10
a.