(lp0
S'Bassett Furniture Industries Inc. BSET  Wall Street Journal - Feb 11, 2011 Bassett Furniture Industries Inc. BSET . search. View All companies. AT CLOSE 4:00 PM EST 01/20/17. $28.20 USD; 0.20 0.71%. Volume 21,146. AFTER HOURS 4:00 PM EST 01/20/17. $28.20 0.00 0.00%. AFTER HOURS Vol 32. Volume&nbsp;...'
p1
aS"Bassett Furniture Industries Incorporated  Moves Lower on Volume Spike ... Equities.com - Feb 28, 2017 Bassett Furniture Industries Incorporated has a P/B ratio of 1.62. It also has a P/E ratio of 18.4. Bassett Furniture Industries Inc is a manufacturer, importer and retailer of mid-priced home furnishings. The Company's business segments are Wholesale ...Bassett Furniture Opens New Store In Garden City, NY - Furniture World Magazine The Bassett Furniture Industries, Incorporated  SVP David C. Baker Sells ... - DailyQuint"
p2
aS'Renaissance Technologies LLC Has $15306000 Stake in Bassett Furniture ... Chaffey Breeze - Mar 14, 2017 Bassett Furniture Industries logo Renaissance Technologies LLC boosted its stake in Bassett Furniture Industries Inc.  by 0.7% during the fourth quarter, according to its most recent filing with the Securities and Exchange Commission .The Bassett Furniture Industries Inc.  Stake Boosted by Raymond James ... - Petro Global News 24'
p3
aS'The Decline of an American Furniture Maker New Yorker - Jul 11, 2014 In the mid-twentieth century, Bassett Furniture Industries, in Bassett, Virginia, was one of the largest wood-furniture makers in the world.'
p4
aS'Bassett Furniture Industries Inc.  to Issue $0.10 Quarterly Dividend Chaffey Breeze - Mar 10, 2017 Bassett Furniture Industries logo Bassett Furniture Industries Inc.  declared a quarterly dividend on Thursday, March 9th.'
p5
aS'Bassett Announces Board Appointment &amp; Increases Quarterly Dividend GlobeNewswire  - Jul 14, 2016 BASSETT, Va., July 14, 2016  -- Bassett Furniture Industries, Inc.  announced that on July 13, 2016, John R. Belk, former President and Chief Operating Officer of Belk, Inc., was elected a member of its Board of Directors.'
p6
aS'Stock Returns: Flexsteel Industries Inc  is Beating Bassett ... CML News - Feb 8, 2017 This is a snapshot to compare the stock returns for Bassett Furniture Industries, Incorporated  versus Flexsteel Industries Inc  . The stock return points we compare look at the last three-months, six-months and twelve-months.'
p7
aS'Compensation up 24.9 percent for Bassett Furniture CEO Winston-Salem Journal - Feb 12, 2014 Bassett Furniture Industries Inc. said in a regulatory filing Wednesday that it gave Robert Spilman Jr., its chief executive and president, a 6.5 percent increase in salary to $372,917 in fiscal 2013.'
p8
aS'Bassett Furniture rebounds Roanoke Times - Nov 29, 2015 But Bassett Furniture has bounced back. Its stock has traded recently in the vicinity of $30 per share. In January, the company began manufacturing furniture again in Bassett. In October, Bassett Furniture reported a profit of $4.3 million for the ...'
p9
aS"County Bancorp  Forms $28.25 Double Top, Bassett Furniture Industries ... Wolcott Daily - Mar 9, 2017 The SI to Bassett Furniture Industries Incorporated's float is 1.3%. The stock decreased 0.74% or $0.2 during the last trading session, reaching $26.75.Bassett Furniture Industries Inc.  Plans Quarterly Dividend of $0.10 - BBNS"
p10
a.