(lp0
S'Bazaarvoice Inc.  Soars 6.1% on March 14 Equities.com - Mar 14, 2017 Bazaarvoice Inc.  had a good day on the market for Tuesday March 14 as shares jumped 6.1% to close at $4.35. About 811,541 shares traded hands on 3,462 trades for the day, compared with an average daily volume of 623,016 shares out of a total float&nbsp;...Bazaarvoice Inc  Rating Increased to Buy at Zacks Investment Research - BNB Daily The Short Interest in Bazaarvoice Inc  Rises By 26.3% - Petro Global News 24'
p1
aS'BRIEF-RGM Capital LLC reports a 9.04 pct stake in Bazaarvoice Inc as of March ... Reuters - Mar 13, 2017 ... * RGM Capital - may engage in communications with one or more shareholders, officers or directors of Bazaarvoice, Incl.'
p2
aS'Bazaarvoice, Inc. to Present at the Morgan Stanley Technology, Media &amp; Telecom ... GlobeNewswire  - Feb 22, 2017 AUSTIN, Texas, Feb. 22, 2017  -- Bazaarvoice, Inc.  today announced that Gene Austin, Chief Executive Officer, and Jim Offerdahl, Chief Financial Officer, will present at the Morgan Stanley Technology, Media &amp; Telecom&nbsp;...'
p3
aS"Why Bazaarvoice Inc. Stock Plunged Today Motley Fool - Dec 1, 2016 On an adjusted  basis, Bazaarvoice's net income was $1.4 million, or $0.02 per share, compared to an adjusted net loss of $0.4 million, or flat on a per-share basis in the same year-ago period."
p4
aS'Insider Trading Activity Bazaarvoice Inc   Director Bought 1220 ... Market Exclusive - Mar 15, 2017 On 9/11/2013 Brett Hurt, Director, sold 47,463 with an average share price of $8.90 per share and the total transaction amounting to $422,420.70.'
p5
aS'Bazaarvoice, Inc. Announces its Financial Results for the Third Fiscal Quarter ... GlobeNewswire  - Feb 28, 2017 AUSTIN, Texas, Feb. 28, 2017  -- Bazaarvoice, Inc.  reported its financial results for the third fiscal quarter ended January 31, 2017.Bazaarvoice Inc.  Moves Lower on Volume Spike for February 28 - Equities.comBazaarvoice Inc  Posts Earnings Results, Beats Estimates By $0.03 EPS - Chaffey Breeze'
p6
aS'Bazaarvoice Inc  Stock Technicals at Critical Inflection Point CML News - Mar 14, 2017 This is a technical analysis stock rating for Bazaarvoice Inc  . The company has a three bull technical rating which indicates an inflection point.'
p7
aS'Bazaarvoice Inc.  Moves Lower on Volume Spike for March 03 Equities.com - Mar 3, 2017 Bazaarvoice Inc.  traded on unusually high volume on Mar. 03, as the stock lost 1.23% to close at $4.00. On the day, Bazaarvoice Inc. saw 792,015 shares trade hands on 3,055 trades. Considering that the stock averages only a daily volume of 519,146&nbsp;...Bazaarvoice, Inc.  Analyst Coverage - NewsDen'
p8
aS'Analyst PT &amp; Stock Review on Bazaarvoice, Inc.  Alaska ... Rives Journal - Mar 14, 2017 Sell-side analysts are offering a consensus Buy rating on shares of Bazaarvoice, Inc. . Using the following ratings scale: 1.0 Strong Buy, 2.0 Buy, 3.0 Hold, 4.0 Sell and 5.0 Strong Sell, analysts have an average recommendation of 1.90.'
p9
aS'Bazaarvoice Inc.  Moves Higher on Volume Spike for March 14 Equities.com - Mar 7, 2017 Bazaarvoice Inc.  traded on unusually high volume on Mar. 14, as the stock gained 6.1% to close at $4.35. On the day, Bazaarvoice Inc. saw 811,541 shares trade hands on 3,462 trades. Considering that the stock averages only a daily volume of 532 ...'
p10
a.