(lp0
S'Broadway Financial Corporation Announces Profits for 4th Quarter and Calendar ... Yahoo Finance - Feb 23, 2017 Broadway Financial Corporation  , parent company of Broadway Federal Bank, f.s.'
p1
aS'Broadway Financial Corporation Announces Repurchase of Shares from US Treasury Business Wire  - Dec 23, 2016 LOS ANGELES----Broadway Financial Corporation  , parent company of Broadway Federal Bank, f.s.'
p2
aS"What You Must Know About Broadway Financial Corporation's  ROE? Simply Wall St - Mar 4, 2017 Broadway Financial Corporation's  7.6% ROE over the past year fell short of the performance averaged by the industry, which delivered 9.83% ROE in the same period."
p3
aS'Broadway Financial Corporation Announces Termination of the Order to Cease and ... Business Wire  - Feb 9, 2016 LOS ANGELES----Broadway Financial Corporation  , parent company of Broadway Federal Bank, f.s.'
p4
aS'Share Focus: Watching Levels for Broadway Financial Corp  Rives Journal - 14 hours ago Currently, the 14-day ADX for Broadway Financial Corp  is 28.06. Generally speaking, an ADX value from 0-25 would indicate an absent or weak trend.'
p5
aS"Top Bullish Mover of Friday: Broadway Financial Corporation's  stock ... WsNews 4investors - Feb 27, 2017 Broadway Financial Corporation's  stock price escalated 7.07% to finalize at $1.59 throughout previous buying and selling session."
p6
aS'A New Kind of Stock Chart: Broadway Financial Corporation (NASDAQ:BYFC ... CML News - Mar 2, 2017 This is a real time view of the critical technical pivot points for Broadway Financial Corporation  . The technical pivot points we look at all surround the stock price movement from the last 10-trading days through the last year.'
p7
aS'Broadway Financial Corporation  Stock Technicals Hit Strength CML News - Feb 28, 2017 This is a technical analysis stock rating for Broadway Financial Corporation  . The company has a four bull technical rating which indicates some strength.'
p8
aS"Noteworthy Volatile Stock of Monday: Broadway Financial Corporation's (BYFC ... WsNews 4investors - Feb 7, 2017 Broadway Financial Corporation's  stock price escalated 1.41% to finalize at $1.57 throughout previous buying and selling session."
p9
aS'Broadway Financial Corporation  Quarterly Basic Net EPS At 2016-09-30 Equities Focus - Jan 16, 2017 For the year ended 2016-09-30 Broadway Financial Corporation  basic consolidated EPS came $0.312. Conversely, for the quarter ended 2016-09-30, it was $0.312.'
p10
a.