(lp0
S'Cardtronics plc  Plunges 8.06% on February 06 Equities.com - Feb 6, 2017 Cardtronics plc  had a rough trading day for Monday February 06 as shares tumbled 8.06%, or a loss of $-4.49 per share, to close at $51.19.Steven A. Rathgaber Sells 6000 Shares of Cardtronics PLC  Stock - Sports Perspectives'
p1
aS'Cardtronics plc  Moves Higher on Volume Spike for February 14 Equities.com - Feb 14, 2017 Cardtronics plc  traded on unusually high volume on Feb. 14, as the stock gained 0.72% to close at $44.60. On the day, Cardtronics plc saw 774,531 shares trade hands on 6,492 trades. Considering that the stock averages only a daily volume of&nbsp;...Top Morning News: Cardtronics plc , Infosys Limited (NYSE:INFY ... - KC Register'
p2
aS'Cardtronics plc  Moves Lower on Volume Spike for February 10 Equities.com - Feb 10, 2017 Cardtronics plc  traded on unusually high volume on Feb. 10, as the stock lost 10.61% to close at $45.49. On the day, Cardtronics plc saw 2.81 million shares trade hands on 22,800 trades. Considering that the stock averages only a daily volume of&nbsp;...Cardtronics Plc  Q4 2016 Results - Earnings Call Transcript - Seeking AlphaCardtronics PLC  Updates FY17 Earnings Guidance - Sports Perspectives'
p3
aS'Cardtronics Announces Plan to Redomicile in the United Kingdom GlobeNewswire  - Apr 27, 2016 The merger will result in each stockholder receiving one share of Cardtronics plc for each share of Cardtronics common stock held immediately prior to the merger.Cardtronics sees tax advantage in UK incorporation move - Houston ChronicleHouston-based ATM giant to redomicile overseas - Houston Business Journal'
p4
aS'Cardtronics PLC Cl A MarketWatch - Dec 21, 2009 Cardtronics PLC Cl A. NASDAQ: CATM. GO. Set Alerts &middot; Find a Broker &middot; Join TD Ameritrade &middot; Market Index &middot; Overview Profile News Charts Financials Historical Quotes Analyst Estimates Options SEC Filings Insiders.'
p5
aS"Cardtronics plc  Moves Lower on Volume Spike for February 13 Equities.com - Feb 13, 2017 Cardtronics plc  traded on unusually high volume on Feb. 13, as the stock lost 2.66% to close at $44.28. On the day, Cardtronics plc saw 947,558 shares trade hands on 8,981 trades. Considering that the stock averages only a daily volume of 478 ...Cardtronics plc : What's the Story? - StockNewsJournalCardtronics plc  1 Year Price Target is set at $57 - TopChronicle"
p6
aS'Stock Tracker: Focusing on Shares of Cardtronics plc  Sherwood Daily - 16 hours ago Cardtronics plc  has a current Value Composite Score of 44. Using a scale from 0 to 100, a lower score would represent an undervalued company and a higher score would indicate an expensive or overvalued company.'
p7
aS'Investors are Watching Shares of Cardtronics plc  Davidson Register - 18 hours ago Active investors may be taking a second look at shares of Cardtronics plc . Checking in on some levels, the six month price index is currently at 1.04949.'
p8
aS'Stock Update: Reviewing Technical Levels for Cardtronics PLC  Providence Standard - 16 hours ago Traders are taking a second look at how shares of Cardtronics PLC  have been performing lately. A favorite tool among technical stock analysts is the moving average.'
p9
aS'Analysts Set Cardtronics PLC  PT at $50.00 Chaffey Breeze - Mar 13, 2017 Cardtronics PLC logo Shares of Cardtronics PLC  have received an average recommendation of Hold from the six brokerages that are presently covering the company.State Board of Administration of Florida Retirement System Reduces Position in ... - BBNS'
p10
a.