(lp0
S'Insider Trading Activity Chubb Ltd   Insider Sold 19480 shares of Stock Market Exclusive - 9 hours ago On 9/18/2012 John J Kennedy, SVP, sold 3,134 with an average share price of $76.16 per share and the total transaction amounting to $238,685.44.'
p1
aS"Why Chubb Ltd  stock will rise today FX Daily Report - Feb 1, 2017 Chubb Ltd  has reported the adjusted earnings per share of $3.41 in the fourth quarter 2016 ended 31st December, beating the analysts' estimates for the adjusted earnings per share of $2.42. The company had reported the 67 percent growth in&nbsp;...D/B/A Chubb Limited New  Position Raised by Confluence Investment ... - Sports PerspectivesChubb benefits from ACE merger in strong Q4 and full year 2016 results - Intelligent Insurer "
p2
aS"BRIEF-Chubb Ltd reports Q4 EPS $3.41 Reuters - Jan 31, 2017 Reuters is the news and media division of Thomson Reuters. Thomson Reuters is the world's largest international multimedia news agency, providing investing news, world news, business news, technology news, headline news, small business news, news&nbsp;..."
p3
aS'D/B/A Chubb Limited New  Common Share Dividend Payout Ratio Energy Index - 9 hours ago The dividend growth rate of D/B/A Chubb Limited New calculated based on 20 historical quarterly dividends is 10.28% while the R-Squared dividend growth rate regression is 0.87.'
p4
aS'Capital World Investors is Buying Chubb Ltd.  Shares Small Cap Exclusive  - Feb 14, 2017 In a just published Form 13, filed with the US Securities and Exchange Commission , Chubb Ltd.  reported that Capital World Investors has picked up 23,448,895 of common stock as of 2017-02-14.Delphi Management Inc. MA Purchases 9 Shares of D/B/A Chubb Limited New  - Sports Perspectives'
p5
aS'Shares of D/B/A Chubb Limited New  Sees Large Outflow of Money Energy Index - Mar 14, 2017 D/B/A Chubb Limited New  traded on a positive note gaining 0.14 points or 0.1% to be valued at $137.95 per share. Intraday, the shares aggregated $0.9 million in upticks but saw an exodus of $2.09 million in downticks.The Chubb Ltd  Position Raised by WFG Advisors LP - Petro Global News 24'
p6
aS"'Demand remains strong' for high film production insurance limits in Canada: Chubb Canadian Underwriter - 14 hours ago Falls from heights and the use of expensive antiques on sets are among the risks that film production firms should keep in mind when working in foreign locations, Chubb Ltd. said in a report released Tuesday. When producers choose a foreign location ..."
p7
aS'Chubb operating earnings grow MarketWatch - Jan 31, 2017 Chubb Ltd. posted much stronger-than-expected growth in operating earnings and premiums in the final quarter of the year. The company was formed early last year when ACE Ltd.'
p8
aS"Chubb: 'Built To Outperform' Seeking Alpha - Feb 6, 2017 When do you actively decide to hold a stock that doesn't look compellingly cheap? How about: when the strategic position in terms of product reach and capacity is superior to most other firms in the sector."
p9
aS"Chubb  Q3 2016 Results - Earnings Call Transcript Seeking Alpha - Oct 26, 2016 Good day and welcome to the Chubb Limited Third Quarter 2016 Earnings Conference Call. Today's call is being recorded. For opening remarks and introductions, I'd like to turn the conference over to Helen Wilson, Investor Relations.Chubb reports record-breaking earnings - Royal Gazette"
p10
a.