(lp0
S'Commerce Bancshares  Up 7.3% Since Earnings Report: Can It Continue? Yahoo Finance - Feb 21, 2017 It has been about a month since the last earnings report for Commerce Bancshares, Inc. CBSH. Shares have added about 7.3% in that time frame, outperforming the market.'
p1
aS'Common Share Dividend Yield of Commerce Bancshares, Inc.  Energy Index - 16 hours ago The dividend growth rate of Commerce Bancshares calculated based on 20 historical quarterly dividends is 4.6% while the R-Squared dividend growth rate regression is 0.95.Earnings Analysis &amp; Update for Commerce Bancshares, Inc. ? - Aiken Advocate'
p2
aS'James M. Kemper Jr., former Commerce Bancshares chairman, dies at age 95 Kansas City Star - Dec 16, 2016 James M. Kemper Jr., longtime civic leader and banker, constant reader and avid horseman, died Thursday. He was 95. Kemper, a Kansas City native, retired in 1991 as chairman of Commerce Bancshares Inc., having followed his father into the job and&nbsp;...'
p3
aS"Insider Trading Activity Commerce Bancshares, Inc.   Insider ... Market Exclusive - Mar 8, 2017 Patricia R Kellerhals , Insider of Commerce Bancshares, Inc.  reportedly Sold 261 shares of the company's stock at an average price of 58.61 for a total transaction amount of $15,297.21 SEC Form.Commerce Bancshares, Inc.  To Go Ex-Dividend on March 8th - Chaffey BreezePatricia Kellerhals, Senior Vice President of Commerce Bancshares, Inc. (CBSH ... - HuronReport"
p4
aS"Insider Trading Activity Commerce Bancshares, Inc.   Insider ... Market Exclusive - Mar 4, 2017 Patricia R Kellerhals , Insider of Commerce Bancshares, Inc.  reportedly Sold 218 shares of the company's stock at an average price of 60.4 for a total transaction amount of $13,167.20 SEC Form.Market Mover of Last Trading Session: Commerce Bancshares, Inc.  - Is stories"
p5
aS"Insider Trading Activity Commerce Bancshares, Inc.   Insider ... Market Exclusive - Feb 27, 2017 V Raymond Stranghoener , Insider of Commerce Bancshares, Inc.  reportedly Sold 5,499 shares of the company's stock at an average price of 59.55 for a total transaction amount of $327,465.45 SEC Form.Brokerages Set Commerce Bancshares, Inc.  Price Target at $48.38 - Chaffey Breeze"
p6
aS'Commerce Bancshares, Inc. Declares Stock Dividend and Quarterly Cash Dividends ... Business Wire  - Oct 28, 2016 KANSAS CITY, Mo.----Commerce Bancshares, Inc.  announced today that its Board of Directors approved a 5 percent common stock dividend payable on December 19, 2016 to shareholders of record at the close of&nbsp;...'
p7
aS"Insider Trading Activity Commerce Bancshares, Inc.   Insider ... Market Exclusive - Feb 21, 2017 Patricia R Kellerhals , Insider of Commerce Bancshares, Inc.  reportedly Sold 269 shares of the company's stock at an average price of 58.13 for a total transaction amount of $15,636.97 SEC Form.Commerce Bancshares, Inc.  Stake Lowered by First Republic Investment ... - The Cerbat Gem"
p8
aS"Patricia R. Kellerhals Sells 275 Shares of Commerce Bancshares, Inc.  Stock Chaffey Breeze - Mar 13, 2017 Commerce Bancshares logo Commerce Bancshares, Inc.  insider Patricia R. Kellerhals sold 275 shares of the business's stock in a transaction dated Wednesday, March 8th.The Commerce Bancshares, Inc.  Insider Patricia R. Kellerhals Sells 261 ... - Petro Global News 24"
p9
aS'Commerce Bank eyes middle market customers with Grand Rapids office MiBiz - May 16, 2016 GRAND RAPIDS - Commerce Bank has moved into West Michigan, seeking to carve out a role in the middle market. A subsidiary of Kansas City, Mo.'
p10
a.