(lp0
S"Coca-Cola European Partners plc: Voting Rights and Capital Business Wire  - Mar 1, 2017 This notification is made in conformity with DTR 5.6 of the FCA's Disclosure and Transparency Rules. As at 28 February 2017, Coca-Cola European Partners plc had 483,098,689 ordinary shares of 0.01 each in issue, each with one vote attached. No shares&nbsp;..."
p1
aS'Coca-Cola European Partners plc Ordinary Shares  Upgraded To Strong Buy Stock Market Daily  - Jan 26, 2017 Coca-Cola European Partners plc Ordinary Shares  have been upgraded from Buy to a Strong Buy rating by S&amp;P Capital IQ analysts Jia Man Neoh and Agnese.'
p2
aS'Is Coca-Cola European Partners plc Ordinary Shares  A Good Stock To Buy? Insider Monkey  - Nov 25, 2016 In this article we are going to look at how this recent market trend affected the sentiment of hedge funds towards Coca-Cola European Partners plc Ordinary Shares , and what that likely means for the prospects of the company and its stock.'
p3
aS'Coca-Cola European Partners: Notification of Major Interest in Shares Business Wire  - Dec 28, 2016 The Coca-Cola Company has consolidated its interests in 87,950,640 ordinary shares , which were previously held by three of its wholly-owned subsidiaries (European&nbsp;...'
p4
aS"Stocks Worth Chasing- Incyte Corporation , Coca-Cola European ... Wall Street Times  - Mar 14, 2017 Incyte Corporation  traded at a yearly high level of $151.63 during the last trading session. The last session's volume of 4.15 million shares was higher than its average volume of 3.07 million shares. The stock, after opening at $149.24 ..."
p5
aS"Coca-Cola European Partners Has Limited Near-Term Upside Benzinga - Oct 10, 2016 Goldman Sachs' Judy Hong believes that while the long-term story for Coca-Cola European Partners plc Ordinary Shares  remains intact, there is limited near-term upside to the synergies from the CCE/CCEAG/CCIP merger, while FX continues&nbsp;..."
p6
aS'Coca-Cola Enterprises, Inc. Announces Approval of Prospectus Prepared by Coca ... Business Wire  - May 25, 2016 ... Inc.  announced today the UK Listing Authority has approved a prospectus prepared by Coca-Cola European Partners plc in connection with the application for the admission of its entire 0.01 ordinary share capital to ...'
p7
aS'Coca-Cola European Partners Plc Admission to Listing and Trading Business Wire  - Jun 2, 2016 Investors should not purchase or subscribe for any shares referred to in this announcement except on the basis of information in the prospectus published by Coca-Cola European Partners plc  on 25 May 2016 . ... the Company ...'
p8
aS"Coca-Cola European Partners Less Favorable Than Other Coke Bottlers -Credit Suisse Benzinga - Sep 15, 2016 Credit Suisse's Sanjeet Aujla believes that while Coca-Cola European Partners plc Ordinary Shares  now has a stronger business following the merger with the Iberian and German bottlers, organic growth is likely to remain at the low end of ..."
p9
aS"Adobe Systems  Reaches $121.00 52-Week High, Shorts at Coca-cola ... Wolcott Daily - Mar 10, 2017 With 2.28 million avg volume, 1 days are for Coca-cola European Partners Plc 's short sellers to cover CCE's short positions.21Vianet Group Inc  &amp; Coca-Cola European Partners plc Ordinary ... - Daily News Journal "
p10
a.