(lp0
S'Harrison Street Completes the Acquisition of Campus Crest PR Newswire  - Mar 2, 2016 CHARLOTTE, N.C., March 2, 2016 /PRNewswire/ -- Campus Crest Communities, Inc.  , today announced that it successfully closed its previously announced merger with an affiliate of Harrison Street Real&nbsp;...Harrison Street closes $1.9B takeover of Campus Crest Communities - Seeking Alpha'
p1
aS'Campus Crest Enters Into Definitive Agreements for Sale totaling $7.03 per share PR Newswire  - Oct 16, 2015 CHARLOTTE, N.C., Oct. 16, 2015 /PRNewswire/ -- Campus Crest Communities, Inc.  , today announced that it has entered into a definitive merger agreement with affiliates of Harrison Street Real Estate Capital&nbsp;...'
p2
aS'Campus Crest Merger Closing Scheduled For Wednesday, March 2, 2016 PR Newswire  - Feb 29, 2016 CHARLOTTE, N.C., Feb. 29, 2016 /PRNewswire/ -- Campus Crest Communities, Inc.  , today announced that it expects the closing of its previously announced merger with an affiliate of Harrison Street Real&nbsp;...'
p3
aS'Campus Crest Shareholders Approve Acquisition by Harrison Street Real Estate ... PR Newswire  - Jan 26, 2016 26, 2016 /PRNewswire/ -- Campus Crest Communities, Inc.  , announced today that holders of its outstanding shares of common stock approved the acquisition  of Campus Crest by affiliates of&nbsp;...'
p4
aS'Campus Crest Communities Announces Settlement Agreement with Clinton Group PR Newswire  - May 4, 2015 CHARLOTTE, N.C., May 4, 2015 /PRNewswire/ -- Campus Crest Communities, Inc.  , an owner and manager of high-quality student housing properties, today announced that it has entered into an agreement&nbsp;...'
p5
aS'Campus Crest Communities Announces Management Additions PR Newswire  - Apr 27, 2015 CHARLOTTE, N.C., April 27, 2015 /PRNewswire/ -- Campus Crest Communities, Inc.  , an owner and manager of high-quality student housing properties, today announced that the Board of Directors is in the&nbsp;...'
p6
aS"Campus Crest Completes Sale of Montreal Joint Venture PR Newswire  - Oct 30, 2015 CHARLOTTE, N.C., Oct. 30, 2015 /PRNewswire/ -- Campus Crest Communities, Inc.  , today announced that it has completed the previously announced sale of the Company's ownership interest in its evo&nbsp;..."
p7
aS'Next Hidden Opportunity: The Acquisition Of Campus Crest Communities, Inc. Seeking Alpha - Nov 23, 2015 On October 16, 2015 Campus Crest Communities, Inc   entered into a merger agreement with Harrison Street Real Estate Capital, LLC  under which Harrison will buy Campus Crest.'
p8
aS'Has Campus Crest Hit Bottom? Seeking Alpha  - Sep 2, 2014 Campus Crest Communities, based in Charlotte, was founded in 2004 to address the compelling supply and demand characteristics of the U.S.'
p9
aS'Campus Crest Finds A Buyer, Now What? Seeking Alpha - Oct 22, 2015 Campus Crest Communities Inc  is a student housing real estate investment trust, or REIT. This was a hot sector at one point, and Campus Crest had big plans on being an important industry player.'
p10
a.