(lp0
S'Codexis to Offer High-Performance Enzymes for Diagnostics Markets GlobeNewswire  - Jan 6, 2017 REDWOOD CITY, Calif., Jan. 06, 2017  -- Codexis, Inc. , a leading protein engineering company, announces that it will offer high-performance enzymes for customers using next generation sequencing  and&nbsp;...'
p1
aS'Codexis Completes Transfer of CodeEvolver Technology to Merck GlobeNewswire  - Oct 5, 2016 REDWOOD CITY, Calif., Oct. 05, 2016  -- Codexis, Inc. , a leading protein engineering company, announced the completion of the second and final phase in the transfer of its proprietary CodeEvolver protein&nbsp;...'
p2
aS'Codexis, Inc.  Given a $8.00 Price Target by HC Wainwright Analysts Chaffey Breeze - Mar 13, 2017 Codexis logo Codexis, Inc.  has been assigned a $8.00 target price by investment analysts at HC Wainwright in a research note issued to investors on Monday.Codexis, Inc.  Issues Quarterly Earnings Results - Sports Perspectives'
p3
aS'Codexis Inc.  Soars 9.52% on March 09 Equities.com - Mar 9, 2017 Codexis Inc.  had a good day on the market for Thursday March 09 as shares jumped 9.52% to close at $4.60. About 87,250 shares traded hands on 628 trades for the day, compared with an average daily volume of 116,320 shares out of a total float of&nbsp;...Codexis, Inc.  Releases Quarterly Earnings Results, Beats Estimates By ... - Chaffey BreezeCodexis Reports 2016 Fourth Quarter and Full Year Financial Results - GlobeNewswire '
p4
aS'Can Codexis Maintain Its Clout? Seeking Alpha - May 6, 2016 Codexis, Inc.  is a micro cap biotechnology company  with roughly 90 employees - a number that by my measure has dropped a bit over the past couple years.'
p5
aS"Codexis Reports Financial Results for the Third Quarter of 2016 GlobeNewswire  - Nov 8, 2016 REDWOOD CITY, Calif. , Nov. 08, 2016  -- Codexis, Inc. , a leading protein engineering company, announces financial results for the three and nine months ended September 30, 2016, and provides a business update.Codexis'  CEO John Nicols on Q3 2016 Results - Earnings Call Transcript - Seeking Alpha"
p6
aS'Codexis Inc.  Soars 6.49% on February 24 Equities.com - Feb 24, 2017 Codexis Inc.  had a good day on the market for Friday February 24 as shares jumped 6.49% to close at $4.10. About 120,334 shares traded hands on 717 trades for the day, compared with an average daily volume of 118,726 shares out of a total float&nbsp;...To Buy Or Sell Codexis, Inc.  On Latest Analyst Consensus - Fiscal StandardCodexis, Inc.  Registers a Net Consolidated EPS Of $-0.1922 - Equities Focus'
p7
aS"Codexis Inc  Jumps Higher For Week Business Review - 16 hours ago Codexis Inc  shares have seen strong upward momentum over the past week as they have moved higher 9.64% over the past five sessions, placing them on this week's winners list.The Codexis, Inc.  Issues Quarterly Earnings Results - Petro Global News 24Zacks: Codexis, Inc.  Given $6.69 Average Target Price by Brokerages - The Cerbat Gem"
p8
aS'Numerous Catalysts For Codexis Seeking Alpha  - Feb 17, 2015 Codexis, Inc.  is a microcap biotechnology company  with roughly 125 employees - a number that has been growing pretty steadily since its launch in 2002.'
p9
aS'Codexis Inc.  Soars 6.06% on January 24 Equities.com - Jan 24, 2017 Codexis Inc.  had a good day on the market for Tuesday January 24 as shares jumped 6.06% to close at $5.25. About 189,386 shares traded hands on 695 trades for the day, compared with an average daily volume of 96,584 shares out of a total float&nbsp;...'
p10
a.