(lp0
S"Cantel Medical Corp. Posts Double-Digit Growth Across the Board Motley Fool - Mar 13, 2017 If you're doing the math at home, that's more than the overall 16.8% year-over-year growth due to a negative 1.1% impact from changes in currency.Cantel Medical  Q2 Earnings &amp; Sales Grow Year Over Year - NasdaqCantel Medical Corp.  Announces Quarterly Earnings Results, Beats ... - BBNS"
p1
aS'Cantel Medical Corp. to Hold Conference Call to Discuss Results for its Second ... PR Newswire  - Mar 2, 2017 LITTLE FALLS, N.J., March 2, 2017 /PRNewswire/ -- CANTEL MEDICAL CORP.  will release the results for its second quarter ended January 31, 2017 on Thursday, March 9 before the market opens, and hold a conference call to discuss the&nbsp;...'
p2
aS'Cantel Medical to Expand Direct Sales Operations in Australia PR Newswire  - Feb 16, 2017 LITTLE FALLS, N.J., Feb. 16, 2017 /PRNewswire/ -- CANTEL MEDICAL CORP. , a leading global company dedicated to delivering innovative infection prevention products, services and solutions, announced today that it entered into a definitive&nbsp;...'
p3
aS"Cantel Medical Corp. Takes Its First Step Towards Doubling Motley Fool - Dec 13, 2016 Sales in Cantel's endoscopy segment grew by 31%, boosted slightly by the acquisition of its Canadian endoscopy assets from Vantage Endoscopy, Cantel's former distributor in Canada. The deal, which closed in late September, should boost revenue from&nbsp;..."
p4
aS'Cantel Medical Corp.  Ex-Dividend Date Scheduled for January 12, 2017 Nasdaq - Jan 11, 2017 Cantel Medical Corp.  will begin trading ex-dividend on January 12, 2017. A cash dividend payment of $0.07 per share is scheduled to be paid on January 31, 2017.'
p5
aS'Conestoga Capital Advisors, LLC Buys Cantel Medical Corp., Cantel Medical Corp ... Yahoo Finance - Jan 11, 2017 Wayne, PA, based Investment company Conestoga Capital Advisors, LLC buys Cantel Medical Corp., Cantel Medical Corp., SiteOne Landscape Supply Inc, Fox Factory Holding Corp, The Descartes Systems Group Inc, sells FleetMatics Group PLC, Press&nbsp;...'
p6
aS"Cantel Medical Changes Ticker Symbol  Investopedia - Dec 5, 2016 The Little Falls, New Jersey-based health care company on Monday, Dec. 5, altered its common stock ticker symbol from CMN to CMD. On its final day listing as CMN, Cantel's stocks closed its last Friday session at $81.14, an increase of .77 percent."
p7
aS"CANTEL MEDICAL CORP.  Files An 8-K Results of Operations and ... Market Exclusive - Mar 9, 2017 Cantel Medical Corp. is a provider of infection prevention products and services in the healthcare market. The Company's operating segments include Endoscopy; Water Purification and Filtration; Healthcare Disposables, and Dialysis.Cantel Medical's  CEO Jorgen Hansen on Q2 2017 Results - Earnings Call ... - Seeking Alpha"
p8
aS'Cantel Medical Promotes Seth M. Yellin to Executive Vice President PR Newswire  - Sep 1, 2016 LITTLE FALLS, N.J., Sept. 1, 2016 /PRNewswire/ -- CANTEL MEDICAL CORP.  is pleased to announce that Seth M. Yellin has recently been promoted to Executive Vice President, Strategy and Corporate Development from Senior Vice President&nbsp;...'
p9
aS"Cantel Medical To Acquire NAMSA's Sterility Assurance Products Division PR Newswire  - Feb 3, 2016 3, 2016 /PRNewswire/ -- CANTEL MEDICAL CORP. , has entered into a definitive agreement with North American Science Associates, Inc.  to acquire NAMSA's Sterility Assurance Monitoring Products division for $13.5 million in cash&nbsp;...NAMSA Announces Divestiture of its Sterility Assurance Products Division - Business Wire "
p10
a.