(lp0
S'Just the Facts on Callon Petroleum Company  StockNewsJournal - 15 hours ago Callon Petroleum Company  is an interesting player in the Basic Materials space, with a focus on Independent Oil &amp; Gas.'
p1
aS'Callon Petroleum Declares Series A Preferred Dividend PR Newswire  - Mar 3, 2017 NATCHEZ, Miss., March 3, 2017 /PRNewswire/ -- Callon Petroleum Company   today announced that it has declared a cash dividend of $1.25 per share, on its 10.0% Series A Cumulative Preferred Stock (&quot;Series A&nbsp;...Callon Petroleum Company  Moves Higher on Volume Spike for March 01 - Equities.comCallon Petroleum  Q4 2016 Results - Earnings Call Transcript - Seeking Alpha'
p2
aS'Callon Petroleum Company Announces Fourth Quarter 2016 Results BOE Report  - Feb 27, 2017 Callon Petroleum Company   today reported results of operations for the three months and full-year ended December 31, 2016.Should You Sell Callon Petroleum Company  Before Earnings? February 24, 2017 - Zacks.comCallon Petroleum -5% after higher than expected capex view - Seeking Alpha'
p3
aS'Citigroup Upgrades Callon Petroleum Company to Buy Energy Index - Mar 15, 2017 Brokerage firm Citigroup Upgrades its rating on Callon Petroleum Company. The shares have been rated Buy. Previously, the analysts had a Neutral rating on the shares.Callon Petroleum Company  Receives $18.26 Consensus Target Price from ... - Chaffey Breeze'
p4
aS'Checking the Overall Picture for Callon Petroleum Company  StockNewsJournal - Mar 9, 2017 Callon Petroleum Company  is an interesting player in the Basic Materials space, with a focus on Independent Oil &amp; Gas.Callon Petroleum Company Risk Points versus Energy - CML NewsAnalyst Upgrades  Callon Petroleum Company  Stock Gets Upgraded By ... - Market Exclusive'
p5
aS"Analyst's Indicator Review for Callon Petroleum Company , Ascena Retail ... The USA Commerce - 19 hours ago Shares of Callon Petroleum Company  dropped -1.72% to $11.40. During the trading on 03/14/2017, Company's stock ranged from $10.97 to $11.42.Its time to give a fresh look to Callon Petroleum Company  and ... - USA Commerce Daily"
p6
aS"Earnings Clues on JetBlue Airways Corporation , Callon Petroleum Company ... StockNewsJournal - Mar 10, 2017 Callon Petroleum Company , maintained return on investment for the last twelve months at -6.47, higher than what Reuters data shows regarding industry's average."
p7
aS"Revenue Approximations Analysis: Newfield Exploration Company , Callon ... StockNewsJournal - Mar 8, 2017 Callon Petroleum Company , maintained return on investment for the last twelve months at -6.47, higher than what Reuters data shows regarding industry's average."
p8
aS"Callon Petroleum Company  : How Do the Technicals Stack Up? The USA Commerce - Mar 14, 2017 We have gathered the technical data on Callon Petroleum Company , and see some interesting trends in the stock's behavior of late."
p9
aS'Revenue Approximations Analysis: Gulfport Energy Corp. , Callon ... StockNewsJournal - Feb 28, 2017 Callon Petroleum Company , at its latest closing price of $13.36, it has a price-to-book ratio of 1.94, compared to an industry average at 0.49.Stock Returns: Callon Petroleum Company  is Beating Gulfport Energy ... - CML NewsThe Caymus Capital Partners LP Purchases Shares of 530000 Gulfport Energy ... - DailyQuint'
p10
a.