(lp0
S"Comstock Resources, Inc. Reports 2016 Fourth Quarter and Annual Financial and ... Yahoo Finance - Feb 24, 2017 FRISCO, TEXAS, February 24, 2017 - Comstock Resources, Inc.   today reported financial and operating results for the quarter and year ended December 31, 2016.Comstock Resources  Loss Wider than Expected in Q4 - Zacks.comWhat is Behind Comstock Resources Inc's  Superior ROE? - Simply Wall St"
p1
aS'Comstock Resources Soars on News of Reserves  Investopedia - Jan 27, 2017 Comstock Resources Inc.  declared on January 26 that it has an increase of 47% proved oil and gas reserves. This news took the market by surprise and sent the stock soaring on high volume.Robert W. Baird Just Issued  Outperform Rating on Comstock Resources Inc  - Highland Mirror'
p2
aS'Stock Returns: Comstock Resources Inc  is Beating Abraxas Petroleum ... CML News - Mar 14, 2017 This is a snapshot to compare the stock returns for Abraxas Petroleum Corporation  versus Comstock Resources Inc  . The stock return points we compare look at the last three-months, six-months and twelve-months. At the end of&nbsp;...'
p3
aS'The Zacks Analyst Blog Highlights: Pioneer Natural Resources, McDermott ... Yahoo Finance - Mar 10, 2017 Stocks recently featured in the blog include Pioneer Natural Resources Co. , McDermott International Inc. , Comstock Resources Inc. , Flotek Industries Inc. (NYSE: FTK&nbsp;...'
p4
aS'Comstock Resources Pauses After Breakout  Investopedia - Jan 30, 2017 Comstock Resources Inc.  shares rose more than 21% on January 26, and followed through with another up day on the 27th. On January 30th, the stock took a breather. It dropped slightly to $12.55 per share on light volume, as of writing. This kind ...Comstock Resources, Inc.  Trades Lower, 5 Hold Recommendations - Review FortuneCapital One Financial Corporation Equities Analysts Cut Earnings Estimates for ... - Sports Perspectives'
p5
aS'Comstock Resources set to &quot;go terminal,&quot; Friendly Bear says Seeking Alpha - Feb 21, 2017 Comstock Resources  shakes off a negative report from Friendly Bear on Seeking Alpha that says the company &quot;will go terminal, resulting in a total or near-total wipeout for existing shareholders.&quot; The report accuses management of trying to ...Stock Price of Comstock Resources, Inc.  Decreases -15.9% - Highland Mirror'
p6
aS'Comstock Resources Inc  Stock Technicals at Critical Inflection Point CML News - 18 hours ago This is a technical analysis stock rating for Comstock Resources Inc  . The company has a three bull technical rating which indicates an inflection point.The Comstock Resources Inc  Expected to Earn FY2018 Earnings of ($1.36 ... - Petro Global News 24Comstock Resources Inc Forecasted to Post Q1 2017 Earnings of  Per ... - Sports Perspectives'
p7
aS'Comstock Resources inks Haynesville shale joint venture Seeking Alpha - Jan 9, 2017 Comstock Resources  says it has entered into a joint development venture with USG Properties to target the Haynesville shale in Louisiana and Texas.Comstock Resources Boosts Haynesville Acreage With JV - Oil and Gas Investor '
p8
aS'Comstock Resources, Inc. Announces 1 for 5 Reverse Stock Split Yahoo Finance - Jul 20, 2016 FRISCO, TEXAS, July 20, 2016 - Comstock Resources, Inc.   announced today a one-for-five  reverse split of its issued and outstanding common stock.'
p9
aS"Comstock Resources  Q3 2016 Results - Earnings Call Transcript Seeking Alpha - Nov 8, 2016 Good day, ladies and gentlemen, and welcome to the Third Quarter 2016 Comstock Resources, Inc. Earnings Conference Call.Comstock: Haynesville 'More Important Than Ever,' Writing Off TMS - Natural Gas Intelligence"
p10
a.