(lp0
S'Company in Focus: CorMedix Inc  Rives Journal - 19 hours ago Technical Traders may be interested in looking at the indicator levels on shares of CorMedix Inc . The 14-day ADX for CorMedix Inc  is currently 22.94. In general, an ADX value from 0-25 would signal an absent or weak trend. A level of 25 ...'
p1
aS'CorMedix Inc. CRMD  Wall Street Journal - Feb 11, 2011 News CorMedix Inc.CRMD. Significant News Only. 03/02/17; Press Release.  CorMedix Inc. Appoints John L.  Armstrong to Senior Leadership Team.'
p2
aS'CorMedix Inc. : Strong Sell On Partner Failure, -91.4% Downside: Pump ... ValueWalk - Jun 29, 2015 I believe CorMedix is one of the most brazen, worthless biotech shells of insider enrichment I have ever seen. Bankruptcy documents show Cormedix  is based on a 1970s-era catheter product acquired for &lt;$1m cash the last time this&nbsp;...CorMedix: Strong Sell On Partner Failure, Misleading Data And Paid Stock ... - Seeking Alpha'
p3
aS'Resonant Down 70% Could CorMedix Inc.  Be Next? ValueWalk - Apr 13, 2015 CorMedix has a market capitalization of $400 million, its stock is up 370% year to date, its trading at 2,000x 2014 revenue , it has a going concern, it needs to raise capital, it recently filed an equity offering, it faces significant ...'
p4
aS'What Happened to CorMedix Inc.  MicroCap Daily - Jul 29, 2015 CorMedix Inc.  recently saw a parabolic rise to highs of $10.40 a share off its base at just over $1. Since then the stock has been in steep decline heading back to where it started.'
p5
aS'CORMEDIX INC.  Files An 8-K Entry into a Material Definitive ... Market Exclusive - Mar 3, 2017 On March 1, 2017, we entered into an employment agreement with John L. Armstrong, Jr. to serve as our Executive Vice President for Technical Operations.'
p6
aS'CorMedix Inc.  to Release Earnings on Tuesday Chaffey Breeze - Mar 12, 2017 CorMedix Inc.  will be posting its quarterly earnings results before the market opens on Tuesday, March 14th.CorMedix Inc  Reviewed By Analysts - The De Soto Edge'
p7
aS'Trading Covered Calls: CorMedix Inc  : Covered Calls to Beat Earnings CML News - Mar 14, 2017 As we look at CorMedix Inc we note that a covered call is one of the most common implementations of an option strategy, but the analysis completed when employing the covered call often times lacks the necessary rigor especially surrounding earnings.'
p8
aS"Option Market: CorMedix Inc Risk Hits A Towering High CML News - Mar 9, 2017 We're going to look at a proprietary risk rating for the next 30-days built by Capital Market Laboratories  based on a large number of interactions of data points, many of which come directly from the option market for CorMedix Inc  ."
p9
aS'The CorMedix Inc.  Scheduled to Post Earnings on Tuesday Petro Global News 24 - Mar 13, 2017 CorMedix Inc.  will post its quarterly earnings results before the market opens on Tuesday, March 14th. Analysts expect CorMedix to post earnings of  per share for the quarter.Geopark Ltd  Reaches $6.80 After 5.00% Up Move, Cormedix (NYSEMKT:CRMD ... - Wolcott Daily'
p10
a.