(lp0
S"America's Car-Mart misses 3Q profit forecasts Miami Herald - Feb 21, 2017 America's Car-Mart Inc. on Monday reported fiscal third-quarter profit of $2.8 million. On a per-share basis, the Bentonville, Arkansas-based company said it had net income of 35 cents.America's Car-Mart Inc : Is it now really a good time to buy? - Simply Wall StAmerica's Car-Mart sinks after earnings arrive light - Seeking Alpha"
p1
aS"America's Car-Mart, Inc.  Given Average Rating of Hold by Analysts Chaffey Breeze - 21 hours ago America's Car-Mart logo America's Car-Mart, Inc.  has received an average rating of Hold from the six analysts that are presently covering the firm.Company Focus on Shares of America's Car-Mart, Inc.  - SKV News"
p2
aS"America's Car-Mart Inc. CRMT  Wall Street Journal - Feb 11, 2011 America's Car-Mart Inc. CRMT . search. View All companies. AT CLOSE 4:00 PM EST 03/09/17. $32.60 USD; -0.30 -0.91%."
p3
aS"America's Car-Mart Inc  Stock Technicals at Critical Inflection Point CML News - Mar 12, 2017 This is a technical analysis stock rating for America's Car-Mart Inc  . The company has a three bull technical rating which indicates an inflection point.America's Car-Mart, Inc.  Shares Bought by Federated Investors Inc. PA - Chaffey BreezeAmerica's Car-Mart, Inc.  Given Consensus Recommendation of Hold by ... - Sports Perspectives"
p4
aS"America's Car-Mart Reports 2Q Income of $5M Arkansas Business Online - Nov 18, 2016 America's Car-Mart Inc. of Bentonville on Thursday reported fiscal second-quarter income of $5 million, up from a loss of $495,000 it reported in the same quarter a year ago."
p5
aS"America's Car Mart: My Thoughts On The Most Recent Q And What To Do About It Seeking Alpha - May 25, 2016 America's Car Mart  has reported earnings and to say the least, the bottom line was disappointing as I expected."
p6
aS"America's Car Mart: A Good Business, Not The Right Time To Invest Seeking Alpha - Dec 5, 2015 America's Car-Mart  operates used-car dealerships at 146 locations throughout 9 mid-western states. Car Mart is one of the largest operators of what is often called the &quot;buy-here, pay-here&quot; model."
p7
aS"America's Car-Mart Opens 145th Dealership GlobeNewswire  - Oct 8, 2015 Bentonville, Arkansas, Oct. 8, 2015  -- America's Car-Mart, Inc.  today announced the opening of its 145th dealership."
p8
aS"Why America's Car-Mart  Stock Might be a Great Pick August 30, 2016 Zacks.com - Aug 30, 2016 One stock that might be an intriguing choice for investors right now is America's Car-Mart Inc.  . This is because this security in the Retail/Wholesale-Auto/Truck space is seeing solid earnings estimate revision activity, and is in ..."
p9
aS"No Bonuses But Salaries Up for America's Car-Mart Execs Arkansas Business Online - Jul 22, 2016 Executives at America's Car-Mart Inc. of Bentonville did not receive cash incentive bonuses for the third consecutive year, according to a proxy statement the company filed Friday with the Securities &amp; Exchange Commission."
p10
a.