(lp0
S'Cirrus Logic Inc Risk Points versus Technology CML News - 10 hours ago This is a scatter plot analysis of the critical risk points from the option market for Cirrus Logic Inc  compared to its own past and the Technology ETF.'
p1
aS"Can Cirrus Logic Inc. Make a Comeback? Motley Fool - Feb 16, 2017 Cirrus Logic  investors have experienced a sobering reality check due to the company's reliance on one customer for the majority of its revenue.Cirrus Logic, Inc.  Rating Reiterated by Needham &amp; Company LLC - BNB Daily Analyst's Predictions on On Assignment, Inc. , Cirrus Logic, Inc.  - StockNewsJournal"
p2
aS'Buy or Sell? Average Brokerage Ratings on Cirrus Logic, Inc. , Sunoco ... StockNewsJournal - Mar 14, 2017 ROI deals with the invested cash in the company and the return the investor realize on that money based on the net profit of the business.'
p3
aS'Cirrus Logic, Halcon Resources, Tesaro Times of India - Mar 1, 2017 March 1  - Wall Street securities analysts revised their ratings and price targets on several U.S.-listed companies, including Cirrus Logic, Halcon Resources and PG&amp;E, on Wednesday.'
p4
aS"Insider Trading Activity Cirrus Logic, Inc.   Director Sold 185 ... Market Exclusive - Mar 4, 2017 William D Sherman , Director of Cirrus Logic, Inc.  reportedly Sold 185 shares of the company's stock at an average price of 54.01 for a total transaction amount of $9,991.85 SEC Form."
p5
aS'Cirrus Logic, Inc.  Receives $62.33 Consensus Price Target from Brokerages Chaffey Breeze - Mar 13, 2017 Cirrus Logic logo Shares of Cirrus Logic, Inc.  have been assigned an average recommendation of Hold from the eleven research firms that are covering the firm.Smart Money Buying the Price Weakness of Cirrus Logic, Inc.  - Energy IndexCirrus Logic, Inc.  EPS Target At $0.89 - Transcript Daily'
p6
aS"Analyst's Predictions on B/E Aerospace, Inc. , Cirrus Logic, Inc.  StockNewsJournal - Feb 28, 2017 Cirrus Logic, Inc. , maintained return on investment for the last twelve months at 20.71, higher than what Reuters data shows regarding industry's average.Average Brokerage Rating Of Cirrus Logic, Inc. , Casey's General Stores ... - The USA CommerceResearch Report for Investors: Cirrus Logic Inc.  - FactsReporter"
p7
aS"Is It Time to go for ARRIS International plc , Cirrus Logic, Inc. ? StockNewsJournal - Mar 8, 2017 Cirrus Logic, Inc. , maintained return on investment for the last twelve months at 20.71, higher than what Reuters data shows regarding industry's average.Cirrus Logic, Inc.  Rating Reiterated by Canaccord Genuity - Chaffey Breeze"
p8
aS'Target Price Of Cirrus Logic, Inc.  At $62.111 Transcript Daily - 15 hours ago Cirrus Logic, Inc.  has raised a target price of $62.111 from analysts. It is subject to 9 approximations.Cirrus Logic, Inc.  1-Year Price Target At $62.111 - Enterprise LeaderTraders Recap: Cirrus Logic, Inc.  , Real Goods Solar, Inc ... - NYSE Journal '
p9
aS"Cirrus: Telescoping A View Into 2018-2019 Possibilities Seeking Alpha - Mar 6, 2017 Between Apple's fiscal years 16 and 17, Cirrus Logic benefited significantly from ASP increases primarily with the iPhone 6S and 7. With the 6S, Cirrus's ASP increased from $2.75 to $3.5 mainly with the addition of a slightly more expensive codec and ..."
p10
a.