(lp0
S"Insider Trading Activity Customers Bancorp Inc   insider Sold ... Market Exclusive - 16 hours ago Richard A. Ehst , insider of Customers Bancorp Inc  reportedly Sold 73,544 shares of the company's stock at an average price of 33.17 for a total transaction amount of $2,439,454.48 SEC Form."
p1
aS'Customers Bancorp Inc  Moves Lower on Volume Spike for March 15 Equities.com - 12 hours ago Customers Bancorp Inc  traded on unusually high volume on Mar. 15, as the stock lost 1.8% to close at $32.23. On the day, Customers Bancorp Inc saw 701,951 shares trade hands on 6,157 trades. Considering that the stock averages only a daily&nbsp;...Customers Bancorp Inc  VP Steven Issa Sells 4463 Shares - Chaffey BreezeInsider Trading at Customers Bancorp Inc? - BBNS'
p2
aS'Customers Bancorp Inc  Moves Lower on Volume Spike for March 14 Equities.com - Mar 14, 2017 Customers Bancorp Inc  traded on unusually high volume on Mar. 14, as the stock lost 1.14% to close at $32.82. On the day, Customers Bancorp Inc saw 371,567 shares trade hands on 3,391 trades. Considering that the stock averages only a daily&nbsp;...'
p3
aS'Berks County-based Customers Bancorp sells BankMobile Reading Eagle - Mar 8, 2017 Wyomissing-based Customers Bancorp Inc. will sell the assets and liabilities of the BankMobile division of Customers Bank to Clearwater, Fla.Clearwater bank takes aim at millennials with $175M deal - Tampa Bay Business Journal'
p4
aS"Zacks.com featured highlights: Children's Place, Broadcom, Stoneridge, Inogen ... Nasdaq - 20 hours ago Customers Bancorp, Inc.  is a banking services provider to small and medium-sized businesses, professionals, individuals and families."
p5
aS'Customers Bancorp Inc  Moves Lower on Volume Spike for March 10 Equities.com - Mar 10, 2017 Customers Bancorp Inc  traded on unusually high volume on Mar. 10, as the stock lost 0.83% to close at $33.31. On the day, Customers Bancorp Inc saw 424,747 shares trade hands on 3,437 trades. Considering that the stock averages only a daily&nbsp;...'
p6
aS"Customers Bancorp's  CEO Jay Sidhu on Q3 2016 Results - Earnings Call ... Seeking Alpha - Oct 27, 2016 Welcome to Customers Bancorp's third quarter 2016 earnings conference call. Our earnings release was issued today after the close and is posted on the company's website at www."
p7
aS'Customers Bancorp offshoot hopes to lead a branchless banking revolution Central Penn Business Journal - Feb 3, 2017 The fledgling offshoot of Wyomissing-based Customers Bancorp Inc. was nearing its first anniversary and had found about 100,000 customers.'
p8
aS'Stock Returns: Customers Bancorp Inc  is Beating Berkshire Hills ... CML News - Feb 27, 2017 This is a snapshot to compare the stock returns for Berkshire Hills Bancorp Inc  versus Customers Bancorp Inc  .Russell Investments Group Ltd. Invests $8360000 in Customers Bancorp, Inc  - Chaffey Breeze'
p9
aS'Stock Returns: First Merchants Corporation  is Beating Customers ... CML News - Mar 7, 2017 This is a snapshot to compare the stock returns for Customers Bancorp Inc  versus First Merchants Corporation  .'
p10
a.