(lp0
S"Cutera Still Looks Cheap - But Still Has Questions Seeking Alpha - Sep 8, 2016 CUTR still hasn't received much credit from the market for its turnaround despite impressive revenue growth. But there were some concerns in Q2 relative to margins and international sales, and this still is a laggard in the space."
p1
aS"Cutera Is Making Progress Even If Its Stock Isn't Seeking Alpha - Jul 13, 2016 To be sure, I've shared the market's skepticism, even as I've been relatively bullish on the space as a whole. I'm long the turnaround story at Syneron Medical , which, like Cutera, has been a serial underperformer over the past decade."
p2
aS"Cutera Remains A 'Show Me' Story Seeking Alpha - Feb 12, 2016 Cutera has done a nice job growing revenue of late, and in Q4, posted its first profitable quarter in three years. 2016 guidance implies a profitable year, as CUTR looks to have gotten over the hump."
p3
aS'Cutera Inc.  Breaks into New 52-Week High on February 01 Session Equities.com - Feb 1, 2017 Shares of Cutera Inc.  broke into a new 52-week high yesterday, hitting a peak of $19.35. Shares closed at $19.05 after opening at $18.70 for a move of 2.97%.'
p4
aS'Cutera Announces Management Changes GlobeNewswire  - Aug 18, 2016 BRISBANE, Calif., Aug. 18, 2016  -- Cutera, Inc.  , a leading provider of laser and energy-based aesthetic systems for practitioners worldwide, today announced the resignation of Kevin&nbsp;...Cutera  CEO Resigns - StreetInsider.com'
p5
aS'Cutera: Is This Time Different? Seeking Alpha - Jan 20, 2016 There are basically two charts that sum up the bull/bear argument relative to aesthetic device manufacturer Cutera .'
p6
aS'The Renaissance Technologies LLC Increases Position in Cutera, Inc.  Petro Global News 24 - Mar 15, 2017 Renaissance Technologies LLC boosted its stake in shares of Cutera, Inc.  by 1.7% during the fourth quarter, Holdings Channel reports.Cutera, Inc.  Under Analyst Spotlight - UK Market News'
p7
aS'Cutera Elects J. Daniel Plants as Chairman of the Board GlobeNewswire  - Nov 3, 2016 BRISBANE, Calif., Nov. 03, 2016  -- Cutera, Inc.  , a leading provider of laser and energy-based aesthetic systems for practitioners worldwide, today announced that effective October 28, 2016,&nbsp;...'
p8
aS'Cutera Inc.  Soars 5.04% on February 21 Equities.com - Feb 21, 2017 Cutera Inc.  had a good day on the market for Tuesday February 21 as shares jumped 5.04% to close at $21.90. About 219,718 shares traded hands on 1,696 trades for the day, compared with an average daily volume of 80,771 shares out of a total&nbsp;...Cutera, Inc.  Shares Bought by Menta Capital LLC - Sports Perspectives'
p9
aS'CUTERA Launches New PICO Genesis Treatment With enlighten PR Newswire  - Dec 6, 2016 BRISBANE, Calif., Dec. 6, 2016 /PRNewswire/ -- CUTERA, a leading provider of laser, light and other energy-based aesthetic systems for practitioners worldwide, announced today the launch of PICO Genesis, an innovative procedure that introduces a new&nbsp;...'
p10
a.