(lp0
S"Covance Inc. Stockholders Approve Acquisition by Laboratory Corporation of ... PR Newswire  - Feb 18, 2015 18, 2015 /PRNewswire/ -- Covance Inc.   and Laboratory Corporation of America Holdings   jointly announced that Covance's stockholders voted to adopt the previously announced merger agreement providing&nbsp;...LabCorp Completes Acquisition of Covance - Business Wire Covance purchase a done deal for LabCorp - Triad Business Journal"
p1
aS'After Covance buy, LabCorp now eyes INC FierceBiotech - Apr 20, 2016 Medical testing company LabCorp  is seeking a deal to buy INC Research, one of the largest CROs in the world, as it looks to strengthen its position in diagnostics.'
p2
aS"Covance Acquires Medaxial PR Newswire  - May 19, 2014 PRINCETON, N.J., May 19, 2014 /PRNewswire/ -- Covance , one of the world's largest and most comprehensive drug development services companies, today announced it has acquired Medaxial, a London-based value communication&nbsp;...Covance buys market access communications firm Medaxial - OutSourcing-Pharma.com"
p3
aS'Covance Reports Fourth Quarter Net Revenue Of $634 Million, Pro Forma EPS Of ... PR Newswire  - Feb 4, 2015 PRINCETON, N.J., Feb. 4, 2015 /PRNewswire/ -- Covance Inc.  today reported results for its fourth quarter ended December 31, 2014.'
p4
aS'LabCorp to Buy Covance for About $6.1 Billion Wall Street Journal - Nov 3, 2014 Laboratory Corp. of America Holdings, one of the largest U.S. medical testing companies, is entering the drug-development business by agreeing to buy Covance Inc. in a cash-and-stock deal worth about $6.1 billion, the companies said on Monday. In ...LabCorp to Buy Covance for $6.1 Billion to Add Drug R&amp;D - BloombergLabCorp Acquires Covance Inc. for $6.1B In Cash And Stock Deal - ValueWalk'
p5
aS"LabCorp's Sales Soars Following Covance Buy Wall Street Journal - Oct 26, 2015 Medical-testing company Laboratory Corp. of America Holdings on Monday said its recent acquisition of contract-research organization Covance Inc. drove a 46% revenue increase in its latest quarter. The Burlington, N.C.-based company has benefited from&nbsp;...LabCorp acquires Safe Foods - The Packer"
p6
aS"Covance Investor Sues Over Goldman Sachs's LabCorp Advice Bloomberg - Dec 10, 2014 A Covance Inc. investor contends in a lawsuit that the drug-testing company's board erred in relying on what the shareholder called Goldman Sachs Group Inc.'s conflict-tainted advice in accepting a $6.1 billion takeover offer from Laboratory Corp."
p7
aS'LabCorp Said to Have Held Talks With INC Research Holdings Bloomberg - Apr 18, 2016 INC Research rose less than 1 percent to $49.68 at the close Monday in New York, valuing the company at about $2.7 billion.'
p8
aS'Two Former Covance Senior Executives Join MedAvante Board of Directors PR Newswire  - Jun 21, 2016 HAMILTON, N.J., June 21, 2016 /PRNewswire/ -- MedAvante, Inc., the leader in technology-based clinical trial services for central nervous system  diseases, announced two new members of its Board of Directors: Richard F. Cimino, former Covance, Inc.'
p9
aS'LabCorp sues to stop ex-executive working for competitor Burlington Times News - Oct 31, 2016 Radhika Sivaramakrishna was the executive director of alliance management at LabCorp subsidiary Covance Inc., which contracts with pharmaceutical companies to test and develop drugs.'
p10
a.