(lp0
S"Casella Waste Systems, Inc. to Present at Upcoming Investor Conference GlobeNewswire  - Mar 7, 2017 RUTLAND, Vt., March 07, 2017  -- Casella Waste Systems, Inc. , a regional solid waste, recycling, and resource management services company, announced today that the company's management will be presenting at the&nbsp;...Casella Waste Systems Inc.  Breaks into New 52-Week High on March 08 Session - Equities.comCasella Waste Systems  Shares March Higher, Can It Continue? - Yahoo Finance"
p1
aS"Insider Trading Activity Casella Waste Systems Inc.   CEO Sold ... Market Exclusive - Mar 14, 2017 John W Casella , CEO of Casella Waste Systems Inc.  reportedly Sold 14,000 shares of the company's stock at an average price of 12.58 for a total transaction amount of $176,120.00 SEC Form.John W. Casella Sells 14000 Shares of Casella Waste Systems Inc.  Stock - Chaffey BreezeThe John W. Casella Sells 14000 Shares of Casella Waste Systems Inc.  Stock - Petro Global News 24"
p2
aS"Moody's upgrades Casella Waste's CFR to B2; stable outlook Moodys.com   - Sep 26, 2016 New York, September 26, 2016 -- Moody's Investor Services  upgraded Casella Waste Systems, Inc.'s  Corporate Family Rating  to B2 from B3 and the Probability of Default Rating to B2-PD from B3-PD."
p3
aS"BRIEF-Casella Waste Systems remarketed $25 mln aggregate amount finance ... Reuters - Feb 7, 2017 TOKYO, Feb 8 Japanese investors dumped U.S. and French bonds in December, government data showed on Wednesday, as the post-U.S. election global bond sell-off prompted market participants to unwind aggressive holdings of these two countries' debt."
p4
aS"Moody's assigns Caa1 to Casella's Finance Authority of Maine Solid Waste ... Moodys.com   - Jan 13, 2017 Casella Waste Systems, Inc.'s  B2 Corporate Family Rating  reflects an improving but still elevated leverage position , weak EBIT-to-interest coverage  and modest scale with a regional focus."
p5
aS"Casella Waste Stock: 3 Reasons Why CWST Is a Top Choice for Momentum Investors Yahoo Finance - Mar 9, 2017 This method discovered several great candidates for momentum-oriented investors, but today let's focus in on Casella Waste Systems, Inc. CWST as this stock is looking especially impressive right now. And while there are numerous ways in which this&nbsp;..."
p6
aS'Why Casella Waste Systems Shares Fell nearly 12% in December Motley Fool - Jan 10, 2016 What? Casella Waste Systems  watched as its shares sank 11.7% last month. At first blush that sounds ominous, especially since the shares of larger competitors Waste Management  and Republic Services  barely&nbsp;...'
p7
aS'Casella Waste Systems Being Pushed By Activists To Sell The Company ... Seeking Alpha - Oct 30, 2015 Casella Waste Systems  is a vertically-integrated solid waste, recycling, and resource management company. They operate in six states: Vermont, New Hampshire, New York, Massachusetts, Maine, and Pennsylvania. JCP Investment&nbsp;...'
p8
aS'The Zacks Analyst Blog Highlights: Atkore International Group, John Bean ... Yahoo Finance - 19 hours ago Stocks recently featured in the blog include Atkore International Group Inc. , John Bean Technologies Corporation , Casella Waste Systems, Inc.  and Century&nbsp;...'
p9
aS"Casella Waste: Still An Activist Battle Seeking Alpha - Sep 22, 2015 JCP Investment owns just over 5% of Casella Waste . A few months ago, the ... We covered CWST back in April, noting that the big part of change at the company will have to come from corporate governance overhaul. Beyond that, there's&nbsp;..."
p10
a.