(lp0
S"China XD Plastics Announces Receipt of Preliminary Non-Binding &quot;Going Private ... PR Newswire  - Feb 17, 2017 HARBIN, China, Feb. 17, 2017 /PRNewswire/ -- China XD Plastics Company Limited  , one of China's specialty chemical players engaged in the development, manufacture and sale of modified plastics&nbsp;...Stock Returns: China XD Plastics Company Ltd.  versus Modine ... - CML NewsWould You Buy China XD Plastics Company Limited  On These Analyst Ratings? - Fiscal Standard"
p1
aS"Specialty Chemicals Company China XD Plastics Schedules Fourth Quarter and ... Yahoo Finance - Mar 8, 2017 HARBIN, China, March 8, 2017 /PRNewswire/ -- China XD Plastics Company Limited  , one of China's leading specialty chemical producers engaged in the development, manufacture and sale of polymer&nbsp;..."
p2
aS"Specialty Chemical Company China XD Plastics Announces Results of 2016 Annual ... PR Newswire  - Dec 5, 2016 HARBIN, China, Dec. 5, 2016 /PRNewswire/ -- China XD Plastics Company Limited  , one of China's leading specialty chemical companies engaged in the development, manufacture and sale of&nbsp;..."
p3
aS"China XD Plastics Announces that Subsidiary Xinda Holding  Company Limited ... PR Newswire  - Aug 29, 2016 HARBIN, China, Aug. 29, 2016 /PRNewswire/ -- China XD Plastics Company Limited  , one of China's specialty chemical players engaged in the development, manufacture and sale of modified plastics primarily for&nbsp;..."
p4
aS"China XD Plastics to delist from NASDAQ; firm's chairman, Morgan Stanley PE ... DEALSTREETASIA - Feb 20, 2017 China XD Plastics Company Ltd - a specialty chemical player that makes modified plastics for automotive applications - is delisting the company from the NASDAQ."
p5
aS'China XD Plastics Company Ltd.  investors have generally bought the ... Post Analyst - 4 hours ago China XD Plastics Company Ltd.  is trading down on a volume of 0.01 million, or 0.33 times its standard daily volume.The China XD Plastics Co Ltd  Scheduled to Post Earnings on Thursday - Petro Global News 24Broker Outlook For The Week Ahead China XD Plastics Company Limited  - Fiscal Standard'
p6
aS"Why China XD Plastics Co. Ltd. Shares Popped Motley Fool - May 19, 2014 Although we don't believe in timing the market or panicking over market movements, we do like to keep an eye on big changes -- just in case they're material to our investing thesis."
p7
aS'China XD to invest 2.2 billion yuan in bioplastics project Plastics News - Dec 16, 2016 Compounder China XD Plastics Co. Ltd. has signed an agreement to build capacity for 300,000 metric tons of bioplastics as well as 3-D printing materials.'
p8
aS"China XD Plastics Announces Strategic Cooperation Agreement in Additive ... PR Newswire  - Dec 11, 2015 11, 2015 /PRNewswire/ -- China XD Plastics Company Limited , one of China's leading specialty chemical companies engaged in the development, manufacture and sale of polymer composite&nbsp;..."
p9
aS'China XD Plastics Co Ltd  Jumps 5.93% For the Week Business Review - 16 hours ago Pushing higher over the last five sessions are shares of China XD Plastics Co Ltd . The stock has risen 5.93% over that span, yielding profits for savvy traders.'
p10
a.