(lp0
S'Columbia Property Trust  Agrees to Purchase 149 Madison Avenue in ... StreetInsider.com - Mar 9, 2017 Columbia Property Trust, Inc.  has reached an agreement to purchase 149 Madison Avenue, a 127,000-square-foot office building in Manhattan, from a private family owner.Forward Earnings Estimate on Columbia Property Trust, Inc. - Money Flow Index & TrendsAnalyst Hints Surrounding Columbia Property Trust, Inc.  - Post Analyst'
p1
aS'Common Share Dividend Yield of Columbia Property Trust, Inc.  Energy Index - 17 hours ago The dividend growth rate of Columbia Property Trust calculated based on 20 historical quarterly dividends is 20.06% while the R-Squared dividend growth rate regression is 0.21.Columbia Property Trust Grows Footprint in NYC - Commercial Property ExecutiveTrading Overview of Stock: Columbia Property Trust, Inc.  - Is stories'
p2
aS'Columbia Property Trust, Inc.  Ex-Dividend Date Scheduled for February 27 ... Nasdaq - Feb 24, 2017 Columbia Property Trust, Inc.  will begin trading ex-dividend on February 27, 2017. A cash dividend payment of $0.2 per share is scheduled to be paid on March 15, 2017.Columbia Property Trust Inc.  Moves Lower on Volume Spike for February 28 - Equities.comStock Returns: Highwoods Properties Inc  is Beating Columbia ... - CML News'
p3
aS'Ex-Dividend Reminder: Kearny Financial, Columbia Property Trust and NBT Bancorp Nasdaq - Feb 23, 2017 Looking at the universe of stocks we cover at Dividend Channel , on 2/27/17, Kearny Financial Corp , Columbia Property Trust Inc , and NBT Bancorp. Inc.  will all trade ex-dividend for their respective upcoming&nbsp;...'
p4
aS'Columbia Property Trust to buy land beneath 149 Madison The Real Deal Magazine - Mar 8, 2017 Columbia Property Trust is in contract to acquire the land beneath 147-149 Madison Avenue for nearly $88 million, sources told The Real Deal.'
p5
aS'BRIEF-Columbia Property Trust to expand presence in New York Reuters - Mar 9, 2017 BRIEF-Columbia Property Trust to expand presence in New York ... expand presence in New York with acquisition in Midtown South.'
p6
aS'Columbia Property Trust Sells Houston Buildings For $272M Law360  - Jan 9, 2017 Law360, Los Angeles  -- Columbia Property Trust Inc. has sold three office properties in Houston that have a combined 1.2 million square feet to Spear Street Capital LLC for $272 million, according to an announcement on&nbsp;...Columbia Property Trust Sells Houston Portfolio to Spear Street Capital for ... - Business Wire Columbia Property Trust Exits Houston - Commercial Property Executive'
p7
aS"BRIEF-Columbia Property Trust sells Cleveland's key center for $267.5 mln Reuters - Oct 3, 2016 BRIEF-Columbia Property Trust sells Cleveland's key center for $267.5 mln. Jan 31 Columbia Property Trust Inc -. * Columbia Property Trust sells Cleveland's key center for $267.5 million."
p8
aS'Columbia Property Trust Reports Fourth Quarter 2016 Results Yahoo Finance - Feb 9, 2017 In the fourth quarter of 2016, the Company continued its non-core disposition program, exiting the Dallas, Denver, and Phoenix markets, resulting in total dispositions of $660.5 million in 2016.'
p9
aS'Columbia Property Trust Sells Office Buildings in Dallas and Phoenix for $109 ... Business Wire  - Dec 15, 2016 ATLANTA &amp; DALLAS &amp; PHOENIX----Columbia Property Trust, Inc.  today announced that it has exited the Dallas and Phoenix markets with the recent sales of two office properties: CVS Health Tower, a Class-A office building&nbsp;...SanTan Corporate Center sells for $58.5 million - AZ Big Media'
p10
a.