(lp0
S'Stock Returns: CoreCivic Inc  versus Outfront Media Inc  CML News - 18 hours ago This is a snapshot to compare the stock returns for CoreCivic Inc  versus Outfront Media Inc  . The stock return points we compare look at the last three-months, six-months and twelve-months.Corecivic Inc  EVP Harley G. Lappin Sells 9000 Shares - The Cerbat GemThe Corecivic Inc  EVP Kim White Sells 8000 Shares of Stock - Petro Global News 24'
p1
aS'Insider Trading Activity Corecivic Inc   Director Sold 12331 shares ... Market Exclusive - Mar 4, 2017 CoreCivic, Inc., formerly Corrections Corporation of America, is a real estate investment trust . The Company is a diversified government solutions company.'
p2
aS'Fmr LLC Raises Position in Corecivic Inc  Chaffey Breeze - 20 hours ago Corecivic logo Fmr LLC boosted its stake in shares of Corecivic Inc  by 332.7% during the fourth quarter, according to its most recent Form 13F filing with the Securities and Exchange Commission .Corecivic Inc  EVP Sells $256080.00 in Stock - The Cerbat GemStock Price of CoreCivic, Inc.  Decreases -7.52% - Energy Index'
p3
aS'The Geo Group Inc , Corecivic Inc  Up on Sessions Memo Investorplace.com - Feb 23, 2017 Private-prison stocks The Geo Group Inc  and Corecivic Inc  were up in after-hours trade amid a report that Attorney General Jeff Sessions has reversed course on an Obama administration plan to phase out federal use of private&nbsp;...The Best Trump Stock - Seeking AlphaCorecivic Inc  Earns Market Perform Rating from Wells Fargo &amp; Company - The Cerbat Gem'
p4
aS'CoreCivic: Start With Warren Buffett And End With Peter Lynch Seeking Alpha - Mar 7, 2017 Private-prison operating REIT CoreCivic  appeared in the Buffett-inspired screen I introduced last week. Though it meets the letter of the law, I have to say I think it misses the spirit of the law.'
p5
aS'Taking a Closer Look at Shares of CoreCivic, Inc.  Sherwood Daily - 11 hours ago CoreCivic, Inc.  has a current Value Composite Score of 27. Using a scale from 0 to 100, a lower score would represent an undervalued company and a higher score would indicate an expensive or overvalued company.'
p6
aS'Why Deutsche Bank Prefers CoreCivic Over GEO Group Benzinga - Feb 22, 2017 In a note released Tuesday, Deutsche Bank said it prefers Corecivic Inc  over The GEO Group Inc , going by the exposure each of these has to the Immigration and Customs Enforcement, or ICE.'
p7
aS"CoreCivic, Inc.  Files An 8-K Other Events Market Exclusive - Feb 24, 2017 As a result of recent changes in applicable tax law, CoreCivic, Inc.  is superseding and replacing  the discussion under the heading United States Federal Income Tax Considerations in Exhibit 99.1 to the Company's Current Report on&nbsp;..."
p8
aS"Digging Up the Facts on CoreCivic, Inc.  StockNewsJournal - Mar 3, 2017 CoreCivic, Inc.  is an interesting player in the Financial space, with a focus on REIT - Diversified. The stock has been active on the tape, currently trading at $33.92, down from yesterday's close by -1.25%.Sell-Side Analyst's Predictions: CoreCivic, Inc. , KBR, Inc.  - The USA CommerceNumeric Investors LLC Acquires New Position in Corecivic Inc  - Sports Perspectives"
p9
aS'CoreCivic Reaches Analyst Target Price Nasdaq - Feb 27, 2017 In recent trading, shares of CoreCivic Inc  have crossed above the average analyst 12-month target price of $34.33, changing hands for $35.03/share.'
p10
a.