(lp0
S'Dime Community Bank Opens New Full-Service Branch in Park Slope, Brooklyn GlobeNewswire  - Feb 16, 2017 BROOKLYN, N.Y., Feb. 16, 2017  -- Dime Community Bank , subsidiary of Dime Community Bancshares, Inc.  , announced today that it has opened a new branch in the Park Slope&nbsp;...'
p1
aS'Dime Community Bancshares Inc.  Moves Lower on Volume Spike for February 20 Equities.com - Feb 20, 2017 Dime Community Bancshares Inc.  traded on unusually high volume on Feb. 20, as the stock lost 0.23% to close at $21.70.Russell Investments Group Ltd. Acquires New Stake in Dime Community Bancshares ... - Community Financial News'
p2
aS"Dime Community Bancshares, Inc. Announces the Retirement of Chief Retail ... Marketwired  - Apr 15, 2016 BROOKLYN, NY-- - Dime Community Bancshares, Inc.  , the parent company of The Dime Savings Banks of Williamsburgh , today announced that the bank's Executive&nbsp;..."
p3
aS'Dime Community Bancshares, Inc. Announces the Retirement of President Michael ... Marketwired  - Oct 20, 2015 BROOKLYN, NY-- - Dime Community Bancshares, Inc.  , the parent company of The Dime Savings Banks of Williamsburgh , today announced that its Vice Chairman&nbsp;...'
p4
aS'Stock Returns: Dime Community Bancshares Inc  versus United ... CML News - Mar 14, 2017 This is a snapshot to compare the stock returns for Dime Community Bancshares Inc  versus United Financial Bancorp Inc  .Benchmark Electronics, Inc.  Reaches $31.55 After 3.00% Up Move; Dime ... - HuronReportGSA Capital Partners LLP Has $646000 Stake in Dime Community Bancshares, Inc ... - BNB Daily '
p5
aS'Dime Community Bancshares MarketWatch - Apr 18, 2011 11:45 a.m. Dec. 6, 2016. - InvestorPlace.com. How Dime Community  Stock Stands Out in a Strong Industry. 12:08 p.m. Dec. 1, 2016.'
p6
aS'2017 Dime McCarren 5K Run to Take Place on May 6, 2017 GlobeNewswire  - Mar 1, 2017 BROOKLYN, N.Y., March 01, 2017  -- Dime Community Bank  along with St. Nicks Alliance, and New York City Runs Inc. , jointly announced today that the 2017 Dime McCarren 5K Run will take place on Saturday,&nbsp;...'
p7
aS'Stock Returns: Dime Community Bancshares Inc  versus TrustCo Bank ... CML News - Feb 22, 2017 This is a snapshot to compare the stock returns for Dime Community Bancshares Inc  versus TrustCo Bank Corp NY  .'
p8
aS'Stock Returns: Dime Community Bancshares Inc  versus Territorial ... CML News - Feb 18, 2017 This is a snapshot to compare the stock returns for Dime Community Bancshares Inc  versus Territorial Bancorp Inc  .Would You Buy Dime Community Bancshares, Inc.  On These Analyst ... - Fiscal StandardDime Community Bancshares, Inc.  Specifies Dividend Payout At $0.14 - Equities Focus'
p9
aS'Stock Returns: Dime Community Bancshares Inc  versus Meridian ... CML News - Feb 28, 2017 This is a snapshot to compare the stock returns for Dime Community Bancshares Inc  versus Meridian Bancorp Inc  .'
p10
a.