(lp0
S'Automotive-Compliant Dual MOSFETs from Diodes Incorporated Minimize Power ... Business Wire  - Mar 13, 2017 PLANO, Texas----Diodes Incorporated , a leading global manufacturer and supplier of high-quality application specific standard products within the broad discrete, logic, analog and mixed-signal semiconductor markets,&nbsp;...Automotive-compliant 40V/60V dual MOSFETs - Electronics EETimes '
p1
aS'Diodes Incorporated  Moves Lower on Volume Spike for March 15 Equities.com - 11 hours ago Diodes Incorporated  traded on unusually high volume on Mar. 15, as the stock lost 0.04% to close at $24.22. On the day, Diodes Incorporated saw 243,225 shares trade hands on 2,658 trades. Considering that the stock averages only a daily volume ...Industry-First 1800W Auto-Compliant Transient Voltage Suppressor Launched by ... - Business Wire '
p2
aS'Ultra-Low-Current LDO from Diodes Incorporated Handles Loads up to 150mA with ... Business Wire  - Mar 9, 2017 PLANO, Texas----Diodes Incorporated , a leading global manufacturer and supplier of high-quality application specific standard products within the broad discrete, logic, analog and mixed-signal semiconductor markets,&nbsp;...'
p3
aS"Diodes Incorporated Announces Production Delay at Lee's Summit Wafer Fab Business Wire  - Dec 6, 2016 PLANO, Texas----Diodes Incorporated , a leading global manufacturer and supplier of high-quality application specific standard products within the broad discrete, logic, analog and mixed-signal semiconductor markets,&nbsp;...DIODES INCORPORATED  Files An 8-K Regulation FD Disclosure - Market Exclusive"
p4
aS"World's First Automotive AEC-Q100 Grade 3 Packet Switches Introduced by Diodes ... Business Wire  - Mar 14, 2017 NUREMBERG, Germany----Diodes Incorporated , a leading global manufacturer and supplier of high-quality application specific standard products within the broad discrete, logic, analog and mixed-signal semiconductor&nbsp;...Embedded World 2017 - Automotive AEC-Q100 Grade 3 packet switches - New Electronics"
p5
aS'Diodes Incorporated Reports Fourth Quarter and Fiscal 2016 Financial Results Yahoo Finance - Feb 14, 2017 Diodes Incorporated , a leading global manufacturer and supplier of high-quality application specific standard products within the broad discrete, logic, analog and mixed-signal semiconductor markets, today reported its financial results for the ...Diodes Incorporated  Moves Lower on Volume Spike for February 14 - Equities.comIs Diodes Incorporated  A Financially Sound Company? - Simply Wall St'
p6
aS'embedded world 2017: Diodes Incorporated unveils new automotive-compliant ... Embedded Computing Design - Feb 16, 2017 Nuremberg, Germany. At Embedded World 2017 in Nuremberg, Germany, Diodes Incorporated will introduce several new automotive-compliant products, including unidirectional 1800W transient voltage suppressors ; 40V and 60V dual, co-packaged&nbsp;...'
p7
aS'Diodes Incorporated to Present at the ROTH Conference on March 14 Business Wire  - Feb 23, 2017 PLANO, Texas----Diodes Incorporated , a leading global manufacturer and supplier of high-quality application-specific standard products within the broad discrete, logic, analog, and mixed-signal semiconductor markets,&nbsp;...Diodes Incorporated  Sales Estimates At $1050.154 - Investor NewswireDiodes Incorporated  Reviewed By Analysts - The De Soto Edge'
p8
aS"Diodes Incorporated's Power Switcher with HV Transistor Improves Efficiency of ... Business Wire  - Feb 21, 2017 PLANO, Texas----Diodes Incorporated , a leading global manufacturer and supplier of high-quality application specific standard products within the broad discrete, logic, analog and mixed-signal semiconductor markets,&nbsp;...Diodes Incorporated  Moves Lower on Volume Spike for February 20 - Equities.com"
p9
aS'Diodes Incorporated to Announce Fourth Quarter and Fiscal 2016 Financial ... Business Wire  - Jan 19, 2017 PLANO, Texas----Diodes Incorporated , a leading global manufacturer and supplier of high-quality application-specific standard products within the broad discrete, logic, analog, and mixed-signal semiconductor markets, will&nbsp;...'
p10
a.