(lp0
S'Deluxe Corporation KSHB - Mar 9, 2017 100 years ago, W.R. Hotchkiss invented a little product that changed banking: the checkbook. With a big idea and plenty of dedication, he took a $300 loan and founded Deluxe Corporation. That humble beginning turned into a century of helping consumers,&nbsp;...'
p1
aS'Deluxe Corp.  Names Keith A. Bush as CFO StreetInsider.com - Mar 13, 2017 Deluxe Corporation , a growth engine for small businesses and financial institutions, today announced the appointment of Keith A. Bush, 46, as Chief Financial Officer, effective March 31, 2017.'
p2
aS"Deluxe Corporation's Fierce Competitors Will Hold 'Em Down Seeking Alpha - Feb 8, 2017 DLX has been on an incredible tear, rocketing from a low of $10 per share in 2010 to today's $73.47. I think Mr. Market has gone a bit manic - buyers have pushed this stock's price too high."
p3
aS"Deluxe Corporation's Transition From Checks To Small Businesses Seeking Alpha - Jan 30, 2017 Deluxe Corporation  began providing customers with payment solutions over 100 years ago. Today, it finds itself in a unique position as it attempts to pivot its business model and evolve to continue meeting customers' needs."
p4
aS'Deluxe Corporation  Ex-Dividend Date Scheduled for February 16, 2017 Nasdaq - Feb 15, 2017 Deluxe Corporation  will begin trading ex-dividend on February 16, 2017. A cash dividend payment of $0.3 per share is scheduled to be paid on March 06, 2017.Deluxe Corporation  To Go Ex-Dividend on February 16th - Chaffey Breeze'
p5
aS"Deluxe Corp. launches web series to highlight its evolution to a small ... Minneapolis Star Tribune - Oct 2, 2016 Don't think corporate video, think storytelling that emphasizes Deluxe. Last year, the company ran a contest that awarded $500,000 in products and services to the small businesses of one small town in America."
p6
aS"Bristol Borough, Pennsylvania Wins $500000 Revitalization in Deluxe ... Yahoo Finance - Feb 22, 2017 Today, Deluxe Corporation announced Bristol Borough, Pennsylvania the winner of season two of the Small Business Revolution - Main Street project.Red Wing To Soon Know Fate In Nat'l Small Business Competition - CBS Local"
p7
aS"Analyst Upside Underscores Impressive Growth for Deluxe Corporation  Aiken Advocate - 8 hours ago Shaers of Deluxe Corporation  have been recommended as a long term growth pick. With the firm's stock price currently trading around $74.72, the firm has proven a solid track record of growth over the recent years."
p8
aS"Company Profile for Deluxe Corporation Business Wire  - Feb 22, 2017 ----Deluxe is a growth engine for small businesses and financial institutions. 4.4 million small business customers utilize Deluxe's service and product solutions, including website development and hosting, email marketing, social media,&nbsp;..."
p9
aS'Deluxe Corporation Appoints Ed Merritt Interim Chief Financial Officer Business Wire  - Aug 29, 2016 ST. PAUL, Minn.----Deluxe Corporation  announced today that Edward A. Merritt, 49, will assume the role of Chief Financial Officer on an interim basis, effective upon the departure of Terry Peterson, who has resigned to take a&nbsp;...'
p10
a.