(lp0
S'DSP Group Inc.  Soars 7.84% on March 15 Equities.com - 11 hours ago DSP Group Inc.  had a good day on the market for Wednesday March 15 as shares jumped 7.84% to close at $11.00. About 161,885 shares traded hands on 1,062 trades for the day, compared with an average daily volume of 74,362 shares out of a&nbsp;...DSP Group, Inc.  Reaches $11.15 After 5.00% Up Move, PS Business Parks ... - HuronReportThe Martingale Asset Management LP Holds Stake in DSP Group, Inc.  - Petro Global News 24'
p1
aS'DSP Group Inc. MarketWatch - Mar 29, 2011 DSP Group Inc. NASDAQ: DSPG. GO. Set Alerts &middot; Find a Broker &middot; Join TD Ameritrade &middot; Market Index &middot; Overview Profile News Charts Financials Historical Quotes Analyst Estimates Options SEC Filings Insiders.'
p2
aS'STMicroelectronics, DSP Group, and Sensory Create Keyword-Smart Microphone for ... GlobeNewswire  - Feb 27, 2017 BARCELONA, Spain, Feb. 27, 2017  -- STMicroelectronics , a global semiconductor leader serving customers across the spectrum of electronics applications and a top MEMS supplier, DSP Group Inc. ,&nbsp;...The Oxford Asset Management Boosts Position in DSP Group, Inc.  - DailyQuint'
p3
aS'DSP Group Inc.  Moves Lower on Volume Spike for February 14 Equities.com - Feb 14, 2017 DSP Group Inc.  traded on unusually high volume on Feb. 14, as the stock lost 0.49% to close at $10.20. On the day, DSP Group Inc. saw 181,665 shares trade hands on 733 trades. Considering that the stock averages only a daily volume of 78,308&nbsp;...'
p4
aS'DSP Group, Inc. Reports First Quarter 2016 Results GlobeNewswire  - Apr 27, 2016 LOS ALTOS, Calif., April 27, 2016  -- DSP Group, Inc. , a leading global provider of wireless chipset solutions for converged communications, announced today its results for the first quarter ended March 31, 2016.'
p5
aS'DSP Group and Sercomm Announce New Series of ULE IoT Smart Home Sensors GlobeNewswire  - Sep 1, 2016 BERLIN, Sept. 01, 2016  -- DSP Group, Inc. , a leading global provider of wireless chipset solutions for converged communications, and Sercomm Corporation, a leading manufacturer of telecom and broadband&nbsp;...'
p6
aS'DSP Group Inc Risk Points versus Technology CML News - Feb 24, 2017 This is a scatter plot analysis of the critical risk points from the option market for DSP Group Inc  compared to its own past and the Technology ETF.'
p7
aS"Option Market: DSP Group Inc Risk Hits An Elevated Level CML News - Feb 21, 2017 We're going to look at a proprietary risk rating for the next 30-days built by Capital Market Laboratories  based on a large number of interactions of data points, many of which come directly from the option market for DSP Group Inc  ."
p8
aS'DSP Group jumps on high volume Samsung deal Globes - Jan 13, 2016 The DSP Group Inc.  share jumped 11.6% on Nasdaq yesterday to a price reflecting a NIS 215 million market cap, after the company announced that it had won a substantial contract in the cellular market to supply large quantities of its&nbsp;...'
p9
aS'A New Kind of Stock Chart: DSP Group Inc  Critical Pivot Points CML News - Feb 14, 2017 This is a real time view of the critical technical pivot points for DSP Group Inc  . The technical pivot points we look at all surround the stock price movement from the last 10-trading days through the last year.'
p10
a.