(lp0
S'EQUITY ALERT: Rosen Law Firm Announces Filing of Securities Class Action ... Yahoo Finance - Feb 2, 2017 27, 2017  -- Rosen Law Firm, a global investor rights law firm, announces the filing of a class action lawsuit on behalf of purchasers of DaVita Inc. securities  from August 5, 2015 through October 21, 2016, inclusive (the Class&nbsp;...'
p1
aS'Honor World Kidney Day with DaVita PR Newswire  - Mar 9, 2017 ATLANTA, March 9, 2017 /PRNewswire/ -- DaVita Kidney Care, a division of DaVita Inc.  and a leading provider of kidney care services in the United States, today supports World Kidney Day by asking people to take a short risk quiz to help&nbsp;...Connect with Your Kidneys: DaVita Kicks Off National Kidney Month - The San Bernardino American News'
p2
aS'SHAREHOLDER REMINDER: Deadline in Class Action Lawsuit Filed Against DaVita ... Yahoo Finance - Mar 14, 2017 RADNOR, PA / ACCESSWIRE / March 14, 2017 / The law firm of Kessler Topaz Meltzer &amp; Check, LLP reminds DaVita Inc.   shareholders that a class action lawsuit has been filed against DaVita on behalf of purchasers of the&nbsp;...'
p3
aS"DaVita Inc. 4th Quarter 2016 Results PR Newswire  - Feb 16, 2017 The Company's adjusted net income attributable to DaVita Inc., adjusted diluted net income per share, adjusted operating income, adjusted effective income tax rate attributable to DaVita Inc. and free cash flow discussed above and below (collectively ...After successful 2016, DaVita predicts income drop in 2017 - Denver Business JournalUPDATE 1-Dialysis service provider DaVita's profit beats estimates - Reuters"
p4
aS'DVA ALERT: Rosen Law Firm Reminds DaVita Inc. Investors of Important Deadline ... Yahoo Finance - Mar 13, 2017 NEW YORK, March 13, 2017  -- Rosen Law Firm, a global investor rights law firm, reminds purchasers of DaVita Inc. securities  from August 5, 2015 through October 21, 2016, inclusive  of the important April 3,&nbsp;...'
p5
aS'DaVita Appoints Chief Medical Officer for Integrated Kidney Care PR Newswire  - Feb 23, 2017 DENVER, Feb. 23, 2017 /PRNewswire/ -- DaVita Inc. , a leading independent medical group in America and leading provider of kidney care services, has selected Bryan Becker, M.D.'
p6
aS'SHAREHOLDER ALERT: Levi &amp; Korsinsky, LLP Reminds Shareholders of DaVita Inc ... GlobeNewswire  - Feb 17, 2017 To: All persons or entities who purchased or otherwise acquired securities of DaVita Inc.   between August 5, 2015 and October 21, 2016.'
p7
aS'DaVita Inc Realized Volatility Hits A Plunging Low CML News - 15 hours ago This is a proprietary realized volatility rating created by Capital Market Laboratories  based on a large number of data interactions for DaVita Inc  . We examine the little used gem of daily stock volatility over a 20-day and 30-day ...'
p8
aS'INVESTOR ALERT: Levi &amp; Korsinsky, LLP Reminds Shareholders of DaVita Inc. of a ... Yahoo Finance - Mar 3, 2017 To: All persons or entities who purchased or otherwise acquired securities of DaVita Inc.   between August 5, 2015 and October 21, 2016.'
p9
aS"Why Investors remained confident on T. Rowe Price Group, Inc. , DaVita ... StockNewsJournal - 21 hours ago DaVita Inc. , maintained return on investment for the last twelve months at 6.91, higher than what Reuters data shows regarding industry's average."
p10
a.