(lp0
S'The Dynegy Inc.  Lowered to Hold at Zacks Investment Research Petro Global News 24 - 1 hour ago Zacks Investment Research lowered shares of Dynegy Inc.  from a buy rating to a hold rating in a report issued on Monday morning.Dynegy Inc.  Plunges 5.06% on March 13 - Equities.com'
p1
aS"What are Analyst's Indicators for Dynegy Inc. , Brixmor Property Group ... The USA Commerce - 18 hours ago Shares of Dynegy Inc.  dropped -3.20% to $7.26. During the trading on 03/14/2017, Company's stock ranged from $7.11 to $7.52."
p2
aS'BRIEF-Dynegy Inc reports qtrly net loss $180 million Reuters - Feb 23, 2017 NEW YORK, March 6 U.S. Treasury yields held a modest decline on Monday after the three major Wall Street stock indexed open lower, supporting some safehaven demand for low-yielding domestic government debt.'
p3
aS'Lookout for Price Target? Dynegy Inc. , Threshold Pharmaceuticals, Inc ... StockNewsJournal - Mar 14, 2017 Dynegy Inc.  have shown a high EPS growth of 53.20% in the last 5 years and has earnings decline of 75.10% yoy. Analysts have a mean recommendation of 2.20 on this stock (A rating of less than 2 means buy, hold within the 3 range, sell within ...'
p4
aS"What's Acceptable Profitability For Dynegy Inc.  and SunPower Corporation ... USA Commerce Daily - 19 hours ago Shares of Dynegy Inc.  observed rebound of 3.57% since bottoming out at $7.01 on Nov. 02, 2016. Meanwhile, due to an ongoing pressure which caused a decline of almost -6.92% in the past five days, the stock price is now down -14.18% so far&nbsp;..."
p5
aS"Dynegy Inc.  Moves Higher on Volume Spike for February 15 Equities.com - Feb 15, 2017 Dynegy Inc.  traded on unusually high volume on Feb. 15, as the stock gained 7.31% to close at $9.25. On the day, Dynegy Inc. saw 6.31 million shares trade hands on 21,805 trades. Considering that the stock averages only a daily volume of 3.27&nbsp;...Investor's Watch List: Dynegy Inc.  - TopChronicleRevenue Estimates Analysis: Dynegy Inc.  - News Oracle"
p6
aS'Critical Chart Information For Dynegy Inc.  NY Stock News - 21 hours ago The technicals for Dynegy Inc.  have taken shape, and with them a comprehensive picture has emerged. This is the current state of play as presented by the current technical setup.'
p7
aS'Energy Capital Partners is Buying Dynegy Inc.  Shares Small Cap Exclusive  - Feb 17, 2017 For those not familiar with the company, Dynegy Inc. is an electric company based in Houston, Texas, in the United States. It owns and operates a number of power stations in the U.S.Earnings Reaction History of Dynegy Inc.  - FactsReporterDynegy Inc.  Consensus EPS Outlook - TWN'
p8
aS"Today's Brokerage Rating: Dynegy Inc. , Lexicon Pharmaceuticals, Inc.  StockNewsJournal - Mar 8, 2017 Investors who are keeping close eye on the stock of Dynegy Inc.  established that the company was able to keep return on investment at -10.92 in the trailing twelve month while Reuters data showed that industry's average stands at 4.38 and&nbsp;..."
p9
aS'Dynegy Inc.  Rating Increased to Buy at Zacks Investment Research Chaffey Breeze - Mar 9, 2017 Dynegy logo Dynegy Inc.  was upgraded by Zacks Investment Research from a hold rating to a buy rating in a note issued to investors on Wednesday.Dynegy Inc.  Upgraded to Buy at Zacks Investment Research - The Cerbat GemDynegy Inc.  Shows Long Term Growth Rate of 0.106 - TopChronicle'
p10
a.