(lp0
S'Moving Average Crossover Alert: Echo Global Logistics  Nasdaq - Mar 13, 2017 Echo Global Logistics, Inc. ECHO could be a stock to avoid from a technical perspective, as the firm is seeing unfavorable trends on the moving average crossover front.'
p1
aS'Echo Global Logistics reports 4Q loss Yahoo Finance - Feb 8, 2017 CHICAGO  _ Echo Global Logistics Inc.  on Wednesday reported a fourth-quarter loss of $3 million, after reporting a profit in the same period a year earlier.'
p2
aS'Growing at full throttle: Echo Global Logistics a resounding success story The Loadstar - Jul 3, 2015 A board member since February 2008, Mr Waggoner has been chief executive since December 2006, granting operational continuity at a very critical economic juncture and guiding the company through the severest recession the modern logistics industry&nbsp;...'
p3
aS'Echo Global Logistics Inc.  Settles Into New 52-Week Low on March 13 Session Equities.com - Mar 13, 2017 Shares of Echo Global Logistics Inc.  sank into a new 52-week low yesterday, and could be a company to watch at the open.'
p4
aS'Echo Global Logistics Inc.  Moves Lower on Volume Spike for January 31 Equities.com - Jan 31, 2017 Echo Global Logistics Inc.  traded on unusually high volume on Jan. 31, as the stock lost 2.46% to close at $23.75. On the day, Echo Global Logistics Inc. saw 389,896 shares trade hands on 2,454 trades. Considering that the stock averages only a&nbsp;...'
p5
aS'Spruce Point Short Report On Echo Global Logistics, Inc.  ValueWalk - Sep 8, 2016 Spruce Point Capital Management is pleased to announce it has released the contents of a unique short idea involving Echo Global Logistics, Inc. , a billion dollar company in the transportation logistics sector where we see $11.00 - $13 ...'
p6
aS'Echo Global Logistics Inc.  Moves Higher on Volume Spike for February 13 Equities.com - Feb 13, 2017 Echo Global Logistics Inc.  traded on unusually high volume on Feb. 13, as the stock gained 1.06% to close at $23.75.'
p7
aS'Merger powers Echo Global revenue, volume growth JOC.com - Jul 28, 2016 Truckload revenue per load was down 15 percent in the second quarter at Echo Global Logistics, but mergers and acquisitions kept the company in the black overall. The acquisition of Command Transportation last year helped Echo Global Logistics boost&nbsp;...'
p8
aS'BRIEF-Echo Global Logistics reports record 2016 revenue, up 13.5% year over year Reuters - Feb 8, 2017 Feb 8 Echo Global Logistics Inc. * Echo Global Logistics reports record 2016 revenue, up 13.5% year over year. * Q4 loss per share $0.10.'
p9
aS'Echo Global Logistics  Q4 2016 Results - Earnings Call Transcript Seeking Alpha - Feb 9, 2017 Good day, ladies and gentlemen, and welcome to the Echo Global Logistics Fourth Quarter 2016 Earnings Conference Call. At this time, all participants are in a listen-only mode.Echo Global Logistics Reports Record 2016 Revenue, Up 13.5% Year over Year - Marketwired '
p10
a.