(lp0
S'Education Realty Trust Inc.  Moves Higher on Volume Spike for March 15 Equities.com - 11 hours ago Education Realty Trust Inc.  traded on unusually high volume on Mar. 15, as the stock gained 2.31% to close at $39.87.Common Share Dividend Yield of Education Realty Trust Inc.  - Energy IndexEducation Realty Trust, Inc.  VP Lindsey Mackie Purchases 275 Shares of Stock - Chaffey Breeze'
p1
aS'Education Realty Trust Enters Oversold Territory Nasdaq - Mar 11, 2017 But making Education Realty Trust Inc an even more interesting and timely stock to look at, is the fact that in trading on Friday, shares of EDR entered into oversold territory, changing hands as low as $39.06 per share.'
p2
aS'Education Realty Trust Inc.  Moves Lower on Volume Spike for March 13 Equities.com - Mar 13, 2017 Education Realty Trust Inc.  traded on unusually high volume on Mar. 13, as the stock lost 0.08% to close at $38.87. On the day, Education Realty Trust Inc. saw 703,521 shares trade hands on 7,056 trades. Considering that the stock averages only a&nbsp;...Education Realty Trust, Inc.  Files Form 4 Insider Buying : Lindsey ... - Energy IndexEducation Realty Trust, Inc.  VP Buys $10716.75 in Stock - Sports Perspectives'
p3
aS'Education Realty Trust reports 4Q results Yahoo Finance - Feb 21, 2017  -- Education Realty Trust Inc. on Tuesday reported a key measure of profitability in its fourth quarter. The results surpassed Wall Street expectations.Education Realty Trust, Inc.  Receives $47.10 Consensus PT from Analysts - BNB Daily '
p4
aS"Insider Trading Activity Education Realty Trust, Inc.   Chairman ... Market Exclusive - Feb 25, 2017 Randy L Churchey , Chairman of Education Realty Trust, Inc.  reportedly Sold 20,000 shares of the company's stock at an average price of 41.29 for a total transaction amount of $825,800.00 SEC Form.Education Realty Trust Inc. - Receive News &amp; Ratings Daily - BBNSComerica Bank Has $4477000 Position in Education Realty Trust, Inc.  - Community Financial News"
p5
aS"Moody's revises EDR's rating outlook to positive Moodys.com   - Sep 23, 2016 New York, September 23, 2016 -- Moody's Investors Service  affirmed Education Realty Trust, Inc.'s  Ba1 preferred stock shelf rating as well as the Baa3 senior unsecured debt rating and Baa3 senior unsecured shelf rating of&nbsp;..."
p6
aS'Education Realty Trust Inc.  Moves Lower on Volume Spike for March 10 Equities.com - Mar 10, 2017 Education Realty Trust Inc.  traded on unusually high volume on Mar. 10, as the stock lost 1.79% to close at $38.90. On the day, Education Realty Trust Inc. saw 642,376 shares trade hands on 4,322 trades. Considering that the stock averages only a&nbsp;...The Education Realty Trust, Inc.  Rating Increased to Hold at Zacks ... - DailyQuintTeachers Insurance &amp; Annuity Association of America Has $3135000 Stake in ... - Petro Global News 24'
p7
aS'SHAREHOLDER ALERT: Purcell Julie &amp; Lefkowitz LLP Is Investigating Education ... PR Newswire  - Jan 12, 2017 12, 2017 /PRNewswire/ -- Purcell Julie &amp; Lefkowitz LLP, a class action law firm dedicated to representing shareholders nationwide, is investigating a potential breach of fiduciary duty claim involving the board of directors of Education Realty Trust ...'
p8
aS"Trading updates about Stock: Education Realty Trust Inc.  Is stories - 19 hours ago EdR's  witnessed a gain of 0.26% in recent trading period with closing price of $ 38.97. The company's last traded volume of 0.42 million shares as compared to it's an average volume of 0.45 million shares."
p9
aS'Gentex  Touches $21.93 High on Mar, 15; Education Realty Trust (EDR ... Wolcott Daily - 16 hours ago Education Realty Trust, Inc. is a self-managed and self-advised real estate investment trust . The company has market cap of $2.91 billion.'
p10
a.