(lp0
S"Extended interview with Martin Feldstein ABC Online - 23 hours ago Markets have rallied on US President Trump's pledge to splurge a trillion dollars on infrastructure. Martin Feldstein has been the economic advisor to presidents Ronald Reagan, George W Bush and Barack Obama."
p1
aS'Teekay Corporation  and Teekay Offshore Partners  Announce Changes to ... StreetInsider.com - Mar 8, 2017 Mr. Axel Karlshoej, Chairman Emeritus of the Teekay Corporation Board and brother of the founder, Torben Karlshoej, said, &quot;I want to thank Sean for his extraordinary leadership over the past 18 years.'
p2
aS'Baystate Franklin nurses authorize strike The Recorder - 5 hours ago When a corporation is this entrenched, and they are this entrenched, it usually takes them more than one action. Concerned about staffing issues, the nurses union has cited 128 text messages from one medical unit requesting nurses to come in and work&nbsp;...'
p3
aS'Chemical Financial Corporation  to Ring The Nasdaq Stock Market ... GlobeNewswire  - Mar 13, 2017 Chemical Financial Corporation , the largest banking company headquartered and operating branch offices in Michigan, will visit the Nasdaq MarketSite in Times Square in celebration of its 100 year anniversary.'
p4
aS"716 institutional investors are raising stakes in McDonald's Corporation  Post Analyst - Mar 14, 2017 Chairman Emeritus, MCKENNA ANDREW J, sold 30,000 common shares of McDonald's Corporation  in the open market."
p5
aS"Bowdoin College Announces 2017 Honorary Degree Recipients Bowdoin News - Mar 8, 2017 Pulitzer Prize-winning author Anthony E. Doerr '95; Harry Pratt Judson Distinguished Service Professor Emeritus of History and president emeritus, University of Chicago, Hanna Holborn Gray; Immigrant Resource Center of Maine founder and executive ..."
p6
aS'Chesapeake Insider Archie Dunham Buys 500K Shares At $5.24 Seeking Alpha - Mar 10, 2017 Yesterday, Chesapeake Energy  filed a Form 4 showing that Archie Dunham, Chairman of the board emeritus bought 500K shares of stock ranging in price from $5.22 to $5.26.'
p7
aS"McDonald's Corporation  held by 215 SEC 13F Filers Post Analyst - Mar 3, 2017 The company's shares were given away at $113.48 per share worth to an income of some $3,404,400 on account of MCKENNA ANDREW J. Chairman Emeritus, MCKENNA ANDREW J, sold 70,000 common shares of McDonald's Corporation  in the&nbsp;..."
p8
aS'Mayo Clinic Board Recognizes Retiring Members, Elects New Members Newswise  - Feb 17, 2017 Newswise - PHOENIX - The Mayo Clinic board of trustees recognized three retiring members as emeritus trustees, elected and announced new members and re-elected members at its board meeting today.'
p9
aS"Making a Goal Line Stand for Legal Aid  Bloomberg Big Law Business - 12 hours ago eliminating the Legal Services Corporation will not only imperil the ability of civil legal aid organizations to serve Americans in need, it will also vastly diminish the private bar's capacity to help these individuals."
p10
a.