(lp0
S'ESCO Technologies Inc.  Plunges 7.93% on February 08 Equities.com - Feb 8, 2017 ESCO Technologies Inc.  had a rough trading day for Wednesday February 08 as shares tumbled 7.93%, or a loss of $-4.55 per share, to close at $52.85.ESCO Technologies Inc.  Issues Earnings Results - Sports Perspectives'
p1
aS'ESCO Technologies Inc : Can the high growth still justify its March share ... Simply Wall St - Mar 4, 2017 Growth expectations for ESCO Technologies Inc  are high, but many investors are starting to ask whether its last close at $54.7 can still be rationalized by the future potential.Larry W. Solley Sells 3600 Shares of ESCO Technologies Inc.  Stock - The Cerbat GemESCO Technologies Inc.  Stake Raised by Martingale Asset Management LP - Community Financial News'
p2
aS'ESCO Technologies Inc Realized Volatility Hits An Unsually High Level CML News - Mar 14, 2017 This is a proprietary realized volatility rating created by Capital Market Laboratories  based on a large number of data interactions for ESCO Technologies Inc  . We examine the little used gem of daily stock volatility over a 20-day ...'
p3
aS"Insider Trading Activity ESCO Technologies Inc.   Director Sold ... Market Exclusive - Mar 1, 2017 Larry W Solley , Director of ESCO Technologies Inc.  reportedly Sold 3,600 shares of the company's stock at an average price of 54.76 for a total transaction amount of $197,136.00 SEC Form.A Director at Esco Technologies Inc  is Selling Shares - Analyst Ratings"
p4
aS'ESCO Technologies  Acquires Mayday Manufacturing, Hi-Tech Metals StreetInsider.com - Nov 7, 2016 ESCO Technologies Inc.  announced that it has acquired Mayday Manufacturing Co.  and its affiliate, Hi-Tech Metals, Inc. .'
p5
aS'ESCO Technologies  Buys Westland Technologies StreetInsider.com - Sep 6, 2016 ESCO Technologies Inc.  announced that it has acquired Westland Technologies, Inc. , located in Modesto, California.ESCO Announces Acquisition Of Westland Technologies, Inc. - Yahoo FinanceESCO buys California defense contractor - St. Louis Business Journal'
p6
aS'The ESCO Technologies Inc.  Position Held by Public Sector Pension ... Petro Global News 24 - Mar 14, 2017 Public Sector Pension Investment Board continued to hold its stake in ESCO Technologies Inc.  during the fourth quarter, Holdings Channel reports.'
p7
aS'ESCO Technologies Inc.  Broker Price Targets For The Coming Week Fiscal Standard - 10 hours ago Recently analysts working for various investment brokerages have changed their ratings and price targets on shares of ESCO Technologies Inc. . According to the the latest analyst ratings which have been released, 0 brokers have issued a ...'
p8
aS'Stock Returns: ESCO Technologies Inc  is Beating Hyster-Yale ... CML News - Mar 13, 2017 This is a snapshot to compare the stock returns for ESCO Technologies Inc  versus Hyster-Yale Materials Handling Inc  .'
p9
aS'Accounts Payable Of ESCO Technologies Inc.  At $42.074 Millions RealistInvestor.com - Mar 13, 2017 ESCO Technologies Inc.  reported accounts payable of $42.074 millions for the year ended 2016-09-30. For the quarter ended 2016-09-30 it was $42.074 millions.'
p10
a.