(lp0
S'First Citizens BancShares, Inc.  Ex-Dividend Date Scheduled for March ... Nasdaq - 20 hours ago First Citizens BancShares, Inc.  will begin trading ex-dividend on March 16, 2017. A cash dividend payment of $0.3 per share is scheduled to be paid on April 04, 2017.'
p1
aS"What You Must Know About First Citizens BancShares Inc's  ROE? Simply Wall St - Mar 13, 2017 First Citizens BancShares Inc  delivered a 7.7% ROE over the past year; however, the figure is only significant when we compare it to returns from assets with similar risk profile: the industry average, which stood at 9.79% in the same ...First Citizens BancShares Inc.  Declares Quarterly Dividend of $0.30 - Chaffey BreezeFirst Citizens BancShares Inc.  to Issue Quarterly Dividend of $0.30 - Petro Global News 24"
p2
aS'First Citizens BancShares, Inc.  Files An 8-K Departure of ... Market Exclusive - Feb 24, 2017 First Citizens BancShares, Inc. is a holding company. The Company invests the liquidity generated from its funding sources in interest-earning assets, including loans and leases, investment securities and overnight investments.'
p3
aS'First Citizens Bank and Cordia Bancorp Inc. Announce Merger Agreement GlobeNewswire  - May 20, 2016 RALEIGH, N.C., and MIDLOTHIAN, Va., May 20, 2016  -- First-Citizens Bank &amp; Trust Company  and Cordia Bancorp Inc. announced today the signing of a definitive merger agreement. Cordia Bancorp&nbsp;...First Citizens Announces Merger Agreement - Greater Wilmington Business Journal'
p4
aS'First Citizens BancShares Completes Merger of Banking Subsidiaries GlobeNewswire  - Jan 2, 2015 1, 2015, First Citizens Bank and Trust Company Inc., based in Columbia, S.C., merged with and into First-Citizens Bank &amp; Trust Company, known as First Citizens Bank, headquartered in Raleigh, N.C.. The combined First Citizens Bank now operates more&nbsp;...'
p5
aS"First Citizens to up its stake in Virginia bank Triangle Business Journal - Jan 12, 2017 Raleigh's First Citizens BancShares , the parent of First Citizens Bank, wants to increase its ownership interest in Carter Bank &amp; Trust, a $4.9 billion bank based in Martinsville, Virginia. It's put up $14 million to boost its stake ..."
p6
aS'First Citizens BancShares, Inc.  to pay $0.30 on Apr 4, 2017, Shorts at ... HuronReport - 22 hours ago First Citizens BancShares, Inc.  is expected to pay $0.30 on Apr 4, 2017. $1.20 is the ADY.  shareholders before Mar 16, 2017 will receive the $0.30 dividend.'
p7
aS'Photo Release -- First Citizens Bank Taps James A. Bennett to Lead Newly ... GlobeNewswire  - Feb 18, 2015 Prior to his current role as area executive for First Citizens Bank, Bennett served as director of public affairs and chief diversity officer for First Citizens Bank and Trust Company, Inc. of South Carolina. In that executive leadership position, he ...First Citizens Bank taps Bennett to lead newly acquired Capitol City Bank division - Atlanta Business Chronicle'
p8
aS'Stock Returns: First Citizens BancShares Inc  versus First ... CML News - Mar 8, 2017 This is a snapshot to compare the stock returns for First Citizens BancShares Inc  versus First Financial Bankshares Inc  .'
p9
aS'First Citizens Bank Purchases Certain Assets, Assumes Certain Liabilities of ... GlobeNewswire  - Feb 13, 2015 RALEIGH, N.C., Feb. 13, 2015  -- First Citizens Bank, a subsidiary of Raleigh-headquartered First Citizens BancShares, Inc. , announced today that it has entered into an agreement with the Federal Deposit Insurance&nbsp;...First Citizens continues acquisition spree in Georgia - Winston-Salem JournalCapitol City Bank branches now operated by First Citizens Bank - The Albany Herald'
p10
a.