(lp0
S'Civista Bancshares, Inc. Announces Completion of Offering of Common Shares PR Newswire  - Feb 24, 2017 SANDUSKY, Ohio, Feb. 24, 2017 /PRNewswire/ -- Civista Bancshares, Inc.   the parent of Civista Bank, announced today announced that it has completed a public offering of 1,610,000 of its common shares at a price of $21.75 per&nbsp;...Insider Trading Activity Civista Bancshares, Inc.   Insider ... - Market Exclusive'
p1
aS"Civista Bancshares, Inc. Announces Pricing of Offering of Common Shares PR Newswire  - Feb 22, 2017 SANDUSKY, Ohio, Feb. 21, 2017 /PRNewswire/ -- Civista Bancshares, Inc.   the parent of Civista Bank, announced today the pricing of an underwritten public offering of 1,400,000 of the Civista's common shares at a price to the&nbsp;...Civista Bancshares, Inc.  Insider Barry W. Boerger Buys 450 Shares of Stock - The Cerbat Gem"
p2
aS'Civista Bancshares, Inc. Announces Commencement of Offering of Common Shares PR Newswire  - Feb 15, 2017 SANDUSKY, Ohio, Feb. 15, 2017 /PRNewswire/ -- Civista Bancshares, Inc.   the parent company of Civista Bank, today announced that it has commenced an underwritten public offering of approximately $30 million of its common&nbsp;...BRIEF-Civista Bancshares announces commencement of offering of common shares - Reuters'
p3
aS'CIVISTA BANCSHARES, INC.  Files An 8-K Entry into a Material ... Market Exclusive - Feb 22, 2017 Civista Bancshares, Inc. is a financial holding company. The Company, through the subsidiary bank, Civista Bank, is primarily engaged in the business of community banking.Insider Buying: Civista Bancshares, Inc.  Insider Buys $10084.50 in Stock - Community Financial NewsStories of the day: T. Rowe Price Group, Inc. , Civista ... - KC Register'
p4
aS"Insider Trading Activity Civista Bancshares, Inc.   Insider ... Market Exclusive - Mar 1, 2017 John A Betts , Insider of Civista Bancshares, Inc.  reportedly Bought 650 shares of the company's stock at an average price of 22.5 for a total transaction amount of $14,625.00 SEC Form.The Civista Bancshares, Inc.  Director Dennis E. Murray, Jr. Purchases ... - DailyQuintCivista Bancshares, Inc.  Insider Acquires $14625.00 in Stock - Community Financial News"
p5
aS'Stock Returns: Civista Bancshares Inc  is Beating First Northwest ... CML News - Feb 10, 2017 This is a snapshot to compare the stock returns for Civista Bancshares Inc  versus First Northwest Bancorp  .Civista Bancshares, Inc.  earnings reaction history in focus - Post Analyst'
p6
aS'Q2 2017 EPS Estimates for Civista Bancshares, Inc.  Lowered by Analyst BNB Daily  - Mar 4, 2017 Civista Bancshares logo Civista Bancshares, Inc.  - Analysts at Boenning Scattergood lowered their Q2 2017 earnings estimates for Civista Bancshares in a research note issued on Tuesday.'
p7
aS'Stock Returns: Civista Bancshares Inc  is Beating First ... CML News - Mar 6, 2017 This is a snapshot to compare the stock returns for Civista Bancshares Inc  versus First Connecticut Bancorp Inc  .'
p8
aS'Stock Returns: Civista Bancshares Inc  is Beating Ames National ... CML News - Mar 12, 2017 This is a snapshot to compare the stock returns for Ames National Corporation  versus Civista Bancshares Inc  .Civista Bancshares Inc.  Receives Consensus Recommendation of Buy from ... - Petro Global News 24'
p9
aS'Stock Returns: Bancorp Of New Jersey Inc  versus Civista Bancshares ... CML News - Mar 8, 2017 This is a snapshot to compare the stock returns for Bancorp Of New Jersey Inc  versus Civista Bancshares Inc  .Civista Bancshares Inc  Stock Rating Lowered by Zacks Investment Research - Chaffey Breeze'
p10
a.