(lp0
S'Fidelity National Information Services Inc Risk Points versus Technology CML News - 9 hours ago This is a scatter plot analysis of the critical risk points from the option market for Fidelity National Information Services Inc  compared to its own past and the Technology ETF. In order to examine the forward looking risk for Fidelity ...'
p1
aS'Fidelity National Information Services, Inc.  Ex-Dividend Date Scheduled ... Nasdaq - Mar 14, 2017 Fidelity National Information Services, Inc.  will begin trading ex-dividend on March 15, 2017. A cash dividend payment of $0.29 per share is scheduled to be paid on March 31, 2017.Kathleen Thompson Unloaded $263080 Worth of Fidelity National Information ... - HuronReportTraders Secrets on NetApp, Inc. , Fidelity National Information Services ... - StockNewsJournal'
p2
aS'Insider Trading Activity Fidelity National Information Servcs Inc (NYSE:FIS ... Market Exclusive - Feb 21, 2017 On 6/14/2013 Thomas M Hagerty, Director Sell, 1,141 $44.20 with an average share price of $50,432.20 View SEC Filing 9/13/2012 per share and the total transaction amounting to Thomas M Hagerty.'
p3
aS'Fidelity National  Up 3% Since Earnings Report: Can It Continue? Yahoo Finance - Mar 10, 2017 It has been about a month since the last earnings report for Fidelity National Information Services, Inc. FIS. Shares have added nearly 3% in that time frame underperforming the DJIA.Analytical Guide for Raytheon Company , Fidelity National Information ... - The USA CommerceFidelity National Information Servcs Inc  to Issue Quarterly Dividend of ... - Chaffey Breeze'
p4
aS'Lookout for Price Target? CarMax Inc. , Fidelity National Information ... StockNewsJournal - Mar 9, 2017 Fidelity National Information Services, Inc. , at its latest closing price of $82.22, it has a price-to-book ratio of 2.78, compared to an industry average at 3.48.Leading Indus Mover Under Analysts Crush- AT&amp;T , Fidelity National ... - Seneca Globe'
p5
aS'Bp Wealth Management, Llc Buys Charles Schwab, Fidelity National Information ... Nasdaq - Feb 18, 2017 Bp Wealth Management, Llc initiated holdings in Workday Inc. The purchase prices were between $66.09 and $92.05, with an estimated average price of $80.58.Park Presidio Capital Llc Buys Blackhawk Network Holdings, CBOE Holdings, Visa ... - GuruFocus.com'
p6
aS'Earnings Clues on Fidelity National Information Services, Inc. , The ... StockNewsJournal - Mar 1, 2017 ROI deals with the invested cash in the company and the return the investor realize on that money based on the net profit of the business.Analytical Guide for Fidelity National Information Services, Inc. (FIS ... - The USA CommerceCompany Performance of Fidelity National Information Services, Inc. (FIS ... - Times Money'
p7
aS"Option Market: Fidelity National Information Services Inc Risk Hits A Tumbling Low CML News - Mar 13, 2017 In the &quot;Why This Matters&quot; section at the end of this article on Fidelity National Information Services Inc  we're going to take a step back and show in great specificity that there is actually a lot less &quot;luck&quot; in successful option trading ..."
p8
aS"Why to Keeping Eye on International Paper Company , Fidelity National ... StockNewsJournal - Feb 27, 2017 Fidelity National Information Services, Inc. , maintained return on investment for the last twelve months at 2.53, higher than what Reuters data shows regarding industry's average."
p9
aS'Today Analysts Focus on Fidelity National Information Services, Inc. (FIS ... StockNewsJournal - Feb 23, 2017 Investors who are keeping close eye on the stock of Fidelity National Information Services, Inc.  established that the company was able to keep return on investment at 2.53 in the trailing twelve month while Reuters data showed that industry ...'
p10
a.