(lp0
S'Zacks: Financial Institutions, Inc.  Receives Average Rating of Hold ... Petro Global News 24 - Jan 3, 2017 Financial Institutions, Inc.  has received an average broker rating score of 3.00  from the two brokers that provide coverage for the stock, Zacks Investment Research reports.'
p1
aS'Financial Institutions, Inc.  Ex-Dividend Date Scheduled for March 10, 2017 Nasdaq - Mar 9, 2017 Financial Institutions, Inc.  will begin trading ex-dividend on March 10, 2017. A cash dividend payment of $0.21 per share is scheduled to be paid on April 03, 2017.Financial Institutions, Inc.  to pay $0.21 on Apr 3, 2017, FleetCor ... - Wolcott DailyFinancial Institutions, Inc.  to Issue Quarterly Dividend of $0.21 on ... - Chaffey Breeze'
p2
aS'Financial Institutions, Inc. Announces Quarterly Cash Dividend Yahoo Finance - Feb 23, 2017 23, 2017  -- Financial Institutions, Inc.   announced today that its Board of Directors has approved a quarterly cash dividend of $0.21 per outstanding common share.'
p3
aS'Financial Institutions, Inc. Announces Increase in Quarterly Cash Dividend GlobeNewswire  - Nov 2, 2016 WARSAW, N.Y., Nov. 02, 2016  -- Financial Institutions, Inc.   announced today that its Board of Directors has approved a quarterly cash dividend of $0.21 per outstanding common share, an increase of 5%&nbsp;...'
p4
aS'Financial Institutions, Inc. Announces Fourth Quarter and Full Year 2016 Results GlobeNewswire  - Jan 24, 2017 24, 2017  -- Financial Institutions, Inc. , today reported financial results for the fourth quarter and year ended December 31, 2016.'
p5
aS'Financial Institutions, Inc. Announces Preliminary Results of 2016 Annual ... GlobeNewswire  - Jun 3, 2016 WARSAW, N.Y., June 03, 2016  -- Financial Institutions, Inc. , the parent company of Five Star Bank, Scott Danahy Naylon and Courier Capital, today announced that, based on a preliminary vote count provided by Financial&nbsp;...'
p6
aS'Financial Institutions, Inc.  Given Consensus Recommendation of Hold ... The Cerbat Gem - 22 hours ago Financial Institutions logo Shares of Financial Institutions, Inc.  have been given an average broker rating score of 3.00  from the one brokers that provide coverage for the stock, Zacks Investment Research reports.'
p7
aS'Financial Institutions Inc.  Breaks into New 52-Week High on February 24 ... Equities.com - Feb 24, 2017 Shares of Financial Institutions Inc.  broke into a new 52-week high yesterday, hitting a peak of $35.35. Shares closed at $35.30 after opening at $34.75 for a move of 0.79%.'
p8
aS'Financial Institutions Inc.  Breaks into New 52-Week High on February 23 ... Equities.com - Feb 23, 2017 Shares of Financial Institutions Inc.  broke into a new 52-week high yesterday, hitting a peak of $35.05. Shares closed at $35.03 after opening at $35.00 for a move of 0.5%.'
p9
aS'Zacks: Financial Institutions, Inc.  Receives Average Recommendation of ... Chaffey Breeze - Mar 10, 2017 Financial Institutions logo Financial Institutions, Inc.  has been given an average broker rating score of 3.00  from the one brokers that cover the company, Zacks Investment Research reports.Financial Institutions Inc  Files Form 4 Insider Selling : Karl ... - Energy Index'
p10
a.