(lp0
S'Adage Capital Management is Buying Fluidigm Corp  Shares Small Cap Exclusive  - Mar 13, 2017 For those not familiar with the company, Fluidigm Corporation creates, manufactures and markets technologies and life science tools focused on the exploration and analysis of single cells, as well as the industrial application of genomics, based upon ...Fluidigm Corporation  Stock: Looking For A Reason To Be Bullish? - CNA Finance Stock Returns: NeoGenomics Inc  is Beating Fluidigm Corporation ... - CML News'
p1
aS'Fluidigm Corporation Adopts Tax Benefit Preservation Plan to Protect Its Net ... GlobeNewswire  - Nov 22, 2016 SOUTH SAN FRANCISCO, Calif., Nov. 22, 2016  -- Fluidigm Corporation  announced today that its Board of Directors has adopted a plan, known as a Tax Benefit Preservation Plan, designed to preserve the significant&nbsp;...Fluidigm proposes poison pill against potential hostile takeover; shares slump 7% - Seeking Alpha'
p2
aS'Fluidigm Corporation  Plunges 7.77% on March 07 Equities.com - Mar 7, 2017 Fluidigm Corporation  had a rough trading day for Tuesday March 07 as shares tumbled 7.77%, or a loss of $-0.46 per share, to close at $5.46.'
p3
aS"Fluidigm Corporation  Moves Lower on Volume Spike for March 03 Equities.com - Mar 3, 2017 Fluidigm Corporation  traded on unusually high volume on Mar. 03, as the stock lost 5.67% to close at $5.99. On the day, Fluidigm Corporation saw 702,469 shares trade hands on 2,147 trades. Considering that the stock averages only a daily volume&nbsp;...Fluidigm Corporation  Stock Technicals Hit Extreme Weakness - CML NewsUnder 1M Mover of Friday: Fluidigm Corporation's  stock price finalizes ... - WsNews 4investors"
p4
aS'Fluidigm Corporation  Soars 9.25% on February 14 Equities.com - Feb 14, 2017 Fluidigm Corporation  had a good day on the market for Tuesday February 14 as shares jumped 9.25% to close at $6.73. About 164,346 shares traded hands on 1,584 trades for the day, compared with an average daily volume of 297,330 shares out of&nbsp;...'
p5
aS'Fluidigm Appoints New President and Chief Operating Officer GlobeNewswire  - Aug 4, 2016 SOUTH SAN FRANCISCO, Calif., Aug. 04, 2016  -- Fluidigm Corporation  today announced the appointment of Chris Linthwaite as President and Chief Operating Officer.'
p6
aS'Fluidigm and GenomOncology Partner to Provide Automated Oncology NGS Library ... GlobeNewswire  - Nov 9, 2016 SOUTH SAN FRANCISCO, Calif., Nov. 09, 2016  -- Fluidigm Corporation  and GenomOncology today announced a distribution agreement to co-market the GO Clinical Workbench for molecular interpretation of&nbsp;...'
p7
aS'Analyst Downgrades: Fluidigm Corporation, Netflix, Inc., and Nokia Corp Schaeffers Research  - Oct 13, 2016 Analysts are weighing in on healthcare stock Fluidigm Corporation , streaming specialist Netflix, Inc. , and broadband baron Nokia Corp  .Fluidigm  Prelim. Q3 Revenue Falls Short - StreetInsider.com'
p8
aS'Fluidigm names Linthwaite as new CEO, replacing Worthington Seeking Alpha - Oct 19, 2016 Fluidigm  appoints Christopher Linthwaite as its new CEO, effective immediately, succeeding Gajus Worthington, who has stepped down as CEO and as a board member.Fluidigm  Appoints New CEO - StreetInsider.com'
p9
aS'Fluidigm to Present at Cowen and Company 37th Annual Health Care Conference Yahoo Finance - Feb 23, 2017 23, 2017  -- Fluidigm Corporation  today announced that Chris Linthwaite, President and CEO, will present at the Cowen and Company 37th Annual Health Care Conference on Tuesday, March 7, 2017 at 9:20 am ET in Boston,&nbsp;...'
p10
a.