(lp0
S'Fidelity National Financial, Inc.  Common Share Dividend Payout Ratio Energy Index - 20 hours ago Fidelity National Financial has a dividend payout ratio calculated based on  is 0.4 and the average fiscal quarterly payout ratio for last five years is 0.36.Fidelity National Financial Inc  Valuation According To Analysts - UK Market News'
p1
aS'FNF Group of Fidelity National Financial Inc.  Moves Higher on Volume ... Equities.com - Feb 21, 2017 FNF Group of Fidelity National Financial Inc.  traded on unusually high volume on Feb. 21, as the stock gained 0.88% to close at $37.97.'
p2
aS'FNF Group of Fidelity National Financial, Inc.  To Go Ex-Dividend on ... Chaffey Breeze - Mar 14, 2017 FNF Group of Fidelity National Financial logo FNF Group of Fidelity National Financial, Inc.  declared a quarterly dividend on Wednesday, February 1st.The Credit Agricole SA Sells 661918 Shares of FNF Group of Fidelity National ... - Petro Global News 24Fidelity National Financial, Inc.  to pay $0.25 on Mar 31, 2017, Sabra ... - Wolcott Daily'
p3
aS'Fidelity National Financial  Q4 2016 Results - Earnings Call Transcript Seeking Alpha - Feb 2, 2017 Because such statements are based on expectations as to future financial and operating results and are not statements of fact, actual results may differ materially from those projected.'
p4
aS"Fidelity National Financial  Board Approves Plan to Distribute Black ... StreetInsider.com - Dec 7, 2016 Fidelity National Financial, Inc.  announced that its Board of Directors has approved a tax-free plan  whereby  it intends to distribute all 83.3 million shares of Black Knight Financial Services Inc.  common stock ...Fidelity National Financial, Inc. Announces Tax-Free Plan to Distribute Shares ... - PR Newswire Jacksonville's Black Knight, FNFV to become standalone companies - Jacksonville Business Journal"
p5
aS'Fidelity National Financial Inc. MarketWatch - Jul 27, 2009 Fidelity National Financial, Inc. Announces Election of Raymond R. Quirk to Board of Directors. 5:15 p.m. Feb. 2, 2017.'
p6
aS'Fidelity National Financial, Inc. Announces Election of Raymond R. Quirk to ... PR Newswire  - Feb 2, 2017 Fidelity National Financial, Inc. is organized into two groups, FNF Group  and FNFV Group . FNF is a leading provider of title insurance, technology and transaction services to the real estate and mortgage industries. FNF is the&nbsp;...Fidelity National Financial  Shares Cross Above 200 DMA - NasdaqFidelity National Financial, Inc. Announces FNF Group Quarterly Cash Dividend ... - Satellite PR News '
p7
aS'Overbuying Stock under Radar: FNF Group of Fidelity National Financial, Inc ... Post Registrar - Feb 9, 2017 FNF Group of Fidelity National Financial, Inc.  share price soared 1.92% or +0.70 points to reach at $37.14 during previous trading session.Stocks Trend Analysis: PACCAR Inc , Fidelity National Financial, Inc ... - iStreetWire'
p8
aS'Overbuying Stock in Spotlight: FNF Group of Fidelity National Financial, Inc ... Post Registrar - Feb 6, 2017 FNF Group of Fidelity National Financial, Inc.  share price soared 1.84% or +0.66 points to reach at $36.56 during previous trading session.Mover to Watch For: Fidelity National Financial, Inc.  - TopChronicleFidelity National Financial, Inc.  Rating Lowered to Sell at Zacks ... - Sports Perspectives'
p9
aS"Fidelity National Financial's  CEO Raymond Quirk on Q1 2016 Results ... Seeking Alpha - Apr 29, 2016 Fidelity National Financial's  CEO Raymond Quirk on Q1 2016 Results - Earnings Call Transcript ... which forward-looking statements are subject to include but are not limited to the risks and other factors detailed in our press release dated ..."
p10
a.