(lp0
S'Genpact Limited  to Acquire AI Tech Company, Rage Frameworks StreetInsider.com - Mar 14, 2017 Genpact , a global professional services firm focused on delivering digital transformation for clients, has signed a definitive agreement to acquire Rage Frameworks, a leader in knowledge-based automation technology and services providing&nbsp;...Genpact Limited: Genpact Strengthens Artificial Intelligence Capabilities with ... - The Wall Street Transcript'
p1
aS'Genpact  Acquires Rage Frameworks to Boost AI Offerings Nasdaq - 18 hours ago Genpact Limited G recently announced plans to acquire Rage Frameworks, a Dedham-based artificial intelligence  startup.Common Share Dividend Yield of Genpact Limited  - Energy IndexHighest Sales Estimate Of Genpact Limited  At $2996.12 - Investor Newswire'
p2
aS'GENPACT LIMITED  Files An 8-K Departure of Directors or Certain ... Market Exclusive - Mar 10, 2017 On March 9, 2017, Hanspeter Spek, a member of the Board of Directors  of Genpact Limited, a Bermuda company , informed the Company of his decision to resign from the Board with immediate effect.'
p3
aS'Insider Trading Activity Genpact Limited   Insider Sold 10000 shares ... Market Exclusive - Feb 28, 2017 On 12/4/2012 A Michael Spence, Director Sell, 92,353 $15.80 with an average share price of $1,459,177.40 View SEC Filing 12/3/2012 per share and the total transaction amounting to Arvinder Singh.'
p4
aS'Calculating the intrinsic value of Genpact Limited  Simply Wall St - Mar 3, 2017 In this article I am going to calculate the intrinsic value of Genpact  using a method called discounted cash flow or DCF.'
p5
aS'Genpact Limited  Moves Lower on Volume Spike for February 14 Equities.com - Feb 14, 2017 Genpact Limited  traded on unusually high volume on Feb. 14, as the stock lost 0.29% to close at $23.77. On the day, Genpact Limited saw 3.42 million shares trade hands on 17,638 trades. Considering that the stock averages only a daily volume of 1&nbsp;...'
p6
aS"Trading Overview of Stock: Genpact Limited  Is stories - Mar 13, 2017 Genpact Limited's  witnessed a gain of 0.04% in recent trading period with closing price of $ 23.97. The company's last traded volume of 1.35 million shares as compared to it's an average volume of 1.2 million shares."
p7
aS'Stock Concentration on Shares of Genpact Limited  Sherwood Daily - 14 hours ago Genpact Limited  has a current Value Composite Score of 32. Using a scale from 0 to 100, a lower score would represent an undervalued company and a higher score would indicate an expensive or overvalued company.'
p8
aS'Genpact Limited Risk Points versus Technology CML News - Feb 21, 2017 This is a scatter plot analysis of the critical risk points from the option market for Genpact Limited  compared to its own past and the Technology ETF.'
p9
aS'Shares of Genpact Limited  Climbs 3.63% Energy Index - Feb 27, 2017 Genpact Limited stock has recorded a 20-day Moving Average of 1.53% and the 50-Day Moving Average is 1.9%.The 200 Day SMA reached 0.21%Genpact Limited is having a Relative Strength Index of 58.93 which indicates the stock is not yet over sold or&nbsp;...Genpact Limited  EPS Projection At $0.4675 - RealistInvestor.comWould You Buy Genpact Limited  On These Analyst Ratings? - Fiscal Standard'
p10
a.