(lp0
S'GAMCO Investors Inc  Moves Higher on Volume Spike for February 27 Equities.com - Feb 27, 2017 GAMCO Investors Inc  traded on unusually high volume on Feb. 27, as the stock gained 0.32% to close at $31.01. On the day, GAMCO Investors Inc saw 92,567 shares trade hands on 704 trades. Considering that the stock averages only a daily volume&nbsp;...Gamco Investors, Inc.  To Go Ex-Dividend on January 9th - Petro Global News 24'
p1
aS'Zacks: Gamco Investors Inc  Given $31.00 Average Price Target by Analysts The Cerbat Gem - 21 hours ago Gamco Investors logo Gamco Investors Inc  has earned a consensus broker rating score of 4.00  from the one analysts that provide coverage for the company, Zacks Investment Research reports.Gamco Investors, Inc.  Broker Price Targets For The Coming Week - Fiscal Standard'
p2
aS'Zacks: Gamco Investors Inc  Receives Consensus Recommendation of Sell ... BNB Daily  - Mar 13, 2017 Gamco Investors logo Shares of Gamco Investors Inc  have been assigned an average broker rating score of 4.00  from the one brokers that provide coverage for the stock, Zacks Investment Research reports.The Gamco Investors Inc  Given Average Recommendation of Sell by Brokerages - Petro Global News 24'
p3
aS'Gamco Investors Inc  Given Average Recommendation of Sell by Brokerages Chaffey Breeze - Mar 10, 2017 Gamco Investors logo Gamco Investors Inc  has earned an average broker rating score of 4.00  from the one analysts that provide coverage for the company, Zacks Investment Research reports.'
p4
aS'Gamco Investors INC. ET AL Reduces Stake in Bristol-Myers Squibb Co  The Cerbat Gem - Mar 14, 2017 Bristol-Myers Squibb logo Gamco Investors INC. ET AL cut its position in Bristol-Myers Squibb Co  by 6.0% during the fourth quarter, according to its most recent 13F filing with the Securities and Exchange Commission.'
p5
aS'The Gamco Investors INC. ET AL Has $2097000 Stake in ConocoPhillips  Petro Global News 24 - Mar 14, 2017 Gamco Investors INC. ET AL held its position in shares of ConocoPhillips  during the fourth quarter, Holdings Channel reports.'
p6
aS'Gamco Investors Inc  to Issue Quarterly Dividend of $0.02 on March 28th Chaffey Breeze - Mar 9, 2017 Gamco Investors logo Gamco Investors Inc  declared a quarterly dividend on Wednesday, February 8th. Shareholders of record on Tuesday, March 14th will be given a dividend of 0.02 per share by the closed-end fund on Tuesday, March 28th.Gamco Investors, Inc.  to pay $0.02 on Mar 28, 2017; Newfield Exploration ... - Wolcott DailyGamco Investors, Inc.  Reviewed By Analysts - The De Soto Edge'
p7
aS'Oracle Co.  Shares Sold by Gamco Investors INC. ET AL BNB Daily  - Mar 14, 2017 Oracle logo Gamco Investors INC. ET AL lowered its position in Oracle Co.  by 13.9% during the fourth quarter, according to its most recent Form 13F filing with the SEC.'
p8
aS'The Gamco Investors INC. ET AL Sells 150 Shares of Nike Inc  Petro Global News 24 - Mar 9, 2017 Gamco Investors INC. ET AL lowered its stake in shares of Nike Inc  by 0.7% during the fourth quarter, Holdings Channel reports.Gamco Investors INC. ET AL Sells 150 Shares of Nike Inc  - The Cerbat Gem'
p9
aS'The Gamco Investors, Inc. Et Al Maintains Stake in Hertz Global Holdings, Inc ... DailyQuint - Mar 9, 2017 recently revealed that they own 6.2% of Hertz Global Holdings, Inc  in a Form 13D/A disclosure that was filed with the SEC on Monday, February 27th.Analysts Set Hertz Global Holdings, Inc  Target Price at $37.01 - Chaffey Breeze'
p10
a.