(lp0
S'GAIN CAPITAL HOLDINGS, INC.  Files An 8-K Results of Operations and ... Market Exclusive - Mar 9, 2017 GAIN Capital Holdings, Inc. is a provider of trading services and solutions, specializing in over-the-counter  and exchange-traded markets.GAIN Capital Holdings Inc  Soars 6.01% on March 13 - Equities.comThe Jefferies Group LLC Boosts Gain Capital Holdings Inc  Price Target ... - Petro Global News 24'
p1
aS'GAIN Capital to Report Fourth Quarter and Full Year 2016 Results PR Newswire  - Feb 27, 2017 BEDMINSTER, N.J., Feb. 27, 2017 /PRNewswire/ -- GAIN Capital Holdings, Inc.  , a global provider of online trading services, will announce its fourth quarter and full year 2016 earnings on Thursday, March 9, 2017&nbsp;...GAIN Capital Holdings Inc.: GAIN Capital to Report Fourth Quarter and Full ... - The Wall Street Transcript'
p2
aS"GAIN Capital Responds to FCA's Consultation Paper PR Newswire  - Dec 6, 2016 BEDMINSTER, N.J., Dec. 6, 2016 /PRNewswire/ -- GAIN Capital Holdings, Inc.  , notes the FCA's consultation paper issued today (CP 16/40 - Enhancing conduct of business rules for firms providing contract for&nbsp;..."
p3
aS'Acorda Therapeutics, Gain Capital Holdings, Nimble Storage Times of India - Mar 8, 2017 March 8  - Wall Street securities analysts revised their ratings and price targets on several U.S.-listed companies, including Acorda Therapeutics, Gain Capital Holdings and Incyte, on Wednesday. HIGHLIGHTS * Acorda Therapeutics Inc : Leerink&nbsp;...'
p4
aS'Gain Capital Is Set to Become the Biggest US Retail FX Provider Bloomberg - Feb 24, 2017 FXCM has worked closely with Gain to ensure a seamless transfer of the accounts, Jaclyn Sales, a spokeswoman for FXCM, said in an e-mail.'
p5
aS'GAIN Capital CEO Provides Additional Comments Following Acquisition of FXCM US ... PR Newswire  - Feb 9, 2017 BOCA RATON, Fla., Feb. 9, 2017 /PRNewswire/ -- Glenn Stevens, CEO of GAIN Capital Holdings, Inc.  , a global provider of online trading services, today at the KBW Winter Financial Services Symposium commented&nbsp;...EPS Forecast Of GAIN Capital Holdings, Inc.  Set At $0.15 - Investor Newswire'
p6
aS"The Keefe, Bruyette &amp; Woods Reiterates Hold Rating for Gain Capital Holdings ... Petro Global News 24 - Mar 15, 2017 Gain Capital Holdings Inc 's stock had its hold rating reiterated by research analysts at Keefe, Bruyette &amp; Woods in a report issued on Monday."
p7
aS'Breaking: Gain Capital Will Pay FXCM Up To $500 For Each Transferred Account Finance Magnates - Feb 9, 2017 According to its latest filing with the SEC, FXCM Inc.  has disclosed the final details of its asset purchase agreement with rival Gain Capital Holdings Inc , pursuant to which the embattled forex broker agreed to sell all of ...GAIN Capital reports positive January 2017 operating metrics - LeapRate'
p8
aS'GAIN Capital Holdings Inc  Soars 5.32% on March 08 Equities.com - Mar 8, 2017 GAIN Capital Holdings Inc  had a good day on the market for Wednesday March 08 as shares jumped 5.32% to close at $8.12.Stock Returns: GAIN Capital Holdings Inc  versus Greenhill &amp; Co ... - CML NewsJefferies Just Issued Buy Rating on Gain Capital Holdings Inc  - Highland Mirror'
p9
aS"GAIN Capital Holdings Inc  Runs Higher 6.87% For the Week Business Review - 18 hours ago Shares of GAIN Capital Holdings Inc  have seen strong upward momentum over the past week as they have moved higher 6.87% over the past five sessions, placing them on this week's winners list."
p10
a.