(lp0
S'Guess? Inc. Q4 Earnings Decline 28% Nasdaq - 13 hours ago  - Guess? Inc.  announced a profit for fourth quarter that lost ground from last year. The company said its bottom line dropped to $34.57 million, or $0.41 per share.Guess? Inc.  Moves Higher on Volume Spike for March 15 - Equities.comGuess?, Inc.  Issues Q1 Earnings Guidance - BNB Daily '
p1
aS'Earnings Reaction History: Guess?, Inc., 63.6% Follow-Through Indicator, 8.3 ... Nasdaq - 16 hours ago Guess?, Inc.  is due to issue its quarterly earnings report in the upcoming extended-hours session. Given its history, traders can expect very active trading in the issue immediately following its quarterly earnings announcement.'
p2
aS'Guess?, Inc. Announces Participation At The 9th Annual Telsey Advisory Group ... Yahoo Finance - 13 hours ago Guess?, Inc. designs, markets, distributes and licenses a lifestyle collection of contemporary apparel, denim, handbags, watches, footwear and other related consumer products.'
p3
aS"BRIEF-Guess Inc says Q4 GAAP earnings per share $0.08 Reuters - 12 hours ago LONDON, March 16 France's government bond yields hit a one-week low in early trade on Thursday after results of Wednesday's Dutch parliamentary elections suggested that populist party PVV would come a distant second to the current ruling party."
p4
aS'Guess?, Inc. To Webcast Conference Call On Fourth Quarter And Fiscal Year 2017 ... Yahoo Finance - Mar 1, 2017 Guess?, Inc. designs, markets, distributes and licenses a lifestyle collection of contemporary apparel, denim, handbags, watches, footwear and other related consumer products.'
p5
aS'Guess? Inc.  Moves Lower on Volume Spike for March 13 Equities.com - Mar 13, 2017 Guess? Inc.  traded on unusually high volume on Mar. 13, as the stock lost 1.24% to close at $11.92. On the day, Guess? Inc. saw 2.31 million shares trade hands on 16,662 trades. Considering that the stock averages only a daily volume of 1.33 ...'
p6
aS"Wunderlich still positive on Guess Seeking Alpha - Mar 13, 2017 Wunderlich isn't throwing in the towel on its bullish view of Guess , despite the sharp drop in share price from a year ago .Guess?, Inc.  Receives Buy Rating from Wunderlich - BNB Daily Stock's Trend Analysis Report: Guess', Inc.  - TopChronicle"
p7
aS'Oracle Corporation , Jabil Circuit, Inc. , Guess?, Inc ... Stock Market Daily - Mar 15, 2017 Titan International Inc  will announce its quarterly numbers before the bell. Analysts see the company suffering a loss per share of nine cents.'
p8
aS'Guess? Inc.  Moves Higher on Volume Spike for March 10 Equities.com - Mar 10, 2017 Guess? Inc.  traded on unusually high volume on Mar. 10, as the stock gained 1.51% to close at $12.07. On the day, Guess? Inc. saw 2.09 million shares trade hands on 14,617 trades. Considering that the stock averages only a daily volume of 1.31&nbsp;...Guess sinks to multi-year low amid more gloom - Seeking Alpha'
p9
aS"Why Williams-Sonoma, Inc. , Guess?, Inc. , Jabil Circuit ... Stock Market Daily - 2 hours ago Guess?, Inc.  delivered an EPS of 41 cents for the fourth quarter, which missed the Street analysts' estimate."
p10
a.