(lp0
S'Gevo Is A Hot Mess Seeking Alpha - Feb 14, 2017 Gevo, Inc.  is an American renewable chemical producer. The company specializes in the conversion of raw materials into something called isobutanol.'
p1
aS'Gevo, Inc.  Investors Run for the Hills on the Back of Another Dilution Smarter Analyst - Feb 14, 2017 Gevo, Inc.  shares are collapsing 30% after underwhelming investors with another share dilution. The biofuel maker just announced that it has agreed to sell 5,680,000 Series G units, with each Series G unit consisting of one share of&nbsp;...Gevo Announces Pricing of $11.9 million Public Offering of Common Stock and ... - GlobeNewswire '
p2
aS'Gevo to Host Conference Call to Report Fourth Quarter Financial Results on ... GlobeNewswire  - 21 hours ago ENGLEWOOD, Colo., March 15, 2017  -- Gevo, Inc. , announced today that the company will host a conference call on Wednesday, March 29, 2017 at 4:30 p.m.Momentum Stocks in Focus: Gevo, Inc.  ,  - NYSE Journal Gevo, Inc.  Broker Price Targets For The Coming Week - Fiscal Standard'
p3
aS"Gevo, Inc.  Stock: Exclusive Interview With Pat Gruber CNA Finance  - Mar 1, 2017 Before we get into this interview, I'd like to extend a special thanks to my friend Joey who both set up the interview with Pat, wrote the questions, and got this information for all of you to see!"
p4
aS'The Short Interest in Gevo, Inc.  Declines By 32.6% Petro Global News 24 - 21 hours ago Gevo, Inc.  was the recipient of a significant decrease in short interest during the month of February.'
p5
aS'Gevo shares tumble after stock sale announced, warning issued Denver Business Journal - Feb 15, 2017 Shares in Douglas County-based biofuels producer Gevo Inc. tumbled more than 31 percent in Tuesday trading and fell another 14 percent Wednesday after the company said it would issue more stock to raise money and it also issued a warning about its&nbsp;...'
p6
aS'Gevo Signs Letter of Intent with HCS Holding for Commercial Supply of Isooctane GlobeNewswire  - Feb 14, 2017 ENGLEWOOD, Colo., Feb. 14, 2017  -- Gevo, Inc. , announced today that it has entered into a Letter of Intent  with HCS Holding GmbH  to supply isooctane under a five-year offtake agreement.'
p7
aS"Gevo Inc  Stock: I Can See Clearly Now CNA Finance  - Feb 14, 2017 I've been receiving several messages from friends at Stock Twits asking when I was going to speak with Gevo in another interview."
p8
aS"Price Trends to Watch: Gevo, Inc.  Is stories - Mar 10, 2017 Gevo, Inc.'s  witnessed a gain of 0.36% in recent trading period with closing price of $ 0.97. The company's last traded volume of 0.38 million shares as compared to it's an average volume of 2.4 million shares."
p9
aS'Gevo, Inc.  Files Form 4 Insider Selling : Gregory Roda Sells 1 Shares Energy Index - 7 hours ago Gevo, Inc. : Gregory Roda , Chief Commercial Officer of Gevo, Inc. sold 1 shares on Mar 13, 2017.Next Weeks Broker Price Targets For Gevo, Inc.  - Fiscal Standard'
p10
a.