(lp0
S'J. Darby Sere, Former GeoMet Inc. President, Dies Oil and Gas Investor  - Oct 28, 2015 J. Darby Sere passed away in Houston in October. The former president and CEO of GeoMet Inc. from 2000 to 2012, he began his career at Chevron in 1970.'
p1
aS'GeoMet Declares Preferred Dividend Marketwired  - Dec 5, 2014 HOUSTON, TX-- - GeoMet, Inc.    announced today that its Board of Directors has declared a quarterly dividend to its preferred stockholders covering the period October 1,&nbsp;...'
p2
aS"Delisting of Securities of ALCO Stores, Inc., GeoMet, Inc., NII Holdings, Inc ... GlobeNewswire  - Oct 24, 2014 NEW YORK, Oct. 24, 2014  -- The Nasdaq Stock Market announced today that it will delist the common stock of ALCO Stores, Inc. ALCO Stores, Inc.'s stock was suspended on October 22, 2014 and has not traded on Nasdaq since that&nbsp;..."
p3
aS'Atlas Resource Buys GeoMet Gas Reserves For $107M Law360  - Feb 14, 2014 Law360, New York  -- A subsidiary of Atlas Resource Partners LP will acquire a large expanse of natural gas reserves in Virginia and West Virginia from energy company GeoMet Inc. for $107 million, GeoMet announced&nbsp;...'
p4
aS'GeoMet Announces Record Date for Special Meeting in Connection With Asset Sale Marketwired  - Mar 25, 2014 HOUSTON, TX-- - GeoMet, Inc.    announced today that it has established the close of business on March 26, 2014 as the record date  for its special&nbsp;...'
p5
aS'GeoMet Announces its First Interim Distribution to the Holders of its Common ... Marketwired  - Feb 14, 2017 HOUSTON, TX-- - GeoMet, Inc.    today announced its first interim distribution to the holders of its Series A Convertible Redeemable Preferred Stock, par value&nbsp;...'
p6
aS"Big Dams and a Big Fracking Problem in BC's Energy-rich Peace River Region DeSmog Canada - Aug 16, 2016 At the time, Hudson's Hope Gas, a subsidiary of Canada Energy Partners and GeoMet Inc., had drilled at least eight coal bed methane wells near the community of Hudson's Hope, which lies about nine kilometres downstream of the Peace Canyon Dam and&nbsp;..."
p7
aS"Fracking Near Peace River Dams Scares BC Hydro Environment News Service - Aug 22, 2016 At that time, writes Parfitt, Hudson's Hope Gas, a subsidiary of Canada Energy Partners and GeoMet Inc., had drilled at least eight coal bed methane wells near Hudson's Hope, a town of about 1,000 residents about nine kilometres  downstream ..."
p8
aS'Value Investing Opportunities: Stocks That Are Trading For Less Than Their Net ... Seeking Alpha - Jan 17, 2016 Graham suggested to analyze stocks that are trading for less than their net working capital. A data set with such stocks is attached to the article.'
p9
aS'Atlas Puts Up $420M For Colorado Oil Reserves Law360  - May 7, 2014 Law360, New York  -- Pittsburgh, Pennsylvania-based Atlas Resource Partners LP announced on Wednesday it will acquire a 25 percent share from the Chevron Corp.'
p10
a.