(lp0
S"Why Analysts put forward these two stocks: Gentex Corporation , Sears ... The USA Commerce - 22 hours ago Shares of Gentex Corporation  surged 0.18% to $21.82. During the trading on 03/14/2017, Company's stock ranged from $21.60 to $21.88.Option Market: Gentex Corporation Risk Hits An Extreme Low - CML NewsStock Price of Gentex Corporation  Decreases -0.28% - Highland Mirror"
p1
aS'Stock Returns: Cooper-Standard Holdings Inc  versus Gentex ... CML News - 18 hours ago This is a snapshot to compare the stock returns for Cooper-Standard Holdings Inc  versus Gentex Corporation  .Smart Money Buying the Price Weakness of Gentex Corporation  - Energy IndexYesterday Stock Price Swings: Gentex Corporation  - Is stories'
p2
aS"The Technical Facts on Gentex Corporation  The USA Commerce - Mar 14, 2017 We have gathered the technical data on Gentex Corporation , and see some interesting trends in the stock's behavior of late."
p3
aS"Why to Keeping Eye on Gentex Corporation , Brocade Communications ... StockNewsJournal - Mar 14, 2017 Investors who are keeping close eye on the stock of Gentex Corporation  established that the company was able to keep return on investment at 16.64 in the trailing twelve month while Reuters data showed that industry's average stands at&nbsp;..."
p4
aS'Looking Ahead for Gentex Corporation ; Are These Shares Ready to ... Aiken Advocate - 15 hours ago Gentex Corporation  has a current consensus EPS estimate for the quarter of $0.31 based on Street analyst predictions.'
p5
aS"Summit Materials, Inc. , Gentex Corporation  Stock Eyes Ahead of ... The USA Commerce - Mar 13, 2017 Shares of Summit Materials, Inc.  surged 1.60% to $24.07. During the trading on 03/10/2017, Company's stock ranged from $23.41 to $24.21."
p6
aS"What Analysts are Predicting For Gentex Corporation , BorgWarner Inc. ? The USA Commerce - Mar 9, 2017 Shares of Gentex Corporation  surged 0.85% to $21.37. During the trading on 03/08/2017, Company's stock ranged from $21.12 to $21.47."
p7
aS"Today Analysts Focus on MDU Resources Group, Inc. , Gentex Corporation  StockNewsJournal - Mar 10, 2017 Gentex Corporation , maintained return on investment for the last twelve months at 16.64, higher than what Reuters data shows regarding industry's average."
p8
aS'Time To Get Cautious?  Omega Healthcare Investors, Inc. , Gentex ... USA Commerce Daily - 16 hours ago Shares of Omega Healthcare Investors, Inc.  observed rebound of 11.91% since bottoming out at $28.11 on Nov. 10, 2016. Meanwhile, due to an ongoing pressure which caused a decline of almost -4.43% in the past five days, the stock price is&nbsp;...'
p9
aS"Option Market: Gentex Corporation Risk Hits A Reduced Level CML News - Feb 26, 2017 We're going to look at a proprietary risk rating for the next 30-days built by Capital Market Laboratories  based on a large number of interactions of data points, many of which come directly from the option market for Gentex Corporation&nbsp;..."
p10
a.