(lp0
S"Gladstone Commercial Corp  Files Form 4 Insider Buying : Robert G Cutlip ... Energy Index - 7 hours ago Gladstone Commercial Corp : Robert G Cutlip , President of Gladstone Commercial Corp purchased 200 shares on Mar 13, 2017.Gladstone Commercial 's President Robert Cutlip Purchases 200 shares of ... - Herald KSZacks Investment Research Downgrades Gladstone Commercial Co.  to Sell - BNB Daily "
p1
aS'Gladstone Commercial Corporation Reports Results for the Fourth Quarter and ... GlobeNewswire  - Feb 15, 2017 15, 2017  -- Gladstone Commercial Corporation   today reported financial results for the fourth quarter and year ended December 31, 2016.Gladstone Commercial Corporation  Given Consensus Recommendation of ... - The Cerbat GemRobert G. Cutlip Acquires 500 Shares of Gladstone Commercial Corporation '
p2
aS'Common Share Dividend Yield of Gladstone Commercial Corporation  Energy Index - 23 hours ago Gladstone Commercial Corporation has a dividend payout ratio calculated based on  is 0.97 and the average fiscal quarterly payout ratio for last five years is 0.99.'
p3
aS'Gladstone Commercial Corporation  Moves Higher on Volume Spike for ... Equities.com - Feb 17, 2017 Gladstone Commercial Corporation  traded on unusually high volume on Feb. 17, as the stock gained 0.54% to close at $20.37.Robert G. Cutlip Buys 500 Shares of Gladstone Commercial Corporation  Stock - Community Financial News'
p4
aS'Gladstone Commercial, Growing For The Future Seeking Alpha - Dec 18, 2016 Gladstone Commercial Corporation  has closed on another large deal. For $25.5 million, the REIT purchased 935 First Ave, in King of Prussia Pennsylvania.'
p5
aS'Gladstone Commercial Corporation Prices Public Offering of 7.0% Series D ... GlobeNewswire  - May 20, 2016 MCLEAN, Va., May 20, 2016  -- Gladstone Commercial Corporation   today announced the pricing of a registered direct placement of 1,043,725 shares of its 7.0% Series D Cumulative Redeemable&nbsp;...'
p6
aS"Gladstone Commercial Corporation: The Preferreds Are Worth A Look Seeking Alpha - May 17, 2016 GOOD announced a new series of preferred stock and conditional calls on the old stock. The market isn't fully up to speed and the relative pricing between the issues is not logical."
p7
aS'Option Trading: Gladstone Commercial Corporation  Powerful Long ... CML News - 21 hours ago We find a very powerful outcome examining long put spreads for Gladstone Commercial Corporation when we use a clever earnings risk management approach.'
p8
aS'Insider Trading Activity Gladstone Commercial Co.   President ... Market Exclusive - 12 hours ago Gladstone Commercial Corporation is a real estate investment trust . The Company focuses on acquiring, owning and managing office and industrial properties, and making long-term industrial and commercial mortgage loans.'
p9
aS'Revenue Update on Gladstone Commercial Corporation Energy Index - Feb 26, 2017 Gladstone Commercial Corporation announced the earnings results for Fiscal Year 2016 and Q4. The results came in during After-Market on Feb 15, 2017.In Volatile Markets Do Analysts Think You Should Buy Gladstone Commercial ... - The De Soto Edge'
p10
a.