(lp0
S'Common Share Dividend Yield of Government Properties Income Trust  Energy Index - 20 hours ago The dividend growth rate of Government Properties Income Trust calculated based on 20 historical quarterly dividends is 0.36% while the R-Squared dividend growth rate regression is 0.38.Investors Spotlight: Government Properties Income Trust  - Is storiesThe Public Sector Pension Investment Board Holds Stake in Government ... - Petro Global News 24'
p1
aS'BRIEF-Government Properties Income Trust Q4 adjusted FFO per share $0.58 Reuters - Feb 22, 2017 WASHINGTON, Feb 22 U.S. Treasury Secretary Steven Mnuchin on Wednesday praised the strong dollar as a reflection of confidence in the U.S.'
p2
aS'Government Properties Income Trust  Ex-Dividend Date Scheduled for ... Nasdaq - Jan 18, 2017 Government Properties Income Trust  will begin trading ex-dividend on January 19, 2017. A cash dividend payment of $0.43 per share is scheduled to be paid on February 23, 2017.'
p3
aS'Government Properties Income Trust reports 4Q results Yahoo Finance - Feb 22, 2017  _ Government Properties Income Trust  on Wednesday reported a key measure of profitability in its fourth quarter.'
p4
aS'Government Properties Income Trust  Moves Lower on Volume Spike for March 10 Equities.com - Mar 10, 2017 Government Properties Income Trust  traded on unusually high volume on Mar. 10, as the stock lost 0.47% to close at $19.08.Analysts mean rating score stands at 3.50 while Government Properties Income ... - Hot Stocks PointGovernment Properties Income Trust  Expected to Earn Q1 2017 Earnings of ... - Chaffey Breeze'
p5
aS'Government Properties Income Trust Fourth Quarter 2016 Conference Call ... Business Wire  - Feb 8, 2017 NEWTON, Mass.----Government Properties Income Trust  today announced that it will issue a press release containing its fourth quarter 2016 financial results before the Nasdaq opens on Wednesday, February 22, 2017.'
p6
aS'Government Properties Income Trust  Moves Higher on Volume Spike for ... Equities.com - Feb 17, 2017 Government Properties Income Trust  traded on unusually high volume on Feb. 17, as the stock gained 0.1% to close at $19.57.Government Properties Income Trust  Dividend At $0.43 A Share - Equities FocusGovernment Properties Income Trust  Projected to Achieve EPS Of $0.56 - Stock Observer'
p7
aS'Government Properties Income Trust Announces Fourth Quarter and Year End 2016 ... Business Wire  - Feb 22, 2017 &quot;During the fourth quarter, Government Properties Income Trust continued to focus on leasing activity, which resulted in an increase in same property NOI.'
p8
aS'Scorpio Bulkers  Received New Credit Suisse Rating, Government ... Wolcott Daily - Mar 13, 2017 Government Properties Income Trust is a real estate investment trust . The company has market cap of $1.36 billion. The Firm operates through two divisions: ownership of properties that are primarily leased to government tenants and its equity method&nbsp;...'
p9
aS"GOVERNMENT PROPERTIES INCOME TRUST  Files An 8-K Results of ... Market Exclusive - Feb 22, 2017 On February 22, 2017, Government Properties Income Trust, or the Company, issued a press release regarding the Company's results of operations and financial condition for the quarter and year ended&gt;December 31, 2016, and also provided certain&nbsp;..."
p10
a.