(lp0
S"GSI Group Announces Corporate Name Change to Novanta Inc. PR Newswire  - May 12, 2016 It also represents our future strategic vision, our commitment to innovation and excellence, and our focus on driving profitable growth,&quot; said John Roush, Chief Executive Officer of Novanta Inc. &quot;We are renaming the Company to emphasize our new ...Bedford's GSIG Group changes name to Novanta - Lowell Sun"
p1
aS'Novanta to Acquire Reach Technology, Inc. PR Newswire  - May 18, 2016 BEDFORD, Mass., May 18, 2016 /PRNewswire/ -- Novanta Inc.  , a global leader and supplier of laser, precision motion, and vision technologies to original equipment manufacturers in the medical ...'
p2
aS'Novanta to Acquire ThingMagic Photonics.com - Jan 10, 2017 Jan 2017 BEDFORD, Mass., Jan. 10, 2017 - Photonic technologies developer Novanta Inc. has reached an agreement to acquire ThingMagic, developer of ultrahigh-frequency  radio-frequency identification  reader engines, for $20 million in&nbsp;...'
p3
aS'Novanta Inc.  Files An 8-K Results of Operations and Financial ... Market Exclusive - Mar 6, 2017 Novanta Inc., formerly GSI Group Inc., designs, develops, manufactures and sells photonic and motion control components and subsystems.Novanta Inc  Posts Earnings Results, Beats Estimates By $0.07 EPS - Chaffey Breeze'
p4
aS'Novanta Inc.  Breaks into New 52-Week High on February 10 Session Equities.com - Feb 10, 2017 Shares of Novanta Inc.  broke into a new 52-week high yesterday, hitting a peak of $24.40. Shares closed at $24.40 after opening at $24.20 for a move of 1.67%.'
p5
aS'Novanta Acquires Reach Photonics.com - May 24, 2016 May 2016 BEDFORD, Mass., May 24, 2016 - Laser, precision and vision technologies provider Novanta Inc.  has acquired touch-screen technology developer Reach Technology, expanding its range of medical display technology for&nbsp;...'
p6
aS'Novanta Names Matthijs Glastra CEO Photonics.com - Aug 5, 2016 Aug 2016 BEDFORD, Mass., August 5, 2016 - Novanta Inc. has named Matthijs Glastra as CEO and a director of the company, effective September 1, 2016.'
p7
aS'Novanta Increased Ownership of Laser Quantum Photonics.com - Jan 16, 2017 Jan 2017 BEDFORD, Mass., Jan. 16, 2017 - Photonics and motion technology supplier Novanta Inc. has acquired an additional 35 percent of the outstanding shares of Laser Quantum Ltd.'
p8
aS'Novanta Inc.  Moves Lower on Volume Spike for March 02 Equities.com - Mar 2, 2017 Novanta Inc.  traded on unusually high volume on Mar. 02, as the stock lost 0.2% to close at $25.10. On the day, Novanta Inc. saw 213,094 shares trade hands on 1,366 trades. Considering that the stock averages only a daily volume of 123,147 ...'
p9
aS'Novanta Inc  Releases Q1 Earnings Guidance Chaffey Breeze - Mar 8, 2017 Novanta logo Novanta Inc  issued an update on its first quarter earnings guidance on Monday morning. The company provided earnings per share  guidance of $0.22-0.25 for the period, compared to the Thomson Reuters consensus estimate of ...'
p10
a.