(lp0
S"Hawaiian Telcom Holdco's  CEO Scott Barber on Q4 2016 Results - Earnings ... Seeking Alpha - Mar 14, 2017 Good day, ladies and gentlemen. And welcome to your Hawaiian Telcom Holdco Inc. Q4 2016 Earnings Conference Call. At this time, all participants are in a listen-only mode.Hawaiian Telcom Reports Fourth Quarter and Full Year 2016 Results - GlobeNewswire Hawaiian Telcom Holdco Inc.  Moves Lower on Volume Spike for March 14 - Equities.com"
p1
aS"BRIEF-Hawaiian Telcom Holdco Inc says subsidiary entered into a credit agreement Reuters - Feb 27, 2017 GHAZIABAD, India, Feb 27 Struggling with customers unable to pay on time and plummeting sales, Indian small-business owner Ravi Jain fears the government's crackdown on cash will have a much larger impact than predicted by top policymakers."
p2
aS"Hawaiian Telcom Unleashes 1 Gig Internet on Hawaii Island GlobeNewswire  - Nov 14, 2016 HONOLULU, Nov. 14, 2016  -- Today Hawaiian Telcom  announced that it has expanded availability of its ultra-fast 1 gigabit per second High-Speed Internet service to homes in Hawai'i Island's Puu Lani Ranch&nbsp;..."
p3
aS'Hawaiian Telcom Announces SEA-US Cable Has Secured FCC License GlobeNewswire  - Jan 16, 2017 HONOLULU, Jan. 15, 2017  -- Hawaiian Telcom  announced today that the Federal Communication Commission has approved the landing license for the state-of-the-art Southeast Asia - U.S.'
p4
aS'Hawaiian Telcom Holdco Inc.  Moves Higher on Volume Spike for March 09 Equities.com - Mar 9, 2017 Hawaiian Telcom Holdco Inc.  traded on unusually high volume on Mar. 09, as the stock gained 0.82% to close at $23.23.Hawaiian Telcom Holdco, Inc.  Posts Basic Consolidated EPS Of $0.1002 - Equities Focus'
p5
aS"Hawaiian Telcom Holdco's  CEO Scott Barber on Q3 2016 Results - Earnings ... Seeking Alpha - Nov 3, 2016 Good day, ladies and gentlemen, and welcome to the Q3 2016 Hawaiian Telcom Earnings Conference Call. [Operator Instructions] As a reminder, this call is being recorded."
p6
aS"Hawaiian Telcom Promotes Chamberlain to Vice President of Network Operations GlobeNewswire  - Feb 29, 2016 HONOLULU, Feb. 29, 2016  -- Hawaiian Telcom announced that Greg Chamberlain has been promoted to the company's executive team as Vice President of Network Operations, overseeing technical installation, repair and construction&nbsp;..."
p7
aS"Hawaiian Telcom Completes Acquisition of Wavecom Solutions Corporation GlobeNewswire  - Dec 31, 2012 HONOLULU, Dec. 31, 2012  -- Hawaiian Telcom Holdco, Inc. , Hawaii's leader in integrated communications solutions, today announced that its Hawaiian Telcom, Inc. subsidiary has completed the acquisition of all of the&nbsp;..."
p8
aS"Hawaiian Telcom CEO Eric Yeaman made nearly $2M in 2014 Pacific Business News  - Mar 23, 2015 Hawaiian Telcom president and CEO Eric Yeaman received $1.98 million in total compensation in 2014, down slightly from the $2.07 million he made in 2013, according to the company's proxy statement filed with the U.S."
p9
aS'Zacks: Hawaiian Telcom Holdco, Inc.  Given $35.00 Average Target Price ... The Cerbat Gem - Feb 6, 2017 Hawaiian Telcom Holdco logo Hawaiian Telcom Holdco, Inc.  has been assigned an average broker rating score of 1.00  from the one brokers that cover the stock, Zacks Investment Research reports.'
p10
a.