(lp0
S"Harvest Natural Resources Announces Stockholder Authorization of Sale of Gabon ... PR Newswire  - Feb 24, 2017 HOUSTON, Feb. 24, 2017 /PRNewswire/ -- Harvest Natural Resources, Inc.   today announced that, at the Company's special meeting held yesterday, the Company's stockholders authorized the sale of all of the&nbsp;...Harvest Natural Resources Inc  Receives An Update From Brokers - The De Soto Edge"
p1
aS'Harvest Natural Resources posts 4Q profit Yahoo Finance - Mar 6, 2017 HOUSTON  _ Harvest Natural Resources Inc.  on Monday reported fourth-quarter net income of $100.6 million, after reporting a loss in the same period a year earlier.'
p2
aS'Harvest Natural Resources Adopts Shareholder Rights Plan to Preserve Valuable ... PR Newswire  - Feb 17, 2017 HOUSTON, Feb. 17, 2017 /PRNewswire/ -- Harvest Natural Resources, Inc.   today announced that its Board of Directors has adopted a Rights Agreement  designed to preserve its substantial tax&nbsp;...'
p3
aS"Harvest Natural Resources: Classic 'Cigar Butt' Stock Following Asset Sale Seeking Alpha - Mar 10, 2017 With a market cap of $74.4 MM, and an indicated net current asset value  very near that, Harvest Natural Resources, as a company, does not appear to be dead money. On the contrary, following an imminent sale of its Gabon asset for $32 MM, the&nbsp;...Brokers Issue New Targets On Harvest Natural Resources Inc  - Fiscal Standard"
p4
aS"Harvest Natural Resources Sells Its Interests In Venezuela - Yes, Again. What ... Seeking Alpha - Jul 5, 2016 Harvest Natural Resources intends to sell its interests in Venezuela to CT Energy for a total of $63 million. ... This article is an update of my preceding article on Harvest Natural Resources  published on May 19, 2016 about the 1Q'16 ..."
p5
aS'Harvest Natural Resources Announces That It Has Sold All Its Venezuelan Interests Seeking Alpha - Oct 7, 2016 HNR announces that it has sold all its Venezuelan interests for a total net estimated at $61 million or approximately $1.253 per share.'
p6
aS'Harvest Natural Resources Announces Reverse Stock Split PR Newswire  - Oct 25, 2016 HOUSTON, Oct. 25, 2016 /PRNewswire/ -- Harvest Natural Resources, Inc.   today announced a one-for-four  reverse split of its issued and outstanding common stock.'
p7
aS'Harvest Natural Resources agrees to sell Gabon interests FuelFix  - Dec 22, 2016 A subsidiary of Harvest Natural Resources, Inc., has agreed to sell off all of its Gabon oil and gas interests to a Singapore company for $32 million.Harvest Natural Resources, Is Entering The Final Chapter At Last - What To Expect? - Seeking Alpha'
p8
aS"Harvest Natural Announced That Shareholders Authorized The Sale Of Its ... Seeking Alpha - Sep 19, 2016 This article is an update of my preceding article on Harvest Natural Resources  published on July 5, 2016 about Harvest Natural Resources intends to sell its interests in Venezuela to CT Energy for a total of $63 million. ... The Company's ...Harvest Natural Resources shareholders OK Venezuelan exit - Houston Business Journal"
p9
aS'The Gabelli Funds LLC Invests $156000 in Harvest Natural Resources, Inc.  Petro Global News 24 - 14 hours ago Gabelli Funds LLC bought a new position in Harvest Natural Resources, Inc.  during the fourth quarter, according to its most recent filing with the SEC.'
p10
a.