(lp0
S'Allianz Asset Management AG Has $3085000 Stake in Heska Corp  Chaffey Breeze - Mar 11, 2017 Heska Corp logo Allianz Asset Management AG boosted its stake in Heska Corp  by 3.6% during the fourth quarter, according to its most recent filing with the Securities and Exchange Commission.Heska Corporation  Breaks into New 52-Week High on March 09 Session - Equities.comHeska Corp  EVP Rod Lippincott Sells 5157 Shares of Stock - The Cerbat Gem'
p1
aS"Heska Corp.  PT Raised to $100 at Benchmark StreetInsider.com - Feb 6, 2017 Benchmark raised its price target on Heska Corp.  to $100.00  while maintaining a Hold rating. Analyst Raymond Myers comments &quot;Based on the strength of Heska's competitive position and the margin upside we understand is&nbsp;...Stock Returns: Heska Corporation  is Beating Teligent Inc (NASDAQ ... - CML News"
p2
aS'Insider Trading Activity Heska Corp   CFO Sold 708 shares of Stock Market Exclusive - Mar 10, 2017 On 8/28/2012 William A Aylesworth, Director, bought 2,000 with an average share price of $7.95 per share and the total transaction amounting to $15,900.00.'
p3
aS'Heska Corporation  Breaks into New 52-Week High on February 13 Session Equities.com - Feb 13, 2017 Shares of Heska Corporation  broke into a new 52-week high yesterday, hitting a peak of $87.33. Shares closed at $83.53 after opening at $84.47 for a move of -0.52%.'
p4
aS"The Heska Corp  CFO Sells $68973.36 in Stock Petro Global News 24 - Mar 14, 2017 Heska Corp  CFO John Mcmahon sold 708 shares of the business's stock in a transaction that occurred on Thursday, March 9th.Insider Selling: Heska Corp  EVP Sells $504715.59 in Stock - Chaffey Breeze"
p5
aS'Heska Corporation: Heska Reports Record Quarter and Annual Results The Wall Street Transcript - Feb 28, 2017 LOVELAND, CO, February 28, 2017 -- Heska Corporation , a provider of advanced veterinary diagnostic and specialty products, today reported record financial results for its fourth quarter and year ended&nbsp;...Heska Corporation  Moves Higher on Volume Spike for February 27 - Equities.comHESKA CORPORATION  Files An 8-K Results of Operations and ... - Market Exclusive'
p6
aS"Revenue Update on Heska Corp Money Flow Index & Trends - Mar 6, 2017 Heska Corp announced the earnings results for Fiscal Year 2016 and Q4. The results came in during Pre-Market on Feb 28, 2017.Heska Corporation's  CEO Kevin Wilson On Q4 2016 Results - Earnings Call ... - Seeking AlphaWhat Did This CEO Just Do with Personal Shares of Heska Corp ? - Analyst Ratings"
p7
aS'The Allianz Asset Management AG Has $3085000 Stake in Heska Corp  Petro Global News 24 - Mar 11, 2017 Allianz Asset Management AG raised its stake in Heska Corp  by 3.6% during the fourth quarter, according to its most recent Form 13F filing with the SEC.'
p8
aS"Are The Technicals Revealing a Buy Trend for Heska Corp ? Pearson Press - Mar 13, 2017 Taking a deeper dive, it's important to note that Heska Corp 's trend strength is Average. This is based on a scale where Minimum is the weakest signal and Maximum is considered the strongest signal."
p9
aS'Heska Corp  is Downgraded by CL King to  Neutral Highland Mirror - Jan 26, 2017 Heska Corp  was Downgraded by CL King to  Neutral. Earlier the firm had a rating of Buy  on the company shares.'
p10
a.