(lp0
S'International Bancshares Corporation  Moves Higher on Volume Spike for ... Equities.com - 12 hours ago International Bancshares Corporation  traded on unusually high volume on Mar. 15, as the stock gained 0.13% to close at $37.30.Common Share Dividend Yield of International Bancshares Corporation  - Energy Index'
p1
aS"Forbes Magazine Ranks International Bancshares Corporation among Nation's Best Yahoo Finance - Mar 6, 2017 International Bancshares Corporation   has been ranked among the nation's best by business publishing giant Forbes magazine."
p2
aS"IBC Bank earnings take a hit in 2016 San Antonio Business Journal - Feb 27, 2017 The parent company of IBC Bank, International Bancshares Corp. reported annual net income of nearly $134 million in 2016 down from about $137 million in 2015.INTERNATIONAL BANCSHARES CORPORATION  Files An 8-K Results of ... - Market ExclusiveProfit dips at IBC Bank's parent - mySanAntonio.com"
p3
aS'Several institutional investors buy more shares of IBC Bank San Antonio Business Journal - Feb 9, 2017 Several global investment firms are seeing value in the parent company of IBC Bank, International Bancshares Corp., according to documents on file with the U.S.'
p4
aS'Stock Returns: First Merchants Corporation  is Beating ... CML News - Mar 10, 2017 This is a snapshot to compare the stock returns for First Merchants Corporation  versus International Bancshares Corporation  . The stock return points we compare look at the last three-months, six-months and twelve-months.'
p5
aS"Mover inside Traders Radar: International Bancshares Corporation  Is stories - Mar 9, 2017 International Bancshares Corporation's  witnessed a loss of -1.60% in recent trading period with closing price of $ 36.95."
p6
aS'Stock Returns: Peoples Bancorp Inc  is Beating International ... CML News - Feb 23, 2017 This is a snapshot to compare the stock returns for International Bancshares Corporation  versus Peoples Bancorp Inc  .'
p7
aS'Stock Returns: SVB Financial Group  is Beating International ... CML News - Mar 6, 2017 This is a snapshot to compare the stock returns for International Bancshares Corporation  versus SVB Financial Group  .'
p8
aS"Stock inside Investors Spotlight: International Bancshares Corporation (NASDAQ ... Is stories - Mar 3, 2017 International Bancshares Corporation's  witnessed a loss of -3.90% in recent trading period with closing price of $ 38.15.Insider Trading at Commerce Bancshares Inc.? - Chaffey BreezeCommerce Bancshares, Inc.  Shares Sold by the BlackRock Institutional ... - Petro Global News 24"
p9
aS'International Bancshares Corporation Stock Volatility Hits An Amplified Level CML News - Dec 27, 2016 This is a proprietary realized volatility rating created by Capital Market Laboratories  based on a large number of data interactions for International Bancshares Corporation  . We examine the little used gem of daily stock ...'
p10
a.