(lp0
S'ICU Medical Inc.  Breaks into New 52-Week High on March 15 Session Equities.com - 12 hours ago Shares of ICU Medical Inc.  broke into a new 52-week high yesterday, hitting a peak of $155.90. Shares closed at $155.45 after opening at $153.20 for a move of 1.6%.Icu Medical Inc/de  Files Form 4 Insider Selling : Richard Md Sherman ... - Energy Index'
p1
aS'ICU Medical, Inc. to Present at Raymond James 38th Annual Institutional ... GlobeNewswire  - Feb 27, 2017 SAN CLEMENTE, Calif., Feb. 27, 2017  -- ICU Medical, Inc. , a leader in the development, manufacture and sale of innovative medical devices used in infusion therapy, oncology and critical care applications, today&nbsp;...ICU Medical Inc.  Moves Lower on Volume Spike for February 28 - Equities.com'
p2
aS'ICU Medical, Inc. Announces Fourth Quarter and Fiscal Year 2016 Results GlobeNewswire  - Mar 1, 2017 SAN CLEMENTE, Calif., March 01, 2017  -- ICU Medical, Inc. , a leader in the development, manufacture and sale of innovative medical devices used in infusion therapy, oncology and critical care applications, today&nbsp;...'
p3
aS'ICU Medical, Inc. Announces Time of Fourth Quarter and Fiscal Year 2016 ... Yahoo Finance - Feb 21, 2017 21, 2017  -- ICU Medical, Inc. , a leader in the development, manufacture and sale of innovative medical devices used in infusion therapy, oncology and critical care applications, today announced the time of its fourth quarter and&nbsp;...Stock Returns: ICU Medical Inc  is Beating Haemonetics ... - CML NewsICU Medical, Inc.  Position Cut by Employees Retirement System of Texas - Community Financial News'
p4
aS'ICU Medical Inc.  Moves Higher on Volume Spike for March 01 Equities.com - Mar 1, 2017 ICU Medical Inc.  traded on unusually high volume on Mar. 01, as the stock gained 1.26% to close at $152.30. On the day, ICU Medical Inc. saw 254,630 shares trade hands on 3,017 trades. Considering that the stock averages only a daily volume of&nbsp;...ICU Medical, Incorporated  Releases Quarterly Earnings Results, Beats ... - Sports PerspectivesICU Medical Incorporated  Releases Earnings Results, Beats Expectations ... - Highland Mirror'
p5
aS"ICU Medical To Buy Pfizer Unit in $1 Billion Deal Wall Street Journal - Oct 6, 2016 ICU Medical Inc. agreed to buy Pfizer Inc.'s infusion-systems business in a $1 billion cash-and-stock deal, giving the California medical-device maker a larger footprint in the global market.ICU Medical to Buy Pfizer's Infusion Unit for $1 Billion - Bloomberg"
p6
aS'BRIEF-Icu Medical Inc announces Q4 adj earnings per share $1.20 Reuters - Mar 1, 2017 LONDON, March 2 European shares steadied early on Thursday, pausing after a strong rally in the previous session, with strong earnings updates driving shares in Melrose Industries and Subsea 7.'
p7
aS'ICU Medical - Getting An Infusion With The Pfizer Deal Seeking Alpha - Oct 10, 2016 The deal offers tremendous strategic and financial benefits, having the potential to be very accretive. While I like the deal a lot, and understand the enthusiasm among investors, shares were trading at premium valuation multiples from the start.Pfizer Divests Hospira Infusion Systems To ICU, Retaining An Interest In The ... - Forbes'
p8
aS'New Management At ICU Medical Has Produced Positive Results Seeking Alpha - Apr 19, 2016 ICU Medical, Inc.  is a $1.6 billion, global, healthcare company, headquartered in San Clemente, California, that develops, manufactures, and sells medical devices used in infusion therapy, oncology, and critical care applications.'
p9
aS'Icu Medical Inc/de  Files Form 4 Insider Selling : Virginia Ruth Sanzone ... Energy Index - Mar 9, 2017 Icu Medical Inc/de : Virginia Ruth Sanzone , VP, General Counsel of Icu Medical Inc/de sold 681 shares on Mar 6, 2017.ICU Medical, Incorporated  Upgraded to Buy at Zacks Investment Research - Chaffey Breeze'
p10
a.