(lp0
S'IDACORP, Inc. Announces Fourth Quarter and Year-End 2016 Results, Initiates ... Yahoo Finance - Feb 23, 2017 23, 2017 /PRNewswire/ -- IDACORP, Inc.  recorded fourth quarter 2016 net income attributable to IDACORP of $33.2 million, or $0.66 per diluted share, compared with $31.8 million, or $0.63 per diluted share, in the fourth quarter of 2015.Idacorp Inc. Earnings Rise 4% In Q4 - NasdaqIDACORP, Inc.  Posts Earnings Results, Beats Estimates By $0.05 EPS - BNB Daily '
p1
aS"What's in Store for IDACORP Inc.  in Q4 Earnings? Nasdaq - Feb 21, 2017 Regulated utility, IDACORP Inc . IDA is scheduled to report fourth-quarter 2016 earnings results on Feb 23, before market opens.Fmr LLC Has $364974000 Stake in IDACORP, Inc.  - The Cerbat GemThe Riverhead Capital Management LLC Sells 2472 Shares of IDACORP, Inc.  - DailyQuint"
p2
aS'IDACORP, Inc. Announces Year-End and Fourth Quarter 2015 Results, Initiates ... PR Newswire  - Feb 18, 2016 BOISE, Idaho, Feb. 18, 2016 /PRNewswire/ -- IDACORP, Inc.  reported 2015 net income attributable to IDACORP of $194.7 million, or $3.87 per diluted share, compared with $193.5 million, or $3.85 per diluted share, in 2014.'
p3
aS'IDACORP, Inc.  Ex-Dividend Date Scheduled for February 02, 2017 Nasdaq - Feb 1, 2017 IDACORP, Inc.  will begin trading ex-dividend on February 02, 2017. A cash dividend payment of $0.55 per share is scheduled to be paid on February 28, 2017.'
p4
aS'IDACORP, Inc. Common Stock Quote &amp; Summary Data Nasdaq - Aug 22, 2011 IDACORP, Inc.  is a holding company incorporated in 1998 under the laws of the state of Idaho. Its principal operating subsidiary is Idaho Power Company .'
p5
aS'IDACORP, Inc. Reports Second Quarter 2014 Results, Raises 2014 Earnings ... PR Newswire  - Jul 31, 2014 BOISE, Idaho, July 31, 2014 /PRNewswire/ -- IDACORP, Inc.  reported second quarter 2014 net income attributable to IDACORP of $44.5 million, or $0.89 per diluted share, compared with $46.5 million, or $0.93 per diluted share, in the second&nbsp;...'
p6
aS'IDACORP Inc.  Moves Lower on Volume Spike for March 09 Equities.com - Mar 9, 2017 IDACORP Inc.  traded on unusually high volume on Mar. 09, as the stock lost 0.06% to close at $80.20. On the day, IDACORP Inc. saw 294,048 shares trade hands on 3,673 trades. Considering that the stock averages only a daily volume of 175,190&nbsp;...Federated Investors Inc. PA Sells 2233 Shares of IDACORP Inc  - Chaffey BreezeThe Putnam Investments LLC Buys 1000 Shares of IDACORP Inc  - DailyQuint'
p7
aS'IDACORP Inc.  Moves Lower on Volume Spike for February 28 Equities.com - Feb 28, 2017 IDACORP Inc.  traded on unusually high volume on Feb. 28, as the stock lost 0.01% to close at $82.93. On the day, IDACORP Inc. saw 323,270 shares trade hands on 3,278 trades. Considering that the stock averages only a daily volume of 155,585&nbsp;...IDACORP Inc  Expected to Post Q1 2017 Earnings of $0.55 Per Share - BBNSIDACORP, Inc.  To Pay Dividend Of $0.55 - Equities Focus'
p8
aS'Smart Money Buying the Price Weakness of IDACORP, Inc.  Energy Index - Mar 14, 2017 IDACORP, Inc.  dropped by -0.01 or -0.01 points during the last session to $80.26 per share. One of the highlights of the day was the net money flow figure, which stood at $1.37 million even as the stock accepted $1.97 million in upticks but ...Next Weeks Broker Price Targets For IDACORP, Inc.  - Fiscal StandardMedian Target Of IDACORP, Inc.  At $78.5 - Markets Daily'
p9
aS'Stock Returns: IdaCorp Inc  versus MGE Energy Inc  CML News - Feb 22, 2017 This is a snapshot to compare the stock returns for IdaCorp Inc  versus MGE Energy Inc  . The stock return points we compare look at the last three-months, six-months and twelve-months.'
p10
a.