(lp0
S'InfoSonics Reports Third Quarter 2016 Results PR Newswire  - Nov 10, 2016 About InfoSonics Corporation InfoSonics is a San Diego-based manufacturer and provider of wireless handsets, tablets and related products to carriers, distributors and consumers in the United States and Latin America under the verykool brand.'
p1
aS'InfoSonics Corporation : Financial Strength Analysis Simply Wall St - Mar 8, 2017 Companies with small market capitalization such as InfoSonics Corporation , while they can deliver high growth, financial strength is the deciding element in their long-term existence.'
p2
aS'InfoSonics Corporation  Files An 8-K Results of Operations and ... Market Exclusive - Mar 9, 2017 InfoSonics Corporation is a provider of wireless handsets , tablets and accessories to carriers and distributors in Latin America and the United States.InfoSonics Reports Fourth Quarter 2016 Results - MENAFN.COM'
p3
aS'InfoSonics: Is This Net Net Stock A Screaming Buy? Seeking Alpha - Jan 9, 2017 As more and more smart value investors turn to deep value investing and net net stocks in particular, I thought it would be worthwhile highlighting our approach to stock selection at Net Net Hunter.'
p4
aS'Watching Technical Positions on InfoSonics Corp  Rives Journal - 11 hours ago Investors are keeping a close eye on levels of InfoSonics Corp . The Average Directional Index or ADX is a technical analysis indicator used to describe if a market is trending or not trending.'
p5
aS'Astute Investors Are Taking a Second Look at InfoSonics Corporation  Morgan Research - 12 hours ago Savvy investors are constantly on the lookout when it comes to picking stocks at bargain prices. As of late, investors have been taking notice of InfoSonics Corporation  shares. During recent trading, shares saw a move of 3.76% hitting a ...'
p6
aS"InfoSonics Launches a New 5-Inch Metal-Encased 4G LTE Smartphone: The verykool ... PR Newswire  - Feb 9, 2016 &quot;We've crafted the Spark LTE to be an impressive product that is aesthetically beautiful and feels great in the palm of your hand,&quot; said Joseph Ram, InfoSonics president and chief executive officer. &quot;From its dramatically thin 1mm bezel to its 2,200 ..."
p7
aS'InfoSonics Corp  in the Spotlight After Gaining 14.29% Business Review - 17 hours ago Over the past five sessions, InfoSonics Corp  has pulled in nice gains, moving higher 14.29% over the past five sessions.'
p8
aS'Looking at the Numbers for InfoSonics Corporation  Baldwin Journal - 18 hours ago Investors are constantly examining different company financial indicators to assess trading opportunities. InfoSonics Corporation  presently has an EV or Enterprise Value of 5833. The EV is used to show how the market assigns value to a&nbsp;...'
p9
aS'InfoSonics Expands Economical 4G LTE Smartphone Line: The verykool Jet ... PR Newswire  - Sep 28, 2015 SAN DIEGO, Sept. 28, 2015 /PRNewswire/ -- InfoSonics Corporation  today announced the release of its latest 4G LTE model, the verykool Jet .'
p10
a.