(lp0
S'News ION Geophysical Corp.IO Wall Street Journal - Feb 12, 2011 ION Geophysical Corp. IO . search. View All companies. REAL TIME 11:47 AM EST 03/10/17. $4.5738 USD; -0.0762 -1.64%.'
p1
aS'The Ion Geophysical Corp  Position Held by Royce &amp; Associates LP Petro Global News 24 - 4 hours ago Royce &amp; Associates LP continued to hold its stake in Ion Geophysical Corp  during the fourth quarter, Holdings Channel reports.Ion Geophysical Corporation  Broker Price Targets For The Coming Week - Fiscal Standard'
p2
aS'Stock Scanner: Watching the Numbers on ION Geophysical Corp  Baxter Review - 15 hours ago Investors may be closely watching technical levels on shares of ION Geophysical Corp . In terms of Relative Strength Index, the 14-day RSI is currently resting at 35.36, the 7-day is 29.14, and the 3-day is standing at 11.01.'
p3
aS"ION Geophysical's Turnaround Signs Seeking Alpha - Nov 20, 2016 3Q 2016 earnings showed a generally positive picture of the company, which has been able to generate positive cash flow and profits."
p4
aS'Ion Geophysical Corporation  Jumps 8.35% on September 09 Equities.com - Sep 9, 2016 Ion Geophysical Corporation  was among the biggest gainers on the Russell 2000 for Friday September 09 as the stock popped 8.35% to $6.10, representing a gain of $0.47 per share.'
p5
aS"Moody's downgrades ION Geophysical's notes to Caa3; outlook negative Moodys.com   - May 18, 2015 New York, May 18, 2015 -- Moody's Investors Service downgraded ION Geophysical Corporation's  Corporate Family Rating  to Caa2 from B3, its Probability of Default Rating  to Caa2-PD from B3-PD, its $175 million senior secured notes to&nbsp;..."
p6
aS'ION Geophysical Corp. MarketWatch - Dec 21, 2009 Check out the returns on our 8 Lazy Portfolios that are made up of low-cost buy-and-hold index funds.  How to create your own Lazy Portfolio.'
p7
aS'ION Geophysical Corporation Is One Of The Best Stocks For 2016 Seeking Alpha - Jan 20, 2016 Ion Geophysical Corporation , is suffering quite hard due to the downturn in the oil cycle, even though it has an outstanding portfolio, renewed in the last six years.'
p8
aS"Find 28.5% Yields In ION Geophysical Bonds, Maturing May 2018 Seeking Alpha - Nov 11, 2016 ION Geophysical's  Q2 results showcase a company that has weathered the unprecedented decline in capital spending from its main customers, and is now ready to profit as the oil and gas industry begins to recover."
p9
aS'The Sun Is Shining Brighter On Ion Geophysical Seeking Alpha - Mar 15, 2016 In my previous article I have shown that Ion Geophysical  was essentially greatly undervalued: while the company has been burning a lot of cash between 2014-2015 and the existing debt is due 2018, the bankruptcy fear was misplaced since it was&nbsp;...'
p10
a.