(lp0
S'Isle of Capri, Casino Queen wrap up deal St. Louis Business Journal - Mar 14, 2017 Isle of Capri Casinos Inc. has wrapped up its $40 million sale of an Iowa casino to an affiliate of the Casino Queen. The sale of the Lady Luck Casino Marquette, which was announced in October, closed Monday, Isle of Capri  announced.Isle of Capri Casinos, Inc. Completes Sale of Lady Luck Marquette and ... - PR Newswire '
p1
aS'Isle of Capri Casinos Inc.  Breaks into New 52-Week High on March 15 Session Equities.com - 12 hours ago Shares of Isle of Capri Casinos Inc.  broke into a new 52-week high yesterday, hitting a peak of $26.89. Shares closed at $26.81 after opening at $26.53 for a move of 1.82%.Trading Sheet: Reviewing the Levels for Isle of Capri Casinos, Inc.  - Baldwin Journal'
p2
aS'Isle Of Capri Casinos, Inc. Will Report FY 2017 Third Quarter Results PR Newswire  - Feb 21, 2017 ST. LOUIS, Feb. 21, 2017 /PRNewswire/ -- Isle of Capri Casinos, Inc.  announced today that it will release its financial results for the third quarter of fiscal year 2017 before the market opens on Thursday, February 23, 2017.Isle of Capri Casinos  Q3 Earnings: What to Expect? - Nasdaq'
p3
aS"Eldorado Resorts to buy Isle of Capri Casinos for $1.7 billion Quad City Times - Sep 19, 2016 Jill Alexander, Isle of Capri's spokeswoman, said about 100 people work at the company's headquarters in leased space in Creve Couer.Why Shares of Isle of Capri Casinos Jumped 32% Today - Motley Fool"
p4
aS'Isle of Capri Casinos misses Street 3Q forecasts Yahoo Finance - Feb 23, 2017 LOUIS  _ Isle of Capri Casinos Inc.  on Thursday reported fiscal third-quarter earnings of $8.2 million. The St. Louis-based company said it had net income of 20 cents per share.Isle of Capri Casinos  Lags Q3 Earnings &amp; Revenues - NasdaqIsle of Capri Casinos, Inc. Announces Fiscal 2017 Third Quarter Results - PR Newswire '
p5
aS"BRIEF-Isle of Capri Casinos Q3 adjusted earnings per share $0.17 Reuters - Feb 23, 2017 KUALA LUMPUR, Feb 24 Malaysian police are investigating whether the VX nerve agent used to kill Kim Jong Nam, the estranged half brother of North Korea's leader, was brought into the country or produced in Malaysia, the country's police chief said on&nbsp;..."
p6
aS'Gambling Stock Roundup: Monarch Casino, Pinnacle Entertainment &amp; Isle of Capri ... Yahoo Finance - Feb 27, 2017 An increase in room revenues was more than offset by a decrease in casino and food, beverage, pari-mutuel and other revenues. Meanwhile, adjusted EBITDA increased 5.5% to $43.5 million in the quarter.'
p7
aS"Isle of Capri Casinos', Eldorado Resorts' shareholders approve deal St. Louis Business Journal - Jan 25, 2017 Shareholders of Eldorado Resorts  and Isle of Capri Casinos  have voted to approve Eldorado's acquisition of Creve Coeur-based Isle of Capri."
p8
aS'Laguna Development strikes deal to buy out-of-state casino Albuquerque Business First - Aug 22, 2016 Laguna Development Corp., a wholly owned subsidiary of the Pueblo of Laguna, announced Monday that its newly formed Kicks Entertainment unit has signed an agreement to acquire the Isle of Capri Casino Hotel Lake Charles in Westlake, Calcasieu&nbsp;...Isle of Capri Casinos, Inc. Enters into Agreement to Sell Isle of Capri Casino ... - PR Newswire '
p9
aS'Isle of Capri Casinos, Inc. Enters into Agreement to Sell Lady Luck Casino ... PR Newswire  - Oct 13, 2016 ST. LOUIS, Oct. 13, 2016 /PRNewswire/ -- Isle of Capri Casinos, Inc.  announced today that it has entered into a definitive agreement to sell Lady Luck Casino Marquette to an affiliate of Casino Queen , based in Swansea, Illinois.Casino Queen parent to buy Isle of Capri casino - St. Louis Business Journal'
p10
a.