(lp0
S'Gartner Inc.  Moves Higher on Volume Spike for March 15 Equities.com - 12 hours ago Gartner Inc.  traded on unusually high volume on Mar. 15, as the stock gained 2.62% to close at $111.93. On the day, Gartner Inc. saw 971,832 shares trade hands on 10,819 trades. Considering that the stock averages only a daily volume of 556,199&nbsp;...'
p1
aS'Gartner, Inc.  to Acquire L2; Terms Not Disclosed StreetInsider.com - Mar 6, 2017 Gartner, Inc.  entered into an agreement to acquire L2, Inc., a privately-held Delaware corporation  that benchmarks the digital performance of brands.'
p2
aS'Gartner Announces Intention to Offer $600 Million in Senior Notes Business Wire  - Mar 9, 2017 STAMFORD, Conn.----Gartner, Inc.  announced today that it has commenced an unregistered offering of $600 million in aggregate principal amount of Senior Notes due 2025 .'
p3
aS'Gartner, Inc. to create 600 new jobs in Lee County Fox 4 - Mar 7, 2017 LEE COUNTY, Fla. -- A major corporation is creating hundreds of new jobs in Lee County. Florida Governor Rick Scott announced Monday that Gartner, Inc. will expand in the county, and add 600 new jobs in the process. The technology company will also&nbsp;...'
p4
aS'Gartner Inc. Expands Fort Myers, Florida Operations Center Area Development Online - Mar 8, 2017 Michelle Dennard, CareerSource Florida President &amp; CEO said, CareerSource Florida is pleased to have assisted Gartner, Inc., with employee skills training through a Quick Response Training grant. The CareerSource Florida network stands ready to help&nbsp;...'
p5
aS"Moody's assigns Ba2 CFR to Gartner; outlook stable Moodys.com   - Mar 6, 2017 New York, March 06, 2017 -- Moody's Investors Service  assigned a Ba2 Corporate Family Rating  and a Ba2-PD Probability of Default Rating to Gartner, Inc.  upon the announcement of the financing for the acquisition of&nbsp;..."
p6
aS'Gartner Inc  Lifted to Top Pick at Royal Bank of Canada BNB Daily  - Mar 13, 2017 Gartner logo Gartner Inc  was upgraded by equities research analysts at Royal Bank of Canada from an outperform rating to a top pick rating in a research report issued to clients and investors on Monday.Gartner Inc  Upgraded to Top Pick at Royal Bank of Canada - Chaffey Breeze'
p7
aS'Gartner Inc  Downgraded by Zacks Investment Research to Sell Chaffey Breeze - 18 hours ago Gartner Inc logo Zacks Investment Research lowered shares of Gartner Inc  from a hold rating to a sell rating in a report issued on Tuesday.Gartner Inc  Downgraded to Sell at Zacks Investment Research - BBNSZacks Investment Research downgraded Gartner Inc  to Sell in a report ... - Breaking Finance News'
p8
aS'Gartner, Inc.  Files An 8-K Other Events Market Exclusive - Mar 6, 2017 Gartner, Inc. is an information technology research and advisory company. The Company works with clients to research, analyze and interpret the business of information technology  within the context of their individual roles.'
p9
aS"Gartner Inc  Adding Value Over Past Week Business Review - 17 hours ago Shares of Gartner Inc  have seen strong upward momentum over the past week as they have moved higher 5.42% over the past five sessions, placing them on this week's winners list."
p10
a.