(lp0
S'Itron Inc. Reveals 52% Rise In Q4 Bottom Line Nasdaq - Feb 28, 2017  - Itron Inc.  reported a profit for its fourth quarter that rose compared to the same period last year.'
p1
aS'Itron Inc.  Moves Higher on Volume Spike for February 22 Equities.com - Feb 22, 2017 Itron Inc.  traded on unusually high volume on Feb. 22, as the stock gained 0.39% to close at $64.15. On the day, Itron Inc. saw 368,060 shares trade hands on 2,872 trades. Considering that the stock averages only a daily volume of 130,938 shares ...'
p2
aS'Itron Inc.  Moves Higher on Volume Spike for February 07 Equities.com - Feb 7, 2017 Itron Inc.  traded on unusually high volume on Feb. 07, as the stock gained 0.81% to close at $62.15. On the day, Itron Inc. saw 249,085 shares trade hands on 2,348 trades. Considering that the stock averages only a daily volume of 122,519 shares ...'
p3
aS"Itron Announces Solid Q2 Results, Plans To Become Leaner Benzinga - Sep 2, 2016 Cowen's Jeffrey Osborne mentioned that Itron, Inc.  reported robust quarterly results, reflecting margin expansion and top-line growth.Itron's  CEO Philip Mezey on Q2 2016 Results - Earnings Call Transcript - Seeking AlphaItron  Tops Q2 EPS by 22c; Plans to Restructure Operations - StreetInsider.com"
p4
aS'The Itron, Inc.  Earns Mkt Outperform Rating from Analysts at JMP Securities Petro Global News 24 - 3 hours ago JMP Securities initiated coverage on shares of Itron, Inc.  in a research report sent to investors on Thursday.Next Weeks Broker Price Targets For Itron, Inc.  - Fiscal Standard'
p5
aS'Itron Inc.  Moves Higher on Volume Spike for March 03 Equities.com - Mar 2, 2017 Itron Inc.  traded on unusually high volume on Mar. 03, as the stock gained 0.59% to close at $59.45. On the day, Itron Inc. saw 291,853 shares trade hands on 2,356 trades. Considering that the stock averages only a daily volume of 189,015 shares ...Itron  Q4 Earnings and Revenues Surpass Estimates - Yahoo FinanceItron reports 2016 performance, announces stock buyback - The Spokesman-Review'
p6
aS'Itron Inc.  Moves Higher on Volume Spike for February 24 Equities.com - Feb 24, 2017 Itron Inc.  traded on unusually high volume on Feb. 24, as the stock gained 0.53% to close at $65.90. On the day, Itron Inc. saw 229,033 shares trade hands on 2,367 trades. Considering that the stock averages only a daily volume of 139,561 shares ...Insider Trading Activity Itron, Inc.   Insider Sold 7980 shares ... - Market ExclusiveItron, Inc.  Insider Philip Mezey Sells 7980 Shares - The Cerbat Gem'
p7
aS'Itron Inc.  Breaks into New 52-Week High on February 24 Session Equities.com - Feb 24, 2017 Shares of Itron Inc.  broke into a new 52-week high yesterday, hitting a peak of $66.15. Shares closed at $65.90 after opening at $64.90 for a move of 0.53%.'
p8
aS'Itron: Perfect Pressure For Metering Profits Seeking Alpha - Nov 9, 2016 The company has the right portfolio to enjoy macro tailwinds while delivering a market-leading growth in the space. Efforts to monetize major trends like smart metering systems, unified multiservice network and advanced analytics are starting to bear ...'
p9
aS'The JMP Securities Initiates Coverage on Itron, Inc.  Petro Global News 24 - Mar 15, 2017 JMP Securities assumed coverage on shares of Itron, Inc.  in a research note issued on Thursday. The firm set a mkt outperform rating and a $75.00 price target on the stock.Itron, Inc.  Earns Mkt Outperform Rating from Analysts at JMP Securities - The Cerbat Gem'
p10
a.