(lp0
S'Jewett-Cameron Announces Changes to Management and the Board of Directors PR Newswire  - Feb 8, 2017 NORTH PLAINS, Ore., Feb. 8, 2017 /PRNewswire/ -- Jewett-Cameron Trading Company Ltd.  today announced changes to corporate management and its Board of Directors.'
p1
aS'Numbers in Focus for Jewett-Cameron Trading Company Ltd.  Lenox Ledger - 8 hours ago Jewett-Cameron Trading Company Ltd. presently has an ROIC of 0.270756. The current ROIC 5 year average is 0.316005 and the ROIC Quality ratio is currently 5.411843.'
p2
aS"Most Volatile Stock of Thursday: Jewett-Cameron Trading Company Ltd.'s (JCTCF ... WsNews 4investors - Feb 10, 2017 Jewett-Cameron Trading Company Ltd.'s  stock price escalated 1.63% to finalize at $12.45 throughout previous buying and selling session."
p3
aS'BRIEF-Jewett-Cameron announces changes to management and the Board Reuters - Feb 8, 2017 BRIEF-Jewett-Cameron announces changes to management and the Board. Feb 8 Jewett-Cameron Trading Company Ltd : * Jewett-Cameron announces changes to management and the board of directors.'
p4
aS'Nano-Cap Gem Jewett Cameron Flying Under The Radar ValueWalk - Jan 5, 2017 One of the cheapest stocks in our Small &amp; Micro-Cap - Deep Value Stock Screener is, Jewett-Cameron Trading Company Ltd .Jewett-Cameron Trading Company  CEO Donald M. Boone Sells 2090 Shares ... - Sports Perspectives'
p5
aS'Donald M. Boone Sold 2090 Shares of Jewett-Cameron Trading Company  Stock Petro Global News 24 - Jan 4, 2017 Jewett-Cameron Trading Company Ltd. is a holding company for JC USA Inc The Company has four segments: Industrial wood products; Lawn, garden, pet and other; Seed processing and sales, and Industrial tools and clamps.'
p6
aS'Jewett-Cameron Trading Company: An Underrated, Highly Overlooked Company ... Seeking Alpha - Jan 13, 2016 Jewett-Cameron Trading Company  is a ~$24mm dollar company , with a strong balance sheet , history of predictable and recurring FCF, trading at a decent&nbsp;...'
p7
aS'Top Gainers Today: Ocean Power Technologies, Inc. , Kura Oncology ... Property Mentor - Jul 15, 2016 Jewett-Cameron Trading Company Ltd., through its subsidiaries, manufactures and distributes specialty metal products, and distributes wood products to home centers and other retailers primarily in the United States.'
p8
aS"5 Building Products Stocks to Buy Now Investorplace.com - Nov 29, 2016 Jewett-Cameron Trading Company Ltd.  shows solid improvement this week. The company's rating rises from a C to a B. Jewett-Cameron Trading Company Ltd. distributes and markets lumber and other building materials. The company also gets A's&nbsp;..."
p9
aS'Friday Biggest Gainers: Ocean Power Technologies , ZAIS Group ... Gaining Green    - Jul 15, 2016 Jewett-Cameron Trading Company Ltd. , in the Industrial Goods sector, is showing 19.54% gains. The price at time of writing is 13.40 with a volume of 99,998.'
p10
a.