(lp0
S"Taking a Fresh Look at Juniper Networks, Inc.  StockNewsJournal - Mar 14, 2017 Juniper Networks, Inc.  is an interesting player in the Technology space, with a focus on Networking &amp; Communication Devices.Juniper Networks, Inc.  shares to see major resistance at $28.26 - USA Commerce DailyAnalyst's Proposition on Juniper Networks, Inc. , Tyson Foods, Inc.  - The USA Commerce"
p1
aS"Today Analysts Focus on Simon Property Group, Inc. , Juniper Networks ... StockNewsJournal - 19 hours ago Juniper Networks, Inc. , maintained return on investment for the last twelve months at 8.05, higher than what Reuters data shows regarding industry's average."
p2
aS'Juniper Networks Announces Organizational Changes to Accelerate Innovation Yahoo Finance - Mar 7, 2017 Juniper Networks and Junos are registered trademarks of Juniper Networks, Inc. in the United States and other countries.Juniper Networks, Inc.  Receives Average Recommendation of Hold from ... - Chaffey BreezeTrending Stock Analysis Report: Juniper Networks, Inc.  - TopChronicle'
p3
aS"Juniper Networks, Inc.  Ex-Dividend Date Scheduled for February 27, 2017 Nasdaq - Feb 24, 2017 Juniper Networks, Inc.  will begin trading ex-dividend on February 27, 2017. A cash dividend payment of $0.1 per share is scheduled to be paid on March 22, 2017.Analyst's Predictions on Juniper Networks, Inc. , Prologis, Inc.  - StockNewsJournal"
p4
aS"Today's Brokerage Rating: Juniper Networks, Inc. , PayPal Holdings, Inc ... StockNewsJournal - Mar 13, 2017 Juniper Networks, Inc.  have shown a high EPS growth of 14.20% in the last 5 years and has earnings decline of -3.70% yoy."
p5
aS"Juniper's Gary Clark joins Tesla as chief information officer Reuters - Mar 8, 2017 Gary Clark, a former IT chief technology officer at Juniper Networks Inc , joined Tesla Inc  in February as its chief information officer, according to Clark's LinkedIn profile.Tesla Inc Hires Juniper's Gary Clark As Chief Information Officer - ValueWalk"
p6
aS"Drilling Down Into the Charts for Juniper Networks, Inc.  The USA Commerce - Mar 13, 2017 We have gathered the technical data on Juniper Networks, Inc. , and see some interesting trends in the stock's behavior of late."
p7
aS"The Technicals For Juniper Networks, Inc.  Have Been Dissected  NY Stock News - 15 hours ago Juniper Networks, Inc.  has presented a rich pool of technical data in recent sessions. These are the trends we've been tracking and how we feel they should be played in the current environment."
p8
aS"Juniper Networks, Inc.  Rating Reiterated by Cowen and Company Chaffey Breeze - Mar 12, 2017 Juniper Networks logo Juniper Networks, Inc. 's stock had its market perform rating reiterated by research analysts at Cowen and Company in a report issued on Saturday."
p9
aS'Juniper Networks Inc.: Juniper Networks Announces Technology Alliance ... The Wall Street Transcript - Feb 14, 2017 SUNNYVALE, CA --  -- 02/14/17 -- Juniper Networks, an industry leader in automated, scalable and secure networks, today announced technology alliance partnerships with several leading security providers across a variety of&nbsp;...'
p10
a.