(lp0
S'Lifetime Brands cuts the mustard as profits soar Proactive Investors USA & Canada - Mar 13, 2017 Home and kitchenwares group Lifetime Brands Inc  saw its shares jump by 13% as annual profits soared after a record fourth quarter.Lifetime Brands to Hold Showroom Tour on March 28, 2017; Company to Present at ... - Yahoo FinanceLifetime Brands gets takeover offer from Mill Road Capital - Newsday'
p1
aS'Lifetime Brands Inc.  Breaks into New 52-Week High on March 14 Session Equities.com - Mar 14, 2017 Shares of Lifetime Brands Inc.  broke into a new 52-week high yesterday, hitting a peak of $21.20. Shares closed at $20.10 after opening at $20.60 for a move of 6.35%.'
p2
aS'Lifetime Brands Inc.  Moves Higher on Volume Spike for February 10 Equities.com - Feb 10, 2017 Lifetime Brands Inc.  traded on unusually high volume on Feb. 10, as the stock gained 1.72% to close at $14.80. On the day, Lifetime Brands Inc. saw 89,222 shares trade hands on 629 trades. Considering that the stock averages only a daily volume ...Lifetime Brands Inc  is Upgraded by Sidoti to  Buy - Highland MirrorLifetime Brands Inc  Raised to Buy at Sidoti - Sports Perspectives'
p3
aS'Lifetime Brands Inc.: Lifetime Brands to Report Fourth Quarter 2016 Financial ... The Wall Street Transcript - Feb 27, 2017 GARDEN CITY, N.Y., Feb. 27, 2017  -- Lifetime Brands, Inc. , a leading global provider of kitchenware, tableware and other products used in the home, will release its fourth quarter 2016 financial results at 7:00 a.m.'
p4
aS'Lifetime Brands acquires Copco Seeking Alpha - Oct 6, 2016 Lifetime Brands  announced acquisition of Copco, a product line from Wilton Brands LLC for an undisclosed term.'
p5
aS'Lifetime Brands Inc.  Moves Lower on Volume Spike for February 28 Equities.com - Feb 28, 2017 Lifetime Brands Inc.  traded on unusually high volume on Feb. 28, as the stock lost 3.97% to close at $14.50. On the day, Lifetime Brands Inc. saw 49,305 shares trade hands on 502 trades. Considering that the stock averages only a daily volume of&nbsp;...Should You Buy Or Sell Lifetime Brands, Inc.  On Analyst Concensus? - NewsDen'
p6
aS"US Stocks: Rexahn Pharmaceuticals, Lifetime Brands Take Early Gains Business News Asia - Mar 14, 2017 Rexahn Pharmaceuticals  and Lifetime Brands Inc  are taking the early lead in today's trading, gaining 15 percent and 9 percent, respectively, at the opening bell."
p7
aS'Lifetime Brands Inc  Jumps Higher For Week Business Review - 17 hours ago Pushing higher over the last five sessions are shares of Lifetime Brands Inc . The stock has risen 36.27% over that span, yielding profits for savvy traders.'
p8
aS'Lifetime Brands Inc  to Release Quarterly Earnings on Monday Chaffey Breeze - Mar 11, 2017 Lifetime Brands Inc  to Release Quarterly Earnings on Monday was first published by Chaffey Breeze and is the property of of Chaffey Breeze.Lifetime Brands Inc.  Moves Higher on Volume Spike for March 10 - Equities.com'
p9
aS"Lifetime Brands, Inc. Announces Results of 2016 Annual Meeting Business Wire  - Jun 10, 2016 GARDEN CITY, N.Y.----Lifetime Brands, Inc. , a leading global provider of branded kitchenware, tableware and other products used in the home, announced the results of the votes taken at the Company's 2016 Annual&nbsp;..."
p10
a.