(lp0
S"Landauer, Inc. Comments on Gilead's Nomination of Directors PR Newswire  - Dec 19, 2016 19, 2016 /PRNewswire/ -- Landauer, Inc. , a recognized leader in personal and environmental radiation measurement and monitoring and outsourced medical physics services, today issued the following statement in response to Gilead Capital&nbsp;..."
p1
aS'Landauer Inc  Upgraded to Hold at Zacks Investment Research The Cerbat Gem - 4 hours ago Landauer Inc  was upgraded by Zacks Investment Research from a sell rating to a hold rating in a research report issued to clients and investors on Wednesday.'
p2
aS'Landauer, Inc. Appoints Teri Fontenot to Board of Directors PR Newswire  - Sep 28, 2016 28, 2016 /PRNewswire/ -- Landauer, Inc. , a recognized leader in personal and environmental radiation measurement and monitoring and outsourced medical physics services, today announced that Teri G. Fontenot has been appointed to the&nbsp;...'
p3
aS'Landauer, Inc. Announces Dr. Craig Yoder To Lead Its Technology Advisory Board PR Newswire  - Feb 11, 2015 GLENWOOD, Ill., Feb. 11, 2015 /PRNewswire/ -- Landauer, Inc. , a recognized leader in personal and environmental radiation measurement and monitoring, outsourced medical physics services and medical consumable accessories, today&nbsp;...'
p4
aS'Landauer, Inc. Names Mike Kaminski President And Chief Executive Officer ... PR Newswire  - Aug 26, 2015 26, 2015 /PRNewswire/ -- Landauer, Inc. , a recognized leader in personal and environmental radiation measurement and monitoring, outsourced medical physics services and high quality medical consumable accessories, today announced that&nbsp;...'
p5
aS'Gilead Capital LP Sends Letter To The Board Of Directors Of Landauer, Inc. Seeking Alpha - Dec 21, 2016 Gilead Capital LP is an asset management firm based in New York City. It holds 5% stake in Landauer, Inc. Gilead Capital LP sent a letter to the Board of Directors of Landauer, claiming that the ex-Executive Chairman Michael Leatherman should step down&nbsp;...'
p6
aS'Analysts Anticipate Landauer Inc  to Announce $0.45 EPS BNB Daily  - Mar 12, 2017 Landauer logo Shares of Landauer Inc  have been given an average broker rating score of 3.67  from the three brokers that cover the stock, Zacks Investment Research reports.The Landauer Inc  Given $44.67 Consensus Target Price by Brokerages - Petro Global News 24'
p7
aS'Landauer, Inc.  Ex-Dividend Date Scheduled for March 15, 2017 Nasdaq - Feb 27, 2017 Landauer, Inc.  will begin trading ex-dividend on March 15, 2017. A cash dividend payment of $0.275 per share is scheduled to be paid on April 04, 2017.'
p8
aS'Landauer Inc  Given $44.67 Consensus Target Price by Brokerages Chaffey Breeze - Mar 14, 2017 Landauer logo Shares of Landauer Inc  have been given an average broker rating score of 3.67  from the three analysts that cover the company, Zacks Investment Research reports.Landauer, Inc.  to pay $0.28 on Apr 4, 2017; Jaffray Companies Piper (PJC ... - MoneyMakingArticlesLandauer Inc  To Go Ex-Dividend on March 15th - Sports Perspectives'
p9
aS'Landauer Inc.  Moves Higher on Volume Spike for March 01 Equities.com - Mar 1, 2017 Landauer Inc.  traded on unusually high volume on Mar. 01, as the stock gained 6.51% to close at $55.65. On the day, Landauer Inc. saw 49,571 shares trade hands on 628 trades. Considering that the stock averages only a daily volume of 26,839&nbsp;...Landauer, Inc.  Director Jeffrey A. Strong Acquires 43946 Shares of Stock - Sports Perspectives'
p10
a.