(lp0
S'Legacy Reserves LP Announces 2016 Schedules K-1 Available GlobeNewswire  - Mar 7, 2017 MIDLAND, Texas, March 07, 2017  -- Legacy Reserves LP   announced today that it has completed the 2016 tax packages for unitholders of LGCY, LGCYP and LGCYO including Schedules K-1.'
p1
aS'Stock Momentum in Focus on Shares of Legacy Reserves LP  Rives Journal - 11 hours ago Traders may be trying to figure out whether it is a good time to enter or exit a position in Legacy Reserves LP . The Average Directional Index or ADX is a technical analysis indicator used to describe if a market is trending or not trending.'
p2
aS"Legacy's Modus Operandi Is Not Sustainable Seeking Alpha - 23 hours ago On December 8th, 2015, I wrote the first article on my thoughts on Legacy Partners LP . By the end of February, the stock price had fallen from $3.00 to $0.71 per share."
p3
aS"Moody's Changes Legacy Reserves' PDR to Caa3-PD/LD Moodys.com   - May 5, 2016 New York, May 05, 2016 -- Moody's Investors Service,  changed Legacy Reserves, LP's  Probability of Default Rating  to Caa3-PD/LD from Caa3-PD. At the same time, Moody's affirmed Legacy's Corporate Family Rating  at&nbsp;..."
p4
aS"I've Been Wrong About Legacy Reserves So Far Seeking Alpha - Mar 29, 2016 In this piece, I decided to revisit Legacy Reserves, a company I expressed some concern about in a previous article. After seeing oil prices soar and in spite of a drop in natural gas prices, the company should be cash flow positive this year if the ..."
p5
aS'Legacy Reserves: 4 Things To Watch For Seeking Alpha - Feb 20, 2017 In this article, I decided to look at Legacy Reserves as earnings season nears and to give my thoughts on what investors should watch out for.Legacy Reserves LP  Scheduled to Post Earnings on Wednesday - Community Financial News'
p6
aS'Legacy Reserves LP : Will They Hit or Miss; Earnings Estimates Yahoo News - Apr 27, 2016 MIDLAND, TX / ACCESSWIRE / April 27, 2016 / Legacy Reserves LP  is a master limited partnership headquartered in Midland, Texas, focused on the acquisition and development of oil and natural gas properties primarily located in the Permian Basin&nbsp;...'
p7
aS'Analysts Chime in on Two Rising Stocks: Legacy Reserves LP , NCR ... Smarter Analyst - Oct 26, 2016 While U.S. stocks fell for a second straight session on Wednesday, Legacy Reserves LP  and NCR Corporation  are up sharply today amid positive loan credit agreement and 3Q earnings report, respectively.'
p8
aS"Legacy Reserves' Brilliant Strategy Seeking Alpha - May 9, 2016 Shares of Legacy Reserves have been higher lately and part of this is most certainly due to management's brilliant decisions."
p9
aS'Stock Returns: Legacy Reserves LP  versus W&amp;T Offshore Inc  CML News - 18 hours ago This is a snapshot to compare the stock returns for Legacy Reserves LP  versus W&amp;T Offshore Inc  .Legacy Reserves LP  Receives An Update From Brokers - The De Soto Edge'
p10
a.