(lp0
S'LinkedIn Corp  Co-Founder Joins Microsoft Corporation (NASDAQ:MSFT ... Market Exclusive - 12 hours ago Microsoft Corporation  announced that it has appointed Reid Hoffman, co-founder of LinkedIn Corp , to its board of directors.LinkedIn co-founder Reid Hoffman joins Microsoft Corp. board - Puget Sound Business Journal Microsoft Adds LinkedIn Co-Founder Hoffman to Board of Directors - Bloomberg'
p1
aS"Is LinkedIn Corp a Buy? Motley Fool - May 5, 2016 Shares of LinkedIn  just can't get any turnaround momentum going. After Q1 results sparked a big after-hours pop last Thursday, the shares have since retreated and remain off more than 50% from their 52-week highs."
p2
aS'Better Buy: LinkedIn Corp. vs. Facebook Inc. Motley Fool - Sep 22, 2016 It may seem like a distant memory now, but it was just February of this year that LinkedIn  lost nearly half its value following a &quot;disappointing&quot; 2016 Q1 outlook.'
p3
aS'3 Ways LinkedIn Corp Plans to Grow Its Largest Business Motley Fool - Jun 9, 2016 LinkedIn  is a growth stock. Last quarter, the online network generated $861 million of revenue -- up 35% from the same quarter last year.'
p4
aS'LinkedIn Corp Gets a Pink Slip as Shares Plummet 41% in February Motley Fool - Mar 10, 2016 LinkedIn reported fourth quarter results in the first week of February. The business-class social network beat its own revenue and earnings guidance, not to mention Wall Street consensus estimates.'
p5
aS"Wow: the Story Behind LinkedIn Corp. Stock's Huge 48% Move Motley Fool - Jun 13, 2016 What: LinkedIn  stock opened up Monday morning. Shares jumped as much as 48.3%, driven by a Monday morning announcement that Microsoft  reached a deal to acquire the social network for professionals for $26.2 billion.Microsoft Corp buys LinkedIn for $26.2 billion - Financial PostMicrosoft to acquire LinkedIn in $US35b deal - ABC Online"
p6
aS"LinkedIn Corp. Earnings: Is This Catalyst Still Kickin'? Motley Fool - Apr 23, 2016 When LinkedIn  reported fourth-quarter results, the world's largest online network of professionals gave investors a reason to view the company's growth prospects skeptically.LinkedIn Corp: What Can Pull LNKD Out of Its Funk? - Investorplace.com"
p7
aS'Facebook puts LinkedIn in crosshairs with new job listings service Proactive Investors UK - Feb 16, 2017 Facebook Inc  is seemingly gunning for LinkedIn Corp  with its latest rollout of services, targeting the job market.Facebook Inc takes on LinkedIn Corp by letting businesses recruit people ... - Financial Post'
p8
aS"Microsoft's Massive LinkedIn Corp Acquisition in 6 Metrics Motley Fool - Jun 15, 2016 Microsoft  and LinkedIn  both surprised investors Monday when they announced the software giant had agreed to purchase the social network for professionals in what is Microsoft's largest acquisition in history.LinkedIn Corp Downgraded For Microsoft Corporation Acquisition - ValueWalkMarc Benioff reveals Salesforce also tried to buy LinkedIn - SiliconANGLE "
p9
aS"Microsoft's LinkedIn Corp Acquisition: An In-Depth Look Motley Fool - Jun 23, 2016 LinkedIn and Microsoft announced a big deal. In fact, it was Microsoft's biggest acquisition in history ever, paying $26.2 billion for the company."
p10
a.