(lp0
S'Why LifeLock Inc. Surged 21% in June Motley Fool - Jul 9, 2016 What: Shares of LifeLock soared 21% last month, according to data provided by S&amp;P Global Market Intelligence.'
p1
aS"Why LifeLock Inc.'s Shares Jumped 48% in November Motley Fool - Dec 5, 2016 Shares of LifeLock Inc.  jumped a whopping 47.9% in November, according to data provided by S&amp;P Global Market Intelligence, after the security company agreed to a buyout offer."
p2
aS"LifeLock Inc. Earnings Sink as Costs Rise Motley Fool - Aug 10, 2016 LifeLock's monthly average revenue per member continued its ascent, rising to $11.97 from $11.90 in the first quarter and $11.68 in the year-ago period."
p3
aS"Why Lifelock Inc's Shares Dropped 16% Today Motley Fool - Apr 28, 2016 Now what: Fundamentally, I don't see any reason to get too worked up about Lifelock's move on Thursday. The company is growing and expecting solid profitability in 2016."
p4
aS"LifeLock Inc. Earnings: Membership Growth Boosts Sales, but Higher Costs Widen ... Motley Fool - Apr 29, 2016 In addition, Lifelock's total costs and expenses increased 21% -- outpacing revenue growth -- as the company continues to invest in its technology platform and marketing initiatives."
p5
aS'LifeLock Sues Goodwin Atty, Tech Co. Boss Over $43M Deal Law360  - Sep 20, 2016 Law360, Los Angeles  -- LifeLock Inc. lodged a suit in Delaware state court Monday accusing the former CEO of a tech startup and the former CFO and general counsel - now a Goodwin Procter LLP partner - of hiding&nbsp;...'
p6
aS'LifeLock, Inc.  Files An 8-K Submission of Matters to a Vote of ... Market Exclusive - Jan 27, 2017 LifeLock, Inc. provides proactive identity theft protection services for consumers and consumer risk management services for enterprises.'
p7
aS'Symantec finalizes LifeLock buyout Seeking Alpha - Feb 9, 2017 Symantec  CEO Greg Clark: &quot;The combination of Symantec, the leader in consumer security, and LifeLock, with more than 4.5 million members, paves the way for us to deliver comprehensive digital safety solutions for consumers who face an&nbsp;...'
p8
aS'SYMC, LOCK: Symantec Corporation to Buy Lifelock Inc for $2.3 Billion Investorplace.com - Nov 21, 2016 Symantec Corporation, Lifelock Inc, SYMC, LOCK The deal between Symantec Corporation and Lifelock Inc will have the former paying $24 per share for LOCK stock.Symantec Sees Consumer Promise in LifeLock Deal - Wall Street JournalSymantec Said to Reach Deal to Buy LifeLock for $2.4 Billion - Bloomberg'
p9
aS"Lifelock Inc  Takes Off on Strategic Alternative Talk Schaeffers Research  - Aug 5, 2016 It's been a notable day for the cybersecurity sector, with earnings sending this stock to decade highs and weighing on another.Exclusive: LifeLock taps Evercore to explore options - sources - ReutersLifeLock  Stock Surges, Explores Possible Sale - TheStreet.com"
p10
a.