(lp0
S'Analysts Take: Grand Canyon Education, Inc.  Projected Earnings ... Aiken Advocate - Sep 8, 2016 Investors and analysts are typically super focused on company earnings numbers when they are reported. Company earnings are a good way to evaluate the company profitability.'
p1
aS'Grand Canyon Education Inc.  Breaks into New 52-Week High on March 15 ... Equities.com - 12 hours ago Shares of Grand Canyon Education Inc.  broke into a new 52-week high yesterday, hitting a peak of $68.73. Shares closed at $68.47 after opening at $67.48 for a move of 1.71%.Daniel E. Bachus Sells 14000 Shares of Grand Canyon Education Inc  Stock - BNB Daily The Grand Canyon Education Inc  COO William Stan Meyer Sells 20000 Shares - Petro Global News 24'
p2
aS'Grand Canyon University passes Higher Learning Commission accreditation muster Phoenix Business Journal - Mar 13, 2017 The Higher Learning Commission has given its stamp of approval to Grand Canyon University - which could be why its stock has been trading a bit higher today.'
p3
aS'Grand Canyon Education, Inc. Reports Fourth Quarter And Full Year 2016 Results PR Newswire  - Feb 16, 2017 16, 2017 /PRNewswire/ -- Grand Canyon Education, Inc. , a comprehensive regionally accredited university that offers over 200 graduate and undergraduate degree programs and certificates across nine colleges both online and on ground&nbsp;...'
p4
aS"Grand Canyon Education  Q3 2016 Results - Earnings Call Transcript Seeking Alpha - Nov 3, 2016 Good day, ladies and gentlemen, and welcome to the Grand Canyon University Third Quarter 2016 Earnings Conference Call. As a reminder, today's program is being recorded."
p5
aS'Grand Canyon Education  Catches Eye: Stock Jumps 6.7% Yahoo Finance - Feb 21, 2017 Grand Canyon Education, Inc. LOPE was a big mover last session, as the company saw its shares rise almost 7% on the day.Grand Canyon Education Inc.  Moves Lower on Volume Spike for February 21 - Equities.comFranklin Resources Inc. Sells 149339 Shares of Grand Canyon Education, Inc.  - The Cerbat Gem'
p6
aS'Grand Canyon Education beats 4Q profit forecasts Yahoo Finance - Feb 16, 2017 PHOENIX  _ Grand Canyon Education Inc.  on Thursday reported fourth-quarter net income of $48 million. The Phoenix-based company said it had profit of $1.01 per share.'
p7
aS'Grand Canyon Education Inc.  Moves Higher on Volume Spike for March 09 Equities.com - Mar 9, 2017 Grand Canyon Education Inc.  traded on unusually high volume on Mar. 09, as the stock gained 0.23% to close at $66.13.Forward Earnings Estimate on Grand Canyon Education, Inc. - Money Flow Index & TrendsThe Grand Canyon Education Inc  Shares Bought by Dimensional Fund ... - DailyQuint'
p8
aS'First Week of January 2017 Options Trading For Grand Canyon Education  Nasdaq - Nov 22, 2016 Investors in Grand Canyon Education Inc  saw new options become available this week, for the January 2017 expiration.'
p9
aS'Large Outflow of Money Witnessed in Grand Canyon Education, Inc. Highland Mirror - Mar 6, 2017 Shares of Grand Canyon Education, Inc.  traded 1.6 points or 2.54% higher at $64.59.The total intraday money flow for the shares came in at a disappointing $ million.Stock Returns: Grand Canyon Education Inc  is Beating Nord Anglia ... - CML NewsGrand Canyon Education, Inc.  Files Form 4 Insider Selling : Brian M ... - Energy Index'
p10
a.