(lp0
S'LivePerson Announces Fourth Quarter 2016 Financial Results PR Newswire  - Feb 8, 2017 LivePerson signed a total of 93 deals in the quarter, which includes the addition of 33 new customer contracts. Revenue per enterprise and mid-market customers averaged just over $200,000 over the trailing twelve months ended in the fourth quarter of ...LivePerson Inc.  Moves Higher on Volume Spike for February 09 - Equities.com'
p1
aS"LivePerson Helps Millions of T-Mobile Customers Message for Service PR Newswire  - Nov 9, 2016 NEW YORK, Nov. 9, 2016 /PRNewswire/ -- LivePerson, Inc. , a leading provider of cloud mobile and online business messaging solutions, today announced that T-Mobile has launched LivePerson's mobile messaging as a customer service&nbsp;...LivePerson's  CEO Robert LoCascio on Q3 2016 Results - Earnings Call ... - Seeking Alpha"
p2
aS"LivePerson Inc. Earnings: Looking for Signs of Life Motley Fool - Nov 10, 2016 Revenue keeps going the wrong way at LivePerson . The provider of high-tech customer support reported quarterly results after Tuesday's market close, and it was another sluggish performance."
p3
aS'LivePerson Inc. LPSN  Wall Street Journal - Feb 11, 2011 News LivePerson Inc.LPSN. Significant News Only. 01/25/17; Press Release. LivePerson to Announce Fourth Quarter 2016 Financial Results on February 8, 2017.'
p4
aS'LivePerson introduces new mobile app for automotive and real estate brands PR Newswire  - Dec 9, 2016 9, 2016 /PRNewswire/ -- LivePerson, Inc. , the leading provider of cloud mobile and online business messaging solutions, announced today a completely new Contact At Once!'
p5
aS'Jill Layfield of Tamara Mellon to join LivePerson Board of Directors PR Newswire  - Nov 22, 2016 NEW YORK, Nov. 22, 2016 /PRNewswire/ -- LivePerson, Inc. , a leading provider of cloud mobile and online business messaging solutions, today announced that Jill Layfield, CEO of Tamara Mellon and former CEO of Backcountry, will be&nbsp;...'
p6
aS'Why Shares of LivePerson Inc. Jumped 10% Today Motley Fool - Mar 14, 2016 What: Shares of LivePerson  jumped on Monday on no company-specific news. The stock has been tumbling since the beginning of 2015, but has rebounded strongly over the past month.'
p7
aS'LivePerson to Participate in 29th Annual ROTH Conference PR Newswire  - Mar 2, 2017 NEW YORK, March 2, 2017 /PRNewswire/ -- LivePerson, Inc. , a leading provider of cloud-based mobile and online business messaging solutions, today announced its participation in the 29th Annual ROTH Conference at The Ritz-Carlton,&nbsp;...LivePerson, Inc.  EPS Expected At $-0.03 - Markets DailyThe LivePerson, Inc.  Given Average Recommendation of Hold by Analysts - DailyQuint'
p8
aS'Why LivePerson Inc. Stock Jumped Today Motley Fool - Jul 7, 2016 What: Shares of LivePerson , a provider of mobile and online messaging services, jumped on Thursday, with the only meaningful news being an analyst upgrade.'
p9
aS'LivePerson Inc. Earnings: Another Growth Streak Bites the Dust Motley Fool - May 10, 2016 LivePerson  is going the wrong way in its latest quarterly report, and with the stock heading lower in five of the six trading days leading up to its announcement of fresh financials, it seems as if the shares are following suit.'
p10
a.