(lp0
S'LTC Properties, Inc.  Ex-Dividend Date Scheduled for January 19, 2017 Nasdaq - Jan 18, 2017 LTC Properties, Inc.  will begin trading ex-dividend on January 19, 2017. A cash dividend payment of $0.19 per share is scheduled to be paid on January 31, 2017.LTC Properties, Inc.  to Issue Jan 17 Dividend of $0.19 on January 31st - Sports Perspectives'
p1
aS"LTC's Wendy Simpson to Participate in the NIC Spring Investment Forum Business Wire  - Mar 9, 2017 WESTLAKE VILLAGE, Calif.----LTC Properties, Inc.  announced today that Wendy Simpson, the company's Chairman, Chief Executive Officer and President, will be a session speaker on the Skilled Nursing Trends and Strategic&nbsp;..."
p2
aS'Best Of The Best Monthly Dividend Stocks: LTC Properties, Inc. ValueWalk - May 25, 2016 Best Of The Best Monthly Dividend Stocks: LTC Properties, Inc. By Dirk S. Leach, Sure Dividend. I recently published an article entitled The Best Monthly Dividend Stocks where I evaluated 17 C-corporation stocks that pay dividends monthly.'
p3
aS"LTC Properties, Inc.  Analyst's Long Term Pick Aiken Advocate - 7 hours ago Shaers of LTC Properties, Inc.  have been recommended as a long term growth pick according to Beta Research."
p4
aS'LTC Properties 4.8% Annual Yield Will Go On Seeking Alpha - Dec 18, 2016 LTC Properties Inc.  continues to look like a strong dividend investment over the long-term, in spite of the recent rate hike.'
p5
aS'LTC Properties, Inc.: This 5% Yielding Health Care REIT Is A Good Choice For ... Seeking Alpha - Jan 5, 2016 Growing demand for senior health care is one of the biggest megatrends of our time. LTC Properties is in a good position to capitalize on this megatrend through its portfolio of senior health care real estate. The health care REIT is not too expensive ...LTC Adds to Management Team - Business Wire '
p6
aS'LTC Properties: 5% Yield, Strong Dividend Coverage, Attractive Growth, Pays ... Seeking Alpha - Jan 6, 2017 LTC Properties, Inc.  is an interesting income play in the healthcare REIT sector. LTC Properties invests heavily in the growth of its real estate portfolio, and has good dividend coverage.'
p7
aS'LTC Properties Becomes Oversold Nasdaq - Mar 11, 2017 But making LTC Properties, Inc. an even more interesting and timely stock to look at, is the fact that in trading on Friday, shares of LTC entered into oversold territory, changing hands as low as $44.92 per share.'
p8
aS"Put This Monthly Dividend Payer On Snooze Control Seeking Alpha - Jan 27, 2017 It's not easy picking SWANs though, as many high-quality REITs are often priced for perfection. LTC is small, and the company can grow much easier than the larger peers."
p9
aS'State Street Corp Has $65752000 Position in LTC Properties Inc  Chaffey Breeze - Mar 14, 2017 LTC Properties logo State Street Corp increased its stake in shares of LTC Properties Inc  by 4.2% during the fourth quarter, according to its most recent 13F filing with the Securities and Exchange Commission .Can LTC Properties, Inc.  Hit EPS Of $0.82? - Markets DailyLTC Properties, Inc.  200-day MA At $47.994 - Equities Focus'
p10
a.