(lp0
S'La-Z-Boy Incorporated  Ex-Dividend Date Scheduled for March 02, 2017 Nasdaq - Mar 1, 2017 La-Z-Boy Incorporated  will begin trading ex-dividend on March 02, 2017. A cash dividend payment of $0.11 per share is scheduled to be paid on March 15, 2017.Revenue Update on La-Z-Boy Incorporated - Energy IndexLa-Z-Boy Incorporated  to Issue Quarterly Dividend of $0.11 on March 15th - Chaffey Breeze'
p1
aS'Earnings Reaction History: La-Z-Boy Incorporated, 50.0% Follow-Through ... Nasdaq - Feb 21, 2017 La-Z-Boy Incorporated  is due to issue its quarterly earnings report in the upcoming extended-hours session. Given its history, traders can expect light trading in the issue immediately following its quarterly earnings announcement.'
p2
aS'Zacks Investment Research Upgrades La-Z-Boy Incorporated  to Hold The Cerbat Gem - 5 hours ago La-Z-Boy logo La-Z-Boy Incorporated  was upgraded by Zacks Investment Research from a sell rating to a hold rating in a report released on Wednesday.Common Share Dividend Yield of La-Z-Boy Incorporated  - Energy IndexMarket Cap Of La-Z-Boy Incorporated  Of $1.34B - Equities Focus'
p3
aS"La-Z-Boy Incorporated Expands Manufacturing Campus In Rhea County, Tennessee Area Development Online - Feb 3, 2017 La-Z-Boy Incorporated, the upholstery furniture manufacturer and marketer, will expand in Rhea County, Tennessee. La-Z-Boy, Rhea County's largest employer, will invest approximately $26 million over three years and create 115 new jobs in Dayton.La-Z-Boy to invest $26m in new 70000sq ft design facility - Cabinet Maker"
p4
aS'La-Z-Boy to Invest in Dayton, TN Manufacturing Campus GlobeNewswire  - Feb 2, 2017 MONROE, Mich., Feb. 02, 2017  -- La-Z-Boy Incorporated  today announced it plans to invest approximately $26 million over a three-year period in its largest U.S.La-Z-Boy To Expand Rhea Co. Plant; Add 115 Jobs - NewsChannel5.comLa-Z-Boy expansion in Dayton to create more than 100 new jobs - WRCB-TV'
p5
aS'La-Z-Boy Acquires UK Licensee and Nine La-Z-Boy Furniture Galleries Stores in ... GlobeNewswire  - Nov 15, 2016 MONROE, Mich., Nov. 15, 2016  -- La-Z-Boy Incorporated  today announced it signed an agreement to acquire the license for the La-Z-Boy brand in the United Kingdom and Ireland from Furnico Ltd.La-Z-Boy completes UK license deal from Furnico; acquires nine US stores - Cabinet MakerLa-Z-Boy to Acquire UK Licensee; Buys 9 Retail Stores in Pennsylvania - Home Furnishings Business'
p6
aS'La-Z-Boy Incorporated  Moves Higher on Volume Spike for February 24 Equities.com - Feb 24, 2017 La-Z-Boy Incorporated  traded on unusually high volume on Feb. 24, as the stock gained 0.37% to close at $26.80. On the day, La-Z-Boy Incorporated saw 947,913 shares trade hands on 5,585 trades. Considering that the stock averages only a daily&nbsp;...La-Z-Boy Reports Fiscal 2017 Third-Quarter Results - GlobeNewswire LA-Z-BOY INCORPORATED  Files An 8-K Results of Operations and ... - Market Exclusive'
p7
aS"La-Z-Boy Reports Fiscal 2017 Second-Quarter Results GlobeNewswire  - Nov 30, 2016 The company reported net income attributable to La-Z-Boy Incorporated of $20.8 million, or $0.42 per diluted share, versus $21.0 million, or $0.41 per diluted share, in last year's second quarter."
p8
aS'La-Z-Boy Incorporated | $LZB Stock | Shares Stumble Down On Lower Than ... TickerTV News  - Aug 24, 2016 La-Z-Boy Incorporated , a global residential furniture company yesterday reported their fiscal first quarter 2017 financial results.La-Z-Boy Reports Fiscal 2017 First-Quarter Results - PR Newswire '
p9
aS'La-Z-Boy Reports Fiscal 2016 Full-Year And Fourth-Quarter Results PR Newswire  - Jun 21, 2016 Kurt L. Darrow, Chairman, President and Chief Executive Officer of La-Z-Boy, said, &quot;We delivered exceptional performance in fiscal 2016 and continued on a five-year path of sales and earnings increases.'
p10
a.