(lp0
S'MEI Pharma to Present at Oppenheimer Healthcare Conference Yahoo Finance - Mar 14, 2017 SAN DIEGO, March 14, 2017 /PRNewswire/ -- MEI Pharma, Inc. , an oncology company focused on the clinical development of novel therapies for cancer, announced today that Daniel P. Gold, Ph.Stocks Buzz: MEI Pharma, Inc.  , Aircastle Limited  - NYSE Journal In Volatile Markets Do Analysts Think You Should Buy MEI Pharma, Inc. ? - The De Soto Edge'
p1
aS'MEI Pharma Reports Second Quarter Fiscal Year 2017 Results PR Newswire  - Feb 8, 2017 SAN DIEGO, Feb. 8, 2017 /PRNewswire/ -- MEI Pharma, Inc. , an oncology company focused on the clinical development of novel therapies for cancer, today reported results for its second quarter ended December 31, 2016.MEI Pharma, Inc.  Sees Strong Trading Volume Following Strong Earnings - The Cerbat GemMEI Pharma, Inc.  Releases Quarterly Earnings Results, Beats Estimates ... - BBNS'
p2
aS'Technical Levels in Focus: MEI Pharma Inc  Rives Journal - 16 hours ago Investors are keeping a close eye on levels of MEI Pharma Inc . The Average Directional Index or ADX is a technical analysis indicator used to describe if a market is trending or not trending.'
p3
aS'MEI Pharma Reports Fiscal Year 2016 Results PR Newswire  - Sep 6, 2016 SAN DIEGO, Sept. 6, 2016 /PRNewswire/ -- MEI Pharma, Inc. , an oncology company focused on the clinical development of novel therapies for cancer, today reported results for its fiscal year ended June 30, 2016.'
p4
aS'BRIEF-MEI Pharma posts Q2 earnings per share $0.32 Reuters - Feb 8, 2017 Feb 8 Boeing Co is the front-runner as Singapore Airlines Ltd is closing in on a 35 wide-body aircraft order amid a battle with Chinese and Middle Eastern carriers, Bloomberg reported, citing sources.'
p5
aS"MEI Pharma Inc  Poised To Move Higher; Here's Why Smarter Analyst - Apr 19, 2016 Having seen the updated Pracinostat overall survival data in elderly Acute Myeloid Leukemia  from MEI Pharma  presented at the recent Needham Healthcare Conference, I believe this is another opportunity to buy a severely&nbsp;..."
p6
aS"Helsinn Group and MEI Pharma Enter Strategic Agreement for the Development and ... PR Newswire  - Aug 8, 2016 LUGANO, Switzerland and SAN DIEGO, Aug. 8, 2016 /PRNewswire/ -- Helsinn, a Swiss pharmaceutical group focused on building quality cancer care products, and MEI Pharma, Inc. , an oncology company focused on the clinical development&nbsp;...MEI Pharma Partners with Helsinn on Drug with Potential $464M Payoff - XconomyWhat MEI Pharma Inc 's $444 Million Deal Really Means - Scibility Media"
p7
aS'MEI Pharma shares jump 51% in pre-market trade after $20 mln drug deal MarketWatch - Aug 8, 2016 MEI Pharma Inc. MEIP, -1.72% shares rose as much as 51% in pre-market trade Monday after the company said it entered a $20 million deal with Swiss pharmaceutical group Helsinn to license, develop and commercialize its leukemia drug, and that Helsinn&nbsp;...'
p8
aS"MEI Pharma Announces New Clinical Data from First-in-Human Study of ME-401, A ... PR Newswire  - Apr 20, 2016 SAN DIEGO, April 20, 2016 /PRNewswire/ -- MEI Pharma, Inc. , an oncology company focused on the clinical development of novel therapies for cancer, announced new clinical data from a first-in-human study of MEI Pharma's investigational&nbsp;..."
p9
aS"MEI Pharma's Pracinostat Receives Breakthrough Therapy Designation from FDA ... PR Newswire  - Aug 1, 2016 SAN DIEGO, Aug. 1, 2016 /PRNewswire/ -- MEI Pharma, Inc. , an oncology company focused on the clinical development of novel therapies for cancer, announced today that the U.S.Pracinostat Granted Breakthrough Therapy Designation for AML in Elderly Patients - Cancer Therapy Advisor"
p10
a.