(lp0
S"MFA Financial, Inc. : From Top to Bottom StockNewsJournal - 17 hours ago MFA Financial, Inc.  is an interesting player in the Financial space, with a focus on REIT - Diversified. The stock has been active on the tape, currently trading at $7.90, down from yesterday's close by -0.63%.Stock Update: Estimates &amp; Target in Focus for MFA Financial, Inc.  - Aiken AdvocateNoteworthy Stock: MFA Financial, Inc.  - Is stories"
p1
aS'MFA Financial, Inc.: High Yield Dividend Investors Should Consider This mREIT ... Seeking Alpha - Feb 20, 2017 Long-term investors of MFA Financial, Inc.  have been treated very well by this Mortgage REIT, yet there has only been three articles written about them on Seeking Alpha in the last fourteen months.Analyst EPS Forecast Coverage: MFA Financial, Inc.  - TWN'
p2
aS"Sell-Side Analyst's Predictions: MFA Financial, Inc. , Lumentum Holdings ... The USA Commerce - 21 hours ago Shares of MFA Financial, Inc.  dropped -0.63% to $7.90. During the trading on 03/14/2017, Company's stock ranged from $7.89 to $7.97."
p3
aS'MFA Financial, Inc.  Common Share Dividend Payout Ratio Energy Index - 12 hours ago The dividend growth rate of MFA Financial calculated based on 20 historical quarterly dividends is -6.83% while the R-Squared dividend growth rate regression is 0.22.'
p4
aS'Consensus Earnings Estimate for MFA Financial, Inc. Energy Index - Mar 10, 2017 MFA Financial, Inc. Indepth Earnings, EPS and Estimated Revenue Guidance give detailed picture on the performance.'
p5
aS"What are Analyst's Indicators for Cinemark Holdings, Inc. , MFA Financial ... The USA Commerce - Mar 13, 2017 Shares of Cinemark Holdings, Inc.  surged 2.24% to $43.89. During the trading on 03/10/2017, Company's stock ranged from $42.88 to $43.93. The relative strength index or RSI highlights overbought  and oversold  areas.Analysts Stance on 2 Companies: Cinemark Holdings, Inc. , MFA ... - The Voice Registrar"
p6
aS'MFA Financial, Inc. Announces Fourth Quarter 2016 Financial Results PR Newswire  - Feb 16, 2017 MFA acquired $455.3 million of 3 year step-up securities, $98.4 million of credit sensitive residential whole loans and $54.5 million of Credit Risk Transfer securities during the quarter.Why to Keeping Eye on NiSource Inc. , MFA Financial, Inc. ? - StockNewsJournalMFA Financial misses 4Q profit forecasts - Yahoo Finance'
p7
aS"Today Analysts Focus on Kate Spade &amp; Company , MFA Financial, Inc.  StockNewsJournal - Mar 14, 2017 MFA Financial, Inc. , maintained return on investment for the last twelve months at 8.64, higher than what Reuters data shows regarding industry's average."
p8
aS'MFA FINANCIAL,INC.  Files An 8-K Temporary Suspension of Trading ... Market Exclusive - Mar 1, 2017 The information set forth in this Form8-K updates the information contained in the Form8-K filed by MFA Financial,Inc.  on December22, 2016. On February28, 2017, the Company sent a notice  to participants ...MFA Financial, Inc.  Rating Lowered to Hold at Zacks Investment Research - Chaffey BreezeTaking a Fresh Look at MFA Financial, Inc.  - StockNewsJournal'
p9
aS"Today's Analyst Moves: KBR, Inc. , MFA Financial, Inc.  USA Commerce Daily - 16 hours ago Shares of KBR, Inc.  observed rebound of 18.97% since bottoming out at $12.08 on Jun. 27, 2016. Meanwhile, due to an ongoing pressure which caused a decline of almost -2.42% in the past five days, the stock price is now down -14.76% so far&nbsp;..."
p10
a.