(lp0
S'Reckitt closes $21.2 billion Mead Johnson acquisition loans Reuters UK - Mar 10, 2017 LONDON UK consumer goods group Reckitt Benckiser  has closed syndication of US$21.2bn-eqivalent of loans supporting its US$17.9bn acquisition of US baby formula maker Mead Johnson Nutrition Co , the company announced on Friday.'
p1
aS'Mead Johnson Nutrition Company  Ex-Dividend Date Scheduled for March 09, 2017 Nasdaq - Mar 8, 2017 Mead Johnson Nutrition Company  will begin trading ex-dividend on March 09, 2017. A cash dividend payment of $0.412 per share is scheduled to be paid on April 03, 2017.Checking the Overall Picture for Mead Johnson Nutrition Company  - StockNewsJournalConsensus Earnings Estimate for Mead Johnson Nutrition Company - Energy Index'
p2
aS'WEISSLAW LLP: Mead Johnson Nutrition Company Acquisition May Not Be in the ... PR Newswire  - Feb 14, 2017 NEW YORK, Feb. 14, 2017 /PRNewswire/ -- WeissLaw LLP is investigating possible breaches of fiduciary duty and other violations of law by the Board of Directors of Mead Johnson Nutrition Company   in connection&nbsp;...'
p3
aS'Buy or Sell? Average Brokerage Ratings on Mead Johnson Nutrition Company (MJN ... StockNewsJournal - 19 hours ago ROI deals with the invested cash in the company and the return the investor realize on that money based on the net profit of the business.Smart Money Buying the Price Weakness of Mead Johnson Nutrition Company  - Energy IndexWhat Analysts are Predicting For PPL Corporation , Mead Johnson Nutrition ... - The USA Commerce'
p4
aS'Why Is Mead Johnson  Up 20.3% Since the Last Earnings Report? Nasdaq - Feb 27, 2017 It has been about a month since the last earnings report for Mead Johnson Nutrition Company MJN . Shares have added about 20.3% in that time frame, outperforming the market.'
p5
aS"Let's Get Technical With Mead Johnson Nutrition Company  USA Commerce Daily - 13 hours ago With all other things going on, Mead Johnson Nutrition Company  has been on a run - rising 20.25 percent in just three months."
p6
aS'Technical Reports on Processed &amp; Packaged Goods Equities -- Mead Johnson ... PR Newswire  - Feb 16, 2017 On Wednesday, shares in Glenview, Illinois headquartered Mead Johnson Nutrition Co. recorded a trading volume of 9.10 million shares, which was above their three months average volume of 3.14 million shares.Taking a Look at the Data Behind Mead Johnson Nutrition Company  - StockNewsJournalStock under Review: Mead Johnson Nutrition Company  - TopChronicle'
p7
aS'Mead Johnson Board of Directors Announces Dividend Yahoo Finance - Mar 1, 2017 Mead Johnson Nutrition Company  announced today that its board of directors has declared a regular quarterly dividend of $0.4125 per share for the quarter ending March 31, 2017.'
p8
aS"Mead Johnson Acquires Strategic Capabilities and Capacity in Australia Yahoo Finance - Feb 27, 2017 Mead Johnson Nutrition Company  is pleased to announce it has reached an agreement to acquire spray drying and finishing capabilities in Australia from Bega Cheese Limited , one of Australia's leading dairy product companies."
p9
aS"Mead Johnson Acquires Bega's Strategic Capabilities Business Nasdaq - Mar 1, 2017 Mead Johnson Nutrition Company MJN , a leading name in pediatric nutrition recently inked an agreement with Bega Cheese Limited."
p10
a.