(lp0
S'Maximus Inc.  Breaks into New 52-Week High on March 15 Session Equities.com - 11 hours ago Shares of Maximus Inc.  broke into a new 52-week high yesterday, hitting a peak of $62.18. Shares closed at $61.86 after opening at $61.43 for a move of 0.86%.Common Share Dividend Yield of Maximus, Inc.  - Energy IndexSmart Money Selling the Price Strength of Maximus, Inc.  - Highland Mirror'
p1
aS'Why MAXIMUS, Inc. Stock Popped Today Motley Fool - Nov 10, 2016 Shares of MAXIMUS Inc.  jumped as much as 11.6% early Thursday, then settled to close down 8.6% after the government health and human services programs company released stronger-than-expected fiscal fourth-quarter 2016 results.'
p2
aS"Insider Trading Activity MAXIMUS, Inc.   General Counsel Sold 1500 ... Market Exclusive - Mar 10, 2017 David Francis , General Counsel of MAXIMUS, Inc.  reportedly Sold 1,500 shares of the company's stock at an average price of 60.36 for a total transaction amount of $90,540.00 SEC Form.Inside Selling: David Francis Unloaded 1500 Shares of MAXIMUS, Inc. (MMS ... - HuronReportMAXIMUS, Inc.  General Counsel Sells $90540.00 in Stock - BBNS"
p3
aS'Is MAXIMUS, Inc.  a Long Term Growth Play? Aiken Advocate - 10 hours ago MAXIMUS, Inc.  has been recommended as a long term growth stock according to analysts at Beta Research. With their stock price currently trading around $61.86, the firm has proven a solid track record of growth over the past few years.'
p4
aS'Maximus to hold 3 job fairs to fill 2100 positions Rochester Democrat and Chronicle - Jul 21, 2016 The first of three job fairs is being held today at the Rochester Tech Park to fill hundreds of open positions for a new Maximus Inc. call center. According to the Gates Chili Chamber of Commerce, the job fairs will be held from 9 a.m. to 4 p.m. today ...'
p5
aS'Maximus: UK Contract May Continue To Drag Down The Performance Seeking Alpha - Jun 29, 2016 Exposure and limited improvement in the U.K. HAAS contract may continue to overshadow the business. Besides HAAS, issues related to other contracts in the U.K.'
p6
aS'Maximus could take $25 million revenue hit from Brexit Washington Business Journal  - Aug 5, 2016 The Brexit vote is expected to cost Maximus between $20 million and $25 million in fourth quarter revenue, CEO Rich Montoni told analysts Thursday on a third-quarter earnings call.'
p7
aS'Maximus opening Gates call center, 2000 jobs promised Rochester Democrat and Chronicle - Jul 6, 2016 Maximus has a 46,000-square-foot operation in Pittsford that opened in 2012. Miles said the Gates facility would be separate from the Pittsford operation.Maximus to open Gates call center, create 2000 new jobs - Rochester Business JournalVirginia-Based Maximus Coming to Rochester, Bringing Thousands of Jobs - TWC News'
p8
aS'Stock Update: Looking at the Levels for MAXIMUS, Inc.  Sherwood Daily - 12 hours ago MAXIMUS, Inc.  has a current Value Composite Score of 41. Using a scale from 0 to 100, a lower score would indicate an undervalued company and a higher score would signal an expensive or overvalued company.'
p9
aS"Option Market: MAXIMUS Inc Risk Hits A Deteriorated Level CML News - Mar 13, 2017 We're going to look at a proprietary risk rating for the next 30-days built by Capital Market Laboratories  based on a large number of interactions of data points, many of which come directly from the option market for MAXIMUS Inc  ."
p10
a.