(lp0
S'Sell-side is Weighing in on Merit Medical Systems, Inc.  Earnings Aiken Advocate - Sep 7, 2016 When a company reports earnings, the reports are intensely examined by investors and analysts alike. Earnings are important because they can give insight into the profitability of a company.'
p1
aS"Merit Medical Acquires DFINE, Inc. GlobeNewswire  - Jul 6, 2016 SOUTH JORDAN, Utah, July 06, 2016  -- Merit Medical Systems, Inc. , a leading manufacturer and marketer of proprietary disposable devices used primarily in cardiology, radiology and endoscopy, today announced that&nbsp;...Merit Medical pays $98m for DFine's spine devices - Mass Device"
p2
aS'Merit Medical Acquires Products From Argon Medical Devices and Catheter ... GlobeNewswire  - Feb 6, 2017 SOUTH JORDAN, Utah, Feb. 06, 2017  -- Merit Medical Systems, Inc. , a leading manufacturer and marketer of proprietary disposable devices used primarily in cardiology, radiology and endoscopy, announced today&nbsp;...Merit Medical Systems  Acquires Products From Argon Medical Devices ... - StreetInsider.comBRIEF-Merit Medical acquires products from Argon Medical Devices and Catheter ... - Reuters'
p3
aS'Merit Medical Systems Inc.  Breaks into New 52-Week High on February 10 ... Equities.com - Feb 10, 2017 Shares of Merit Medical Systems Inc.  broke into a new 52-week high yesterday, hitting a peak of $28.18. Shares closed at $27.70 after opening at $27.60 for a move of 0.91%.'
p4
aS'Merit Medical Systems Inc.  Moves Higher on Volume Spike for February 13 Equities.com - Feb 13, 2017 Merit Medical Systems Inc.  traded on unusually high volume on Feb. 13, as the stock gained 1.81% to close at $28.20.'
p5
aS'Merit Medical Reports Results for Fourth Quarter and Year Ended December 31, 2015 GlobeNewswire  - Feb 22, 2016 SOUTH JORDAN, Utah, Feb. 22, 2016  -- Merit Medical Systems, Inc. , a leading manufacturer and marketer of proprietary disposable devices used primarily in cardiology, radiology and endoscopy, today announced&nbsp;...'
p6
aS"Merit Medical Systems, Inc.  Files An 8-K Financial Statements ... Market Exclusive - Feb 24, 2017 On February 21, 2017, Merit Medical Systems, Inc.  filed a Current Report on Form 8-K  in which it  furnished, under Item 2.02, a press release announcing the Company's operating and financial results for the ...Merit Medical Systems Inc.  Breaks into New 52-Week High on February 28 ... - Equities.com"
p7
aS'Merit Medical to Participate at BTIG and Barclays Conferences GlobeNewswire  - Feb 16, 2017 SOUTH JORDAN, Utah, Feb. 16, 2017  -- Merit Medical Systems, Inc. , a leading manufacturer and marketer of proprietary disposable devices used primarily in cardiology, radiology and endoscopy, today announced&nbsp;...Stock Returns: Merit Medical Systems Inc  is Beating Alere Inc ... - CML News'
p8
aS"Merit Medical Systems Inc.  Moves Higher on Volume Spike for February 21 Equities.com - Feb 21, 2017 Merit Medical Systems Inc.  traded on unusually high volume on Feb. 21, as the stock gained 1.42% to close at $28.65.Merit Medical Systems'  CEO Fred Lampropoulos on Q4 2016 Results ... - Seeking AlphaMerit Medical Reports Results for Fourth Quarter and Year Ended December 31, 2016 - GlobeNewswire "
p9
aS"Equity Focus: Looking at Shares of Merit Medical Systems, Inc.  Rives Journal - Mar 14, 2017 Currently, Merit Medical Systems, Inc. 's 6 month price index is 1.26822. The six month price index is calculated by dividing the current share price by the share price six months ago."
p10
a.