(lp0
S"Molina Healthcare, Inc. : From Top to Bottom StockNewsJournal - 17 hours ago Molina Healthcare, Inc.  is an interesting player in the Healthcare space, with a focus on Health Care Plans. The stock has been active on the tape, currently trading at $44.23, down from yesterday's close by -2.32%.Analyst Activity  Cowen and Company Initiates Coverage On Molina Healthcare ... - Market ExclusiveMolina's Negative Enterprise Value Trumps The New Healthcare Plan - Seeking Alpha"
p1
aS"Molina Healthcare stock dives on 'clearly unacceptable' earnings Los Angeles Times - Feb 16, 2017 Molina Healthcare Inc. shares plunged Thursday, the day after the Long Beach insurer said losses related to its participation in the Affordable Care Act marketplace led to clearly unacceptable earnings for 2016.Molina 2017 forecast falls short of Street view; shares plunge - ReutersUPDATE 1-Molina blames Obamacare for disappointing results, outlook - Nasdaq"
p2
aS"Dr. Taft Parsons named chief medical officer at Molina Healthcare of Michigan The Oakland Press - Mar 11, 2017 Taft Parsons III, M.D. has been named chief medical officer for Molina Healthcare of Michigan. His duties include overseeing the health plan's clinical operations."
p3
aS'Molina Healthcare  Issues Revised Q4 &amp; 2016 Results Yahoo Finance - Mar 2, 2017 Molina Healthcare, Inc. MOH recently issued revised fourth quarter and full-year 2016 results. The company released the revised figures because the unaudited report  did not include the impact of a retroactive contract&nbsp;...'
p4
aS'Molina Healthcare Reports Revised Fourth Quarter and Year-End 2016 Results Due ... Yahoo Finance - Mar 1, 2017 Molina Healthcare, Inc.  today announced that, due to an oversight, its unaudited financial results for the fourth quarter and full year of 2016, as reported on February 15, 2017, did not include the impact of a retroactive contract amendment ...Buy or Sell? Average Brokerage Ratings on Molina Healthcare, Inc. , US ... - StockNewsJournalShares of Molina Healthcare Inc  Climbs 1.24% - Energy Index'
p5
aS'Molina Healthcare Inc.  Fell To A 3-Month Low After Weak Q4 Report RTT News - Feb 17, 2017 Molina Healthcare Inc.  reported fourth quarter a fourth quarter adjusted loss of $1.54 per share after the close Wednesday, compared to the profit of $0.58 per share last year.Molina Healthcare  Q4 Earnings, Revenues Miss Estimates - Nasdaq'
p6
aS'Oversold Conditions For Molina Healthcare  Nasdaq - Feb 16, 2017 In trading on Thursday, shares of Molina Healthcare Inc  entered into oversold territory, hitting an RSI reading of 28.4, after changing hands as low as $48.55 per share.'
p7
aS'Splunk IT Service Intelligence Helps Molina Healthcare Deliver Innovation to ... Yahoo Finance - Feb 21, 2017 Splunk Inc. , provider of the leading software platform for real-time Operational Intelligence, today announced Molina Healthcare Inc. uses Splunk IT Service Intelligence  to help provide faster, more reliable health care services ...'
p8
aS'Cowen &amp; Co. Reports Initiation of Molina Healthcare  with $48.00 Target ... Herald KS - 13 hours ago Stifel Nicolaus maintained Molina Healthcare, Inc.  rating on Friday, April 29. Stifel Nicolaus has Buy rating and $64 target.'
p9
aS"Form 4 MOLINA HEALTHCARE INC For: Mar 01 Filed by: MOLINA JOHN C StreetInsider.com - Mar 3, 2017 4,034 shares vest based on the Company's 2017 annual premium revenue achievement; 4,034 shares vest based on the Company's 2017 net profit margin achievement; 4,034 shares vest based on pre-tax income in fiscal year 2017; 8,068 shares shall vest&nbsp;..."
p10
a.