(lp0
S'Morningstar Upgrades Analyst Rating for Two US Funds and One Target-Date ... PR Newswire  - Mar 13, 2017 CHICAGO, March 13, 2017 /PRNewswire/ -- Morningstar, Inc. , a leading provider of independent investment research, has published a summary of Morningstar Analyst Rating activity for 93 U.S.3 Upgrades, 9 Downgrades, and a Batch of New Fund Analyst Ratings - Morningstar.com'
p1
aS'Morningstar Announces Speakers, Agenda for 29th Annual Investment Conference ... PR Newswire  - Mar 2, 2017 CHICAGO, March 2, 2017 /PRNewswire/ -- Morningstar, Inc. , a leading provider of independent investment research, today announced the agenda for its 29th annual investment conference for financial advisors being held Wednesday,&nbsp;...'
p2
aS'Morningstar, Inc. Declares Quarterly Dividend of 23 Cents Per Share PR Newswire  - Feb 24, 2017 CHICAGO, Feb. 24, 2017 /PRNewswire/ -- The board of directors of Morningstar, Inc. , a leading provider of independent investment research, today declared a quarterly dividend of 23 cents per share.'
p3
aS"Morningstar's Annual Global Asset Flows Report Shows Slowing Demand for Global ... PR Newswire  - Mar 6, 2017 CHICAGO, March 6, 2017 /PRNewswire/ -- Morningstar, Inc. , a leading provider of independent investment research, today published its fifth annual Global Asset Flows Report examining worldwide 2016 mutual fund and exchange-traded&nbsp;..."
p4
aS'Morningstar Reports US Mutual Fund and ETF Asset Flows for January 2017 PR Newswire  - Feb 17, 2017 CHICAGO, Feb. 17, 2017 /PRNewswire/ -- Morningstar, Inc. , a leading provider of independent investment research, today reported estimated U.S.'
p5
aS'Morningstar Announces Nominees for 2016 US Fund Manager of the Year Awards PR Newswire  - Jan 12, 2017 CHICAGO, Jan. 12, 2017 /PRNewswire/ -- Morningstar, Inc. , a leading provider of independent investment research, today announced the nominees for its 2016 U.S.Morningstar Announces Fund Manager Of The Year Nominees - Financial Advisor Magazine '
p6
aS"Morningstar, Inc.  Seeking Alpha - Feb 27, 2017 On February 21, 2017, Stphane Biehler, Morningstar, Inc.'s chief financial officer, notified Morningstar that he is resigning from his position effective March 10, 2017, to join a Chicago-based trading firm."
p7
aS'Morningstar makes bid to offer mutual funds for exclusive use of advisers InvestmentNews - Mar 10, 2017 Morningstar Inc. has filed with the Securities and Exchange Commission to launch nine mutual funds for use in its managed portfolios that are specifically for financial advisers.'
p8
aS'Most Fund Categories See Gains in February 2017, Morningstar Canada Data Show MarketWatch - Mar 2, 2017 TORONTO, Mar 2, 2017  -- Morningstar Research Inc., a Canadian subsidiary of Chicago-based independent investment research provider Morningstar, Inc. MORN, +0.82% today released preliminary February 2017&nbsp;...'
p9
aS'Morningstar sees revenue turn up in Q4 beat Seeking Alpha - Feb 21, 2017 Morningstar  beat revenue expectations with some solid growth in its asset-based business in Q4 earnings reported just a bit ago.Morningstar Inc.  Moves Higher on Volume Spike for February 22 - Equities.comMorningstar, Inc.  Issues Quarterly Earnings Results - Chaffey Breeze'
p10
a.