(lp0
S"Vail Resorts, Inc.  Files An 8-K Regulation FD Disclosure Market Exclusive - Mar 14, 2017 On March 14, 2017, members of the management team of Vail Resorts, Inc.  will be participating in meetings with investors in connection with its 2017 investors' conference.Vail Resorts: Be Wary Of The Devil In The Details - Seeking AlphaVail Resorts Inc.  Climbed To A New High After Q2 Earnings Beat - RTT News"
p1
aS"Vail Resorts: Seriously Why Don't You Want A Double Bagger? Seeking Alpha - Mar 10, 2017 For the past year and a half I have urged you, I have pounded the table on, and opined extensively on Vail Resorts, Inc. . Yet volume remains relatively light and the stock isn't anywhere near on most of your radars. This is a well-known ..."
p2
aS"The Vail Resorts, Inc.  Issues Earnings Results Petro Global News 24 - 7 hours ago Vail Resorts, Inc.  announced its quarterly earnings results on Friday. The company reported $3.63 EPS for the quarter, beating the Zacks' consensus estimate of $3.37 by $0.26.Vail Resorts' workforce-housing proposal hits roadblocks ahead of approval - Summit Daily NewsRevenue Update on Vail Resorts - Money Flow Index & Trends"
p3
aS'Vail Resorts heads east to acquire Stowe Seeking Alpha - Feb 21, 2017 Vail Resorts  announces that it entered an agreement to acquire Stowe Mountain Resort from AIG subsidiary Mt. Mansfield Company for a purchase price of $50M.Vail Resorts to Buy Stowe Mountain Resort Operations From AIG - Wall Street Journal '
p4
aS'Vail Resorts, Inc.  Files An 8-K Entry into a Material Definitive ... Market Exclusive - Feb 27, 2017 Vail Resorts, Inc. is a holding company. The Company operates through three segments: Mountain, Lodging and Real Estate.Zacks Investment Research Upgrades Vail Resorts, Inc.  to Hold - BNB Daily '
p5
aS'BRIEF-Vail Resorts to acquire Stowe Mountain resort for $50 mln Reuters - Feb 21, 2017 Feb 21 Vail Resorts Inc: * Vail resorts to acquire Stowe Mountain Resort in Stowe, Vermont. * Deal for purchase price of $50 million.'
p6
aS'Vail Resorts Reports Second Quarter Results First Tracks - Mar 14, 2017 Net income attributable to Vail Resorts, Inc. was $149.2 million for the second fiscal quarter of 2017, an increase of 27.5% compared to net income of $117.0 million for the second fiscal quarter of 2016.'
p7
aS'Vail Resort stock climbs 3% as earnings blow past estimates, company raises ... MarketWatch - Mar 10, 2017 Shares of ski operator Vail Resorts Inc. MTN, -0.67% rose 3% in premarket trade Friday, after the company blew past earnings estimates for its latest quarter and said it is raising its dividend.'
p8
aS"Form 8-K VAIL RESORTS INC For: Mar 14 StreetInsider.com - Mar 14, 2017 On March 14, 2017, members of the management team of Vail Resorts, Inc.  will be participating in meetings with investors in connection with its 2017 investors' conference."
p9
aS'Better Buy: Wynn Resorts Ltd. vs. Vail Resorts Motley Fool - Feb 27, 2017 For Wynn Resorts , fun means casino gaming, live entertainment, shopping, fine dining, and outdoor activities like golf and swimming.'
p10
a.