(lp0
S"Mueller Water Products to Present at Gabelli &amp; Company's 27th Annual Pump ... GlobeNewswire  - Feb 8, 2017 ATLANTA, Feb. 07, 2017  -- Mueller Water Products, Inc. , will present at Gabelli &amp; Company's 27th Annual Pump, Valve, and Water Systems Symposium. The presentation will take place on Wednesday, March 1, 2017 at&nbsp;...MUELLER WATER PRODUCTS, INC.  Files An 8-K Other Events - Market ExclusiveMUELLER WATER PRODUCTS  Ex-Dividend Date Scheduled for February 08, 2017 - Nasdaq"
p1
aS'MUELLER WATER PRODUCTS  Moves Lower on Volume Spike for March 15 Equities.com - 12 hours ago MUELLER WATER PRODUCTS has a P/B ratio of 4.68. It also has a P/E ratio of 31.2. Mueller Water Products, Inc., along with its subsidiaries is engaged in manufacturing and marketing products and services used in the transmission, distribution and&nbsp;...The Goldman Sachs Group Inc Initiates Coverage on Mueller Water Products, Inc ... - Petro Global News 24Cowen Downgrades Mueller Water Products  to Neutral - StreetInsider.com'
p2
aS"The Multiple Tailwinds That Could Push Mueller Water Products Higher Seeking Alpha - Jan 17, 2017 ... water infrastructure company. In my opinion, the latter has always been the most promising opportunity for Mueller Water Products, and the company's decision to divest Anvil International appears to be a strategic move that could bear fruit for ..."
p3
aS"Mueller Water Products to Acquire Singer Valve GlobeNewswire  - Jan 30, 2017 Once the transaction has closed, Singer Valve will become part of Mueller Water Products' Mueller Co. operating segment."
p4
aS'Mueller Water Products  Shares Cross Below 200 DMA Nasdaq - Mar 6, 2017 In trading on Monday, shares of Mueller Water Products Inc  crossed below their 200 day moving average of $12.30, changing hands as low as $12.18 per share.Analyst Activity  Goldman Sachs Group Inc Initiates Coverage On Mueller Water ... - Market ExclusiveMUELLER WATER PRODUCTS  Moves Lower on Volume Spike for March 08 - Equities.com'
p5
aS'Mueller Water Products: An Overlooked, Undervalued Industry Leader Seeking Alpha - Jun 14, 2016 Mueller Water Products is composed of three companies that bolster its diversification, yet maintain broad exposure to water infrastructure.'
p6
aS"BRIEF-Mueller Water Products to acquire Singer Valve Reuters - Jan 30, 2017 ... * Mueller water Products Inc - once transaction has closed, singer valve will become part of mueller water products' Mueller Co."
p7
aS"Mueller Water Products Announces Sale of Anvil International Yahoo Finance - Jan 9, 2017 Mueller Water Products also announced today that its Board of Directors has increased the Company's quarterly dividend by 33 percent to $0.04 per share, and has authorized total share repurchases of up to $250 million which incorporates the current&nbsp;...Mueller Water Products names new CEO, sells Anvil - Atlanta Business Chronicle"
p8
aS'MUELLER WATER PRODUCTS, INC.  Files An 8-K Regulation FD Disclosure Market Exclusive - Mar 1, 2017 An updated version of an investor presentation used by representatives of Mueller Water Products, Inc.  is attached as Exhibit 99.1.Buy or Sell? Average Brokerage Ratings on Mueller Water Products, Inc. (MWA ... - StockNewsJournalMUELLER WATER PRODUCTS  Moves Higher on Volume Spike for March 01 - Equities.com'
p9
aS'BRIEF-Mueller Water Products Q1 EPS $0.04 Reuters - Feb 2, 2017 BRIEF-Mueller Water Products Q1 EPS $0.04. Feb 2 Mueller Water Products Inc : * Mueller water products reports 2017 first quarter results.'
p10
a.