(lp0
S"Myr Group Inc.  Files Form 4 Insider Selling : Tod M. Cooper Sells 8412 ... Energy Index - 46 minutes ago Myr Group Inc. : Tod M. Cooper , SVP and COO T&amp;D of Myr Group Inc. sold 8,412 shares on Mar 14, 2017. The Insider selling transaction was reported by the company on Mar 15, 2017 to the Securities and Exchange Commission.MYR Group Inc.  Moves Lower on Volume Spike for March 14 - Equities.comResearch Analysts Set Expectations for MYR Group Inc's Q2 2017 Earnings  - Chaffey Breeze"
p1
aS'Should You Buy MYR Group  Ahead of Earnings? Yahoo Finance - Mar 8, 2017 Investors are always looking for stocks that are poised to beat at earnings season and MYR Group MYRG may be one such company. The firm has earnings coming up pretty soon, and events are shaping up quite nicely for their report. That is because MYR&nbsp;...'
p2
aS"Will MYR Group Inc  Continue To Underperform Its Industry? Simply Wall St - Mar 9, 2017 MYR Group Inc  generated a 6.6% ROE in the last year, compared to its industry's 34.51% ROE. But the profitability ratio, often called 'the mother of all ratios', reflects a company's performance both on its income statement and balance sheet."
p3
aS'MYR Group Inc. Acquires British Columbia Electrical Contractor Western Pacific ... GlobeNewswire  - Oct 31, 2016 ROLLING MEADOWS, Ill., Oct. 31, 2016  -- MYR Group Inc.  , a leading specialty contractor serving the electrical infrastructure market in the United States and Canada, announced that its Canadian&nbsp;...MYR Group subsidiary buys Canadian firm for $12 million - Chicago Daily Herald'
p4
aS'MYR Group Inc.  Soars 13.08% on March 10 Equities.com - Mar 10, 2017 MYR Group Inc.  had a good day on the market for Friday March 10 as shares jumped 13.08% to close at $41.94. About 255,262 shares traded hands on 2,984 trades for the day, compared with an average daily volume of 104,557 shares out of a total&nbsp;...'
p5
aS'Engine Capital Delivers Letter to MYR Group Inc. Board of Directors PR Newswire  - Dec 8, 2015 NEW YORK, Dec. 8, 2015 /PRNewswire/ -- Engine Capital LP , one of the largest shareholders of MYR Group Inc. , with ownership of approximately 4.6% of the outstanding shares of the Company, today&nbsp;...'
p6
aS'MYR GROUP INC.  Files An 8-K Results of Operations and Financial ... Market Exclusive - Mar 9, 2017 MYR Group Inc. is a holding company. The Company, through its subsidiaries, provides specialty electrical construction services.MYR Group Inc.  Moves Higher on Volume Spike for March 10 - Equities.com'
p7
aS'MYR Group Inc. Acquires New England Electrical Contractor ES Boulos Company GlobeNewswire  - Apr 13, 2015 ROLLING MEADOWS, Ill., April 13, 2015  -- MYR Group Inc.   announced that it has signed an asset purchase agreement to acquire the business of E.S.'
p8
aS"No More Proxy Fight For MYR Group Benzinga - Mar 23, 2016 Avondale Partners' Daniel J. Mannes maintained a Market Outperform rating for MYR Group Inc , with a price target of $29."
p9
aS'MYR Group Inc  Moves 6.25% For the Week Business Review - 18 hours ago Pushing higher over the last five sessions are shares of MYR Group Inc . The stock has risen 6.25% over that span, yielding profits for savvy traders.'
p10
a.