(lp0
S"Here's Who Just Picked Up Navistar International Corp  Shares Small Cap Exclusive  - Mar 13, 2017 For those not familiar with the company, Navistar International Corporation is a holding company whose principal operating entities are Navistar, Inc. and Navistar Financial Corporation .Navistar International Corp  Given Consensus Recommendation of Hold by ... - Chaffey BreezeSeaport Global Securities Equities Analysts Reduce Earnings Estimates for ... - BNB Daily "
p1
aS'Herbalife Ltd. , Navistar International Corp  Pop on Increased Carl ... Investorplace.com - Mar 13, 2017 Herbalife Ltd. , Navistar International Corp  Pop on Increased Carl Icahn bought 372,342 more shares of Herbalife Ltd.Icahn boosts stake in Navistar to 17% - Seeking Alpha'
p2
aS'VW Buys Stake in Icahn-Backed Navistar in Bet on US Trucks Bloomberg - Sep 6, 2016 Volkswagen AG will buy a stake in Navistar International Corp. to gain a foothold in the U.S. heavy-truck market, taking a gamble on a struggling U.S.Navistar Surges 30% After Strategic Alliance With Volkswagen Truck &amp; Bus - BenzingaVolkswagen to supply engines in exchange for Navistar stake: sources - Reuters'
p3
aS'Navistar International Revenue Drops Wall Street Journal  - Mar 7, 2017 Truck manufacturer Navistar International Corp. reported a 6% drop in first quarter revenue as the company continues to grapple with weak demand for heavy-duty trucks.Earnings Watch: Navistar Losses Nearly Double from Year Earlier - Heavy Duty TruckingGuess Who Just Picked Up Navistar International Corp  Shares - Small Cap Exclusive '
p4
aS'Navistar Defense Awarded $475 Million To Support Allied Forces MRAP Requirements PR Newswire  - Mar 9, 2017 Navistar International Corporation  is a holding company whose subsidiaries and affiliates produce International brand commercial and military trucks, proprietary diesel engines, and IC Bus brand school and commercial buses. An affiliate&nbsp;...'
p5
aS"BRIEF-Carl Icahn reports 17.02% stake in Navistar International Corp Reuters - Mar 10, 2017 WASHINGTON, March 13 University of Southern California economics professor Raphael Bostic has been named president of the Atlanta Federal Reserve bank, breaking the Fed's longstanding color barrier at the top of its network of regional institutions."
p6
aS'Guess Who Picked Up Navistar International Corp  Shares Small Cap Exclusive  - Mar 2, 2017 For those not familiar with the company, Navistar International Corporation is a holding company whose principal operating entities are Navistar, Inc. and Navistar Financial Corporation .Navistar International Corporation  Moves Higher on Volume Spike for March 01 - Equities.comThe Ardevora Asset Management LLP Invests $29312000 in Navistar International ... - DailyQuint'
p7
aS"Navistar Announces Intention To Reprice Approximately $1.0 Billion Senior ... PR Newswire  - Jan 30, 2017 LISLE, Ill., Jan. 30, 2017 /PRNewswire/ -- Navistar International Corporation  today announced that, subject to market conditions, the company and its wholly-owned subsidiary Navistar, Inc. are seeking to reprice Navistar, Inc.'s existing&nbsp;..."
p8
aS'Navistar Announces $200 Million Tack-On Offering Of 8.25% Senior Notes PR Newswire  - Jan 12, 2017 LISLE, Ill., Jan. 12, 2017 /PRNewswire/ -- Navistar International Corporation  today announced that it plans to issue, subject to market conditions, $200 million of its 8.25% senior notes due 2021 .'
p9
aS"Moody's assigns Caa1 to Navistar senior notes; outlook is stable. Moodys.com   - Jan 12, 2017 New York, January 12, 2017 -- Moody's Investors Service assigned a Caa1  rating to Navistar International Corporation's  $200 million add-on to its existing $1.2 billion 8.25% senior unsecured notes due 2021. We expect proceeds will be&nbsp;..."
p10
a.