(lp0
S'Trilogy Metals Inc. - Permitting Advances on Ambler Access Road Yahoo Finance - Mar 6, 2017 VANCOUVER, March 6, 2017 /PRNewswire/ - Trilogy Metals Inc.   is pleased to announce that the permitting process is advancing on the Ambler Mining District Industrial Access Project .'
p1
aS'NovaCopper is now Trilogy Metals PR Newswire  - Sep 8, 2016 VANCOUVER, Sept. 8, 2016 /PRNewswire/ - NovaCopper Inc.   announced today that the Company has changed its corporate name to Trilogy Metals Inc. and its shares will commence trading on the&nbsp;...'
p2
aS'Short Interest in Trilogy Metals Inc  Increases By 2.9% The Cerbat Gem - Mar 15, 2017 Trilogy Metals logo Trilogy Metals Inc  was the recipient of a large increase in short interest during the month of February.'
p3
aS"Novacopper: North America's Next Major Copper Mine Seeking Alpha - Feb 10, 2016 All power generation requires copper and clean energy requires even more copper - copper is the green metal of the future. China has heavily subsidized the purchase of electric vehicles which use 3x more copper  than a typical vehicle."
p4
aS'Share Focus: Watching Levels for Trilogy Metals Inc  Rives Journal - 19 hours ago Investors may be looking at some different technical levels in order to get a better grasp on the markets. Presently, the 14-day ADX for Trilogy Metals Inc  is 17.71. In general, an ADX value from 0-25 would signal an absent or weak trend. A level ...'
p5
aS'Trilogy Metals Inc  Stock Technicals Hit Extreme Weakness CML News - Mar 13, 2017 This is a technical analysis stock rating for Trilogy Metals Inc  . The company has a one bull technical rating which indicates extreme weakness.'
p6
aS'The Short Interest in Trilogy Metals Inc  Increases By 2.9% Petro Global News 24 - Mar 10, 2017 Trilogy Metals Inc  was the target of a significant growth in short interest during the month of February. As of February 28th, there was short interest totalling 814,533 shares, a growth of 2.9% from the February 15th total of 791,810 shares.'
p7
aS'4 Reasons To Be Skeptical On NovaCopper Seeking Alpha - Dec 11, 2013 NovaCopper , a base metals exploration company currently exploring the rich copper-dominant Ambler mining district in Alaska, has received some glowing recommendations on this site and others.'
p8
aS'Trilogy Metals Drills 8.48 Meters of 6.14% Copper and 8.27% Zinc at Arctic Deposit Junior Mining Network - Oct 27, 2016 VANCOUVER, Oct. 27, 2016 - Trilogy Metals Inc.  , formerly NovaCopper Inc., is pleased to announce drill results and provide a project update from its 2016 summer field program at the Arctic&nbsp;...'
p9
aS'Trilogy Metals Inc  Short Interest Update Chaffey Breeze - Feb 28, 2017 Trilogy Metals logo Trilogy Metals Inc  was the target of a significant decline in short interest in February. As of February 15th, there was short interest totalling 791,810 shares, a decline of 8.8% from the January 31st total of 868,211 ...'
p10
a.