(lp0
S'NewJersey Resources Corporation  Ex-Dividend Date Scheduled for March 13 ... Nasdaq - Mar 10, 2017 NewJersey Resources Corporation  will begin trading ex-dividend on March 13, 2017. A cash dividend payment of $0.255 per share is scheduled to be paid on April 03, 2017.Forward Earnings Estimate on NewJersey Resources Corporation - Money Flow Index & TrendsVANGUARD GROUP INC is the biggest holder of New Jersey Resources Corporation  - Post Analyst'
p1
aS"New Jersey Resources'  CEO Larry Downes On Q1 2017 Results - Earnings ... Seeking Alpha - Feb 8, 2017 Good morning and welcome to New Jersey Resources' First Quarter Fiscal 2017 Earnings Conference Call. All participants will be in listen only mode.What investors have to know about New Jersey Resources Corporation's  future? - Simply Wall StNew Jersey Resources Corporation: New Jersey Resources Reports Fiscal 2017 ... - The Wall Street Transcript"
p2
aS"New Jersey Resources'  CEO Larry Downes on Q3 2016 Results - Earnings ... Seeking Alpha - Aug 2, 2016 Good day, and welcome to the New Jersey Resources Corporation Third Quarter Fiscal 2016 Earnings Conference Call. All participants will be in listen-only mode."
p3
aS'Dividend Growth Stock Overview: New Jersey Resources Corporation Seeking Alpha - Dec 2, 2015 New Jersey Resources provides natural gas services to over 500,000 customers in northern and central New Jersey. The company also has a growing wind and solar energy portfolio, currently totaling 147 MW of capacity.'
p4
aS'Common Share Dividend Yield of NewJersey Resources Corporation  Energy Index - 14 hours ago The dividend growth rate of NewJersey Resources Corporation calculated based on 20 historical quarterly dividends is 5.83% while the R-Squared dividend growth rate regression is 0.96.Looking at the Levels for New Jersey Resources Corp  - Providence StandardStocks to Track: NewJersey Resources Corporation  , National ... - NYSE Journal '
p5
aS'New Jersey Resources Corp  To Go Ex-Dividend on March 13th Chaffey Breeze - Mar 12, 2017 New Jersey Resources Corp logo New Jersey Resources Corp  announced a quarterly dividend on Tuesday, January 24th.Dimensional Fund Advisors LP Has $59705000 Position in New Jersey Resources ... - BNB Daily The New Jersey Resources Corp  Receives $38.00 Average Price Target from ... - Petro Global News 24'
p6
aS'Stock Returns: New Jersey Resources Corporation  is Beating Spire ... CML News - Feb 11, 2017 This is a snapshot to compare the stock returns for New Jersey Resources Corporation  versus Spire Inc  .NewJersey Resources Corporation  Upgraded by Zacks Investment Research to ... - The Cerbat Gem'
p7
aS'NewJersey Resources Corporation  Breaks into New 52-Week High on February ... Equities.com - Feb 23, 2017 Shares of NewJersey Resources Corporation  broke into a new 52-week high yesterday, hitting a peak of $39.30. Shares closed at $39.25 after opening at $38.65 for a move of 1.82%.Brokers Issue New Targets On NewJersey Resources Corporation  - Fiscal Standard'
p8
aS"New Jersey Resources'  CEO Larry Downes on Q4 2016 Results - Earnings ... Seeking Alpha - Nov 17, 2016 Larry spends a lot of his time in the Clean Energy business and has a very deep understanding of everything that's going on in that business, and particularly in the area of public policy in New Jersey, because as you know there are things that are ..."
p9
aS'The State Board of Administration of Florida Retirement System Has $2188000 ... Petro Global News 24 - Mar 14, 2017 State Board of Administration of Florida Retirement System continued to hold its position in shares of New Jersey Resources Corp  during the fourth quarter, according to its most recent 13F filing with the Securities and Exchange Commission.Broker Outlook For The Week Ahead NewJersey Resources Corporation  - Fiscal Standard'
p10
a.