(lp0
S'Stock under Review: Nielsen NV Ordinary Shares  Post Registrar - Jan 11, 2017 Nielsen N.V. Ordinary Shares  plunged -1.44% during previous trade, a total of 3.94M shares exchanged hands compared with its average trading volume of 2.58M shares whereas its relative volume is 1.28.'
p1
aS'Stree Opinion on Nielsen NV  Highland Mirror - Mar 8, 2017 Nielsen N.V.  has been in the radar of several wallstreet critics. Company shares were Reiterated by Pivotal Research Group on Feb 27, 2017 to Hold, Raises Price Target to $ 39 from a previous price target of $38 .Nielsen NV Ordinary Shares  has been upgraded to B- in a statement ... - Breaking Finance NewsShort Term Stock Rating on Nielsen NV  - Energy Index'
p2
aS'R-Squared Dividend Growth of Nielsen NV  Highland Mirror - Mar 15, 2017 Nielsen N.V. Ordinary Shares Last issued its quarterly earnings results on Feb 9, 2017. The company reported $0.44 EPS for the quarter, beating the analyst consensus estimate by $ 0.01.'
p3
aS"Nielsen NV Ordinary Shares  Share Price Target Reduced By $8 Stock Market Daily - Feb 10, 2017 Nielsen N.V. Ordinary Shares  shares price target have been slashed by $8 from $58 to $58 based on 18.7X S&amp;P Capital IQ analyst Snyder's EPS estimate for 2017."
p4
aS"Stock Market Update- Oracle Corporation , Nielsen NV Ordinary ... Wall Street Times  - Feb 28, 2017 Oracle Corporation  traded at a yearly high level of $43.26 during the last trading session. The last session's volume of 13.87 million shares was higher than its average volume of 11.86 million shares. The stock, after opening at $43.26 ..."
p5
aS'Impact of Brokerage Rating on Nielsen NV Highland Mirror - Feb 15, 2017 Many Nielsen N.V. Stock Research Financial Advisors from Investment Banking firms have advised their client and investors on the stock.'
p6
aS'Shares of Nielsen NV  Climbs 0.18% Energy Index - Feb 27, 2017 Nielsen N.V. Ordinary Shares was Downgraded by Barclays on Jan 10, 2017 to Equal Weight, Lowers Price Target to $ 45 from a previous price target of $50 .Pivotal Research Group Just Issued Hold Rating on Nielsen NV Ordinary Shares ... - Highland MirrorStocks in News- Reynolds American, Inc. , Nielsen NV Ordinary Shares ... - Wall Street Times '
p7
aS'Consensus Earnings Estimate for Nielsen NV Energy Index - Mar 10, 2017 Nielsen N.V. Ordinary Shares Last issued its quarterly earnings results on Feb 9, 2017. The company reported $0.44 EPS for the quarter, beating the analyst consensus estimate by $ 0.01.'
p8
aS'Market Cap Of Nielsen NV  Of $15.64B Equities Focus - 18 hours ago Assessment of Nielsen N.V. Ordinary Shares upholds that the 50-day MA of Nielsen N.V.  stock is $43.48, and is trading $0.25 points away or +0.58% from 50-day MA of $43.48.Performance of Nielsen NV  Compared to Index - Highland MirrorFNB Corp  &amp; Nielsen NV Ordinary Shares  Traders Alert - Daily News Journal'
p9
aS'Corcept Therapeutics Incorporated  &amp; Nielsen NV Ordinary Shares ... Daily News Journal - Mar 14, 2017 On Monday, Shares of Corcept Therapeutics Incorporated  lost -0.92% to $10.77. The share price is trading in a range of $10.60 - 11.40.'
p10
a.