(lp0
S"Why Natural Resource Partners LP Stock Rocketed 20% in February While Other ... Motley Fool - Mar 6, 2017 However, Natural Resource Partners' competitors didn't fare as well in February. For example, Alliance Resource Partners LP , one of the best positioned coal miners, was down roughly 4% last month. Other competitors fared even worse,&nbsp;...Natural Resource Partners LP Announces 2016 Fourth Quarter and Full Year ... - PR Newswire "
p1
aS'41% Yields With Natural Resource Partners, B3/B Rated, Maturing October 2018 Seeking Alpha - Feb 20, 2016 This week, we are reviewing a natural resource company who has spent the last few years diversifying and broadening its revenue sources.'
p2
aS"Moody's downgrades Natural Resource Partners to B3, outlook negative Moodys.com   - Mar 15, 2016 New York, March 14, 2016 -- Moody's Investors Service,  Moody's today downgraded the corporate family rating  of Natural Resource Partners, L.P. to B3 from B1. At the same time, Moody's downgraded the probability of default rating &nbsp;..."
p3
aS"BRIEF-Natural Resource Partners LP posts Q4 earnings $0.31/shr from continuing ... Reuters - Mar 6, 2017 Reuters is the news and media division of Thomson Reuters. Thomson Reuters is the world's largest international multimedia news agency, providing investing news, world news, business news, technology news, headline news, small business news, news&nbsp;..."
p4
aS'Cook Up 18.8% Yields With Natural Resource Partners, Matures October 2018 Seeking Alpha - Sep 3, 2016 This week, we revisit a diversified natural resource company that continues to improve its balance sheet and recently posted superb performance for the first half of 2016.'
p5
aS"Teck Resources Limited's and Natural Resource Partners' Fantastic Run in 2016 ... Motley Fool - Jan 20, 2017 It would be an understatement to call 2016 a good year for Teck Resources Limited's  investors. A 418% gain is simply incredible."
p6
aS'Natural Resource Partners LP  Stock Technicals Hit Strength CML News - Mar 10, 2017 This is a technical analysis stock rating for Natural Resource Partners L.P.  . The company has a four bull technical rating which indicates some strength.'
p7
aS'Stock Returns: Enviva Partners, LP  versus Natural Resource Partners ... CML News - Feb 13, 2017 This is a snapshot to compare the stock returns for Enviva Partners, LP  versus Natural Resource Partners L.P.  .Undervalued Alliance Resource Partners  Remains A Gem In The Mining Sector - ValueWalk'
p8
aS"The Natural Resource Partners LP  Lowered to Sell at Zacks Investment ... Petro Global News 24 - Mar 13, 2017 Zacks Investment Research downgraded shares of Natural Resource Partners LP  from a hold rating to a sell rating in a research report sent to investors on Friday.Seaport Global Securities Weighs in on Natural Resource Partners LP's Q1 2017 ... - BNB Daily "
p9
aS"Seaport Global Securities Weighs in on Natural Resource Partners LP's Q2 2017 ... Chaffey Breeze - Mar 10, 2017 Natural Resource Partners logo Natural Resource Partners LP  - Seaport Global Securities issued their Q2 2017 earnings estimates for Natural Resource Partners in a research note issued on Thursday.Natural Resource Partners LP  Rating Lowered to Sell at Zacks Investment ... - The Cerbat GemThe Natural Resource Partners LP  Releases Earnings Results, Misses ... - DailyQuint"
p10
a.