(lp0
S"Oaktree Capital Group LLC  Q4 2016 Results - Earnings Call Transcript Seeking Alpha - Feb 7, 2017 Welcome and thank you for joining the Oaktree Capital Group's fourth quarter 2016 conference call. Today's conference call is being recorded.Oaktree Capital Group, LLC  to Release Earnings on Tuesday - Sports PerspectivesBarr ES &amp; Co. Purchases Shares of 35500 Oaktree Capital Group, LLC  - The Cerbat Gem"
p1
aS"Oaktree Capital Group LLC  Q3 2016 Results - Earnings Call Transcript Seeking Alpha - Oct 28, 2016 Welcome, and thank you for joining the Oaktree Capital Group Third Quarter 2016 Conference Call. Today's conference call is being recorded.Oaktree Announces Third Quarter 2016 Financial Results - Business Wire "
p2
aS'Oaktree Capital Group, LLC  Ex-Dividend Date Scheduled for February 15, 2017 Nasdaq - Feb 14, 2017 Oaktree Capital Group, LLC  will begin trading ex-dividend on February 15, 2017. A cash dividend payment of $0.63 per share is scheduled to be paid on February 24, 2017.Oaktree Capital Group, LLC  Market Cap At $2.91B - Equities Focus'
p3
aS'Stock Returns: Oaktree Capital Group, LLC  is Beating Waddell &amp; Reed ... CML News - 19 hours ago This is a snapshot to compare the stock returns for Oaktree Capital Group, LLC  versus Waddell &amp; Reed Financial Inc  .'
p4
aS'Oaktree Capital Group, LLC  Ex-Dividend Date Scheduled for November 03, 2016 Nasdaq - Nov 2, 2016 Oaktree Capital Group, LLC  will begin trading ex-dividend on November 03, 2016. A cash dividend payment of $0.65 per share is scheduled to be paid on November 14, 2016.'
p5
aS'Oaktree Capital Group, LLC  Ex-Dividend Date Scheduled for May 05, 2016 Nasdaq - May 4, 2016 Oaktree Capital Group, LLC  will begin trading ex-dividend on May 05, 2016. A cash dividend payment of $0.55 per share is scheduled to be paid on May 13, 2016.'
p6
aS'Insider Trading Activity Oaktree Capital Group LLC   Vice Chairman ... Market Exclusive - Mar 1, 2017 On 11/30/2015 Marna C Whittington, Director Buy, 2,000 $48.98 with an average share price of $97,960.00 View SEC Filing 8/27/2014 per share and the total transaction amounting to Oaktree Capital Group Holdings. On 2/11/2016 David M Kirchheimer,&nbsp;...Oaktree Capital Group LLC  Given Average Recommendation of Hold by Analysts - The Cerbat GemOaktree Capital Group LLC  Vice Chairman Sells $760193.72 in Stock - Sports Perspectives'
p7
aS"Barclays Slaps An Underweight Rating On Oaktree Capital Benzinga - Oct 13, 2016 Barclays' Kenneth Hill believes Oaktree Capital Group LLC  has less upside in the near term, as compared to its alternative asset manager peers."
p8
aS'BRIEF-Oaktree Capital Group Q4 adjusted earnings 91 cents/shr Reuters - Feb 7, 2017 BRIEF-Oaktree Capital Group Q4 adjusted earnings 91 cents/shr. Feb 7 Oaktree Capital Group Llc. * Oaktree announces fourth quarter and full-year 2016 financial results.'
p9
aS'Stock Returns: Invesco Ltd.  versus Oaktree Capital Group, LLC (NYSE ... CML News - Mar 10, 2017 This is a snapshot to compare the stock returns for Invesco Ltd.  versus Oaktree Capital Group, LLC  . The stock return points we compare look at the last three-months, six-months and twelve-months.'
p10
a.