(lp0
S"Turtle Beach Wins &quot;Best Peripherals And Accessories Brand&quot; Honors Fourth Year ... PR Newswire  - Mar 14, 2017 SAN DIEGO, March 14, 2017 /PRNewswire/ -- Leading gaming headset and audio accessory company Turtle Beach Corporation  was recognized for an unprecedented fourth consecutive year in a row as the industry's &quot;Best Peripherals and&nbsp;...The Research Analysts Set Expectations for Turtle Beach Corp's Q1 2017 ... - Petro Global News 24Brokers Set Expectations for Turtle Beach Corp's Q1 2017 Earnings  - The Cerbat Gem"
p1
aS'Turtle Beach Corporation To Report Fourth Quarter And Full Year 2016 Financial ... PR Newswire  - Feb 24, 2017 SAN DIEGO, Feb. 24, 2017 /PRNewswire/ -- Turtle Beach Corporation , a leading gaming headset and audio accessory company, announced it will report financial results for the fourth quarter and full year 2016 on Wednesday, March 8,&nbsp;...'
p2
aS'Turtle Beach to Present at the 29th Annual Roth Conference on March 14, 2017 PR Newswire  - Mar 9, 2017 SAN DIEGO, March 9, 2017 /PRNewswire/ --Turtle Beach Corporation , a leading gaming headset and audio accessory company, has been invited to present at the 29th Annual ROTH Capital Partners Conference.B. Riley Research Analysts Lift Earnings Estimates for Turtle Beach Corp  - Chaffey BreezeTurtle Beach Corp Expected to Earn Q4 2017 Earnings of $0.32 Per Share  - The Cerbat Gem'
p3
aS'Form 8-K Turtle Beach Corp For: Mar 14 StreetInsider.com - Mar 14, 2017 Certain information concerning our business and financial results can be currently accessed on our website, http://corp.turtlebeach.com/investor-relations under the heading Investor Presentations. Representatives of the Company expect to use this&nbsp;...'
p4
aS'The Turtle Beach Corp  to Post Q1 2017 Earnings of  Per Share, B ... Petro Global News 24 - 6 hours ago Turtle Beach Corp  - Stock analysts at B. Riley dropped their Q1 2017 earnings per share  estimates for Turtle Beach Corp in a research report issued on Thursday. B. Riley analyst E. Wold now anticipates that the brokerage will post&nbsp;...'
p5
aS'Turtle Beach Corp. HEAR  Wall Street Journal - Feb 21, 2011 News Turtle Beach Corp.HEAR. Significant News Only. 46 min ago; Press Release. Turtle Beach to Present at the 29th Annual Roth Conference on March 14, 2017.'
p6
aS"Bullish Sentiment For Turtle Beach Corp.: Deaf To Losses And Skullcandy's ... Seeking Alpha - Jun 29, 2015 If a palm tree falls on a beach does it make a sound? Not if that beach is Turtle Beach Corp. . A series of bullish sentiment has been offered for the audio company's outlook, turning a deaf ear to warning signals:  declining revenue ..."
p7
aS'Turtle Beach: Digging The Hole Even Deeper Seeking Alpha - Sep 28, 2016 Turtle became publicly traded in January 2014 via a reverse merger stock swap with Parametric Sound Corp. , whose technology centered on directing sound waves in a narrow beam.'
p8
aS'Turtle Beach Reports Fourth Quarter and Full Year 2015 Results PR Newswire  - Mar 24, 2016 &quot;We delivered revenue and adjusted EBITDA above our guidance range in the fourth quarter, driven by strong holiday sales in our headset business,&quot; said Juergen Stark, CEO, Turtle Beach Corporation. &quot;New-gen headset sales increased 31% compared to&nbsp;...'
p9
aS'Turtle Beach Doubles-Down On Its All-New Elite Pro Line Of Gaming Audio Gear ... PR Newswire  - Jun 7, 2016 SAN DIEGO, June 7, 2016 /PRNewswire/ -- In their second major eSports partnership announcement of the year, Turtle Beach Corporation  has doubled-down on its all-new Elite Pro line of tournament-grade gaming audio gear and the&nbsp;...'
p10
a.