(lp0
S"People's United Financial Schedules Conference Call To Review First Quarter ... Yahoo Finance - Mar 9, 2017 BRIDGEPORT, Conn., March 9, 2017 /PRNewswire/ -- People's United Financial, Inc.  announced today it will host a conference call to discuss its first quarter 2017 results on Thursday, April 20, 2017 at 8 a.m.Equity Perception: Analyst's Indicator Review for People's United Financial ... - The USA CommercePeople's United Financial, Inc.  Files Form 4 Insider Selling : Galan G ... - Energy Index"
p1
aS"People's United Financial, Inc. : What's the Story? StockNewsJournal - Mar 13, 2017 People's United Financial, Inc.  is an interesting player in the Financial space, with a focus on Savings &amp; Loans.E*TRADE Financial Corporation , People's United Financial, Inc. (PBCT ... - The USA CommercePeople's United Financial, Inc.  Stock Rating Upgraded by Sandler O'Neill - Chaffey Breeze"
p2
aS"How Does People's United Financial,  Stack Up Right Now? StockNewsJournal - Mar 13, 2017 People's United Financial, Inc.  is an interesting player in the Financial space, with a focus on Savings &amp; Loans.People's United Financial, Inc.  Upgraded to Hold by Sandler O'Neill - BNB Daily Average Brokerage Rating Of People's United Financial, Inc. , Biostage ... - The USA Commerce"
p3
aS"Insider Trading Activity People's United Financial, Inc.   VP ... Market Exclusive - Feb 21, 2017 Robert E. Trautmann , VP of People's United Financial, Inc.  reportedly Sold 696 shares of the company's stock at an average price of 19.1 for a total transaction amount of $13,293.60 SEC Form.Taking a Look at the Data Behind People's United Financial, Inc.  - StockNewsJournalThe Lakeview Capital Partners LLC Sells 38330 Shares of People's United ... - DailyQuint"
p4
aS"Analyst Upgrades  People's United Financial  Stock Gets Upgraded ... Market Exclusive - Mar 10, 2017 Today, People's United Financial  stock received an upgrade by Sandler O'Neill from Sell to Hold. There are 3 sell ratings, 7 hold ratings on the stock.Consensus Earnings Estimate for Peoples United Financial, Inc. - Energy IndexDavid K. Norton Sells 149965 Shares of People's United Financial, Inc. (PBCT ... - Chaffey Breeze"
p5
aS"Stock Update: Looking at the Levels for People's United Financial, Inc ... Sherwood Daily - 17 hours ago People's United Financial, Inc.  has a current Value Composite Score of 49. Using a scale from 0 to 100, a lower score would indicate an undervalued company and a higher score would signal an expensive or overvalued company."
p6
aS"The Technical Case for and Against People's United Financial, Inc.  The USA Commerce - Mar 14, 2017 We have gathered the technical data on People's United Financial, Inc. , and see some interesting trends in the stock's behavior of late."
p7
aS"Is It Time to go for Brookdale Senior Living Inc. , People's United ... StockNewsJournal - Mar 14, 2017 People's United Financial, Inc. , at its latest closing price of $18.98, it has a price-to-book ratio of 1.22, compared to an industry average at 2.27."
p8
aS"Taking a Fresh Look at People's United Financial, Inc.  StockNewsJournal - Mar 1, 2017 People's United Financial, Inc.  is an interesting player in the Financial space, with a focus on Savings &amp; Loans.Analytical Guide for People's United Financial, Inc. , Steel Dynamics ... - The USA CommerceDividend Growth Analysis of Peoples United Financial, Inc.  - Energy Index"
p9
aS"The People's United Financial, Inc.  Stake Boosted by Commonwealth of ... Petro Global News 24 - Mar 13, 2017 Commonwealth of Pennsylvania Public School Empls Retrmt SYS boosted its position in People's United Financial, Inc.  by 0.5% during the fourth quarter, Holdings Channel reports."
p10
a.