(lp0
S"Why Shares of Pacific Continental Corporation Jumped 26% Today Motley Fool - Jan 10, 2017 Shares of bank holding company Pacific Continental Corporation  are up by about 26% as of 11:45 a.m. EST Tuesday after news broke that it would merge with Columbia Banking System, Inc.  in an all-stock deal.Columbia Banking System's  CEO Melanie Dressel Presents at Merger of ... - Seeking Alpha"
p1
aS'Pacific Continental Corporation Completes Acquisition of Foundation Bancorp ... PR Newswire  - Sep 7, 2016 6, 2016 /PRNewswire/ -- Pacific Continental Corporation , the holding company of Pacific Continental Bank, today announced the completion of the acquisition of Bellevue, Washington-based Foundation Bancorp, Inc. and its wholly-owned&nbsp;...'
p2
aS'Pacific Continental Corporation Announces Plan to Acquire Foundation Bancorp, Inc. PR Newswire  - Apr 26, 2016 BELLEVUE, Wash., April, 26, 2016 /PRNewswire/ -- Pacific Continental Corporation  , the holding company of Pacific Continental Bank, and Foundation Bancorp, Inc.  , the holding company of&nbsp;...Eugene bank buys Bellevue lender - The Register-Guard'
p3
aS'Pacific Continental Corporation Announces Thomas Ellison and Duane C. Woods ... PR Newswire  - Sep 8, 2016 EUGENE, Ore., Sept. 8, 2016 /PRNewswire/ -- Pacific Continental Corporation , the holding company of Pacific Continental Bank, today announced that Thomas Ellison and Duane C. Woods, formerly board members for Foundation Bank of&nbsp;...'
p4
aS'Pacific Continental Corporation Announces Promotion of Maria Seip to Executive ... PR Newswire  - Jun 23, 2016 EUGENE, Ore., June 23, 2016 /PRNewswire/ -- Pacific Continental Corporation , the holding company of Pacific Continental Bank, announced today that Maria Seip, general counsel has been promoted to executive vice president and chief&nbsp;...'
p5
aS'Pacific Continental Corporation Completes Acquisition of Capital Pacific ... PR Newswire  - Mar 7, 2015 EUGENE, Ore., March 6, 2015 /PRNewswire/ -- Pacific Continental Corporation , the holding company of Pacific Continental Bank, today announced the completion of the acquisition of Portland, Oregon-based Capital Pacific Bancorp and its&nbsp;...Pacific Continental closes its acquisition of a Portland bank - Portland Business Journal '
p6
aS'Pacific Continental Corporation Names Richard Sawyer as Executive Vice ... PR Newswire  - Jul 9, 2015 EUGENE, Ore., July 9, 2015 /PRNewswire/ -- Pacific Continental Corporation , the holding company of Pacific Continental Bank, announced today that Richard R. Sawyer has been named executive vice president and chief financial officer.'
p7
aS'Is Pacific Continental Corporation  undervalued when accounting for its ... Simply Wall St - Jan 26, 2017 Growth expectations for Pacific Continental Corporation  are high, but many investors are starting to ask whether its last close at $26.25 can still be rationalized by the future potential.'
p8
aS'Pacific Continental Corporation Announces Acquisition Of Capital Pacific Bancorp PR Newswire  - Nov 20, 2014 EUGENE, Ore., Nov. 19, 2014 /PRNewswire/ -- Pacific Continental Corporation  , the holding company of Pacific Continental Bank, announced the signing of a definitive agreement to acquire Capital Pacific Bancorp (OTCQB:&nbsp;...'
p9
aS'Pacific Continental Corporation Announces Retirement of Michael (Mick ... PR Newswire  - Feb 26, 2015 26, 2015 /PRNewswire/ -- Pacific Continental Corporation , the holding company of Pacific Continental Bank, announced today that after 16 years, Executive Vice president and Chief Financial Officer Michael  Reynolds will retire ...'
p10
a.