(lp0
S'Pure Cycle: A Growth Buy Masquerading As Value Seeking Alpha - Dec 20, 2016 Pure Cycle Corporation  sets up as that kind of play, at first. PCYO looks like an asset play through and through: The company has generated less than $5 million in revenue total over the past five fiscal years .'
p1
aS'Pure Cycle Corporation Announces $53 Million Sale of Agricultural Holdings Marketwired  - Mar 17, 2015 DENVER, CO-- - Pure Cycle Corporation  announces today that it has entered into a Purchase and Sale Agreement with Arkansas River Farms LLC, an affiliate of C&amp;A Companies and Resource Land Holdings&nbsp;...'
p2
aS'Pure Cycle Corporation to Sell its Farm Holdings for $53M Zacks.com - Mar 18, 2015 Denver, CO based Pure Cycle Corporation  announced that it has entered into an agreement to sell its entire farm holdings along the Fort Lyon Canal.'
p3
aS'Pure Cycle Co.  Lowered to Hold at Zacks Investment Research Chaffey Breeze - 18 hours ago Zacks Investment Research downgraded shares of Pure Cycle Co.  from a buy rating to a hold rating in a report published on Tuesday morning.The Pure Cycle Co.  Rating Lowered to Hold at Zacks Investment Research - Petro Global News 24Company Stock Focus on Pure Cycle Corporation  - Geneva Journal'
p4
aS'Form 8-K PURE CYCLE CORP For: Jan 13 StreetInsider.com - Jan 17, 2017 FORM 8-K. CURRENT REPORT. Pursuant to Section 13 or 15 of the Securities Exchange Act of 1934. Date of Report : January 13, 2017.'
p5
aS'Pure Cycle Corporation  Upgraded to Buy by Zacks Investment Research The Cerbat Gem - Feb 14, 2017 Pure Cycle Corporation logo Zacks Investment Research upgraded shares of Pure Cycle Corporation  from a hold rating to a buy rating in a research note released on Tuesday.A report released today by Zacks Investment Research about Pure Cycle ... - Breaking Finance News'
p6
aS'Pure Cycle Corporation  has been downgraded to Hold in a ... Breaking Finance News - Mar 14, 2017 Boasting a price of $5.40, Pure Cycle Corporation  traded -1.82% lower on the day. With the last stock price close up 3.55% from the two hundred day average, compared with the S&amp;P 500 Index which has increased 0.04% over the date&nbsp;...Pure Cycle Co.  Rating Lowered to Hold at Zacks Investment Research - The Cerbat Gem'
p7
aS'A New Kind of Stock Chart: Pure Cycle Corporation  Critical Pivot ... CML News - Feb 5, 2017 This is a real time view of the critical technical pivot points for Pure Cycle Corporation  . The technical pivot points we look at all surround the stock price movement from the last 10-trading days through the last year.'
p8
aS"Pure Cycle Corporation  Issues Quarterly Earnings Results Petro Global News 24 - Jan 6, 2017 Pure Cycle Corporation  posted its earnings results on Wednesday. The company reported  EPS for the quarter, topping the Zacks' consensus estimate of  by $0.01."
p9
aS'Pure Cycle Corporation  Quarterly EBIT Margin At -232.8682% Enterprise Leader - Mar 4, 2017 Pure Cycle Corporation  reported EBITDA of $-2.1798 millions for year ended 2016-11-30. For the quarter ended 2016-11-30 it was $-2.1798 millions.'
p10
a.