(lp0
S'PetMed Express Inc. PETS  Wall Street Journal - Feb 12, 2011 News PetMed Express Inc.PETS. Significant News Only. 01/23/17; Press Release. PetMed Express D/B/A 1-800-PetMeds Announces Its Third Quarter Financial Results and Its $0.19 Per Share Quarterly Dividend.'
p1
aS'PetMed Express Inc.  Moves Lower on Volume Spike for March 07 Equities.com - Mar 7, 2017 PetMed Express Inc.  traded on unusually high volume on Mar. 07, as the stock lost 2.7% to close at $19.48. On the day, PetMed Express Inc. saw 483,879 shares trade hands on 4,143 trades. Considering that the stock averages only a daily volume of&nbsp;...Stock Movements to Focus: PetMed Express, Inc.  - Is stories'
p2
aS'PetMed Express: Q3 Seems To Support The Bear Case Seeking Alpha - Jan 25, 2017 PetMed Express has cut marketing spend and put the funds into discounting, which has helped both revenue and margins in the past few quarters.'
p3
aS'PetMed Express Inc. MarketWatch - Aug 22, 2009 Check out the returns on our 8 Lazy Portfolios that are made up of low-cost buy-and-hold index funds.  How to create your own Lazy Portfolio.'
p4
aS"Petmed Express Inc  Upgraded by Zacks Investment Research to Hold The Cerbat Gem - 18 hours ago Zacks Investment Research upgraded shares of Petmed Express Inc  from a sell rating to a hold rating in a research report sent to investors on Tuesday morning.Highest Sales Estimate Of PetMed Express, Inc.  At $245.2 - Investor NewswireStuck in The Mud: Stock Can't Reverse The Downward Trend: PetMed Express, Inc ... - Midway Monitor"
p5
aS'PetMed Express Inc.  Moves Lower on Volume Spike for January 27 Equities.com - Jan 27, 2017 PetMed Express Inc.  traded on unusually high volume on Jan. 27, as the stock lost 0.14% to close at $21.00. On the day, PetMed Express Inc. saw 330,853 shares trade hands on 3,448 trades. Considering that the stock averages only a daily volume ...Malcolm Berko: PetMed Express is a healthy venture - NewsOK.com'
p6
aS'Watch out PetSmart, Inc.: PetMed Express, Inc. Is The Best Way To Cash In On ... Motley Fool - May 13, 2014 Pet pharmacy PetMeds Express  could very well be a diamond in the rough. With a market capitalization of just $250 million, PetMeds very likely flies under your radar. However, it would be a mistake to overlook it just because of its small ...'
p7
aS'PetMed Express: Competitive Advantage And Growth Prospects Seeking Alpha - Nov 24, 2014 PetMed Express  is an online pet medicine retailer providing over-the-counter and prescription medicine to pet owners.'
p8
aS'Allianz Asset Management AG Decreases Stake in Petmed Express Inc  Chaffey Breeze - Mar 11, 2017 Petmed Express logo Allianz Asset Management AG lowered its stake in Petmed Express Inc  by 3.6% during the fourth quarter, according to its most recent filing with the Securities and Exchange Commission.PetMed Express, Inc.  EPS Target At $0.26 - Investor NewswireIn Volatile Markets Do Analysts Think You Should Buy PetMed Express, Inc ... - The De Soto Edge'
p9
aS'Zacks Investment Research upgraded Petmed Express Inc  to Hold in ... Breaking Finance News - Mar 15, 2017 Having a price of $19.66, Petmed Express Inc  traded 0.36% higher on the day. With the last close down -7.49% from the two hundred day average, compared with the S&amp;P 500 Index which has increased 0.04% over the same time period.Petmed Express Inc  Upgraded to Hold at Zacks Investment Research - Sports Perspectives'
p10
a.