(lp0
S'Premier Financial Bancorp, Inc. Announces 2016 Annual Financial Results Yahoo Finance - Mar 1, 2017 HUNTINGTON, W.Va., March 1, 2017 /PRNewswire/ -- PREMIER FINANCIAL BANCORP, INC. , , a $1.5 billion bank holding company with two bank subsidiaries, announced its financial results for the fourth quarter of 2016 as&nbsp;...Stock Returns: Premier Financial Bancorp Inc  versus Suffolk ... - CML News'
p1
aS"Insider Trading Activity Premier Financial Bancorp, Inc.   CFO ... Market Exclusive - Mar 13, 2017 Brien M. Chase , CFO of Premier Financial Bancorp, Inc.  reportedly Sold 3,789 shares of the company's stock at an average price of 18.56 for a total transaction amount of $70,323.84 SEC Form.Premier Financial Bancorp, Inc.  EPS Estimated At $0.00; Newmarket Has 1 ... - Herald KSBrien M. Chase Sells 3789 Shares of Premier Financial Bancorp, Inc.  Stock - The Cerbat Gem"
p2
aS'Premier Financial Bancorp, Inc.  Ex-Dividend Date Scheduled for March 13 ... Nasdaq - Mar 10, 2017 Premier Financial Bancorp, Inc.  will begin trading ex-dividend on March 13, 2017. A cash dividend payment of $0.15 per share is scheduled to be paid on March 31, 2017.'
p3
aS"Insider Trading at Premier Financial Bancorp Inc.? Chaffey Breeze - 17 hours ago Premier Financial Bancorp, Inc.  VP Katrina Whitt sold 1,650 shares of the business's stock in a transaction dated Thursday, March 9th.Stock Returns: First Community Financial Partners Inc  is Beating ... - CML News"
p4
aS'PREMIER FINANCIAL BANCORP, INC.  Files An 8-K Results of ... Market Exclusive - Mar 3, 2017 About PREMIER FINANCIAL BANCORP, INC.  Premier Financial Bancorp, Inc.  is a multi-bank holding company.'
p5
aS'Premier Financial Bancorp, Inc. Announces 10% Stock Dividend And Fourth ... PR Newswire  - Nov 21, 2016 21, 2016 /PRNewswire/ -- PREMIER FINANCIAL BANCORP, INC. , HUNTINGTON, WEST VIRGINIA  a $1.5 billion community bank holding company with two bank subsidiaries announced today that the board of directors has&nbsp;...'
p6
aS'Premier Financial Bancorp, Inc. Announces Completion Of First National ... PR Newswire  - Jan 19, 2016 HUNTINGTON, W.Va., Jan. 19, 2016 /PRNewswire/ -- PREMIER FINANCIAL BANCORP, INC. ,  a $1.3 billion community bank holding company with two bank subsidiaries announced that its acquisition of the First National&nbsp;...'
p7
aS'BRIEF-Premier Financial Bancorp Q4 earnings per share $0.32 Reuters - Jan 17, 2017 March 1 President Donald Trump told Congress on Tuesday that more needs to be done to bring down &quot;artificially high&quot; prices for prescription drugs, while at the same time praising a drug that turns out to cost $300,000 per year.'
p8
aS'PREMIER FINANCIAL BANCORP, INC.  Files An 8-K Regulation FD ... Market Exclusive - Feb 21, 2017 On February 21, 2017, Premier Financial Bancorp, Inc. issued a press release announcing a quarterly cash dividend to its common shareholders.Noteworthy Price Swings: Del Mar Pharmaceuticals  , Premier ... - NYSE Journal '
p9
aS"The Premier Financial Bancorp, Inc.  CFO Brien M. Chase Sells 3789 ... Petro Global News 24 - Mar 14, 2017 Premier Financial Bancorp, Inc.  CFO Brien M. Chase sold 3,789 shares of the firm's stock in a transaction that occurred on Friday, March 10th."
p10
a.