(lp0
S'Insider Trading Activity Peoples Financial Corp   CEO Bought ... Market Exclusive - Mar 15, 2017 On 5/21/2014 Chevis Swetman, CEO, bought 3,000 with an average share price of $13.46 per share and the total transaction amounting to $40,380.00.'
p1
aS'Peoples Financial Corp /ms/  Files Form 4 Insider Buying : Chevis ... Energy Index - Mar 14, 2017 Peoples Financial Corp /ms/ : Chevis Swetman , CEO of Peoples Financial Corp /ms/ purchased 1,000 shares on Mar 13, 2017.Insider Trading at Peoples Financial Corp? - BBNSWhy Chevis Swetman Buys 1000 Stock of Peoples Financial ?; Doubleline ... - Wolcott Daily'
p2
aS'Form 4 PEOPLES FINANCIAL CORP For: Mar 14 Filed by: SWETMAN CHEVIS StreetInsider.com - Mar 14, 2017 Check this box if no longer subject to Section 16. Form 4 or Form 5 obligations may continue. See Instruction 1. 1. Name and Address of Reporting Person *. SWETMAN CHEVIS. , , . P.O. BOX 1416. . BILOXI, MS, 39533-1416&nbsp;...'
p3
aS'Peoples Financial Services Corp.  Moves Higher on Volume Spike for March 15 Equities.com - 11 hours ago Peoples Financial Services Corp.  traded on unusually high volume on Mar. 15, as the stock gained 0.12% to close at $40.61.'
p4
aS'Stock Returns: Norwood Financial Corp.  is Beating Peoples ... CML News - Mar 13, 2017 This is a snapshot to compare the stock returns for Norwood Financial Corp.  versus Peoples Financial Services Corp.  . The stock return points we compare look at the last three-months, six-months and twelve-months.'
p5
aS'Stock Returns: Southwest Bancorp Inc  is Beating Peoples ... CML News - 18 hours ago This is a snapshot to compare the stock returns for Southwest Bancorp Inc  versus Peoples Financial Services Corp.  . The stock return points we compare look at the last three-months, six-months and twelve-months.'
p6
aS'Peoples Financial Services Corp.  Ex-Dividend Date Scheduled for ... Nasdaq - Feb 23, 2017 Peoples Financial Services Corp.  will begin trading ex-dividend on February 24, 2017. A cash dividend payment of $0.31 per share is scheduled to be paid on March 15, 2017.'
p7
aS"Peoples Financial Corporation  CEO Chevis Swetman Acquires 1000 Shares ... The Cerbat Gem - Feb 16, 2017 Peoples Financial Corporation logo Peoples Financial Corporation  CEO Chevis Swetman purchased 1,000 shares of the company's stock in a transaction that occurred on Friday, February 10th."
p8
aS'Peoples Financial Services Corp.  Moves Lower on Volume Spike for ... Equities.com - Feb 27, 2017 Peoples Financial Services Corp.  traded on unusually high volume on Feb. 27, as the stock lost 2.34% to close at $42.53.'
p9
aS'Peoples Financial Services Corp.  Moves Lower on Volume Spike for March 10 Equities.com - Mar 10, 2017 Peoples Financial Services Corp.  traded on unusually high volume on Mar. 10, as the stock lost 1.04% to close at $39.79.Stock Returns: National Bankshares Inc  is Beating Peoples ... - CML NewsPeoples Financial Services Corp.  CEO Craig W. Best Sells 2375 Shares - Petro Global News 24'
p10
a.