(lp0
S'PNM Resources Inc.   Breaks into New 52-Week High on March ... Equities.com - 12 hours ago Shares of PNM Resources Inc.   broke into a new 52-week high yesterday, hitting a peak of $37.00. Shares closed at $36.70 after opening at $36.20 for a move of 1.38%.The PNM Resources Inc  Price Target Raised to $38.00 - Petro Global News 24Common Share Dividend Yield of PNM Resources, Inc.   - Energy Index'
p1
aS'PNM Resources Inc. Reveals 47% Advance In Q4 Profit Nasdaq - Feb 28, 2017  - PNM Resources Inc.  reported earnings for its fourth quarter that gained ground from last year. The company said its bottom line came in at $27.4 million, or $0.34 per share.'
p2
aS'PNM Resources Inc.: PNM Resources Management to Meet with Investors The Wall Street Transcript - Mar 14, 2017 PNM Resources  is an energy holding company based in Albuquerque, N.M., with 2016 consolidated operating revenues of $1.4 billion.The Putnam Investments LLC Increases Position in PNM Resources Inc  - Petro Global News 24PNM Resources Inc  PT Raised to $38.00 - The Cerbat Gem'
p3
aS'PNM Resources Inc  Stake Increased by Comerica Bank The Cerbat Gem - 21 hours ago PNM Resources logo Comerica Bank boosted its stake in PNM Resources Inc  by 6.0% during the fourth quarter, according to its most recent 13F filing with the SEC.Royal Bank of Canada Boosts PNM Resources Inc  Price Target to $38.00 - Community Financial News'
p4
aS'PNM Resources beats 4Q profit forecasts Yahoo Finance - Feb 28, 2017 ALBUQUERQUE, N.M.  _ PNM Resources Inc.  on Tuesday reported fourth-quarter net income of $24.8 million, after reporting a loss in the same period a year earlier.PNM Resources Inc.   Moves Lower on Volume Spike for March 01 - Equities.comPNM Resources Inc  Issues Quarterly Earnings Results - Chaffey Breeze'
p5
aS'PNM Resources Inc.   Breaks into New 52-Week High on March ... Equities.com - Mar 2, 2017 Shares of PNM Resources Inc.   broke into a new 52-week high yesterday, hitting a peak of $36.75. Shares closed at $36.30 after opening at $36.15 for a move of 0.14%.PNM Resources Inc  Updates FY17 Earnings Guidance - Chaffey BreezePNM Resources Inc Risk Points versus Industrials - CML News'
p6
aS"Moody's assigns a Baa3 issuer rating to PNM Resources and upgrades TNMP's ... Moodys.com   - Jun 23, 2015 New York, June 22, 2015 -- Moody's Investors Service assigned a Baa3 Issuer Rating to PNM Resources, Inc. ; affirmed the Baa2 senior unsecured and issuer ratings of Public Service Company of New Mexico ."
p7
aS'BRIEF-PNM Resources management to meet with investors Reuters - Mar 14, 2017 BRIEF-PNM Resources management to meet with investors ... March 14 Gap Inc on Tuesday named Mark Breitbard as chief executive of its Banana Republic unit, as the retailer looks to revamp the brand, which has been struggling with sales declines.'
p8
aS"PNM Resources'  CEO Pat Vincent-Collawn on Q3 2016 Results - Earnings ... Seeking Alpha - Oct 28, 2016 Joining me today are PNM Resources Chairman, President and CEO Pat Vincent-Collawn and Charles Eldred, our Executive Vice President and Chief Financial Officer as well as several other members of our executive management team."
p9
aS"PNM Files 2018 General Rate Case PR Newswire  - Dec 7, 2016 7, 2016 /PRNewswire/ -- PNM Resources'  New Mexico utility, PNM, today filed with the New Mexico Public Regulation Commission  its request for an increase in electric rates of $99 million that, if approved, would take effect January 1 ..."
p10
a.