(lp0
S'Pool Corporation  Ex-Dividend Date Scheduled for March 13, 2017 Nasdaq - Mar 10, 2017 Pool Corporation  will begin trading ex-dividend on March 13, 2017. A cash dividend payment of $0.31 per share is scheduled to be paid on March 29, 2017.'
p1
aS'Pool Corporation Reports Record 2016 Results and Provides 2017 Earnings Guidance GlobeNewswire  - Feb 16, 2017 Net income attributable to Pool Corporation increased 16% to a record $149.0 million in 2016 compared to $128.3 million in 2015.Pool Corporation : How fast will it grow? - Simply Wall StPool Corporation  investors have generally bought the stock after recent ... - Post Analyst'
p2
aS'Pool Corp  Files Form 4 Insider Selling : Arthur D Cook Sells 13000 Shares Energy Index - 5 hours ago Pool Corp : Arthur D Cook , GROUP VICE PRESIDENT of Pool Corp sold 13,000 shares on Mar 13, 2017. The Insider selling transaction was reported by the company on Mar 15, 2017 to the Securities and Exchange Commission.'
p3
aS'Peter Arvan Joins POOLCORP as Executive Vice President GlobeNewswire  - Dec 21, 2016 COVINGTON, La., Dec. 21, 2016  -- Pool Corporation  announced today that Peter D. Arvan will be joining the company on January 3, 2017 as its Executive Vice President, reporting to the President and CEO, with&nbsp;...'
p4
aS'BRIEF-Pool Corporation says chairman Sexton to retire Reuters - Mar 3, 2017 Wilson &quot;Rusty&quot; B. Sexton has notified Pool Corporation board of directors he will be retiring from board at end of his current term.'
p5
aS'Pool Corporation Realized Volatility Hits A Deteriorated Level CML News - 14 hours ago This is a proprietary realized volatility rating created by Capital Market Laboratories  based on a large number of data interactions for Pool Corporation  . We examine the little used gem of daily stock volatility over a 20-day ...'
p6
aS'POOL CORPORATION  Files An 8-K Departure of Directors or Certain ... Market Exclusive - Mar 3, 2017 Pool Corporation is a distributor of swimming pool supplies, equipment and related leisure products. The Company is also a distributor of irrigation and landscape products in the United States.The Pool Corporation  Announces Quarterly Earnings Results - DailyQuintPool Co. Plans Quarterly Dividend of $0.31  - BBNS'
p7
aS'Is Pool Corp.  a Great Growth Stock? Yahoo Finance - Mar 1, 2017 One such company that might be well-positioned for future earnings growth is Pool Corporation POOL. This firm, which is in the Leisure and Recreation Products industry, saw EPS growth of 19.7% last year, and is looking great for this year too.'
p8
aS"Pool Corporation  Analyst's Long Term Pick Aiken Advocate - 9 hours ago Shaers of Pool Corporation  have been recommended as a long term growth pick according to Beta Research. With the firm's stock price currently trading around $119.75, the firm has proven a solid track record of growth over the past few&nbsp;..."
p9
aS'Insider Trading Activity Pool Corporation   CEO Sold 21500 ... Market Exclusive - Feb 24, 2017 On 6/21/2013 James J Gaffney, Director Sell, 9,981 $50.74 with an average share price of $506,435.94 View SEC Filing 5/7/2013 per share and the total transaction amounting to Jennifer M Neil.Pool Corporation  Upgraded to Outperform at Robert W. Baird - Chaffey BreezeUBS Asset Management Americas Inc. Raises Position in Pool Corporation  - Petro Global News 24'
p10
a.