(lp0
S"Pilgrim's Pride: Recent Declines Present Opportunity Seeking Alpha - Feb 7, 2017 Pilgrim's Pride  is the second largest poultry producer in the world. The Greely, Colorado corporation boasts that it supplies 1 out of every 5 chickens in the US. The company has a market capitalization of nearly $4.6 billion. I have decided ...Pilgrim's Pride Corporation Q4 Earnings Report: - SmallCap Network"
p1
aS"Pilgrim's Pride Facility Accused of Polluting Florida's Suwannee River Wall Street Journal  - Mar 10, 2017 JACKSONVILLE, Fla.Two environmental groups filed a federal lawsuit Thursday against a Pilgrim's Pride Corp. chicken-processing plant, alleging the facility is polluting the Suwannee River.Pilgrim's Pride sued over wastewater in river - Gainesville SunLawsuit claims poultry processor hurts Suwannee River - Florida Times-Union"
p2
aS"Pilgrim's Pride Announces Closure of GNP Company Acquisition GlobeNewswire  - Jan 6, 2017 GREELEY, Colo., Jan. 06, 2017  -- Pilgrim's Pride Corporation   previously announced on November 29, 2016 its agreement to acquire GNP Company, a leading provider of premium branded chicken products&nbsp;...Pilgrim's Pride  Closes GNP Acquisition Worth $350M - Yahoo FinanceWhat Happened to Pilgrim's Pride? - Market Realist"
p3
aS"Stock Returns: Dean Foods Company  versus Pilgrim's Pride Corporation ... CML News - 19 hours ago This is a snapshot to compare the stock returns for Dean Foods Company  versus Pilgrim's Pride Corporation  .Traders Spotlight: Pilgrim's Pride Corporation  - Is storiesAverage True Range ATR analysis: Pilgrim's Pride Corporation  - The Oracle Examiner"
p4
aS"Stock Price of Pilgrims Pride Corporation  Increases 2.72% Energy Index - Mar 13, 2017 Pilgrims Pride Corporation stock performance trend indicates that the stock price has rallied 17.53% in the past 12 Weeks , but analyzing the 6 month charts for the stock , the price continues to stay positive and keep the rally at 2.67% .Stock to Track: Pilgrim's Pride Corporation  - Is storiesBrokerages Set Pilgrim's Pride Co.  Price Target at $23.71 - BNB Daily "
p5
aS"Stock Concentration on Shares of Pilgrim's Pride Corporation  Sherwood Daily - 17 hours ago Pilgrim's Pride Corporation  has a current Value Composite Score of 13. Using a scale from 0 to 100, a lower score would represent an undervalued company and a higher score would indicate an expensive or overvalued company."
p6
aS"Pilgrim's Pride: Is it a Good Pick for Value Investors? Yahoo Finance - Mar 6, 2017 Value investing is easily one of the most popular ways to find great stocks in any market environment. After all, who wouldn't want to find stocks that are either flying under the radar and are compelling buys, or offer up tantalizing discounts when ..."
p7
aS"Analyst's Proposition on Centennial Resource Development, Inc. , Pilgrim ... The USA Commerce - Mar 13, 2017 Shares of Centennial Resource Development, Inc.  dropped -2.58% to $17.35. During the trading on 03/10/2017, Company's stock ranged from $17.01 to $17.82.Pay Too Much Attention To Two Stock Analyst Ratings: Centennial Resource ... - The Voice Registrar"
p8
aS"Buy, Sell or Hold? Analysts Approach: Pilgrim's Pride Corporation , FS ... The USA Commerce - Mar 9, 2017 Shares of Pilgrim's Pride Corporation  surged 1.01% to $20.94. During the trading on 03/08/2017, Company's stock ranged from $20.62 to $21.00."
p9
aS"Pilgrim's Pride to Host Annual Meeting of Shareholders on April 28, 2017 Yahoo Finance - Feb 27, 2017 27, 2017  -- Pilgrim's Pride Corporation  will host its annual meeting of shareholders on Friday, April 28, 2017, at 8 a.m.Pilgrim\\'s Pride Corporation  Moves Higher on Volume Spike for February 27 - Equities.com"
p10
a.