(lp0
S"Change of leadership announced at PRA Group Virginian-Pilot - Mar 10, 2017 I am honored by the confidence that the PRA Group Board has placed in me through this appointment as the company's second CEO, Stevenson said in a news release. PRA Group has an enviable position as a global industry leader due to a relentless&nbsp;..."
p1
aS'PRA Group Takes a Huge Charge to Finish 2016 Motley Fool - Feb 28, 2017 PRA Group  has made every effort to take advantage of the debt collection industry in which it operates, and the company has dealt well with somewhat adverse industry conditions that have weighed on its ability to do business in the manner&nbsp;...PRA Group Announces CEO Succession Plan - GlobeNewswire PRA Group  Incurs Q4 Loss, Declares Management Changes - Yahoo Finance'
p2
aS'Why PRA Group  Could Be Positioned for a Slump March 09, 2017 Zacks.com - Mar 9, 2017 One such stock that you may want to consider dropping is PRA Group, Inc.  , which has witnessed a significant price decline in the past four weeks, and it has seen negative earnings estimate revisions for the current quarter and the&nbsp;...'
p3
aS"PRA Group, Inc. Collects a Decent Quarter Motley Fool - Aug 11, 2016 ... non-performing loans collection specialist initially jumped nearly 7% the following day, they've since given up those gains, and now sit little changed from the start of this week.Should You Dump PRA Group  Stock After a Weak Q2? - Zacks.com"
p4
aS'Why Shares of PRA Group Inc. Are Plunging Today Motley Fool - May 10, 2016 What: Shares of PRA Group  are down nearly 19% as of 10:45 a.m. ET on Tuesday after the company announced disappointing earnings results for the first quarter of 2016.'
p5
aS"PRA Group's  Rising Debt and Expenses Raise Concerns Yahoo Finance - Mar 7, 2017 PRA Group needs to achieve a higher level of increase in total revenue than expense in order to protect its operating margin.Pra Group Inc  Stock Rating Upgraded by Zacks Investment Research - Chaffey BreezeThe Pra Group Inc  Trading Down 11.9% After Earnings Miss - DailyQuint"
p6
aS'PRA Group: An Undervalued Stock Seeking Alpha - Apr 14, 2016 In addition, PRA prefers to hold onto portfolios, rather than buy and flip in a couple years when market conditions improve.'
p7
aS'Stock Returns: Encore Capital Group Inc  is Beating PRA Group Inc ... CML News - 19 hours ago This is a snapshot to compare the stock returns for Encore Capital Group Inc  versus PRA Group Inc  .'
p8
aS'PRA Group Struggling To Adapt To A New World Seeking Alpha - May 25, 2016 A lot has changed for PRA Group  over the last few years. The company has become one of the largest collectors of defaulted credit card receivables at a time when supply has been reduced by the absence of three of the largest sellers of&nbsp;...'
p9
aS"PRA Group to Announce Fourth Quarter and Full Year 2016 Results on February 28 Yahoo Finance - Feb 22, 2017 26 in conjunction with the press release regarding the sale of the Company's Government Services business, PRA Group, Inc. , a global leader in acquiring nonperforming loans, will report its fourth quarter and full year 2016 results after market ...Smart Money Buying the Price Weakness of PRA Group, Inc.  - Money Flow Index & TrendsEPS Projection Of PRA Group, Inc.  At $1.03 - Markets Daily"
p10
a.