(lp0
S'Qualstar Corporation   Top Stock from Technology Sector The Daily Leicester - 5 hours ago Qualstar Corporation , a Diversified Electronics company from Technology sector has been doing very well. The company has reported a price of $8.6 today, marking a change of 8.18%.Intraday Movers: iRobot Corporation  , Qualstar Corporation ... - NYSE Journal Session Recap: Viewing Unusual Volume for Qualstar Corporation  - Winfield Review'
p1
aS"Miller Lloyd I Iii Picked Up Qualstar Corp.  Shares Small Cap Exclusive  - Feb 17, 2017 For those not familiar with the company, Qualstar Corporation is a provider of data storage systems marketed under the Qualstar brand and of power solutions marketed under the N2Power brand.Volatile Buzzer Inside Radar: Qualstar Corporation's  stock price ... - WsNews 4investors"
p2
aS"Qualstar Corporation to Initiate Stock Repurchase Program Business Wire  - Nov 22, 2016 SIMI VALLEY, Calif.----Qualstar Corporation  announced today that the Company's board of directors has authorized a stock repurchase program to acquire up to $750,000 of the Qualstar's outstanding common stock."
p3
aS'Qualstar Corporation Announces Reverse Stock Split and Results of 2016 Annual ... Business Wire  - Jun 15, 2016 SIMI VALLEY, Calif.----Qualstar Corporation , a manufacturer of data storage solutions and high-efficiency power supplies, today announced the voting results from its 2016 Annual Meeting of Shareholders, held on&nbsp;...'
p4
aS'Qualstar Corporation Announces the Promotion of Daniel K. Jan to President Business Wire  - May 19, 2015 WESTLAKE VILLAGE, Calif.----Qualstar Corporation , a publicly traded company and manufacturer of data storage solutions and high-efficiency power supplies, announced today that as of May 15, 2015, Daniel K. Jan has&nbsp;...'
p5
aS'Does Zero-Debt Really Make Qualstar Corporation  A Financially Strong ... Simply Wall St - Feb 5, 2017 Any company, including Qualstar Corporation  with no debt in its capital structure, would maximize capital returns by having an optimal capital structure, which includes debt.'
p6
aS"Upside Potential: Qualstar Corporation's  stock price is presently Worth ... Hot Stocks Point - Mar 11, 2017 USA based company, Qualstar Corporation 's latest closing price distance was at 131.05% from the average-price of 200 days while it maintained a distance from the 50 Day Moving Average at 121.99% and 81.50% compared with the 20 Day Moving&nbsp;...Bullish Trend Inside Spotlight: Qualstar Corporation's  stock price is ... - WsNews 4investorsQualstar Corporation  held by 2 SEC 13F Filers - Post Analyst"
p7
aS"Positive Mover Inside Spotlight: Qualstar Corporation's  stock price ... WsNews 4investors - Feb 9, 2017 Qualstar Corporation's  stock price escalated 12.05% to finalize at $4.00 throughout previous buying and selling session."
p8
aS"Volatile Buzzer Inside Radar: Qualstar Corporation's  stock price ... WsNews 4investors - Feb 14, 2017 Qualstar Corporation's  stock price escalated 10.31% to finalize at $4.28 throughout previous buying and selling session."
p9
aS"Qualstar Sets The Record Straight Regarding Steven Bronson's Experience And ... PR Newswire  - Jun 14, 2012 SIMI VALLEY, Calif., June 14, 2012 /PRNewswire/ -- Qualstar Corporation  today responded to the communications coming from BKF Capital Group, which is attempting to take complete control of Qualstar's board with industry outsiders,&nbsp;..."
p10
a.