(lp0
S"Quality Systems Has Enormous Growth In The Cards Seeking Alpha - Mar 8, 2017 Quality Systems Inc  is well positioned to benefit from the expansion of this nation's healthcare sector. QSII's software products focus on serving administrative needs in the business."
p1
aS'Quality Systems Inc.  Moves Higher on Volume Spike for February 27 Equities.com - Feb 27, 2017 Quality Systems Inc.  traded on unusually high volume on Feb. 27, as the stock gained 0.2% to close at $15.28. On the day, Quality Systems Inc. saw 1.02 million shares trade hands on 6,283 trades. Considering that the stock averages only a daily&nbsp;...Quality Systems, Inc.  Position Held by the Public Employees Retirement ... - Petro Global News 24Quality Systems, Inc.  Position Cut by Systematic Financial Management LP - Sports Perspectives'
p2
aS'Quality Systems Inc.  Breaks into New 52-Week High on February 14 Session Equities.com - Feb 14, 2017 Shares of Quality Systems Inc.  broke into a new 52-week high yesterday, hitting a peak of $15.78. Shares closed at $15.74 after opening at $15.59 for a move of 0.9%.'
p3
aS'Q4 2017 EPS Estimates for Quality Systems, Inc.  Cut by Analyst BNB Daily  - Mar 7, 2017 Quality Systems logo Quality Systems, Inc.  - Equities research analysts at KeyCorp cut their Q4 2017 EPS estimates for shares of Quality Systems in a research report issued to clients and investors on Sunday.'
p4
aS'EPS Projection Of Quality Systems, Inc.  At $0.21 RealistInvestor.com - 18 hours ago Quality Systems, Inc.  is likely to account earnings of $0.21 for latest quarter, which can come on 2017-05-18.'
p5
aS"KeyCorp Comments on Quality Systems, Inc.'s FY2017 Earnings  Chaffey Breeze - Mar 9, 2017 Quality Systems logo Quality Systems, Inc.  - Research analysts at KeyCorp decreased their FY2017 earnings per share  estimates for shares of Quality Systems in a research report issued on Sunday.Analysts Offer Predictions for Quality Systems, Inc.'s Q4 2017 Earnings  - The Cerbat Gem"
p6
aS'Brokerages Set Quality Systems, Inc.  PT at $13.00 Chaffey Breeze - Mar 1, 2017 Quality Systems logo Shares of Quality Systems, Inc.  have been assigned a consensus recommendation of Hold from the seventeen brokerages that are currently covering the stock.'
p7
aS'The Tudor Investment Corp Et Al Invests $526000 in Quality Systems, Inc.  Petro Global News 24 - Mar 10, 2017 Tudor Investment Corp Et Al acquired a new stake in shares of Quality Systems, Inc.  during the fourth quarter, Holdings Channel reports.'
p8
aS"The Analysts Offer Predictions for Quality Systems, Inc.'s Q4 2017 Earnings  Petro Global News 24 - Mar 9, 2017 Quality Systems, Inc.  - Stock analysts at KeyCorp reduced their Q4 2017 earnings estimates for Quality Systems in a research note issued to investors on Sunday."
p9
aS"Watch List: Sunrun Inc.  , Quality Systems, Inc.  NYSE Journal  - 19 hours ago On 3/14/2017, Shares of Sunrun Inc.  closed at $4.89 in last trading day. After noting the initial trading entry at $4.93, it reached to a day's high of $4.95 and moved to a day's low of $4.79."
p10
a.