(lp0
S'Robert Half  Likely to Bounce Back: Should You Hold? Nasdaq - Mar 13, 2017 Robert Half International Inc. RHI has been grappling with numerous headwinds of late. A decline in U.S. staffing revenues and a tightening job market continues to put pressure on the skilled-labor supply.Common Share Dividend Yield of Robert Half International Inc.  - Energy IndexThe Robert Half International Inc.  Given Average Recommendation of Hold ... - Petro Global News 24'
p1
aS"Robert Half International Earnings, Recruitment Conditions Remain Tough Motley Fool - Jan 27, 2017 With most commentators talking of a pickup in growth in 2017 and post-election euphoria encouraging the belief that a Donald Trump presidency will spur economic growth, it would be reasonable to think that staffing company Robert Half International Inc.Robert Half  Misses Q4 Earnings &amp; Revenue Estimates - Yahoo FinanceRobert Half International's  CEO Harold Messmer on Q4 2016 Results ... - Seeking Alpha"
p2
aS'For Robert Half, The Best Is Yet To Come Seeking Alpha - Feb 1, 2017 Robert Half International Inc.  is a California-based risk consultancy and human resource firm, with more than 400 offices in North America, South America, Asia, Australia and Europe.Robert Half International Inc.  Rating Reiterated by RBC Capital Markets - The Cerbat Gem'
p3
aS'Robert Half International Inc.  Ex-Dividend Date Scheduled for February ... Nasdaq - Feb 21, 2017 Robert Half International Inc.  will begin trading ex-dividend on February 22, 2017. A cash dividend payment of $0.24 per share is scheduled to be paid on March 15, 2017.Robert Half International Inc.  Shares Bought by Federated Investors Inc. PA - The Cerbat GemRobert Half International Inc.  To Go Ex-Dividend on February 22nd - BBNS'
p4
aS"Robert Half Again Named To 'World's Most Admired Companies' List PR Newswire  - Feb 16, 2017 MENLO PARK, Calif., Feb. 16, 2017 /PRNewswire/ -- Robert Half International Inc.  announced today it has again ranked first in its industry on Fortune magazine's list of &quot;World's Most Admired Companies.&quot; Robert Half has appeared on&nbsp;..."
p5
aS'Robert Half International Inc.  Stock Rating Upgraded by Zacks Investment ... Chaffey Breeze - Mar 14, 2017 Robert Half International logo Robert Half International Inc.  was upgraded by Zacks Investment Research from a sell rating to a hold rating in a research report issued on Friday.Robert Half International Inc.  Upgraded by Zacks Investment Research to ... - The Cerbat Gem81 hedge funds buy Robert Half International Inc.  for the first time - Post Analyst'
p6
aS'Taking a Fresh Look at Robert Half International Inc.  StockNewsJournal - Mar 3, 2017 Robert Half International Inc.  is an interesting player in the Services space, with a focus on Staffing &amp; Outsourcing Services.Short Term Stock Rating on Robert Half International Inc.  - Energy IndexRobert Half International Inc. : How technical indicators have come out? - Post Analyst'
p7
aS"Average Brokerage Rating Of DexCom, Inc. , Robert Half International Inc ... The USA Commerce - Mar 13, 2017 Shares of DexCom, Inc.  surged 1.02% to $78.34. During the trading on 03/10/2017, Company's stock ranged from $76.85 to $78.50."
p8
aS'Robert Half International Inc.  Moves Lower on Volume Spike for February 23 Equities.com - Feb 23, 2017 Robert Half International Inc.  traded on unusually high volume on Feb. 23, as the stock lost 0.56% to close at $47.98.'
p9
aS'Option Trading: Robert Half International Inc  A Clever Long Put ... CML News - Mar 14, 2017 As we look at Robert Half International Inc we note that a long put spread is one of the most common implementations of an option strategy during a bull market, but the analysis completed when employing the long put spread often times lacks the ...'
p10
a.