(lp0
S"Rambus Appoints Two New Fellows Business Wire  - Mar 14, 2017 BUSINESS WIRE)--Rambus Inc.  today announced it has appointed Drs. Helena Handschuh, a renowned cryptographer, and Thomas Vogelsang, a world recognized DRAM expert, to one of the company's highest technical positions,&nbsp;..."
p1
aS"Insider Trading Activity Rambus Inc.   SVP Sold 9845 shares of Stock Market Exclusive - Feb 22, 2017 Jae Kim , SVP of Rambus Inc.  reportedly Sold 9,845 shares of the company's stock at an average price of 12.65 for a total transaction amount of $124,539.25 SEC Form.Brokers Change Their Target Price On Rambus, Inc.  - Fiscal Standard"
p2
aS"Laura Stark Sells 3810 Shares of Rambus Inc.  Stock BBNS - 9 hours ago Rambus logo Rambus Inc.  SVP Laura Stark sold 3,810 shares of the business's stock in a transaction dated Monday, March 13th.Stock Returns: ON Semiconductor Corporation  is Beating Rambus Inc ... - CML NewsMarket Cap Of Rambus, Inc.  Of $1.47B - Equities Focus"
p3
aS'Earnings Reaction History: Rambus Inc., 37.5% Follow-Through Indicator, 7.4 ... Nasdaq - Jan 30, 2017 Rambus Inc.  is due to issue its quarterly earnings report in the upcoming extended-hours session. Given its history, traders can expect light trading in the issue immediately following its quarterly earnings announcement.'
p4
aS'Rambus , Western Digital Sign Licensing Agreement Yahoo Finance - Mar 7, 2017 Rambus Inc. RMBS signed a patent licensing agreement with hard disk drive  manufacturer Western Digital Corp. WDC for an undisclosed sum.Rambus  Enters License Agreement with Western Digital  - StreetInsider.comRambus: 4 Ways To Win; JPMorgan Adds To Focus List - Benzinga'
p5
aS'Rambus Inc. | $RMBS Stock | Shares Shoot Down On Fourth Quarter Loss Despite ... TickerTV News  - Jan 31, 2017 Rambus Inc. , a leading semiconductor company yesterday reported their fiscal fourth quarter 2016 financial results. Rambus reported a fourth quarter loss of $3.4 million.Rambus Q4 2016 okay, Q1 2017 revenue midpoint projected below consensus, Q1 ... - Seeking AlphaStock to Lookout for: Rambus Inc.  - TopChronicle'
p6
aS'UPDATE: JPMorgan Upgrades Rambus Inc.  to Overweight StreetInsider.com - Feb 9, 2017 JPMorgan upgraded Rambus Inc.  from Neutral to Overweight with a price target of $14.50. Analyst Paul Coster comments &quot;A 10% pull-back in RMBS stock since reporting in-line 4Q results  presents an opportunity to buy this&nbsp;...'
p7
aS'Rambus Inc.  Moves Higher on Volume Spike for March 01 Equities.com - Mar 1, 2017 Rambus Inc.  traded on unusually high volume on Mar. 01, as the stock gained 3.11% to close at $12.95. On the day, Rambus Inc. saw 1.19 million shares trade hands on 7,509 trades. Considering that the stock averages only a daily volume of&nbsp;...Rambus Inc.  Upgraded at Zacks Investment Research - The Cerbat GemStock under Analyst Consideration: Rambus Inc.  - StandardOracle'
p8
aS'The Rambus Inc.  Shares Bought by Dimensional Fund Advisors LP Petro Global News 24 - Mar 14, 2017 Dimensional Fund Advisors LP increased its position in shares of Rambus Inc.  by 2.2% during the fourth quarter, Holdings Channel reports.'
p9
aS"Why Jefferies Likes Rambus' Acquisition Of IPHI's Memory Buffer Business Benzinga - Jul 5, 2016 Jefferies views Rambus Inc. 's acquisition of IPHI's memory buffer business as positive despite maintaining its Hold rating on the stock."
p10
a.