(lp0
S"Radio One, Inc. Says '#NotOneMore' News One - Sep 27, 2016 The Radio One, Inc. family of companies  are here to say Black lives matter and we create media each day to affirm, celebrate, and reflect the multifaceted ways in which they do."
p1
aS"Radio One changes name to reflect identity as 'multimedia entity' Washington Business Journal - Nov 4, 2016 Radio One Inc.  isn't just radio anymore, and the company is changing its name to reflect that. The Silver Spring-based media company will be known as Urban One Inc. as of Jan. 1. Its individual divisions - Radio One, TV One and&nbsp;...Radio One Down in the 3rd Quarter But Announce Name Change in 2017 to Redefine ... - Radio Facts  Radio One Ready For Name Change, Casino Opening - Radio Ink"
p2
aS'Radio One, Inc. 2016 Year End Results Conference Call PR Newswire  - Feb 23, 2017 WASHINGTON, Feb. 23, 2017 /PRNewswire/ -- Radio One, Inc.  will be holding a conference call for investors, analysts and other interested parties to discuss its results for the fiscal year 2016.'
p3
aS'Radio One Maybe The One Seeking Alpha - Jan 26, 2017 Radio One, Inc  is a radio, cable television and digital media company based in Silver Spring, Maryland.'
p4
aS'Radio One considering DC, MoCo for new HQ Washington Business Journal - Aug 15, 2016 Radio One Inc. has launched a search for a new headquarters in the D.C. region as it weighs a potential relocation from its current home in Silver Spring.'
p5
aS"RADIO ONE, INC.  Files An 8-K Results of Operations and Financial ... Market Exclusive - Mar 9, 2017 Radio One, Inc. together with its subsidiaries, is an urban-oriented, multi-media company. The Company's radio broadcasting franchise business primarily targets African-American and urban listeners."
p6
aS'Technical Levels in Focus: Radio One Inc  Rives Journal - 13 hours ago Traders may be trying to figure out whether it is a good time to enter or exit a position in Radio One Inc . The Average Directional Index or ADX is a technical analysis indicator used to describe if a market is trending or not trending.'
p7
aS'Radio One, Inc. Finalized $40 Million MGM National Harbor Investment PR Newswire  - Dec 13, 2016 On November 17, 2016, Radio One Entertainment Holdings, LLC, a wholly owned subsidiary of Radio One, Inc., received approval from the Maryland State Lottery and Gaming Control Commission to become a Principal Entity of MGM National Harbor, LLC.'
p8
aS'Radio One, Inc. Hosted 6th Annual The Blitz PR Newswire  - Aug 17, 2016 NEW YORK, Aug. 17, 2016 /PRNewswire/ -- Radio One, Inc. hosted The Blitz last night at Stage 48 NYC. An exclusive invite-only event, this showcase is an opportunity for artists from multiple labels to perform their new music for an elite crowd of ...'
p9
aS'Howard University Honors Radio One, Inc. Founder And Chairperson Cathy Hughes ... PR Newswire  - Oct 24, 2016 SILVER SPRING, Md., Oct. 24, 2016 /PRNewswire/ -- Howard University honored Cathy Hughes, founder and chairperson of Radio One, Inc., the largest Black-owned multi-media company in the country, with the unveiling of the Cathy Hughes School of&nbsp;...'
p10
a.