(lp0
S'RealPage Inc.  Breaks into New 52-Week High on March 15 Session Equities.com - 12 hours ago Shares of RealPage Inc.  broke into a new 52-week high yesterday, hitting a peak of $36.48. Shares closed at $36.20 after opening at $35.65 for a move of 1.83%.'
p1
aS'RealPage Inc.  Breaks into New 52-Week High on March 14 Session Equities.com - Mar 14, 2017 Shares of RealPage Inc.  broke into a new 52-week high yesterday, hitting a peak of $35.85. Shares closed at $35.55 after opening at $34.75 for a move of 1.14%.RealPage, Inc.  Chairman Sells $5525352.00 in Stock - Chaffey BreezeInsider Selling: RealPage, Inc.  Major Shareholder Sells $3315211.20 in Stock - BNB Daily '
p2
aS'RealPage Inc Realized Volatility Hits An Elevated Level CML News - Mar 14, 2017 This is a proprietary realized volatility rating created by Capital Market Laboratories  based on a large number of data interactions for RealPage Inc  . We examine the little used gem of daily stock volatility over a 20-day and 30 ...'
p3
aS'RealPage makes $300M acquisition of revenue management system Dallas Business Journal - Feb 27, 2017 Less than a month after agreeing to buy a Dallas-based apartment research firm, Richardson-based RealPage Inc.  has decided to acquire a revenue management system that will optimize the price of 1.5 million apartments for $300 million.RealPage to Acquire Lease Rent Options, LRO - Yahoo FinanceThe Rainmaker Group Announces Sale of Multifamily Housing Assets to RealPage, Inc. - Hospitality Net'
p4
aS"Executive Ashley Glover rejoins RealPage, Inc. Dallas Business Journal  - Aug 4, 2016 A former top sales executive for Carrollton-based RealPage, Inc. will return to serve as the company's executive vice president and chief revenue officer.RealPage Announces New Chief Revenue Officer - Business Wire RealPage's  CEO Steve Winn on Q2 2016 Results - Earnings Call Transcript - Seeking Alpha"
p5
aS'RealPage Inc.  Breaks into New 52-Week High on February 10 Session Equities.com - Feb 10, 2017 Shares of RealPage Inc.  broke into a new 52-week high yesterday, hitting a peak of $32.70. Shares closed at $32.30 after opening at $32.50 for a move of -0.15%.'
p6
aS'RealPage Inc.  Moves Higher on Volume Spike for March 01 Equities.com - Mar 1, 2017 RealPage Inc.  traded on unusually high volume on Mar. 01, as the stock gained 4.59% to close at $35.30. On the day, RealPage Inc. saw 1.48 million shares trade hands on 7,640 trades. Considering that the stock averages only a daily volume of&nbsp;...'
p7
aS'RealPage Inc.  Breaks into New 52-Week High on February 15 Session Equities.com - Feb 15, 2017 Shares of RealPage Inc.  broke into a new 52-week high yesterday, hitting a peak of $33.95. Shares closed at $33.75 after opening at $33.45 for a move of 0.6%.'
p8
aS'Stock Returns: RealPage Inc  is Beating The Ultimate Software Group ... CML News - Mar 13, 2017 This is a snapshot to compare the stock returns for RealPage Inc  versus The Ultimate Software Group Inc  .'
p9
aS"RealPage Inc.  Moves Lower on Volume Spike for February 24 Equities.com - Feb 24, 2017 RealPage Inc.  traded on unusually high volume on Feb. 24, as the stock lost 0.59% to close at $33.50. On the day, RealPage Inc. saw 652,966 shares trade hands on 4,872 trades. Considering that the stock averages only a daily volume of 388,247&nbsp;...Does RealPage Inc's  share price already account for its high growth? - Simply Wall StWilliam Blair Investment Management LLC Sells 5235 Shares of RealPage, Inc.  - BBNS"
p10
a.