(lp0
S'inContact Reports Fourth Quarter and Full Year 2015 Financial Results PR Newswire  - Feb 16, 2016 SALT LAKE CITY, Feb. 16, 2016 /PRNewswire/ -- inContact, Inc. , the leading provider of cloud contact center software and contact center optimization tools, today reported record financial results for the fourth quarter and full year ...'
p1
aS'Why Incontact Inc. Stock Rose 53% Today Motley Fool - May 18, 2016 What: Shares of inContact Inc.  were up 53.7% as of 11:00 a.m. ET Wednesday after the cloud contact center software company announced it has entered into a definitive agreement to be acquired by NICE Systems .inContact To Be Acquired By NICE Systems For $14.00 Per Share In Cash - PR Newswire INCONTACT, INC. SHAREHOLDER ALERT: Rigrodsky &amp; Long, PA Announces ... - Business Wire '
p2
aS'Nice Systems closes on $940M acquisition of inContact Seeking Alpha - Nov 14, 2016 It marks the first time a single vendor offers contact center cloud infrastructure along with a full range of workforce optimization applications and analytics, Nice says.'
p3
aS"Why inContact, Inc. Stock Fell 28% Friday Motley Fool - Aug 7, 2015 What: Shares of inContact  lost 28% of their value on Friday. The company, which provides call center and network connectivity services from an Internet-based platform, reported second-quarter results on Thursday night that weren't at all ..."
p4
aS'inContact Announces Spring 2017 Release of Award-Winning Customer Interaction ... Yahoo Finance - Mar 9, 2017 inContact, Inc., a NICE company  and the leading provider of cloud contact center software that unifies omnichannel routing, workforce optimization and analytics, today announced the details of its Spring 2017 release.'
p5
aS'SA startup partners to create next-gen customer support tool, seeks talent to grow San Antonio Business Journal - Aug 12, 2016 Enabling corporations to connect with customers in the manner they prefer - like through social media - is driving growth at a San Antonio-based technology startup.'
p6
aS'NICE Announces Closing of inContact Acquisition Business Wire  - Nov 14, 2016 PARAMUS, N.J.----NICE  announced that the acquisition of inContact  closed today. This game-changing deal brings together two market leaders in contact center applications and contact center cloud,&nbsp;...'
p7
aS'inContact Announces Second Major 2016 Release of Award-Winning Customer ... PR Newswire  - Jun 28, 2016 SALT LAKE CITY, June 28, 2016 /PRNewswire/ -- inContact , the leading provider of cloud contact center software and workforce optimization tools, today announced the details of its second major release of Customer Interaction Cloud for&nbsp;...'
p8
aS'inContact and HelpSocial Complete Pivotal Social Customer Care Integration PR Newswire  - Aug 11, 2016 SALT LAKE CITY, Aug. 11, 2016 /PRNewswire/ -- inContact , the leading provider of cloud contact center software and workforce optimization tools, today announces its partnership with HelpSocial, Inc., the #1 integration platform for&nbsp;...'
p9
aS'inContact Announces Spring 2017 Release of Award-Winning Custome - Northern ... 9&10 News - Mar 9, 2017 inContact, Inc., a NICE company  and the leading provider of cloud contact center software that unifies omnichannel routing, workforce optimization and analytics, today announced the details of its Spring 2017 release.'
p10
a.