(lp0
S'Why Boston Beer Co., Inc. Stock Plunged Today Motley Fool - Apr 22, 2016 What: Shares of Boston Beer Co.  fell as much as 12% Friday after the craft brewer announced weaker-than-expected first-quarter 2016 results.Four takeaways from Boston Beer Co. investor call - Boston Business Journal '
p1
aS'Insider Trading Activity Boston Beer Company Inc   Chairman Sold ... Market Exclusive - Mar 14, 2017 On 8/8/2012 William F Urich, CFO, sold 4,000 with an average share price of $113.44 per share and the total transaction amounting to $453,760.00.'
p2
aS'Why The Boston Beer Co., Inc. Stock Dropped 15.7% in April Motley Fool - May 14, 2016 What: Shares of Boston Beer Co.  fell 15.7% in the month of April, according to data provided by S&amp;P Global Market Intelligence, after the craft brewer admitted it lost market share for the second straight quarter.'
p3
aS'Will Boston Beer Company Inc  Earnings Fall Flat Again? Investorplace.com - Feb 15, 2017 The Boston Beer Company Inc  is scheduled to release fourth-quarter 2016 results on Feb 22. The big question facing investors is, whether this largest U.S.'
p4
aS'Boston Beer Co. Cl A  Settles Into New 52-Week Low on March 14 Session Equities.com - Mar 14, 2017 Boston Beer Co Inc is engaged in the business of selling low alcohol beverages in the United States. Boston Beer Co. Cl A has 1,505 employees, is led by CEO Martin F. Roper, and makes its home in Boston, MA.Boston Beer Company Inc  Director Cynthia A. Fisher Sells 6500 Shares - Chaffey BreezeBoston Beer Company Inc  Receives $150.38 Consensus Price Target from ... - BNB Daily '
p5
aS'Earnings Reaction History: Boston Beer Company, Inc., 30.0% Follow-Through ... Nasdaq - Feb 22, 2017 Boston Beer Company, Inc.  is due to issue its quarterly earnings report in the upcoming extended-hours session.'
p6
aS'Should Investors Raise A Glass To The Boston Beer Company? Seeking Alpha - Nov 7, 2016 The Boston Beer Company, Inc.  produces and sells alcohol beverages, and its flagship beer is Samuel Adams Boston Lager.'
p7
aS"Why Boston Beer Company Inc's Shares Plunged 15% in September Motley Fool - Oct 3, 2016 According to data provided by S&amp;P Global Market Intelligence, shares of craft brewer Boston Beer Company Inc  dropped 15% in September as a couple of broad industry trends started to worry investors.How One Man and One Beer Disrupted an Entire Industry - Fortune"
p8
aS'Shares in Focus: The Boston Beer Company, Inc.  Davidson Register - 16 hours ago Separating the winners from the losers is a constant challenge for investors. Many focused investors may look to track stock momentum based on historical prices.Brokerages Set Boston Beer Company Inc  PT at $150.38 - Chaffey BreezeThe C James Koch Sells 12500 Shares of Boston Beer Company Inc  Stock - Petro Global News 24'
p9
aS"Boston Beer Co. Inc.'s Cup Is Half Full Motley Fool - Jul 22, 2016 Note Boston Beer doesn't usually offer specific quarterly financial guidance. For perspective, and with the caveat that we don't pay close attention to Wall Street's near-term demands, analysts' consensus estimates called for lower earnings of $1.94 ...Four  things you didn't know about Boston Beer Co. founder Jim Koch - Boston Business Journal Boston Beer  Martin F. Roper on Q2 2016 Results - Earnings Call Transcript - Seeking Alpha"
p10
a.