(lp0
S'Seacoast Banking Corporation of Florida to Present at Raymond James 38th ... PR Newswire  - Mar 7, 2017 STUART, Fla., March 7, 2017 /PRNewswire/ -- Seacoast Banking Corporation of Florida , the parent company of Seacoast National Bank , today announced that its management team will present at the&nbsp;...The Robert Goldstein Sells 6210000 Shares of Seacoast Banking Corporation of ... - DailyQuintAnnual Sales Estimates Of Seacoast Banking Corporation of Florida (NASDAQ:SBCF ... - Equities Focus'
p1
aS"Seacoast Banking Corporation of Florida to Acquire Floridian Financial Group, Inc. PR Newswire  - Nov 3, 2015 STUART, Fla., Nov. 3, 2015 /PRNewswire/ -- Seacoast Banking Corporation of Florida  , the holding company for Seacoast National Bank , announced today that it has signed a definitive agreement to acquire&nbsp;...Seacoast to acquire Lake Mary's Floridian Financial Group - Orlando Business JournalSeacoast to acquire Lake Mary-based bank for $76.5M - Orlando Sentinel"
p2
aS"Seacoast Banking Corporation of Florida's  CEO Dennis Hudson On Q4 2016 ... Seeking Alpha - Feb 2, 2017 With me today is Chuck Shaffer, who will discuss our financial and operating results, also joining us in the room is Steve Fowle, our Chief Financial Officer; Chuck Cross, our commercial banking executive; David Houdeshell, our Chief Credit Officer ...Seacoast Banking Corporation of Florida  Receives Buy Rating from FBR &amp; Co - Community Financial News"
p3
aS'Stock Returns: Guaranty Bancorp  versus Seacoast Banking ... CML News - 19 hours ago This is a snapshot to compare the stock returns for Guaranty Bancorp  versus Seacoast Banking Corporation of Florida  . The stock return points we compare look at the last three-months, six-months and twelve-months.Seacoast Banking  Gets Guggenheim Civerage; Lumber Liquidators Holdings ... - HuronReportSeacoast Banking Corporation of Florida  is Initiated by Guggenheim to ... - Highland Mirror'
p4
aS'BRIEF-SEACOAST BANKING CORPORATION OF FLORIDA APPOINTS CHARLES SHAFFER AS CFO Reuters - Jan 27, 2017 BRIEF-SEACOAST BANKING CORPORATION OF FLORIDA APPOINTS CHARLES SHAFFER AS CFO. Jan 27 Seacoast Banking Corporation Of Florida. * ON JANUARY 23, 2017, BOARD APPOINTED CHARLES M. SHAFFER TO SERVE AS CHIEF&nbsp;...'
p5
aS"BRIEF-SEACOAST BANKING CORP OF FLORIDA FILES FOR PRICING OF COMMON STOCK ... Reuters UK - Feb 15, 2017 NORTH CHARLESTON, S.C., Feb 15 Boeing Co handily defeated a union drive by workers at the company's aircraft factory in South Carolina on Wednesday, as almost three-quarters of workers at the plant who voted rejected union representation."
p6
aS"Seacoast Banking Corporation of Florida To Acquire BMO Harris' Orlando Banking ... PR Newswire  - Oct 15, 2015 STUART, Fla., Oct. 15, 2015 /PRNewswire/ -- Seacoast Banking Corporation of Florida  , the holding company for Seacoast National Bank , announced today that it has signed a definitive agreement to acquire&nbsp;...Seacoast expands Orlando footprint with BMO Harris buy - Orlando Business Journal"
p7
aS'Seacoast Banking Corporation of Florida  Names Al Monserrat To Board Of ... StreetInsider.com - Feb 6, 2017 Seacoast Banking Corporation of Florida  announced that it has appointed Al Monserrat, CEO of RES Software, a leading digital workspace technology company, to the board of directors of its bank subsidiary, Seacoast National Bank,&nbsp;...Seacoast Banking Corporation of Florida  Rating Reiterated by FBR &amp; Co - Sports Perspectives'
p8
aS'Seacoast Banking Corporation of Florida  Commences Common Stock Offering StreetInsider.com - Feb 14, 2017 Seacoast Banking Corporation of Florida , the parent company of Seacoast National Bank , today announced that it has commenced an underwritten public offering of its common stock.Seacoast Announces Pricing of Common Stock Offering - Seeking AlphaStock Returns: Seacoast Banking Corporation of Florida  is ... - CML News'
p9
aS'Seacoast Banking Corporation of Florida  Moves Lower on Volume Spike for ... Equities.com - Feb 24, 2017 Seacoast Banking Corporation of Florida  traded on unusually high volume on Feb. 24, as the stock lost 1.94% to close at $23.75.Seacoast Bank Announces Investor Day Webcast - PR Newswire SunTrust Robinson Humphrey Upgrades Seacoast Banking Corporation of Florida to ... - Money Flow Index & Trends'
p10
a.