(lp0
S'SINCLAIR BROADCAST GROUP, INC.  Files An 8-K Other Events Market Exclusive - 13 hours ago Sinclair Broadcast Group, Inc. is a television broadcasting company. The Company owns or provides certain programming, operating or sales services to television stations in the United States.Sinclair Broadcast Group Inc.  Moves Lower on Volume Spike for March 15 - Equities.comCommon Share Dividend Yield of Sinclair Broadcast Group, Inc.  - Energy Index'
p1
aS'Nexstar Media Group , Sinclair Broadcast Group  Enter MoU ... StreetInsider.com - 18 hours ago Nexstar Media Group, Inc.  and Sinclair Broadcast Group, Inc.  announced today that they have entered into a memorandum of understanding regarding the establishment of a consortium that will promote spectrum&nbsp;...'
p2
aS'Sinclair Broadcast Group Prices Public Offering of Class A Common Stock PR Newswire  - Mar 9, 2017 BALTIMORE, March 9, 2017 /PRNewswire/ -- Sinclair Broadcast Group, Inc.   announced that it has priced an underwritten public offering of 12.0 million primary shares of Class A common stock at a price to the&nbsp;...Sinclair Broadcast Group  Prices 12M Class A Shares Offering at $42 - StreetInsider.com'
p3
aS"Sinclair Broadcast rolls out TBD network targeting millennials Baltimore Sun - Mar 8, 2017 Sinclair Broadcast Group Inc. has begun to roll out a first-of-its kind, over-the-air TV network showing digital programming that's designed to appeal to millennials."
p4
aS'Sinclair Broadcast Group reportedly talking to Tribune Media about acquisition Baltimore Business Journal - Mar 1, 2017 Sinclair Broadcast Group Inc. shares were up more than 4 percent in trading Wednesday morning after a report said it approached Tribune Media Co.Exclusive: Sinclair approaches Tribune Media about possible deal - sources - Reuters'
p5
aS'Sinclair Broadcast Group prices offering at $42/share Seeking Alpha - Mar 10, 2017 Underwriters will get a 30-day greenshoe option to buy up to 1.8M more primary Class A shares on the same terms. The company had filed information about the offering with the intent to use proceeds to &quot;fund future potential acquisitions&quot; and for ...'
p6
aS'Ex-Dividend Reminder: Group 1 Automotive, Sinclair Broadcast Group and ... Nasdaq - Feb 23, 2017 Looking at the universe of stocks we cover at Dividend Channel , on 2/27/17, Group 1 Automotive, Inc. , Sinclair Broadcast Group, Inc. , and Interpublic Group of Companies Inc.  will all trade ex-dividend for ...Sinclair Broadcast Group profit soars in 4Q on political advertising - Baltimore Business JournalSinclair Broadcast Group Inc : What can we expect from this high growth ... - Simply Wall St'
p7
aS"The Technical Facts on Sinclair Broadcast Group, Inc.  The USA Commerce - Mar 10, 2017 We have gathered the technical data on Sinclair Broadcast Group, Inc. , and see some interesting trends in the stock's behavior of late."
p8
aS'Insider Trading Activity Sinclair Broadcast Group Inc   VP Sold ... Market Exclusive - Mar 3, 2017 On 5/15/2013 J Duncan Smith, Major Shareholder Sell, 739,815 $26.30 with an average share price of $19,457,134.50 View SEC Filing 5/15/2013 per share and the total transaction amounting to Robert E Smith.Sinclair Broadcast Group Inc.  Moves Higher on Volume Spike for March 01 - Equities.comRevenue Update on Sinclair Broadcast Group Inc - Energy Index'
p9
aS'comScore Expands Partnership With Sinclair Broadcast Group PR Newswire  - Mar 13, 2017 RESTON, Va., March 13, 2017 /PRNewswire/ -- comScore today announced it has signed an expansion agreement with Sinclair Broadcast Group, adding WSBT  South Bend, Ind., KUQI  Corpus Christi, Texas and KHGI  and KFXL  Lincoln ...'
p10
a.