(lp0
S'Stifel Financial Corp Buys iShares 3-7 Year Treasury Bond, Kimberly-Clark ... Nasdaq - Feb 18, 2017 Stifel Financial Corp initiated holdings in iShares 3-7 Year Treasury Bond. The purchase prices were between $121.52 and $126.26, with an estimated average price of $123.96.Fairpointe Capital LLC Buys Patterson, Arconic, Lions Gate Entertainment ... - GuruFocus.com'
p1
aS'Stifel Financial Corp  Given Consensus Rating of Buy by Analysts Chaffey Breeze - Mar 14, 2017 Stifel Financial Corp logo Shares of Stifel Financial Corp  have been given an average rating of Buy by the six analysts that are currently covering the company.Smart Money Buying the Price Weakness of Stifel Financial Corporation  - Energy Index'
p2
aS'Stock Returns: Stifel Financial Corp.  is Beating Interactive Brokers ... CML News - Feb 24, 2017 This is a snapshot to compare the stock returns for Interactive Brokers Group Inc  versus Stifel Financial Corp.  . The stock return points we compare look at the last three-months, six-months and twelve-months. At the end of this&nbsp;...'
p3
aS'Stock Returns: Raymond James Financial Inc  versus Stifel Financial ... CML News - Feb 27, 2017 This is a snapshot to compare the stock returns for Raymond James Financial Inc  versus Stifel Financial Corp.  .'
p4
aS"Eaton Partners Named Placement Agent and Secondaries Advisor of the Year in ... Yahoo Finance - Mar 13, 2017 SHANGHAI, March 14, 2017 /PRNewswire/ -- Eaton Partners, one of the world's largest placement agents and advisory firms for private fund sponsors and a wholly owned subsidiary of Stifel Financial Corp. , is pleased to announce it was named&nbsp;..."
p5
aS'The Stifel Financial Corp  Position Maintained by New York State Teachers ... Petro Global News 24 - Mar 10, 2017 New York State Teachers Retirement System maintained its stake in shares of Stifel Financial Corp  during the fourth quarter, according to its most recent Form 13F filing with the SEC.'
p6
aS'Stifel Financial Corp  Shares Bought by Federated Investors Inc. PA Sports Perspectives - 20 hours ago Stifel Financial Corp logo Federated Investors Inc. PA increased its stake in Stifel Financial Corp  by 4.9% during the fourth quarter, according to its most recent Form 13F filing with the Securities and Exchange Commission.'
p7
aS'The Envestnet Asset Management Inc. Increases Position in Stifel Financial ... DailyQuint - Mar 10, 2017 Envestnet Asset Management Inc. increased its position in Stifel Financial Corp  by 0.0% during the fourth quarter, Holdings Channel reports.Stifel Financial Corporation  Valuation According To Analysts - UK Market News'
p8
aS"Broadwind Energy Inc.  Reaches $6.34 52-Week High, Stifel Financial (SF ... HuronReport - Mar 13, 2017 Stifel Financial Corp. is a financial holding company. The company has market cap of $3.65 billion. The Company's principal subsidiary is Stifel, Nicolaus &amp; Company, Incorporated, a retail and institutional wealth management and investment banking firm."
p9
aS"Analysts Price Target Update: Stifel Financial Corp.'s  finishes with -0 ... Hot Stocks Point - Mar 9, 2017 Stifel Financial Corp.  stock price ended its day with loss -0.21% and finalized at the value of $52.83. During its last trading session, Stock traded with the total exchanged volume of 0.32 million shares."
p10
a.