(lp0
S'Shenandoah Telecommunications Company Announces Expanded Relationship with Sprint Nasdaq - 13 hours ago Shenandoah Telecommunications Company  provides a broad range of diversified communications services through its high speed, state-of-the-art network to customers in the Mid-Atlantic United States.'
p1
aS'Shenandoah Telecommunications Company  Scheduled to Post Quarterly ... Chaffey Breeze - 9 hours ago Shenandoah Telecommunications Company logo Shenandoah Telecommunications Company  is set to issue its quarterly earnings data on Thursday, March 16th.Zacks Investment Research upgraded Shenandoah Telecommunications Company ... - Breaking Finance NewsShenandoah Telecommunications Company  Ducks Under The Trend Line - Midway Monitor'
p2
aS'Common Share Dividend Yield of Shenandoah Telecommunications Co  Energy Index - Mar 15, 2017 The dividend growth rate of Shenandoah Telecommunications Co calculated based on 20 historical quarterly dividends is 11.66% while the R-Squared dividend growth rate regression is 0.86.'
p3
aS'Shenandoah Telecommunications Company  Files An 8-K Entry into a ... Market Exclusive - Feb 28, 2017 Shenandoah Telecommunications Company is a telecommunications holding company. The Company, through its subsidiaries, provides both regulated and unregulated telecommunications services to end user customers and other telecommunications&nbsp;...Shenandoah Telecom Co  to Delay 10-K - StreetInsider.comShenandoah Telecommunications Co  Moves Lower on Volume Spike for ... - Equities.com'
p4
aS'Leigh Ann Schultz Elected to Board of Directors of Shenandoah ... GlobeNewswire  - Jul 20, 2016 EDINBURG, Va., July 20, 2016  -- Shenandoah Telecommunications Company   announced that at its July 18, 2016 meeting, its Board of Directors elected Leigh Ann Schultz to serve as a Director of the&nbsp;...'
p5
aS'Shenandoah Telecommunications Company Risk Points versus Technology CML News - Mar 13, 2017 This is a scatter plot analysis of the critical risk points from the option market for Shenandoah Telecommunications Company  compared to its own past and the Technology ETF. In order to examine the forward looking risk for Shenandoah&nbsp;...The Shenandoah Telecommunications Company  Scheduled to Post Earnings on ... - Petro Global News 24Shenandoah Telecommunications Co  Reviewed By Analysts - The De Soto Edge'
p6
aS"Is Shenandoah Telecommunications Company's  stock available for good ... Simply Wall St - Feb 24, 2017 Growth expectations for Shenandoah Telecommunications Company  are high, but many investors are starting to ask whether its last close at $29.65 can still be rationalized by the future potential."
p7
aS'Shenandoah Telecommunications Co. MarketWatch - Apr 21, 2011 Shenandoah Telecommunications Company Announces Expanded Relationship with Sprint. 5:00 p.m. Today5:00 p.m. March 15, 2017.'
p8
aS'Shenandoah Telecommunications Company Announces Increased Dividend and Two-for ... GlobeNewswire  - Oct 20, 2015 EDINBURG, Va., Oct. 20, 2015  -- The Board of Directors of Shenandoah Telecommunications Company   declared a cash dividend of $0.48 per share.'
p9
aS'Shenandoah Telecommunications Company  to Release Quarterly Earnings on ... Chaffey Breeze - Mar 8, 2017 Shenandoah Telecommunications Company logo Shenandoah Telecommunications Company  will issue its quarterly earnings data on Wednesday, March 8th.Shenandoah Telecommunications Co  Moves Lower on Volume Spike for March 07 - Equities.com44000 Shares in Shenandoah Telecommunications Company  Acquired by ... - The Cerbat Gem'
p10
a.