(lp0
S"Tanger Factory Outlet Centers, Inc. to Present at Citi's 2017 Global Property ... PR Newswire  - Mar 3, 2017 GREENSBORO, N.C., March 3, 2017 /PRNewswire/ -- Tanger Factory Outlet Centers, Inc.  announced today that it will participate March 6-8, 2017 in the Citi Global Property CEO Conference.Should Tanger Factory Outlet Centers Inc  be part of your dividend portfolio? - Simply Wall StStock Returns: Tanger Factory Outlet Centers Inc  is Beating The ... - CML News"
p1
aS'My 4% Dividend Yield Portfolio: Added More To My Tanger Factory Outlet Holding Seeking Alpha - Mar 13, 2017 I compared here Tanger Factory Outlet Centers, Inc. , Vanguard REIT ETF, Ventas, Inc.  and Realty Income .Analytical Guide for Alliant Energy Corporation , Tanger Factory Outlet ... - The USA CommerceStock Price of Tanger Factory Outlet Centers, Inc.  Decreases -6.33% - Energy Index'
p2
aS"Mystery REIT Shopper: Tanger Factory Outlet Centers Seeking Alpha - Feb 9, 2017 I decided that one way that I could use the undercover agent practice was to become an undercover REIT analyst. Tanger is the go to outlet landlord that has built an enviable low cost advantage. Tanger deserves a premium multiple and this simply&nbsp;...The Statistics Don't Lie: Tanger Factory Outlet Centers, Inc. (NYSE:SKT ... - The Voice Registrar"
p3
aS'Tanger Factory Outlet Centers, Inc. 2016 Tax Reporting Information ... PR Newswire  - Jan 20, 2017 GREENSBORO, N.C., Jan. 20, 2017 /PRNewswire/ -- Tanger Factory Outlet Centers, Inc.  announced today that its 2016 dividend distributions should be treated as follows for income tax purposes.'
p4
aS"Tanger Factory Outlet: Buy, Buy, Buy Seeking Alpha - Feb 20, 2017 I'm pretty excited right now. I first wrote about Tanger Factory Outlet  well back in 2013. Back then I concluded that Tanger was a bit too pricey and the yield wasn't right to buy shares in this REIT. Tanger seemed too highly valued for me ...Is It Time to go for ITT Inc. , Tanger Factory Outlet Centers, Inc. ? - StockNewsJournalLast Traded Price Fluctuations: Tanger Factory Outlet Centers, Inc.  - Is stories"
p5
aS'Tanger Outlet Centers Schedules Fourth Quarter and Year-end 2016 Earnings ... PR Newswire  - Jan 3, 2017 GREENSBORO, N.C., Jan. 3, 2017 /PRNewswire/ -- Tanger Factory Outlet Centers, Inc.  announced today that its financial results for the quarter and year ended December 31, 2016 will be released Tuesday evening, February 14, 2017 after the&nbsp;...Tanger Factory Outlet Centers, Inc. Expected to Earn Q4 2016 Earnings of $0.61 ... - Sports Perspectives'
p6
aS"Tanger Acquires 100% Ownership of Tanger Outlets Located in the Greater ... PR Newswire  - Aug 15, 2016 GREENSBORO, N.C., Aug. 15, 2016 /PRNewswire/ -- Tanger Factory Outlet Centers, Inc.  , now owns 100% of Tanger Outlets Savannah after the redemption of its partner's ownership interest on August 12, 2016."
p7
aS'Tanger: Undervalued, Recession Resistant, And Shareholder Friendly Seeking Alpha - Jan 16, 2017 Tanger Factory Outlet Centers, Inc.  is poised to benefit from this trend. This REIT is often considered to be the premier outlet shopping REIT - Warren Buffett personally invested in Tanger in 1999.'
p8
aS'My 4% Dividend Yield Portfolio: Added Tanger Factory Outlet Centers Seeking Alpha - Feb 2, 2017 I find it a great time to add to my REITs holdings and therefore added Tanger Factory Outlet Centers, Inc. .'
p9
aS"Analyst Sentiment Outlines Long Term Upside for Tanger Factory Outlet Centers ... Aiken Advocate - 10 hours ago Shaers of Tanger Factory Outlet Centers, Inc.  have been recommended as a long term growth pick. With the firm's stock price currently trading around $32.52, the firm has proven a solid track record of growth over the recent years.Common Share Dividend Yield of Tanger Factory Outlet Centers, Inc.  - Energy IndexStock Under Radar: Tanger Factory Outlet Centers Inc.  - The Oracle Examiner"
p10
a.