(lp0
S"US Silica Holdings, Inc.  Ex-Dividend Date Scheduled for March 13, 2017 Nasdaq - Mar 10, 2017 U.S. Silica Holdings, Inc.  will begin trading ex-dividend on March 13, 2017. A cash dividend payment of $0.063 per share is scheduled to be paid on April 05, 2017.Checking the Overall Picture for US Silica Holdings, Inc.  - StockNewsJournalAnalyst's Proposition on US Silica Holdings, Inc. , Under Armour, Inc.  - The USA Commerce"
p1
aS"US Silica Holdings Inc.  Soars 7.22% on March 15 Equities.com - 12 hours ago U.S. Silica Holdings Inc.  had a good day on the market for Wednesday March 15 as shares jumped 7.22% to close at $47.21.US Silica Holdings, Inc. : What's the Story? - StockNewsJournalUS Silica Holdings Inc  Stake Raised by Metropolitan Life Insurance Co. NY - BNB Daily "
p2
aS"Revenue Approximations Analysis: The Goodyear Tire &amp; Rubber Company , US ... StockNewsJournal - Mar 14, 2017 U.S. Silica Holdings, Inc. , maintained return on investment for the last twelve months at -2.75, higher than what Reuters data shows regarding industry's average."
p3
aS'US Silica Holdings, Inc. Announces Fourth Quarter and Full Year 2016 Results Yahoo Finance - Feb 22, 2017 FREDERICK, Md., Feb. 22, 2017 /PRNewswire/ -- U.S. Silica Holdings, Inc.  today announced a net loss of $6.9 million or $ per basic and diluted share for the fourth quarter ended Dec. 31, 2016 compared with a net loss of $15.3 million or ...'
p4
aS"Analyst's Proposition on Glu Mobile Inc. , US Silica Holdings, Inc.  The USA Commerce - 18 hours ago Shares of Glu Mobile Inc.  dropped -3.33% to $2.03. During the trading on 03/14/2017, Company's stock ranged from $2.00 to $2.11."
p5
aS"Zacks.com featured highlights: Exelixis, US Silica Holdings, Intuit and RPC Yahoo Finance - Feb 28, 2017 Chicago, IL - February 28, 2017 - Stocks in this week's article include Exelixis, Inc. , U.S. Silica Holdings, Inc. , Intuit Inc.  and RPC, Inc. (NYSE: RES - Free ..."
p6
aS'Earnings Clues on NCR Corporation , US Silica Holdings, Inc. (SLCA ... StockNewsJournal - Mar 6, 2017 U.S. Silica Holdings, Inc. , at its latest closing price of $53.10, it has a price-to-book ratio of 3.38, compared to an industry average at 0.95.Why US Silica  Could Be a Potential Winner - Yahoo FinanceUS Silica Holdings Inc.  Plunges 8.29% on March 08 - Equities.com'
p7
aS"Why Investors remained confident on US Silica Holdings, Inc. , Rice ... StockNewsJournal - Feb 24, 2017 Investors who are keeping close eye on the stock of U.S. Silica Holdings, Inc.  established that the company was able to keep return on investment at -3.84 in the trailing twelve month while Reuters data showed that industry's average stands ...US Silica Holdings Inc.  Plunges 10.37% on February 23 - Equities.comIs US Silica Holdings Inc's  Financial Health A Matter Of Concern? - Simply Wall St"
p8
aS'Why US Silica  Could Be a Potential Winner March 03, 2017 Zacks.com - Mar 3, 2017 One such company that looks well positioned for a solid gain, but has been overlooked by investors lately, is U.S. Silica Holdings, Inc.  . This Mining - Miscellaneousstock has actually seen estimates rise over the past month for ...'
p9
aS'US Silica Holdings Inc.  Moves Higher on Volume Spike for February 27 Equities.com - Feb 27, 2017 U.S. Silica Holdings Inc.  traded on unusually high volume on Feb. 27, as the stock gained 2.87% to close at $52.63. On the day, U.S. Silica Holdings Inc. saw 2.56 million shares trade hands on 20,026 trades. Considering that the stock averages ...'
p10
a.