(lp0
S"Staples, Inc. Stock Bounces Back After Yesterday's Dip Motley Fool - Mar 10, 2017 Shares of Staples, Inc.  rose as much as 7% during the trading day today before dropping back to hover around a rise of 4%.Staples to Close 70 Stores in North America - BloombergStaples, Inc. Announces First Quarter 2017 Dividend - Yahoo Finance"
p1
aS'Staples Inc. Q4 Profit Declines 4% Nasdaq - Mar 9, 2017  - Staples Inc.  announced earnings for fourth quarter that fell from last year. The company said its earnings came in at $161 million, or $0.25 per share.'
p2
aS'Staples: Stay Away Seeking Alpha - Mar 13, 2017 The company has reorganized its business unit reporting which lumps Staples.com and Staples.ca orders with the contract/delivery business.'
p3
aS'RadioShack, Staples plan scores of store closings The Real Deal Magazine - Mar 11, 2017 The parent company of RadioShack filed for bankruptcy and plans to close about 200 stores, and Staples Inc. announced plans to close about 70 stores.'
p4
aS"Platinum Equity to acquire Staples' Australia and New Zealand business PE Hub   - Mar 13, 2017 FRAMINGHAM, MA &amp; LOS ANGELES, CA - Staples, Inc.  and Platinum Equity today announced a definitive agreement under which Platinum Equity will acquire Staples' business in Australia and New&nbsp;..."
p5
aS"Platinum Equity to acquire Staples Inc asset in Australian &amp; NZ DEALSTREETASIA - Mar 14, 2017 Nasdaq-listed Staples, Inc. and Platinum Equity today announced a definitive agreement under which the latter will acquire Staples' business in Australia and New Zealand for an undisclosed sum.Platinum Equity to Acquire Staples' Business in Australia and New Zealand - Business Wire Global private equity firm swoops on Australian office supplier Staples - The Australian Financial Review"
p6
aS"Staples' 'Plan B' is off to a rough start The Boston Globe - Mar 10, 2017 Staples Inc. executives turned to a backup plan after a judge sidelined the megamerger with Office Depot. Now we have a glimpse of how Plan B is playing out, with Thursday's release of the Framingham-based office supplier's 2016 financials."
p7
aS'Staples, Inc. Announces Fourth Quarter and Full Year 2016 Performance Yahoo Finance - Mar 9, 2017 Staples, Inc.  announced today the results for its fourth quarter and fiscal year ended January 28, 2017. Total company sales for the fourth quarter of 2016 were $4.6 billion, a decrease of three percent compared to the fourth quarter of 2015.'
p8
aS'Staples to close a further 70 stores after fourth quarter loss Proactive Investors USA & Canada - Mar 9, 2017 Office supplies retailer Staples Inc.  plans to close about 70 stores in North America this year after reporting a fourth quarter loss.'
p9
aS"Staples: I Just Don't Get It Seeking Alpha - Feb 22, 2017 Those who have read my previous Staples articles know that I have been critical of the company in the recent past, particularly over the failed attempt at a financial bailout in the form of a buyout of Office Depot  orchestrated by an ..."
p10
a.