(lp0
S'Spirit Aerosystems: Still Beholden To Boeing Seeking Alpha - 20 hours ago The company derives the vast majority of its revenues from supply contracts for components in Boeing aircraft. The largest risk to its outlook is a decreasing appetite for outsourcing at Boeing, following problems with the 787 Dreamliner.'
p1
aS'Spirit Aerosystems Holdings, Inc.  Ex-Dividend Date Scheduled for March ... Nasdaq - 19 hours ago Spirit Aerosystems Holdings, Inc.  will begin trading ex-dividend on March 16, 2017. A cash dividend payment of $0.1 per share is scheduled to be paid on April 10, 2017.Spirit Aerosystems Holdings, Inc.  Common Share Dividend Payout Ratio - Energy IndexNotable Buzzer: Spirit Aerosystems Holdings, Inc.  - Is stories'
p2
aS"Spirit AeroSystems Holdings  Q4 2016 Results - Earnings Call Transcript Seeking Alpha - Feb 2, 2017 Good day, and welcome to the Spirit AeroSystems' Fourth Quarter and Full-Year 2016 Earnings Review Conference Call and Webcast.Spirit AeroSystems Holdings, Inc. Meets Guidance in 2016; Issues Increased ... - PR Newswire Spirit AeroSystems  Q4 Earnings Miss, Backlog Rises - Yahoo Finance"
p3
aS'Spirit AeroSystems Holdings  Q3 2016 Results - Earnings Call Transcript Seeking Alpha - Nov 1, 2016 Good morning, ladies and gentlemen, and welcome to the Spirit AeroSystems Holdings, Incorporated Third Quarter 2016 Earnings Conference Call.Spirit AeroSystems Holdings, Inc., Reports Third Quarter 2016 Financial ... - PR Newswire Spirit AeroSystems raises 2016 profit, revenue forecast - Reuters'
p4
aS'Spirit AeroSystems says ex-CEO breached retirement deal: Elliott filing Reuters - Mar 8, 2017 Elliott Management reported in a regulatory filing that Spirit AeroSystems Holdings has said its former chief executive officer, Larry Lawson, has breached his retirement contract by consulting for the hedge fund during its proxy fight with Arconic Inc ...'
p5
aS"Does Spirit AeroSystems Holdings Inc  Need To Improve Its Financial ... Simply Wall St - Mar 3, 2017 Although mid-cap stocks, such as Spirit AeroSystems Holdings Inc  with a market-capitalization of USD $7.43 Billion, are hardly popular among investors, they have delivered the most impressive risk adjusted returns.Spirit AeroSystems Holdings, Inc.  Downgraded to Hold at Standpoint ... - Chaffey BreezeEquity Perception: Analyst's Indicator Review for Spirit AeroSystems Holdings ... - The USA Commerce"
p6
aS'Spirit AeroSystems to Release Fourth Quarter and Full-Year 2016 Financial ... PR Newswire  - Jan 19, 2017 WICHITA, Kan., Jan. 19, 2017 /PRNewswire/ -- Spirit AeroSystems Holdings, Inc.  will release its fourth quarter and full-year 2016 financial results at 6:30 a.m.'
p7
aS'Spirit AeroSystems Names Tom Gentile CEO Wall Street Journal - Jun 8, 2016 Spirit AeroSystems Holdings Inc. on Wednesday said Chief Executive Larry Lawson will retire at the end of July and be replaced by Tom Gentile, who was hired by the aerospace supplier four months ago, triggering speculation about a possible succession.Spirit AeroSystems announces CEO transition - PR Newswire '
p8
aS"Spirit AeroSystems Holdings  Thomas C. Gentile on Q2 2016 Results ... Seeking Alpha - Aug 3, 2016 Good morning, ladies and gentlemen, and welcome to Spirit AeroSystems Holdings, Inc.'s Second Quarter 2016 Earnings Conference Call.Spirit Aero shares rise as much as 8 percent on Airbus deal, forecast - Reuters"
p9
aS'Spirit Aerosystems Holdings, Inc.  Ex-Dividend Date Scheduled for ... Nasdaq - Dec 14, 2016 Spirit Aerosystems Holdings, Inc.  will begin trading ex-dividend on December 15, 2016. A cash dividend payment of $0.1 per share is scheduled to be paid on January 09, 2017.'
p10
a.