(lp0
S'Servicesource International Inc.  is Attracting Smart Money Small Cap Exclusive  - Feb 17, 2017 In a just published Form 13, filed with the US Securities and Exchange Commission , Servicesource International Inc.  reported that Anson Funds Management Lp.ServiceSource International, Inc.  Analyst Coverage - NewsDen'
p1
aS'ServiceSource International Inc. MarketWatch - Mar 25, 2011 ServiceSource International Inc. NASDAQ: SREV. GO. Set Alerts &middot; Find a Broker &middot; Join TD Ameritrade &middot; Market Index &middot; Overview Profile News Charts Financials Historical Quotes Analyst Estimates Options SEC Filings Insiders.'
p2
aS'ServiceSource International Inc.  Soars 5.22% on February 10 Equities.com - Feb 10, 2017 ServiceSource International Inc.  had a good day on the market for Friday February 10 as shares jumped 5.22% to close at $5.64.'
p3
aS'ServiceSource International Inc. SREV  Wall Street Journal - Mar 19, 2011 News ServiceSource International Inc.SREV. Significant News Only. 02/23/17; Press Release. ServiceSource to Present at the JMP Securities Technology Conference.'
p4
aS'ServiceSource International Inc.  Moves Higher on Volume Spike for ... Equities.com - Feb 24, 2017 ServiceSource International Inc.  traded on unusually high volume on Feb. 24, as the stock gained 0.5% to close at $4.01.Northland Securities Downgrades Servicesource International Inc  to ... - The Cerbat GemServicesource International Inc  Stock Rating Lowered by Northland ... - Community Financial News'
p5
aS"ServiceSource: An Activist-Led Pivot Seeking Alpha  - Feb 9, 2015 Now the company is looking to change how it offers subscription management services to customers. We don't see ServiceSource as so much a turnaround as a pivot. Despite being 15-years-old, ServiceSource still looks a lot like a startup in the SaaS space."
p6
aS"ServiceSource International, Inc Shares Fall On Fourth Quarter Loss Investing.com - Feb 22, 2017 ServiceSource International, Inc., a global leader in customer success and revenue lifecycle management solutions company yesterday reported their fiscal fourth quarter and full year 2016 financial results.What Investors Should Know About ServiceSource International Inc's (SREV ... - Simply Wall St"
p7
aS'ServiceSource International, Inc. | $SREV Stock | Shares Fall On Fourth ... Warrior Trading News  - Feb 22, 2017 ServiceSource International, Inc., a global leader in customer success and revenue lifecycle management solutions company yesterday reported their fiscal fourth quarter and full year 2016 financial results.'
p8
aS'The Trexquant Investment LP Invests $169000 in Servicesource International Inc ... Petro Global News 24 - Mar 14, 2017 Trexquant Investment LP bought a new stake in Servicesource International Inc  during the fourth quarter, according to its most recent Form 13F filing with the Securities and Exchange Commission .'
p9
aS'Stock Returns: ServiceSource International Inc  versus Unisys ... CML News - Feb 9, 2017 This is a snapshot to compare the stock returns for ServiceSource International Inc  versus Unisys Corporation  .'
p10
a.