(lp0
S'Strayer Education, Inc.  Ex-Dividend Date Scheduled for March 02, 2017 Nasdaq - Mar 1, 2017 Strayer Education, Inc.  will begin trading ex-dividend on March 02, 2017. A cash dividend payment of $0.25 per share is scheduled to be paid on March 20, 2017.The Strayer Education Inc  Downgraded by Zacks Investment Research to ... - DailyQuint'
p1
aS'Strayer Education Inc Q4 Profit Falls 10% Nasdaq - Feb 16, 2017  - Strayer Education Inc  released earnings for fourth quarter that fell from last year. The company said its earnings fell to $11.72 million, or $1.07 per share.'
p2
aS'BMO Capital Markets Raises Strayer Education Inc  Price Target to $88.00 The Cerbat Gem - 19 hours ago Strayer Education logo Strayer Education Inc  had its price target upped by equities researchers at BMO Capital Markets to $88.00 in a report issued on Wednesday.The Federated Investors Inc. PA Reduces Position in Strayer Education Inc  - Petro Global News 24'
p3
aS"Strayer Education: Slowly Fading Away Seeking Alpha - May 19, 2016 Strayer Education, Inc.  consistently appears on different value screeners, including Joel Greenblatt's magic formula."
p4
aS'Strayer Education Inc.  Moves Higher on Volume Spike for February 20 Equities.com - Feb 20, 2017 Strayer Education Inc.  traded on unusually high volume on Feb. 20, as the stock gained 3.25% to close at $79.05. On the day, Strayer Education Inc. saw 159,812 shares trade hands on 2,068 trades. Considering that the stock averages only a daily&nbsp;...Option Market: Strayer Education Inc Risk Hits A Depressed Level - CML News'
p5
aS'Strayer Education, Inc. Acquires the New York Code and Design Academy Business Wire  - Jan 15, 2016 HERNDON, Va.----Strayer Education, Inc.  announced that on January 13, 2016 it acquired the New York Code and Design Academy , a provider of non-degree web and mobile app development courses.Strayer Education  Buys New York Code and Design Academy - StreetInsider.com'
p6
aS'Option Trading: Strayer Education Inc  Powerful Short Put Spreads ... CML News - 21 hours ago We find a very powerful outcome examining short put spreads for Strayer Education Inc when we use a clever earnings risk management approach.'
p7
aS'Time To Invest In Strayer Education? Seeking Alpha - Oct 30, 2015 , DeVry Education , ITT Educational Services , and Universal Technical Institute , we believe there are only two at present that are actually doing a good job serving the needs of their students: Strayer and&nbsp;...'
p8
aS'Strayer Education Inc Risk Points versus Consumer Discretionary CML News - Feb 23, 2017 This is a scatter plot analysis of the critical risk points from the option market for Strayer Education Inc  compared to its own past and the Consumer Discretionary ETF.'
p9
aS'Stock Returns: DeVry Education Group Inc  versus Strayer Education ... CML News - Feb 15, 2017 This is a snapshot to compare the stock returns for DeVry Education Group Inc  versus Strayer Education Inc  .'
p10
a.