(lp0
S'SOUTHWEST GAS HOLDINGS, INC.  Files An 8-K Departure of Directors or ... Market Exclusive - Mar 9, 2017  On March 8, 2017, Terrence L. Wright tendered his resignation from the Board of Directors  of Southwest Gas Holdings, Inc. , and all related Board committees, to be effective at the close of business the day prior to the&nbsp;...'
p1
aS'Southwest Gas Holdings, Inc. Announces Conference Call Yahoo Finance - Mar 1, 2017 LAS VEGAS, Feb. 22, 2017 /PRNewswire/ -- Senior management of Southwest Gas Holdings, Inc.  is holding a conference call to discuss the Southwest 2016 fourth quarter and twelve-months results on Wednesday, March 1, 2017.Southwest Gas Holdings, Inc. Announces 2016 Earnings - PR Newswire SOUTHWEST GAS HOLDINGS, INC.  Files An 8-K Results of Operations and ... - Market Exclusive'
p2
aS'Southwest Gas Corporation Announces Holding Company Structure PR Newswire  - Dec 28, 2016 LAS VEGAS, Dec. 28, 2016 /PRNewswire/ -- Southwest Gas Corporation  announced approval by its Board of Directors to implement the previously proposed holding company structure, effective January 1, 2017. The holding company will be&nbsp;...Swiss National Bank Sells 1600 Shares of Southwest Gas Corp.  - Sports Perspectives'
p3
aS'Common Share Dividend Yield of Southwest Gas Corporation  Energy Index - 10 hours ago Southwest Gas Holdings, Inc. is having a Relative Strength Index of 41.32 which indicates the stock is not yet over sold or over bought based on the technical indicators.Southwest Gas Corporation  Moves Higher on Volume Spike for March 15 - Equities.comAnalyst Advice And Earnings Insight: Southwest Gas Holdings, Inc. (SWX ... - Post Analyst'
p4
aS'Southwest Gas Holdings, Inc.  Ex-Dividend Date Scheduled for February 13 ... Nasdaq - Feb 10, 2017 Southwest Gas Holdings, Inc.  will begin trading ex-dividend on February 13, 2017. A cash dividend payment of $0.45 per share is scheduled to be paid on March 01, 2017.'
p5
aS'Southwest Gas Completes Holding Company Reorganization PR Newswire  - Jan 3, 2017 LAS VEGAS, Jan. 3, 2017 /PRNewswire/ -- Southwest Gas Holdings, Inc.   and Southwest Gas Corporation  today announced that, effective January 1, 2017, they completed the previously announced&nbsp;...Southwest Gas Corp. board OKs holding company structure - Las Vegas Review-Journal'
p6
aS'Ex-Dividend Reminder: Southwest Gas Holdings, American States Water and ... Nasdaq - Feb 9, 2017 Looking at the universe of stocks we cover at Dividend Channel , on 2/13/17, Southwest Gas Holdings Inc , American States Water Co , and Consolidated Edison Inc  will all trade ex-dividend for their respective&nbsp;...'
p7
aS'SOUTHWEST GAS HOLDINGS, INC.  Files An 8-K Other Events Market Exclusive - Feb 24, 2017 On February 23, 2017, Southwest Gas Holdings, Inc.  announced an increase in the quarterly common stock dividend from $0.45 per share to $0.495 per share.'
p8
aS'Southwest Gas Holdings Inc  Reaches New Key RSI Level Business Review - Mar 12, 2017 Checking on current RSI levels on shares of Southwest Gas Holdings Inc , the 14-day RSI is currently standing at 77.19, pushing the stock into overbought territory.'
p9
aS'Southwest Gas Holdings Inc  Upside Stock Technicals at Extreme Strength CML News - Jan 23, 2017 This is a technical analysis stock rating for Southwest Gas Holdings Inc  . The company has a five bull technical rating which indicates extreme strength.'
p10
a.