(lp0
S'THE FRIENDLY, ACCURATE TAX PREPARATION SERVICE YOU DESERVE Liberty Tax Service - Feb 28, 2006 When you choose Liberty Tax, you choose to have your taxes prepared in a warm, friendly environment with a tax professional dedicated to meet your specific needs.'
p1
aS'Big Odds and Big Fun in Liberty Tax Million Dollar Madness Bracket Challenge GlobeNewswire  - Mar 14, 2017 Founded in 1997 by CEO John T. Hewitt, Liberty Tax, Inc.  is the parent company of Liberty Tax Service. Liberty Tax is one of the fastest-growing tax preparation franchises.'
p2
aS'Liberty Tax, Inc.  Ex-Dividend Date Scheduled for January 10, 2017 Nasdaq - Jan 9, 2017 Liberty Tax, Inc.  will begin trading ex-dividend on January 10, 2017. A cash dividend payment of $0.16 per share is scheduled to be paid on January 23, 2017.'
p3
aS"LIBERTY TAX, INC.  Files An 8-K Results of Operations and ... Market Exclusive - Mar 8, 2017 Liberty Tax, Inc. is the holding company for JTH Tax, Inc. The Company is a provider of tax preparation services. The Company provides retail federal and state income tax preparation services and related tax settlement products in the United States and&nbsp;...What Investors Should Know About Liberty Tax Inc's  Financial Strength? - Simply Wall St"
p4
aS'Liberty Tax, Inc.  Ex-Dividend Date Scheduled for July 08, 2016 Nasdaq - Jul 7, 2016 Liberty Tax, Inc.  will begin trading ex-dividend on July 08, 2016. A cash dividend payment of $0.16 per share is scheduled to be paid on July 22, 2016.'
p5
aS'Liberty Tax Service Requiring 28 New York Area Locations to Cease Operations Marketwired  - Apr 10, 2016 VIRGINIA BEACH, VA-- - Liberty Tax Service, a subsidiary of Liberty Tax, Inc. announced today that 28 of its franchised locations in the New York City area have been instructed to cease preparing and filing tax returns for ...'
p6
aS'Increasing Complexity And Growing Markets Should Benefit Liberty Tax Seeking Alpha - Aug 11, 2016 Liberty is generating significant growth with its financial products and earning higher fees per filing. The Hispanic market is growing in the U.S.'
p7
aS'Make The Easy Choice In Tax Preparation Liberty Tax Service - Dec 22, 2015 Need some easy money? Sign-up, share with friends, and get paid up to $50 when you refer a new customer to LibertyTax!* Get $50 In-Office Get $10 Online.'
p8
aS'Tax Return Filers Beware of Fraud Among Liberty Tax Service Preparers Black Enterprise - Apr 13, 2016 In fact, Liberty Tax Service, a subsidiary of Liberty Tax Inc. recently announced today that 28 of its franchised locations in the New York City area have been instructed to cease preparing and filing tax returns for the remainder of the 2015 tax ...'
p9
aS"Best Tax Season Play: Intuit's Turbo Tax Vs. HR Block Vs. Liberty Tax Benzinga - Feb 9, 2017 The holiday shopping season may be the biggest time of year for retailers, but tax season is critical for tax services companies H &amp; R Block Inc , Intuit Inc.  and Liberty Tax Inc . Here's a look at how all three ..."
p10
a.