(lp0
S'Dawson Geophysical Company Risk Points versus Energy CML News - 9 hours ago This is a scatter plot analysis of the critical risk points from the option market for Dawson Geophysical Company  compared to its own past and the Energy ETF.The Analysts Anticipate Dawson Geophysical Co  to Announce ($0.34 ... - Petro Global News 24GSI Technology, Inc.  Reaches $8.43 52-Week High, Dawson Geophysical ... - HuronReport'
p1
aS'Dawson Geophysical to Issue Fourth Quarter 2016 Results and Hold Investor ... PR Newswire  - Feb 23, 2017 MIDLAND, Texas, Feb. 23, 2017 /PRNewswire/ -- Dawson Geophysical Company  announced today that it plans to publicly release preliminary and unaudited financial results for its fiscal 2016 year-end and the quarter ended December 31,&nbsp;...'
p2
aS"Dawson Geophysical Co's  CEO Stephen Jumper on Q4 2016 Results ... Seeking Alpha - Mar 2, 2017 Good day and welcome to today's Dawson Geophysical Fourth Quarter 2016 Results Conference Call. Today's conference is being recorded.Dawson Geophysical reports 4Q loss - Yahoo Finance"
p3
aS'DAWSON GEOPHYSICAL COMPANY  Files An 8-K Results of Operations ... Market Exclusive - Mar 2, 2017 Dawson Geophysical Company, formerly TGC Industries, Inc., is a provider of onshore seismic data acquisition and processing services with operations throughout the United States and Canada.'
p4
aS"Dawson Geophysical Co. DWSN  Wall Street Journal - Feb 11, 2011 P/E Ratio : The Price to Earnings  ratio, a key valuation measure, is calculated by dividing the stock's most recent closing price by the sum of the diluted earnings per share from continuing operations for the trailing 12 month period ..."
p5
aS'Dawson Geophysical Announces Completion Of Strategic Business Combination PR Newswire  - Feb 11, 2015 MIDLAND, Texas, Feb. 11, 2015 /PRNewswire/ -- Dawson Geophysical Company, previously known as TGC Industries, Inc., today announced the completion of its previously announced strategic business combination effective February 11, 2015.'
p6
aS'Dawson Geophysical Company  Moves Lower on Volume Spike for February 08 Equities.com - Feb 8, 2017 Dawson Geophysical Company  traded on unusually high volume on Feb. 08, as the stock lost 2.13% to close at $7.36. On the day, Dawson Geophysical Company saw 71,314 shares trade hands on 490 trades. Considering that the stock averages&nbsp;...'
p7
aS'Dawson Geophysical Company  Moves Lower on Volume Spike for March 07 Equities.com - Mar 7, 2017 Dawson Geophysical Company  traded on unusually high volume on Mar. 07, as the stock lost 2.11% to close at $6.95. On the day, Dawson Geophysical Company saw 76,996 shares trade hands on 457 trades. Considering that the stock averages&nbsp;...The Dawson Geophysical Company  Stake Held by Teton Advisors Inc. - DailyQuint'
p8
aS'Dawson Geophysical Company  Moves Lower on Volume Spike for March 09 Equities.com - Mar 9, 2017 Dawson Geophysical Company  traded on unusually high volume on Mar. 09, as the stock lost 1.7% to close at $6.35. On the day, Dawson Geophysical Company saw 89,743 shares trade hands on 552 trades. Considering that the stock averages&nbsp;...Dawson Geophysical Co  Stake Held by Martingale Asset Management LP - BNB Daily $-0.33 EPS Expected for Dawson Geophysical Co , Fossil Group (FOSL ... - HuronReport'
p9
aS'Dawson Geophysical Company  Plunges 7.05% on March 08 Equities.com - Mar 8, 2017 Dawson Geophysical Company  had a rough trading day for Wednesday March 08 as shares tumbled 7.05%, or a loss of $-0.49 per share, to close at $6.46.'
p10
a.