(lp0
S'Siyata Mobile Announces Brokered Private Placement MarketWatch - Feb 27, 2017 Feb 27, 2017  -- MONTREAL, QC-- - Siyata Mobile Inc.    is pleased to announce that it has engaged Paradigm Capital Inc. , PI Financial&nbsp;...'
p1
aS'Siyata Mobile Partners With Uniden America Corporation Marketwired  - Sep 27, 2016 MONTREAL, QC-- - Siyata Mobile Inc.    is pleased to announce a partnership with Uniden America Corporation, whereas Siyata Mobile has exclusive&nbsp;...'
p2
aS'Siyata Mobile Launches Uniden U620 Rugged Cellular Phone Marketwired  - Oct 19, 2016 MONTREAL, QC-- - Siyata Mobile Inc.    is pleased to announce the launch of its Uniden U620 mulitpurpose rugged cellular phone for both mobile&nbsp;...'
p3
aS'This Cellular Technology Company Is Positioned To Capture Significant Market ... Seeking Alpha - Dec 15, 2016 One company that is uniquely positioned to seize upon this corporate fleet upgrade opportunity is Siyata Mobile  , a Canadian-based cellular technology company that operates across 3 continents.'
p4
aS'Cantech Letter talks to Siyata Mobile CEO Marc Seelenfreund Cantech Letter - Sep 26, 2016 Selling software designed for Lebanese restaurants in Alberta? Definitely niche. Expanding to service Turkish restaurants in the same province?'
p5
aS'Ending years of cuts, miners are exploring again - cautiously Reuters UK - Feb 1, 2017 SYDNEY, Feb 2 After years of cutting budgets and squeezing existing mines, global mining giants are again scouting for new deposits: industry analysts say 2017 will see the first increase in spending on exploration in five years.'
p6
aS'BRIEF-Semisysco to pay annual dividend as 30 won/share for FY 2016 Reuters - Jan 10, 2017 ... * Says it will pay annual cash dividend as 30 won/share for FY 2016, to shareholders of record on Dec. 31, 2016. * Total dividend amount is 154.7 million won.'
p7
aS"Putin's defence fixation deepens Russian budget problems Reuters - Jan 15, 2015 MOSCOW, Jan 15 President Vladimir Putin's insistence on huge defence spending makes it hard to see how a government plan to make deep budget cuts will see Russia through a deepening economic crisis."
p8
aS"MOVES-Citigroup promotes Lavelle to head CIB in UK and Ireland Reuters - Jul 6, 2015 LONDON, July 6  - Michael Lavelle, who has headed Citigroup's capital markets origination team in the Europe, Middle East and Africa region since the financial crisis, has been promoted to head the bank's corporate and investment banking business ..."
p9
aS'MBIA, Assured tap restructuring advisers for Puerto Rico Reuters - Jul 7, 2014 MBIA Inc. is working with financial advisers from The Blackstone Group, according to two sources with knowledge of the matter.'
p10
a.