(lp0
S"Tootsie Roll Industries Inc.: Annual Report 2016 The Wall Street Transcript - 1 hour ago Tootsie Roll Industries, Inc. has been engaged in the manufacture and sale of confectionery products for 120 years. Our products are primarily sold under the familiar brand names: Tootsie Roll, Tootsie Roll Pops, Caramel Apple Pops, Child's Play ..."
p1
aS'Tootsie Roll chief, committed to keeping company independent, dies at 95 Chicago Tribune - Jan 21, 2015 Melvin J. Gordon, who ran Chicago-based candy-maker Tootsie Roll Industries for more than 50 years, held the distinction of being the oldest CEO of any business listed on the two major stock exchanges.Melvin J. Gordon, Who Ran Tootsie Roll Industries, Dies at 95 - New York Times'
p2
aS"An Overview Of Tootsie Roll Industries Seeking Alpha  - Mar 2, 2015 TR's CEO of five decades died last month, and takeover speculation abounds. The company is run more like a private business, with personal jet and apartment use given to the top two officers."
p3
aS'Tootsie Roll Industries Inc.  Moves Lower on Volume Spike for February 15 Equities.com - Feb 15, 2017 Tootsie Roll Industries Inc.  traded on unusually high volume on Feb. 15, as the stock lost 0.79% to close at $37.55. On the day, Tootsie Roll Industries Inc. saw 105,737 shares trade hands on 1,114 trades. Considering that the stock averages only ...'
p4
aS'Tootsie Roll Industries Inc.  Moves Higher on Volume Spike for February 17 Equities.com - Feb 17, 2017 Tootsie Roll Industries Inc.  traded on unusually high volume on Feb. 17, as the stock gained 0.39% to close at $38.35.'
p5
aS'Tootsie Roll Industries Inc.  Moves Lower on Volume Spike for February 13 Equities.com - Feb 13, 2017 Tootsie Roll Industries Inc.  traded on unusually high volume on Feb. 13, as the stock lost 1.59% to close at $37.15. On the day, Tootsie Roll Industries Inc. saw 96,112 shares trade hands on 997 trades. Considering that the stock averages only a ...'
p6
aS"Here's Why Tootsie Roll Will Continue To Underperform Seeking Alpha - Jun 11, 2015 Let's talk about Tootsie Roll Industries . 1.) What does the company do? When you buy shares in a company you effectively become part owner of that company."
p7
aS'Speculation Surrounds Cryptic Confectioner Tootsie Roll Seeking Alpha - Oct 13, 2015 Tootsie Roll owns an established portfolio of candy brand names, which consumers are loyal to. A high P/E reflects optimism over the potential for a buyout, healthy stock/cash dividends, and steady, albeit modest, growth.'
p8
aS'Treat Yourself to Tootsie Roll Industries Seeking Alpha  - May 18, 2008 One stock that I have been following for a while now is Tootsie Roll Industries . Everyone knows this company. Who has not unwrapped the distinctive brown and white wrapper to unveil that nice chewy chocolate treat?'
p9
aS'It May Be Time To Kiss Tootsie Roll Goodbye Seeking Alpha - Jan 25, 2017 Tootsie Roll is a family company, with at the time, a CEO and COO husband/wife team who had a great number of shares and, together, eight decades of experience at Tootsie Roll. The principles include the ideas that it will not jeopardize long-term ...'
p10
a.