(lp0
S'Two Harbors Investment Corp. to Webcast Analyst and Investor Day 2017 Business Wire  - 12 hours ago NEW YORK----Two Harbors Investment Corp. , a leading hybrid mortgage real estate investment trust, will host a live webcast of its Analyst &amp; Investor Day from the New York Stock Exchange on Thursday, March 16, 2017.How Does Two Harbors Investment Corp.  Stack Up Right Now? - StockNewsJournalTwo Harbors Investment Corp.  Files An 8-K Regulation FD Disclosure - Market Exclusive'
p1
aS"Two Harbors - Is 8.125% Better Than 10.3% Seeking Alpha - Mar 8, 2017 Two Harbors Investment Corp.  was in the market today with their inaugural preferred stock issue. Two Harbors Investment Corp. is a mortgage REIT focused on investing in, financing and managing residential mortgage-backed securities, mortgage&nbsp;...Sell-Side Analyst's Predictions: Two Harbors Investment Corp. , The ... - The USA CommerceRenaissance Technologies LLC Has $21454000 Stake in Two Harbors Investment ... - Sports Perspectives"
p2
aS"Analyst's Predictions on Two Harbors Investment Corp. , Fortress ... StockNewsJournal - Mar 14, 2017 Two Harbors Investment Corp.  have shown a high EPS growth of -4.70% in the last 5 years and has earnings decline of -24.70% yoy."
p3
aS'Two Harbors Investment Corp. Prices Public Offering of Series A Preferred Stock Yahoo Finance - Mar 7, 2017 Two Harbors Investment Corp.  announced today the pricing of its underwritten public offering of 5,000,000 shares of its 8.125% Series A Fixed-to-Floating Rate Cumulative Redeemable Preferred Stock , liquidation&nbsp;...'
p4
aS"Two Harbors Investment Corp. Announces 2017 Annual Meeting of Stockholders Yahoo Finance - Mar 1, 2017 Two Harbors Investment Corp. , a leading hybrid mortgage real estate investment trust, today announced that it will hold its 2017 Annual Meeting of Stockholders on May 17, 2017 at The Grand Hotel, located at 615 2nd Avenue South, Minneapolis, MN&nbsp;...What are Analyst's Indicators for Two Harbors Investment Corp. , Huntsman ... - The USA CommerceTwo Harbors Investment Corp  Stake Held by Fifth Third Bancorp - BNB Daily "
p5
aS'Is It Time to go for Two Harbors Investment Corp. , First Horizon ... StockNewsJournal - Mar 8, 2017 ROI deals with the invested cash in the company and the return the investor realize on that money based on the net profit of the business.'
p6
aS"Buy, Sell or Hold? Analysts Approach: Two Harbors Investment Corp. (TWO ... The USA Commerce - Mar 13, 2017 Shares of Two Harbors Investment Corp.  surged 1.31% to $9.28. During the trading on 03/10/2017, Company's stock ranged from $9.23 to $9.34."
p7
aS'Two Harbors Investment Corp.  Files An 8-K Entry into a Material ... Market Exclusive - Mar 13, 2017 On March 7, 2017, Two Harbors Investment Corp.  entered into an underwriting agreement  with Morgan Stanley &amp; Co.'
p8
aS'Why to Keeping Eye on Two Harbors Investment Corp. , The Michaels ... StockNewsJournal - Mar 10, 2017 Two Harbors Investment Corp.  have shown a high EPS growth of -4.70% in the last 5 years and has earnings decline of -24.70% yoy.Two Harbors Investment Corp.  Files Form 4 Insider Buying : Stephen G ... - Energy IndexTwo Harbors Investments Corp  Equity Price Target Known At $9.466 - Transcript Daily'
p9
aS'Why to Keeping Eye on Two Harbors Investment Corp. , TCF Financial ... StockNewsJournal - Feb 14, 2017 ROI deals with the invested cash in the company and the return the investor realize on that money based on the net profit of the business.'
p10
a.