(lp0
S"Why Texas Roadhouse, Inc. Stock Got Slaughtered Today Motley Fool - Feb 22, 2017 Shares of Texas Roadhouse, Inc.  were getting chopped today after the steakhouse chain turned in a disappointing fourth-quarter earnings report.Texas Roadhouse is taking a dive on Wall Street  here's why - Louisville Business FirstTexas Roadhouse Inc  Stock Tanks on Q4 Earnings Miss - Investorplace.com"
p1
aS"Texas Roadhouse Gets Crushed By High Expectations Seeking Alpha - Feb 27, 2017 I was a long time bull on Texas Roadhouse  because it seemed to have taken the market a long time to figure out that a tremendous growth story was in play.Guess Who Picked Up Texas Roadhouse Inc.  Shares - Small Cap Exclusive Can Texas Roadhouse Stock Bounce Back After Last Week's 12% Drop? - Motley Fool"
p2
aS"Texas Roadhouse, Inc. : What's the Story? StockNewsJournal - 23 hours ago Texas Roadhouse, Inc.  is an interesting player in the Services space, with a focus on Restaurants. The stock has been active on the tape, currently trading at $41.07, up from yesterday's close by 0.98%.Texas Roadhouse, Inc.  Ex-Dividend Date Scheduled for March 13, 2017 - NasdaqTexas Roadhouse Inc.  Moves Higher on Volume Spike for March 14 - Equities.com"
p3
aS"Market Buzzer Update: Texas Roadhouse, Inc.  Is stories - 22 hours ago Texas Roadhouse, Inc.'s  witnessed a gain of 0.98% in recent trading period with closing price of $ 41.07."
p4
aS"Sell-Side Analyst's Predictions: Texas Roadhouse, Inc. , Apartment ... The USA Commerce - 20 hours ago Shares of Texas Roadhouse, Inc.  surged 0.98% to $41.07. During the trading on 03/14/2017, Company's stock ranged from $40.71 to $41.77."
p5
aS"Interested in Texas Roadhouse Inc 's upcoming $0.21 dividend? You have 3 ... Simply Wall St - Mar 9, 2017 Important news for shareholders and potential investors in Texas Roadhouse : The dividend payment of $0.21 will be distributed into shareholder's accounts on Fri 31 Mar 2017 but the stock will begin trading ex-dividend already on the Mon&nbsp;...Per-Share Earnings Of Texas Roadhouse, Inc.  At $0.29 - Investor Newswire"
p6
aS'Texas Roadhouse Inc.  Moves Higher on Volume Spike for February 17 Equities.com - Feb 17, 2017 Texas Roadhouse Inc.  traded on unusually high volume on Feb. 17, as the stock gained 0.27% to close at $48.24. On the day, Texas Roadhouse Inc. saw 1.07 million shares trade hands on 7,626 trades. Considering that the stock averages only a&nbsp;...'
p7
aS"Texas Roadhouse Blowing Smoke To Delay Bias Retrial: EEOC Law360  - Mar 9, 2017 Law360, New York  -- The Equal Employment Opportunity Commission shot back in Massachusetts federal court on Wednesday at Texas Roadhouse Inc.'s bid to delay an upcoming retrial in an age-discrimination suit because of&nbsp;..."
p8
aS"Why to Keeping Eye on Match Group, Inc. , Texas Roadhouse, Inc. ? StockNewsJournal - Mar 8, 2017 Texas Roadhouse, Inc. , maintained return on investment for the last twelve months at 14.52, higher than what Reuters data shows regarding industry's average.Stree Opinion on Texas Roadhouse, Inc.  - Highland MirrorTexas Roadhouse Inc  Rating Reiterated by Canaccord Genuity - Chaffey Breeze"
p9
aS'Q4 Casual Dining Cage Match: Texas Roadhouse Vs. Red Robin Benzinga - Feb 22, 2017 Against a challenging restaurant environment, Texas Roadhouse Inc  and Red Robin Gourmet Burgers, Inc.  announced weak Q4 same-store sales.'
p10
a.