(lp0
S'United Bancorp, Inc. Declares Quarterly Cash Dividend Payment of $0.11 per ... PR Newswire  - Feb 23, 2017 MARTINS FERRY, Ohio, Feb. 23, 2017 /PRNewswire/ -- On February 22, 2017, the Board of Directors of United Bancorp, Inc.  declared the first quarter dividend payment of $0.11 per common share for shareholders of record on March 10, 2017, with a&nbsp;...'
p1
aS'United Bancorp Inc  Stock Technicals Hit Weakness CML News - Feb 23, 2017 This is a technical analysis stock rating for United Bancorp Inc  . The company has a two bull technical rating which indicates some weakness.'
p2
aS'A New Kind of Stock Chart: United Bancorp Inc  Critical Pivot Points CML News - Feb 27, 2017 This is a real time view of the critical technical pivot points for United Bancorp Inc  . The technical pivot points we look at all surround the stock price movement from the last 10-trading days through the last year.'
p3
aS'United Bancorp, Inc.  to pay $0.11 on Mar 20, 2017, 1 Analysts Bullish ... Wolcott Daily - Mar 7, 2017 United Bancorp, Inc.  is expected to pay $0.11 on Mar 20, 2017. $0.44 is the ADY.  shareholders before Mar 8, 2017 will receive the $0.11 dividend.'
p4
aS'United Bancorp, Inc. Declares Quarterly Dividend of $0.11  Sports Perspectives - Mar 3, 2017 United Bancorp logo United Bancorp, Inc.  announced a quarterly dividend on Thursday, February 23rd. Shareholders of record on Friday, March 10th will be paid a dividend of 0.11 per share by the financial services provider on Monday,&nbsp;...'
p5
aS'Stock Returns: Nationstar Mortgage Holdings Inc  versus United ... CML News - 18 hours ago This is a snapshot to compare the stock returns for Nationstar Mortgage Holdings Inc  versus United Financial Bancorp Inc  . The stock return points we compare look at the last three-months, six-months and twelve-months.'
p6
aS'The United Financial Bancorp Inc  Shares Bought by Dimensional Fund ... Petro Global News 24 - Mar 15, 2017 Dimensional Fund Advisors LP increased its position in United Financial Bancorp Inc  by 4.8% during the fourth quarter, according to its most recent 13F filing with the Securities and Exchange Commission .United Financial Bancorp, Inc.  1-Year Price Target At $15.5 - Enterprise Leader'
p7
aS'Stock Returns: United Financial Bancorp Inc  is Beating Northwest ... CML News - Mar 7, 2017 This is a snapshot to compare the stock returns for Northwest Bancshares Inc  versus United Financial Bancorp Inc  . The stock return points we compare look at the last three-months, six-months and twelve-months.'
p8
aS'Stock Returns: Dime Community Bancshares Inc  versus United ... CML News - Mar 14, 2017 This is a snapshot to compare the stock returns for Dime Community Bancshares Inc  versus United Financial Bancorp Inc  . The stock return points we compare look at the last three-months, six-months and twelve-months.'
p9
aS'United Bank &amp; United Financial Bancorp, Inc. Announce Relocation of ... PR Newswire  - Feb 14, 2017 GLASTONBURY, Conn., Feb. 14, 2017 /PRNewswire/ -- William H. W. Crawford, IV, CEO of United Bank  and United Financial Bancorp, Inc.  , announced today&nbsp;...Downtown Hartford To Get Boost From United Bank Headquarters Move - Hartford Courant'
p10
a.