(lp0
S'Why Essendant Inc. Stock Plummeted Today Motley Fool - Jul 21, 2016 What: Shares of Essendant Inc.  dropped 36.6% Thursday after the workplace products distributor announced weaker-than-expected second-quarter 2016 results.'
p1
aS'Essendant Reports Fourth Quarter And Full Year 2016 Results PR Newswire  - Feb 27, 2017 27, 2017 /PRNewswire/ -- Essendant Inc. , a leading national wholesale distributor of workplace items, today announced financial results for the fourth quarter and year ended December 31, 2016.Insider Trading Activity Essendant Inc   SVP Sold 3900 shares of ... - Market ExclusiveEssendant Inc.  Plunges 27.89% on February 28 - Equities.com'
p2
aS'Essendant Inc.  Ex-Dividend Date Scheduled for March 13, 2017 Nasdaq - Mar 10, 2017 Essendant Inc.  will begin trading ex-dividend on March 13, 2017. A cash dividend payment of $0.14 per share is scheduled to be paid on April 14, 2017.'
p3
aS'Zacks: Analysts Set $15.00 Target Price for Essendant Inc  Chaffey Breeze - 18 hours ago Essendant logo Essendant Inc  has received an average broker rating score of 3.00  from the three analysts that provide coverage for the stock, Zacks Investment Research reports.Common Share Dividend Yield of Essendant Inc.  - Energy Index'
p4
aS'Essendant To Report Fourth Quarter And Year End 2016 Results PR Newswire  - Jan 9, 2017 DEERFIELD, Ill., Jan. 9, 2017 /PRNewswire/ -- Essendant Inc.  announced plans to report fourth quarter 2016 results on Monday, February 27, 2017, after close of market.'
p5
aS'Essendant Inc. MarketWatch - Jun 3, 2015 Check out the returns on our 8 Lazy Portfolios that are made up of low-cost buy-and-hold index funds.  How to create your own Lazy Portfolio.'
p6
aS'Bear of the Day: Essendant Inc.  Zacks.com - Jul 27, 2016 This can be seen in the office products segment, and that is one of the reasons that Essendant Inc.  is the Zacks Bear of the Day.'
p7
aS'Essendant Elects Dennis J. Martin To Its Board Of Directors PR Newswire  - Jul 14, 2016 DEERFIELD, Ill., July 14, 2016 /PRNewswire/ -- Essendant Inc. , a leading wholesale distributor of business products, announced today that Dennis J. Martin joined its board of directors on July 13, 2016 and will serve on the audit and&nbsp;...'
p8
aS"Essendant's Acquisition Of Wholesale Business From Staples Called Off Due To ... PR Newswire  - May 11, 2016 DEERFIELD, Ill., May 10, 2016 /PRNewswire/ -- Essendant Inc. , a leading supplier of workplace essentials, today announced that its previously announced acquisition from Staples, Inc.  of wholesale contracts with minority&nbsp;...Staples-Office Depot merger killed by antitrust claims, again - MarketWatchStaples and Office Depot to Terminate Merger Agreement - Business Wire "
p9
aS"BRIEF-Pzena Investment Management reports 6.26 percent passive stake in ... Reuters - Feb 3, 2017 Reuters is the news and media division of Thomson Reuters. Thomson Reuters is the world's largest international multimedia news agency, providing investing news, world news, business news, technology news, headline news, small business news, news&nbsp;..."
p10
a.