(lp0
S'Viacom Inc.  Ex-Dividend Date Scheduled for March 13, 2017 Nasdaq - Mar 10, 2017 Viacom Inc.  will begin trading ex-dividend on March 13, 2017. A cash dividend payment of $0.2 per share is scheduled to be paid on April 03, 2017.'
p1
aS"Viacom Promotes Christa D'Alimonte to Executive Vice President, General ... Business Wire  - Mar 10, 2017 NEW YORK----Viacom Inc.  today announced that Christa A. D'Alimonte has been named Executive Vice President, General Counsel and Secretary, effective April 15, 2017.Viacom promotes new general counsel from within - Seeking AlphaViacom Names Christa D'Alimonte New General Counsel - Corporate Counsel "
p2
aS'Turner, Fox, Viacom to offer advertisers way to laser focus on audience Daily Mail - 16 hours ago NEW YORK, March 15  - Major U.S. media companies Time Warner Incs Turner, Viacom Inc and 21st Century Fox Incs Fox Networks Group will launch OpenAP, a program for advertisers to laser focus their commercials at specific audiences on&nbsp;...Turner, Viacom and Fox Join Forces for Data-Driven TV Ad Buying - Wall Street Journal '
p3
aS"Why Investors remained confident on Masco Corporation , Viacom, Inc. ? StockNewsJournal - 21 hours ago Viacom, Inc. , maintained return on investment for the last twelve months at 7.78, higher than what Reuters data shows regarding industry's average."
p4
aS"A+E Is In, Viacom Out in Hulu's New Live Online TV Service Bloomberg - Mar 10, 2017 Hulu LLC, the video-streaming service, will carry six cable channels from A+E Networks including the History network in its upcoming live TV package, and has decided not to offer networks from Viacom Inc. The accord gives Los Angeles-based Hulu a ...Hulu live TV will feature A&amp;E, but not Viacom networks - Seeking AlphaViacom Excluded From Hulu's Upcoming Video Service - Investopedia"
p5
aS'Viacom, Inc.  In Talks With Ex-Fox Chairman Gianopulos To Lead ... Traders350 - Mar 13, 2017 Viacom, Inc.  has opened talks with Jim Gianopulos, the former Chairman at Twentieth Century Fox to head its Paramount Pictures film studio.'
p6
aS"Viacom names Schireson to new chief data officer post Seeking Alpha - Mar 13, 2017 That means expanding the reach of Viacom Vantage, the company's data-based advertising platform. Schireson had been executive VP of Data Strategy and Consumer Intelligence, so he's had a key role in Vantage's creation.Viacom Names Kern Schireson Chief Data Officer - Yahoo FinanceViacom creates new executive role to oversee growth of data across its ... - MarketWatch"
p7
aS'Viacom, Inc. : Ignore the noise and focus on the technicals USA Commerce Daily - 14 hours ago With all other things going on, Viacom, Inc.  has been on a run - rising 13.44 percent in just three months.Market Focus: Checking Indicators on Shares of Viacom Inc  - Providence Standard'
p8
aS"The Viacom, Inc.  Rating Reiterated by Jefferies Group LLC Petro Global News 24 - Mar 14, 2017 Viacom, Inc. 's stock had its buy rating restated by equities researchers at Jefferies Group LLC in a report released on Saturday.Digging Up the Facts on Viacom, Inc.  - StockNewsJournal"
p9
aS"Sell-Side Analyst's Predictions: Viacom, Inc. , BB&amp;T Corporation  The USA Commerce - Mar 14, 2017 Shares of Viacom, Inc.  dropped -1.33% to $43.15. During the trading on 03/13/2017, Company's stock ranged from $43.10 to $43.89.2 Stocks Grabbing Analyst Attention: Viacom, Inc. , BB&amp;T ... - The Voice Registrar"
p10
a.