(lp0
S'Virco Announces Board Reorganization GlobeNewswire  - May 13, 2014 TORRANCE, Calif., May 12, 2014  -- Virco Mfg. Corporation  announced today that its Board of Directors has unanimously determined to reconstitute itself into a smaller and nimbler structure.'
p1
aS'Virco Mfg. Corp  Stock ATR in Focus Business Review - Mar 14, 2017 Shares of Virco Mfg. Corp  have seen the ATR  climb higher over the past 10 bars, indicating strong momentum potential and increased volatility.'
p2
aS"Virco Manufacturing: EPS And Shares Poised For Material Upside Driven By Lean ... Seeking Alpha - Jul 7, 2016 After deteriorating for 15 years, Virco Manufacturing Corporation's  educational furniture end markets have likely reached a secular trough and are set for increased stability and steady improvement."
p3
aS"Virco Mfg. Stock: 3 Reasons Why VIRC Is a Top Choice for Value Investors May ... Zacks.com - May 8, 2015 This method discovered several great candidates for value-oriented investors, but today let's focus on Virco Mfg. Corporation  as this stock is looking especially impressive right now. And while there are numerous reasons why this ..."
p4
aS'Investor List: Watching Shares of Virco Mfg. Corporation  Lenox Ledger - 14 hours ago Market watchers may be taking a closer look at the numbers for Virco Mfg. Corporation . ROIC  is a financial metric that can be used to measure how efficient a company is at allocating controlled capital into&nbsp;...'
p5
aS'Virco Mfg. Corporation  Stock Technicals Hit Strength CML News - Feb 22, 2017 This is a technical analysis stock rating for Virco Mfg. Corporation  . The company has a four bull technical rating which indicates some strength.'
p6
aS'Stock Returns: CompX International Inc  is Beating Virco Mfg ... CML News - Feb 14, 2017 This is a snapshot to compare the stock returns for CompX International Inc  versus Virco Mfg. Corporation  .'
p7
aS'Virco Reports Financial Results for 4th Quarter and Fiscal 2014 GlobeNewswire  - Apr 23, 2015 TORRANCE, Calif., April 23, 2015  -- Virco Mfg. Corporation  today announced results for the 2014 Fiscal Year and 4th Quarter . Revenue for fiscal 2014 increased 5.8% from $155,042,000 to&nbsp;...'
p8
aS'A New Kind of Stock Chart: Virco Mfg. Corporation  Critical Pivot ... CML News - Feb 5, 2017 This is a real time view of the critical technical pivot points for Virco Mfg. Corporation  . The technical pivot points we look at all surround the stock price movement from the last 10-trading days through the last year.'
p9
aS"The Virco Manufacturing Corporation  Upgraded by Zacks Investment ... DailyQuint - Feb 9, 2017 Zacks Investment Research upgraded shares of Virco Manufacturing Corporation  from a sell rating to a hold rating in a research report released on Friday.Brokers Set Expectations for the Virco Manufacturing Corp.'s FY2017 Earnings ... - Petro Global News 24"
p10
a.