(lp0
S'Webster Financial Corporation  Common Share Dividend Payout Ratio Energy Index - 12 hours ago The dividend growth rate of Webster Financial Corporation calculated based on 20 historical quarterly dividends is 30.7% while the R-Squared dividend growth rate regression is 0.83.Stock Returns: First Republic Bank  versus Webster Financial ... - CML NewsWebster Raises Prime Lending Rate to 4.00 Percent - PR Newswire '
p1
aS'Webster Sets Date for Annual Shareholders Meeting PR Newswire  - Feb 14, 2017 WATERBURY, Conn., Feb. 14, 2017 /PRNewswire/ -- Webster Financial Corporation , the holding company for Webster Bank, N.A.Cortina Asset Management LLC Buys Shares of 280311 Webster Financial ... - The Cerbat Gem'
p2
aS'Webster Financial Corporation  Ex-Dividend Date Scheduled for February 10 ... Nasdaq - Feb 9, 2017 Webster Financial Corporation  will begin trading ex-dividend on February 10, 2017. A cash dividend payment of $0.25 per share is scheduled to be paid on February 28, 2017.Stock Returns: Webster Financial Corporation  is Beating Tompkins ... - CML NewsJoel S. Becker Sells 4231 Shares of Webster Financial Corporation  Stock - Sports Perspectives'
p3
aS'Webster Financial Corporation Releases Results of 2016 Dodd-Frank Act Stress Test PR Newswire  - Oct 18, 2016 WATERBURY, Conn., Oct. 18, 2016 /PRNewswire/ -- Webster Financial Corporation , the holding company for Webster Bank, today announced the release of its company-run 2016 capital stress test results as required by the Dodd-Frank Act.'
p4
aS'Research Reports Initiation on Banking Stocks -- M&amp;T Bank, Fulton Financial ... PR Newswire  - 21 hours ago This Wednesday morning, Stock-Callers.com looks at the performance of these four Regional - Northeast Banks stocks: M&amp;T Bank Corporation , Fulton Financial Corporation , Webster Financial Corporation , and&nbsp;...'
p5
aS'Christopher Motl Promoted at Webster Bank PR Newswire  - Jan 4, 2017 In his new role, Motl will lead all Commercial Banking business units: Sponsor &amp; Specialty Finance; Middle Market Banking; Commercial Real Estate; Webster Business Credit Corporation; Webster Capital Finance; and Treasury &amp; Payment Solutions&nbsp;...'
p6
aS'Webster Financial Corporation  Moves Lower on Volume Spike for March 10 Equities.com - Mar 10, 2017 Webster Financial Corporation  traded on unusually high volume on Mar. 10, as the stock lost 0.85% to close at $53.84.Stock Returns: Webster Financial Corporation  is Beating WesBanco ... - CML NewsForward Earnings Estimate on Webster Financial Corporation - Money Flow Index & Trends'
p7
aS"Webster Financial Corporation , Omega Healthcare Investors, Inc. (OHI ... The USA Commerce - Mar 13, 2017 Shares of Webster Financial Corporation  dropped -0.85% to $53.84. During the trading on 03/10/2017, Company's stock ranged from $53.01 to $55.01.Stock Price of Webster Financial Corporation  Decreases -4.05% - Energy IndexMedian Target Of Webster Financial Corporation  At $45.5 - Markets Daily"
p8
aS'Stock Returns: Webster Financial Corporation  versus Wintrust ... CML News - Mar 14, 2017 This is a snapshot to compare the stock returns for Webster Financial Corporation  versus Wintrust Financial Corporation  .'
p9
aS'Webster Financial Corporation  Breaks into New 52-Week High on February ... Equities.com - Feb 17, 2017 Shares of Webster Financial Corporation  broke into a new 52-week high yesterday, hitting a peak of $55.94. Shares closed at $55.88 after opening at $55.17 for a move of 0.45%.EPS Prediction At $0.56 For Webster Financial Corporation  - Markets Daily'
p10
a.