(lp0
S'WILLBROS GROUP, INC.  Files An 8-K Results of Operations and ... Market Exclusive - Mar 13, 2017 Willbros Group, Inc.  is a specialty energy infrastructure contractor serving the oil, gas, refining, petrochemical and power industries.Revenue Update on Willbros Group Inc - Energy IndexWillbros Group, Inc.  Reviewed By Analysts - The De Soto Edge'
p1
aS'Willbros Group Inc.   Soars 21.43% on January 25 Equities.com - Jan 25, 2017 Willbros Group Inc.   had a good day on the market for Wednesday January 25 as shares jumped 21.43% to close at $3.74.'
p2
aS"Why Willbros Group Inc  Stock Blasted Down 57% Today Motley Fool - Mar 18, 2015 If you hold shares of Willbros Group, all I can say is I hope you're diversified and it isn't a large part of your portfolio today."
p3
aS'Willbros Group Inc.   Soars 7.14% on March 10 Equities.com - Mar 10, 2017 Willbros Group Inc.   had a good day on the market for Friday March 10 as shares jumped 7.14% to close at $2.55. About 262,562 shares traded hands on 1,303 trades for the day, compared with an average daily volume of 242,218 shares out of a&nbsp;...'
p4
aS'News Willbros Group Inc.WG Wall Street Journal - Feb 11, 2011 News Willbros Group Inc.WG. Significant News Only. 03/07/17; Press Release. Willbros Announces Multiple Awards Valued at $151 Million.'
p5
aS'Willbros Group, Inc.  CEO Michael Fournier on Q2 2016 Results - Earnings ... Seeking Alpha - Aug 1, 2016 Greetings and welcome to the Willbros Group Second Quarter Earnings Call. At this time, all participants are in a listen-only mode.'
p6
aS'Willbros Group Inc.   Plunges 5.56% on March 09 Equities.com - Mar 9, 2017 Willbros Group Inc.   had a rough trading day for Thursday March 09 as shares tumbled 5.56%, or a loss of $-0.14 per share, to close at $2.38.'
p7
aS'Indicator Level Summary for Willbros Group Inc  Rives Journal - 19 hours ago Technical Traders may be interested in looking at the indicator levels on shares of Willbros Group Inc . The 14-day ADX for Willbros Group Inc  is currently 18.01. In general, an ADX value from 0-25 would signal an absent or weak trend. A level ...'
p8
aS'Willbros Reports Fourth Quarter and Full Year 2014 Results from Continuing ... PR Newswire  - Mar 31, 2015 HOUSTON, March 31, 2015 /PRNewswire/ -- Willbros Group, Inc.  announced today results for the fourth quarter and full year 2014.'
p9
aS'Willbros Group: This Oversold Oil Stock Is Worth More Than $1 Seeking Alpha - Mar 1, 2016 Willbros Group  was started in 1908 and it has a wide range of capabilities and specialty services that it offers: from construction, to project management, to fabrication, to pipeline maintenance, and much more.'
p10
a.