(lp0
S'Willis Lease Finance Corporation  Plunges 5.33% on March 14 Equities.com - Mar 14, 2017 Willis Lease Finance Corporation  had a rough trading day for Tuesday March 14 as shares tumbled 5.33%, or a loss of $-1.39 per share, to close at $24.71.Willis Lease Finance Corporation  Files An 8-K Results of ... - Market ExclusiveWillis Lease Finance Corporation fourth-quarter earnings drop by 11.07 percent ... - Myiris.com'
p1
aS'Willis Lease Finance Corporation  Moves Higher on Volume Spike for March 07 Equities.com - Mar 7, 2017 Willis Lease Finance Corporation  traded on unusually high volume on Mar. 07, as the stock gained 0.71% to close at $25.50.'
p2
aS'Willis Lease Finance Corporation  Moves Lower on Volume Spike for March 10 Equities.com - Mar 10, 2017 Willis Lease Finance Corporation  traded on unusually high volume on Mar. 10, as the stock lost 0.77% to close at $25.90.Willis Lease posts 4Q profit - Yahoo Finance'
p3
aS'Willis Lease Finance Corporation  Moves Lower on Volume Spike for March 02 Equities.com - Mar 2, 2017 Willis Lease Finance Corporation  traded on unusually high volume on Mar. 02, as the stock lost 2.28% to close at $25.73.'
p4
aS'Scott B. Flaherty Joins Willis Lease Finance as Senior Vice President &amp; Chief ... GlobeNewswire  - May 23, 2016 NOVATO, Calif., May 23, 2016  -- Willis Lease Finance Corporation  announced today that Scott B. Flaherty is joining the company as its Senior Vice President and Chief Financial Officer beginning June 6, 2016.'
p5
aS'Willis Lease Finance Corporation  Moves Higher on Volume Spike for ... Equities.com - Feb 23, 2017 Willis Lease Finance Corporation  traded on unusually high volume on Feb. 23, as the stock gained 2.17% to close at $25.92.'
p6
aS'Robert J. Keady Joins Board of Directors of Willis Lease Finance Corporation GlobeNewswire  - Mar 3, 2015 NOVATO, Calif., March 3, 2015  -- Willis Lease Finance Corporation , the premier independent jet engine lessor in the commercial finance sector, today announced that Robert J. Keady was unanimously elected to the&nbsp;...'
p7
aS'Willis Lease Expands Revolving Credit Facility Up To $1 Billion GlobeNewswire  - Apr 22, 2016 NOVATO, Calif., April 21, 2016  -- Willis Lease Finance Corporation , the premier independent jet engine lessor, announced today that it has expanded its $700 million revolving credit facility by over 40% to $1 billion,&nbsp;...'
p8
aS"Are Willis Lease Finance Corporation's  Interest Costs Too High? Simply Wall St - Mar 6, 2017 While small-cap stocks, such as Willis Lease Finance Corporation  with its market cap of USD $166 Million, are popular for their explosive growth, investors should also pay heed to their balance sheet to judge whether the company can&nbsp;..."
p9
aS"Willis Lease Finance  Acquires TES Aviation's Total Engine Support StreetInsider.com - Oct 26, 2016 Willis Lease Finance Corporation  announced that its wholly owned subsidiary, Willis Asset Management Limited, has purchased the business and assets of Total Engine Support Limited , the consulting and asset management&nbsp;..."
p10
a.