(lp0
S'Williams-Sonoma Inc. Announces 2% Increase In Q4 Earnings Nasdaq - 13 hours ago  - Williams-Sonoma Inc.  reported a profit for its fourth quarter that climbed from last year. The company said its bottom line advanced to $144.63 million, or $1.63 per share.Williams-Sonoma, Inc. Increases Quarterly Dividend by $0.02, or 5%, to $0.39 ... - Yahoo Finance'
p1
aS'Sell-Side Sour On Williams-Sonoma Leading Into Q4 Print Benzinga - Mar 13, 2017 Wall Street is expecting a soft quarter from Williams-Sonoma, Inc. , which is reporting its fourth quarter numbers Wednesday.The Williams-Sonoma, Inc.  Given New $48.00 Price Target at Wedbush - Petro Global News 24Williams-Sonoma, Inc.  earnings reaction history in focus - Post Analyst'
p2
aS"Williams-Sonoma, Inc. announces release date for fourth quarter and fiscal ... Business Wire  - Mar 8, 2017 SAN FRANCISCO----Williams-Sonoma, Inc.  announced today that it will release its fourth quarter and fiscal year 2016 results on Wednesday, March 15, 2017, after the market close.Wedbush Comments on Williams-Sonoma, Inc.'s FY2018 Earnings  - Chaffey BreezeWhy Analysts put forward these two stocks: Williams-Sonoma, Inc. , The ... - The USA Commerce"
p3
aS'Williams-Sonoma: No-Brainer Seeking Alpha - Feb 27, 2017 Shares of Williams-Sonoma Inc  are down about 7% over the past twelve months, and this makes no sense to me. It also provides investors with an excellent opportunity to buy shares of this well run, shareholder friendly company at a discount.Williams-Sonoma Inc.   Moves Lower on Volume Spike for February 28 - Equities.comWilliams-Sonoma, Inc.  Dividend Payout Ratio - Money Flow Index & Trends'
p4
aS'Williams-Sonoma, Inc.  Announces Dividend Increase  $0.39 Per Share Chaffey Breeze - Mar 15, 2017 Williams-Sonoma logo Williams-Sonoma, Inc.  announced a quarterly dividend on Wednesday, March 15th. Shareholders of record on Friday, April 28th will be paid a dividend of 0.39 per share on Friday, May 26th.'
p5
aS'Why Williams-Sonoma, Inc. , Guess?, Inc. , Jabil Circuit ... Stock Market Daily - 2 hours ago Williams-Sonoma, Inc.  reported earnings of $1.55 a share for the fourth quarter that came in above estimates by four cents a share.'
p6
aS"Option Market: Williams-Sonoma Inc Risk Hits A Lowered Level CML News - Mar 13, 2017 We're going to look at a proprietary risk rating for the next 30-days built by Capital Market Laboratories  based on a large number of interactions of data points, many of which come directly from the option market for Williams-Sonoma Inc (NYSE ..."
p7
aS"Analyst's Proposition on Williams-Sonoma, Inc. , Resolute Energy ... The USA Commerce - 21 hours ago Shares of Williams-Sonoma, Inc.  dropped -0.21% to $47.52. During the trading on 03/14/2017, Company's stock ranged from $46.80 to $47.64."
p8
aS'BRIEF-Williams-Sonoma increases qrtrly dividend to $0.39 per/share Reuters - 12 hours ago BRIEF-Williams-Sonoma increases qrtrly dividend to $0.39 per/share. March 16 Williams-sonoma Inc. * Williams-Sonoma, Inc. increases quarterly dividend by $0.02, or 5%, to $0.39 per common share Source text for Eikon: Further company coverage: Next In&nbsp;...'
p9
aS'BRIEF-Williams-Sonoma Q4 non-gaap EPS $1.55 Reuters - 13 hours ago BRIEF-Williams-Sonoma Q4 non-gaap EPS $1.55 ... Williams-Sonoma inc says q4 16 operating margin was 13.6% versus 14.0% in q4 15.'
p10
a.