(lp0
S'Wayside Technology Group, Inc.  Ex-Dividend Date Scheduled for February ... Nasdaq - Feb 13, 2017 Wayside Technology Group, Inc.  will begin trading ex-dividend on February 14, 2017. A cash dividend payment of $0.17 per share is scheduled to be paid on February 27, 2017.'
p1
aS'WAYSIDE TECHNOLOGY GROUP,INC.  Files An 8-K Other Events Market Exclusive - Mar 6, 2017 Wayside Technology Group, Inc.  has engaged in stock repurchases of its common stock  from time to time.Form SC 13G/A Wayside Technology Group Filed by: EAGLE ASSET MANAGEMENT INC - StreetInsider.com'
p2
aS'Brokerage Analyst Buys: Wayside Technology Group, Inc.  ZTO ... Rives Journal - Mar 14, 2017 Wayside Technology Group, Inc.  shares have been labeled a top pick by Beta Research as it meets the A+ criteria outlined by the firm.'
p3
aS'Why I Sold Wayside Technology Group This Morning Seeking Alpha - Feb 13, 2017 Wayside Technology Group Inc  describes itself as an information technology channel company that distributes software through resellers and also resells computer software and hardware.'
p4
aS"Wayside Technology Group Named one of New Jersey's Top Company Cultures by ... PR Web  - Nov 2, 2016 Wayside Technology Group Inc.  today announced that Simon Nynens, the company's Chairman and CEO, was honored November 1, 2016 by SmartCEO as one of New Jersey's Top CEO's with their Corporate Culture Award."
p5
aS"Wayside Technology Group, Inc.  At $18.15 Forms Bottom, Baker Hughes ... HuronReport - Mar 8, 2017 Wayside Technology Group, Inc.  formed multiple bottom with $17.61 target or 3.00% below today's $18.15 share price."
p6
aS'Company Review: Narrowing in on Shares of Wayside Technology Group, Inc ... Geneva Journal - 11 hours ago Value investors may be keeping an eye on the Magic Formula Rank or MF Rank for Wayside Technology Group, Inc. .'
p7
aS'Stock Returns: PCM Inc  is Beating Wayside Technology Group Inc ... CML News - Mar 12, 2017 This is a snapshot to compare the stock returns for PCM Inc  versus Wayside Technology Group Inc  .'
p8
aS'Wayside Technology Group, Inc. Reports 2016 Fourth Quarter &amp; Full Year Results ... EconoTimes - Feb 2, 2017 EATONTOWN, N.J., Feb. 02, 2017 -- Wayside Technology Group, Inc.  today announced financial results for the fourth quarter and year ended December 31, 2016.'
p9
aS'Wayside Technology Group Inc  Stock Technicals at Critical ... CML News - Feb 5, 2017 This is a technical analysis stock rating for Wayside Technology Group Inc  . The company has a three bull technical rating which indicates an inflection point.'
p10
a.