(lp0
S'Aqua America: As Stable As They Come Seeking Alpha - Dec 22, 2016 Aqua America, Inc. , through its subsidiaries, operates regulated utilities that provide water or wastewater services in the United States.'
p1
aS'Aqua America, Inc.  Ex-Dividend Date Scheduled for February 13, 2017 Nasdaq - Feb 10, 2017 Aqua America, Inc.  will begin trading ex-dividend on February 13, 2017. A cash dividend payment of $0.191 per share is scheduled to be paid on March 01, 2017.'
p2
aS"3 Things That Could Bring Aqua America Down Motley Fool - Jan 23, 2017 With over 130 years of experience, Aqua America , knows a thing or two about providing water to customers. Of course, that doesn't mean that it's unsinkable."
p3
aS'At Aqua America, It Is Raining Dividends At 2.58% Seeking Alpha - Feb 2, 2017 Founded 131 years ago, Aqua America has grown through expansion and acquisitions to a company providing water and waste services to more than three million people in eight states - Pennsylvania, Ohio, Illinois, North Carolina, Texas, Indiana, New&nbsp;...Aqua America Inc  Stock Technicals Hit Extreme Weakness - CML News'
p4
aS'Water Utility Aqua America Hires Whitney Kellett as CIO Wall Street Journal  - Apr 19, 2016 Water utility Aqua America Inc. has hired Whitney Kellett as chief information officer, the company confirmed Tuesday. Ms. Kellett, who starts this week, was for the past four years vice president of technology at Atlas Energy Group LLC, the energy&nbsp;...'
p5
aS'Aqua America, Inc.  Files An 8-K Results of Operations and Financial ... Market Exclusive - Feb 23, 2017 Aqua America, Inc. is a holding company. The Company, through its subsidiaries, provides water or wastewater services in Pennsylvania, New Jersey, Indiana and Virginia, among others.Aqua America Reports Earnings for 2016 - Business Wire '
p6
aS'Aqua America Breaks Above 200-Day Moving Average - Bullish for WTR Nasdaq - Feb 27, 2017 In trading on Monday, shares of Aqua America Inc  crossed above their 200 day moving average of $31.33, changing hands as high as $31.40 per share.Aqua America Inc.  Moves Higher on Volume Spike for February 28 - Equities.comForward Dividend Yield of Aqua America, Inc.  - Highland Mirror'
p7
aS'Aqua America: A Good Price To Add Water To Your Portfolio Seeking Alpha - Jan 5, 2017 Aqua America  is a water and waste water utility company that has operations in 8 states, including the state I live in .'
p8
aS'Aqua America Promotes Szczygiel to Vice President, Finance and Treasurer Business Wire  - Aug 5, 2016 BRYN MAWR, Pa.----Aqua America, Inc.  CFO David P. Smeltzer today announced the promotion Stan Szczygiel to vice president, finance and treasurer.'
p9
aS'Aqua America promotes Marc Lucca to president of Aqua Pennsylvania WaterWorld - Sep 30, 2016 BRYN MAWR, PA, SEPTEMBER 30, 2016 -- Aqua America, Inc.  announced that, as of Oct. 1, 2016, Marc Lucca will be promoted to president of its Pennsylvania subsidiary, Aqua Pennsylvania, which provides drinking water and wastewater&nbsp;...'
p10
a.