(lp0
S'Zix Corporation  Moves Lower on Volume Spike for March 13 Equities.com - Mar 13, 2017 Zix Corporation  traded on unusually high volume on Mar. 13, as the stock lost 2.99% to close at $4.87. On the day, Zix Corporation saw 422,667 shares trade hands on 2,868 trades. Considering that the stock averages only a daily volume of 267,757&nbsp;...Zix Corporation  Reviewed By Analysts - The De Soto EdgePrice-to-Earnings-Growth Ratio Of Zix Corporation  At 0.91 - Equities Focus'
p1
aS'Zix Corporation Evolves Company Brand Business Wire  - Feb 7, 2017 DALLAS----Zix Corporation , , the leader in email encryption, has modernized its company brand to strengthen its communication to customers and prospects and enable the brand to advance with future growth&nbsp;...'
p2
aS'Zix Corporation  Moves Lower on Volume Spike for February 10 Equities.com - Feb 10, 2017 Zix Corporation  traded on unusually high volume on Feb. 10, as the stock lost 1.01% to close at $4.90. On the day, Zix Corporation saw 414,453 shares trade hands on 1,934 trades. Considering that the stock averages only a daily volume of 165,677&nbsp;...Zix Corporation  PEG Ratio At 0.88 - Equities Focus'
p3
aS'Zix Corporation  Moves Higher on Volume Spike for February 17 Equities.com - Feb 17, 2017 Zix Corporation  traded on unusually high volume on Feb. 17, as the stock gained 2.82% to close at $5.11. On the day, Zix Corporation saw 880,388 shares trade hands on 3,579 trades. Considering that the stock averages only a daily volume of 200 ...'
p4
aS'Zix Corporation  Moves Higher on Volume Spike for February 13 Equities.com - Feb 13, 2017 Zix Corporation  traded on unusually high volume on Feb. 13, as the stock gained 1.22% to close at $4.96. On the day, Zix Corporation saw 313,834 shares trade hands on 2,044 trades. Considering that the stock averages only a daily volume of 192 ...Zix Corporation  Issues Earnings Results - The Cerbat GemZix Corporation  Issues FY17 Earnings Guidance - Sports Perspectives'
p5
aS'Zix Acquires Greenview Data to Expand Its Email Security Solutions Business Wire  - 13 hours ago DALLAS----Zix Corporation , , a leader in email encryption, has acquired Greenview Data, an email security company, for approximately $6.5 million in cash.'
p6
aS'Will Zix Corporation  Continue To Underperform Its Industry? Simply Wall St - Feb 9, 2017 Zix Corporation  delivered a 9.3% ROE over the past year; however, the figure is only significant when we compare it to returns from assets with similar risk profile: the industry average, which stood at 24.04% in the same time period ...'
p7
aS'4 Reasons To Buy Zix Corp. At $3 A Share Seeking Alpha - Jan 9, 2013 Zix Corp.  is a company operating in the technology industry that serves its customers as a provider of email encryption services.'
p8
aS'Zix Corp. ZIXI  Wall Street Journal - Feb 11, 2011 News Zix Corp.ZIXI. Significant News Only. 01/17/17; Press Release. ZixCorp to Announce Fourth Quarter and Full-Year 2016 Results on February 9. Press Release.'
p9
aS'Zix Corporation  Moves Higher on Volume Spike for February 23 Equities.com - Feb 23, 2017 Zix Corporation  traded on unusually high volume on Feb. 23, as the stock gained 4.26% to close at $5.39. On the day, Zix Corporation saw 738,709 shares trade hands on 3,135 trades. Considering that the stock averages only a daily volume of 237 ...'
p10
a.