(lp0
S"Taking a Fresh Look at Zynga Inc.  StockNewsJournal - 14 hours ago Zynga Inc.  is an interesting player in the Technology space, with a focus on Multimedia &amp; Graphics Software. The stock has been active on the tape, currently trading at $2.78, down from yesterday's close by -1.07%.Can Zynga  Run Higher on Strong Earnings Estimate Revisions? - Yahoo FinanceRevenue Estimates Analysis: Zynga, Inc.  - News Oracle"
p1
aS"Today Analysts Focus on American Eagle Outfitters, Inc. , Zynga Inc.  StockNewsJournal - Mar 14, 2017 Zynga Inc. , maintained return on investment for the last twelve months at -6.09, higher than what Reuters data shows regarding industry's average."
p2
aS"Is It Time to go for Zynga Inc. , TripAdvisor, Inc. ? StockNewsJournal - Mar 10, 2017 Investors who are keeping close eye on the stock of Zynga Inc.  established that the company was able to keep return on investment at -6.09 in the trailing twelve month while Reuters data showed that industry's average stands at 14.51 and&nbsp;...Zynga Inc  Given Average Recommendation of Hold by Brokerages - Chaffey BreezeZynga, Inc.  Closed the Last Trading Session at $2.75 - The Newburgh Press"
p3
aS"Today's Brokerage Rating: Thor Industries, Inc. , Zynga Inc.  StockNewsJournal - Mar 8, 2017 Zynga Inc. , maintained return on investment for the last twelve months at -6.09, higher than what Reuters data shows regarding industry's average."
p4
aS"GoPro, Inc. , Zynga Inc.  Stock Eyes Ahead of Earnings The USA Commerce - 17 hours ago Shares of GoPro, Inc.  dropped -4.36% to $7.24. During the trading on 03/14/2017, Company's stock ranged from $7.16 to $7.57."
p5
aS"Zynga Inc. : What's the Story? StockNewsJournal - Mar 7, 2017 Zynga Inc.  is an interesting player in the Technology space, with a focus on Multimedia &amp; Graphics Software. The stock has been active on the tape, currently trading at $2.75, down from yesterday's close by -1.08%.Zynga Inc  Sends A Chilling Sensation Among Individual Investors ... - FinancialsTrendZynga Inc  Files Form 4 Insider Selling : Ellen F Siminoff Sells 12000 ... - Energy Index"
p6
aS'New Dawn for Zynga Inc  Stock The Oracle Dispatch - Feb 25, 2017 Zynga Inc  is a mid cap stock looking to ride the next big wave of social gaming. Despite growing competition from other mobile and social gaming operators - most notably Glu Mobile, Electronic Arts and Nintendo - Zynga is still the&nbsp;...Large Buying Action and Inflow of Money Witnessed in Zynga Inc.  - Energy Index'
p7
aS"Taking a Look at the Chart for Zynga Inc.  The USA Commerce - Mar 14, 2017 We have gathered the technical data on Zynga Inc. , and see some interesting trends in the stock's behavior of late."
p8
aS'Still A Value Trap?  Zynga Inc. , Staples, Inc.  USA Commerce Daily - 15 hours ago Shares of Zynga Inc.  are on a recovery track as they have regained 30.52% since bottoming out at $2.13 on Mar. 24, 2016.Pay Too Much Attention To Two Stock Analyst Ratings: Zynga Inc. (NASDAQ:ZNGA ... - The Voice Registrar'
p9
aS'Brokers Ratings on: Zynga, Inc.  FactsReporter - 20 hours ago The Stock had a 2.3 Consensus Analyst Recommendation 30 Days Ago, whereas 60 days ago and 90 days ago the analyst recommendations were 2.3 and 2.3 respectively.'
p10
a.