(lp0
S'Form 4 ACNB CORP For: Mar 15 Filed by: Kelley Scott L StreetInsider.com - Feb 7, 2017 Check this box if no longer subject to Section 16. Form 4 or Form 5 obligations may continue. See Instruction 1. 1. Name and Address of Reporting Person *. Kelley Scott L. , , . 2068 ROSEWOOD LANE. . YORK, PA, 17403 ...'
p1
aS'Stock Returns: Bar Harbor Bankshares  is Beating ACNB Corporation ... CML News - 12 hours ago This is a snapshot to compare the stock returns for ACNB Corporation  versus Bar Harbor Bankshares  .'
p2
aS'Stock Returns: Civista Bancshares Inc  is Beating ACNB ... CML News - 12 hours ago This is a snapshot to compare the stock returns for ACNB Corporation  versus Civista Bancshares Inc  .'
p3
aS'ACNB Corporation to Acquire New Windsor Bancorp, Inc. in Northern Maryland Business Wire  - Nov 22, 2016 GETTYSBURG, Pa.----ACNB Corporation  , the parent financial holding company of ACNB Bank, a Pennsylvania state-chartered, FDIC insured community bank headquartered in Gettysburg, PA, announced&nbsp;...New Windsor State Bank to merge with ACNB Bank - Carroll County TimesACNB to buy small Maryland bank - Central Penn Business Journal'
p4
aS"ACNB Corporation  Files An 8-K Departure of Directors or Certain ... Market Exclusive - Mar 2, 2017 On February 28, 2017, Robert W. Miller, a Class 1 Director, submitted his resignation, effective May 2, 2017, from the Boards of Directors of ACNB Corporation  and ACNB Bank , the Corporation's wholly-owned subsidiary."
p5
aS'ACNB Corporation  Moves Higher on Volume Spike for March 10 Equities.com - Mar 10, 2017 ACNB Corporation  traded on unusually high volume on Mar. 10, as the stock gained 1.34% to close at $30.30. On the day, ACNB Corporation saw 14,859 shares trade hands on 171 trades. Considering that the stock averages only a daily volume of&nbsp;...'
p6
aS'ACNB Corporation  Moves Lower on Volume Spike for March 15 Equities.com - Mar 15, 2017 ACNB Corporation  traded on unusually high volume on Mar. 15, as the stock lost 1.13% to close at $30.70. On the day, ACNB Corporation saw 26,666 shares trade hands on 278 trades. Considering that the stock averages only a daily volume of&nbsp;...'
p7
aS'ACNB Corporation  Moves Lower on Volume Spike for March 14 Equities.com - Mar 14, 2017 ACNB Corporation  traded on unusually high volume on Mar. 14, as the stock lost 0.48% to close at $31.05. On the day, ACNB Corporation saw 13,796 shares trade hands on 160 trades. Considering that the stock averages only a daily volume of&nbsp;...'
p8
aS'ACNB Corporation  Moves Higher on Volume Spike for March 13 Equities.com - Mar 13, 2017 ACNB Corporation  traded on unusually high volume on Mar. 13, as the stock gained 2.97% to close at $31.20. On the day, ACNB Corporation saw 20,154 shares trade hands on 179 trades. Considering that the stock averages only a daily volume of&nbsp;...'
p9
aS"How ACNB Corporation's  9.5% ROE Fares Against The Industry? Simply Wall St - Mar 3, 2017 With a ROE of 9.5%, ACNB Corporation  could hardly match the performance of its industry, which averaged a ROE of 9.83%."
p10
a.