(lp0
S'Alliance Data Systems Corporation  Ex-Dividend Date Scheduled for ... Nasdaq - Feb 10, 2017 Alliance Data Systems Corporation  will begin trading ex-dividend on February 13, 2017. A cash dividend payment of $0.52 per share is scheduled to be paid on March 17, 2017.Alliance Data Systems Corporation  Director Roger H. Ballou Sells 648 Shares - Sports Perspectives'
p1
aS'BRIEF-Alliance Data Systems Corp says proposes to offer EUR300 mln aggregate ... Reuters - Mar 3, 2017 WASHINGTON, March 12 Republican U.S. Representative Todd Rokita keeps a clock hanging on the wall of his Capitol Hill office that tracks the U.S.'
p2
aS"Alliance Data Systems Corporation   Citron Short Thesis ValueWalk - Aug 19, 2016 Alliance Data Systems Corporation  is being increasingly viewed as a lender, and its shares should trade in-line with other credit card lenders.Alliance Data Systems: If You Don't Like The Answer, Just Change The Question - Seeking AlphaAlliance Data Systems Corporation  Shares Have 50% Downside Potential ... - TCC"
p3
aS'Alliance Data Systems Corporation Announces Proposed Offering of $400 Million ... PR Newswire  - Oct 24, 2016 PLANO, Texas, Oct. 24, 2016 /PRNewswire/ -- Alliance Data Systems Corporation   announced today that it proposes to offer, subject to market conditions and other factors, $400.0 million aggregate principal amount of senior&nbsp;...'
p4
aS'Alliance Data To Participate At The 2017 Barclays Emerging Payments Forum - Update PR Newswire  - Mar 13, 2017 DALLAS, March 13, 2017 /PRNewswire/ -- Alliance Data Systems Corporation , a leading global provider of data-driven marketing and loyalty solutions, today announced that it will be presenting via webcast at the 2017 Barclays Emerging&nbsp;...'
p5
aS'Alliance Data Systems Corporation: Epsilon Partners With Juicy Juice Splashers ... The Wall Street Transcript - Mar 16, 2017 PLANO, Texas, March 16, 2017 /PRNewswire/ -- Epsilon, an Alliance Data  company, today announced it has signed a new agreement with Harvest Hill Beverage Company to provide experiential event services for Juicy Juice Splashers and its&nbsp;...'
p6
aS'A SOTP Analysis Of Alliance Data Systems Supports $250 Share Price, Says ... Benzinga - Jul 14, 2016 Pacific Crest said a sum of the parts analysis, or SOTP, of Alliance Data Systems Corporation  supports its price target of $250, with 100 basis points of margin expansion would push it up to $263.'
p7
aS'What is the Street Saying About Alliance Data Systems Corporation ? Aiken Advocate - 10 hours ago Analysts and investors will be looking forward to the next earnings release from Alliance Data Systems Corporation  which is scheduled to be on or around 2017-04-20 for the period ending 2017-03-31.'
p8
aS'A Look at 2 Trending Stocks: Parker-Hannifin Corporation , Alliance Data ... Post Analyst - 16 hours ago Turning to Alliance Data Systems Corporation , its shares were trading at $245.01 a retreat of $-0.08, on the trading floor.'
p9
aS"Alliance Data Closer To A Card Lender Than Tech Company Says Credit Suisse ... Benzinga - Aug 17, 2016 Alliance Data Systems Corporation  is being increasingly viewed as a lender, and its shares should trade in-line with other credit card lenders, rather than with technology services companies, Credit Suisse's Paul Condra said in a report."
p10
a.