(lp0
S'Argo Group Releases 2016 Annual Report Yahoo Finance - 13 hours ago Argo Group International Holdings, Ltd. , an international underwriter of specialty insurance and reinsurance products, today released its digital 2016 Annual Report, available at www.The ART Advisors LLC Invests $303000 in Argo Group International Holdings, Ltd ... - Petro Global News 24'
p1
aS"Insider Trading Activity Argo Group International Holdings, Ltd. (NASDAQ:AGII ... Market Exclusive - Mar 14, 2017 Jay Stanley Bullock , CFO of Argo Group International Holdings, Ltd.  reportedly Sold 10,178 shares of the company's stock at an average price of 67.59 for a total transaction amount of $687,931.02 SEC Form.Argo Group International Holdings, Ltd.  CFO Jay Stanley Bullock Sells ... - Chaffey BreezeThe First Republic Investment Management Inc. Has $345000 Position in Argo ... - Petro Global News 24"
p2
aS'Argo Group International Holdings, Ltd.  Files An 8-K Departure ... Market Exclusive - Feb 27, 2017 Argo Group International Holdings, Ltd. is an underwriter of specialty insurance and reinsurance products in the property and casualty market.Argo Group International Holdings, Ltd.  To Go Ex-Dividend on March 1st - Sports PerspectivesThe Clinton Group Inc. Has $982000 Position in Argo Group International ... - DailyQuint'
p3
aS'CORRECTING and REPLACING Argo Group CFO Jay S. Bullock to Present at the NYSSA 21 Business Wire  - Mar 16, 2017 Argo Group International Holdings, Ltd. , an international underwriter of specialty insurance and reinsurance products, announced today that CFO Jay S. Bullock will present at the NYSSA 21st Annual Insurance Industry Conference, starting ...Stock Returns: Argo Group International Holdings, Ltd.  is ... - CML News'
p4
aS'Argo Group International Holdings Ltd.: Argo Pro Partners with BlueChip ... The Wall Street Transcript - Feb 15, 2017 JERSEY CITY, N.J. - February 15, 2017 - Argo Pro, a member of Argo Group International Holdings, Ltd. , an international underwriter of specialty insurance and reinsurance products, today announced its partnership with BlueChip&nbsp;...'
p5
aS"Argo Group: estimates Q4 losses, rolls out new tech, slated to acquire Ariel ... San Antonio Business Journal - Jan 20, 2017 Argo Group  told investors this week that it expects to lose between $20 and $25 million stemming from natural disasters and that would likely impact the company's 2016 fourth quarter earnings.Bank of New York Mellon Corp Cuts Position in Argo Group International ... - Sports Perspectives"
p6
aS'Argo Group forecasts fourth-quarter loss mySanAntonio.com - Jan 17, 2017 Back to Gallery. Argo Group International Holdings Ltd., a Bermuda-based underwriter of specialty insurance and reinsurance products that has a large presence in San Antonio, anticipates posting a $20 million to $25 million pretax loss in the fourth ...Argo Group International Holdings, Ltd.  Stock Rating Upgraded by Zacks ... - Sports Perspectives'
p7
aS'Argo Group International Holdings Ltd.  Moves Higher on Volume Spike for ... Equities.com - Mar 15, 2017 Argo Group International Holdings Ltd.  traded on unusually high volume on Mar. 15, as the stock gained 0.67% to close at $67.75.'
p8
aS'Argo Group Announces Acquisition of Ariel Re Business Wire  - Nov 14, 2016 HAMILTON, Bermuda----Argo Group International Holdings, Ltd. , an international underwriter of specialty insurance and reinsurance products, today announced it has entered into an agreement to acquire Ariel Re, a global&nbsp;...Argo Group acquiring Ariel Re - San Antonio Express-News '
p9
aS"Argo Group International Holdings'  CEO Mark Watson on Q3 2016 Results ... Seeking Alpha - Nov 2, 2016 Good morning, and welcome to the Argo Group International Holdings' Third Quarter 2016 Earnings Conference Call. All participants will be in a listen-only mode.Argo Group's earnings jump on higher premiums - mySanAntonio.com"
p10
a.