(lp0
S'Federal Agricultural Mortgage Corporation  Ex-Dividend Date Scheduled for ... Nasdaq - Mar 15, 2017 Federal Agricultural Mortgage Corporation  will begin trading ex-dividend on March 16, 2017. A cash dividend payment of $0.36 per share is scheduled to be paid on March 31, 2017.Federal Agricultural Mortgage Corp.  Receives Average Rating of Hold ... - Chaffey BreezeThe Zacks: Federal Agricultural Mortgage Corp.  Given Consensus Rating of ... - Petro Global News 24'
p1
aS'FEDERAL AGRICULTURAL MORTGAGE CORPORATION  Files An 8-K Departure of ... Market Exclusive - Mar 17, 2017 Federal Agricultural Mortgage Corporation  provides a secondary market for a range of loans made to borrowers in rural America.'
p2
aS'News Federal Agricultural Mortgage Corp. Cl CAGM Wall Street Journal  - Feb 11, 2011 News Federal Agricultural Mortgage Corp. Cl CAGM. Significant News Only. 03/09/17; Press Release. Farmer Mac Reports 2016 Results and Announces Dividend Increase.'
p3
aS'Federal Agricultural Mortgage Corporation  Soars 10.33% on March 09 Equities.com - Mar 9, 2017 Federal Agricultural Mortgage Corporation  had a good day on the market for Thursday March 09 as shares jumped 10.33% to close at $60.99.FEDERAL AGRICULTURAL MORTGAGE CORPORATION  Files An 8-K Results of ... - Market ExclusiveFederal Agricultural Mortgage Corp.  Scheduled to Post Quarterly Earnings ... - BNB Daily '
p4
aS"Can Federal Agricultural Mortgage Corporation  Continue To Outperform Its ... Simply Wall St - Mar 3, 2017 Over the past 12 months, Federal Agricultural Mortgage Corporation  generated an ROE of 11.7%, implying the company created 11.7 cents on every dollar of shareholders' invested capital."
p5
aS'Federal Agricultural Mortgage Corporation  Breaks into New 52-Week High ... Equities.com - Feb 27, 2017 Shares of Federal Agricultural Mortgage Corporation  broke into a new 52-week high yesterday, hitting a peak of $60.00.Federal Agricultural Mortgage Corporation  Broker Views On Wall Street - NewsDenOption Trading: Federal Agricultural Mortgage Corporation  Powerful ... - CML News'
p6
aS'Revenue Update on Federal Agricultural Mortgage Corp. Energy Index - Mar 14, 2017 Federal Agricultural Mortgage Corp. announced the earnings results for Fiscal Year 2016 and Q4. The results came in during Pre-Market on Mar 9, 2017.Federal Agricultural Mortgage Corp.  Issues Earnings Results, Beats ... - Chaffey BreezeZacks: Federal Agricultural Mortgage Corp.  Receives Consensus ... - BNB Daily '
p7
aS'Federal Agricultural Mortgage Corporation Risk Points versus Financials CML News - Feb 7, 2017 This is a scatter plot analysis of the critical risk points from the option market for Federal Agricultural Mortgage Corporation  compared to its own past and the Financials ETF. In order to examine the forward looking risk for Federal ...'
p8
aS'Federal Agricultural Mortgage Corporation Realized Volatility Hits A Depressed ... CML News - Dec 23, 2016 This is a proprietary realized volatility rating created by Capital Market Laboratories  based on a large number of data interactions for Federal Agricultural Mortgage Corporation  . We examine the little used gem of daily stock ...'
p9
aS'Federal Agricultural Mortgage Corporation: Farmer Mac Reports 2016 Results and ... The Wall Street Transcript - Mar 9, 2017 WASHINGTON, March 9, 2017- The Federal Agricultural Mortgage Corporation  today announced its results for the fiscal quarter and year ended December 31, 2016, which included $1.5 billion in net new business&nbsp;...'
p10
a.