(lp0
S'Stock Returns: Argan Inc  is Beating Granite Construction ... CML News - 8 hours ago This is a snapshot to compare the stock returns for Argan Inc  versus Granite Construction Incorporated  .'
p1
aS'Argan Inc. Is A Red Hot Growth Story Seeking Alpha - Jun 10, 2016 I am recommending Argan, Inc. as a strong buy with a 30% upside from the 6/8/16 closing price of $39.39. My 12-month price target is $51.0 and is supported by a ttm and ntm P/E discount to competitors.'
p2
aS'Argan Inc.  Moves Lower on Volume Spike for February 13 Equities.com - Feb 13, 2017 Argan Inc.  traded on unusually high volume on Feb. 13, as the stock lost 6.04% to close at $70.00. On the day, Argan Inc. saw 313,825 shares trade hands on 3,556 trades. Considering that the stock averages only a daily volume of 190,751 shares a&nbsp;...'
p3
aS'Argan: Cheap And Delivering High Returns, But Not Without Risks Seeking Alpha - Mar 16, 2016 ... infrastructure, biotech and pharma, and everything in between, and are well established globally. A relatively small firm in the EPC space is Argan Inc. . Argan provides EPC services mostly to power generation and renewable energy markets ...'
p4
aS'News Argan Inc.AGX Wall Street Journal - Feb 11, 2011 Argan Inc. AGX . search. View All companies. AT CLOSE 4:02 PM EST 03/09/17. $67.35 USD; -2.10 -3.02%.'
p5
aS'Argan, Inc. Completes Acquisition of The Roberts Company Business Wire  - Dec 4, 2015 ROCKVILLE, Md.----Argan, Inc.   today announced the acquisition of TRC Acquisition LLC, which owns 100% of The Roberts Company , a fully integrated fabrication, construction and plant services&nbsp;...'
p6
aS"Argan Inc.  Moves Lower on Volume Spike for February 15 Equities.com - Feb 15, 2017 Argan Inc.  traded on unusually high volume on Feb. 15, as the stock lost 0.29% to close at $68.95. On the day, Argan Inc. saw 329,886 shares trade hands on 2,947 trades. Considering that the stock averages only a daily volume of 208,493 shares a&nbsp;...O Shaughnessy Asset Management LLC Acquires 66091 Shares of Argan, Inc.  - The Cerbat GemBest known Analyst Rating: Argan, Inc.'s  Stock price of $69.15 - Is stories"
p7
aS"Option Market: Argan Inc Risk Hits A Weakened Level CML News - Feb 24, 2017 In the &quot;Why This Matters&quot; section at the end of this article on Argan Inc  we're going to take a step back and show in great specificity that there is actually a lot less &quot;luck&quot; in successful option trading than many people know."
p8
aS'Stock Returns: Argan Inc  versus NV5 Global Inc  CML News - Mar 12, 2017 This is a snapshot to compare the stock returns for Argan Inc  versus NV5 Global Inc  . The stock return points we compare look at the last three-months, six-months and twelve-months.'
p9
aS'Stock Volatility Risk Alert: Argan Inc Price Volatility Hits An Elevated Level CML News - Mar 17, 2017 Before we cover the full analysis we make a quick alert here that Argan Inc  has seen its stock price whip around at an escalated level.'
p10
a.