(lp0
S'Alta Natural Herbs &amp; Supplements Ltd. MarketWatch - Dec 21, 2009 Check out the returns on our 8 Lazy Portfolios that are made up of low-cost buy-and-hold index funds.  How to create your own Lazy Portfolio.'
p1
aS'Lincoln Educational Services  Reaches $2.34 After 8.00% Up Move, Amn ... Wolcott Daily - Mar 15, 2017 Alta Natural Herbs and Supplements Ltd is a Canada dietary supplements and neutraceuticals company. The company has market cap of $1.69 million.'
p2
aS'INDUSTRY BRIEFS Oil & Gas Financial Journal - Jan 18, 2017 Anadarko Petroleum has agreed to sell its operated and non-operated upstream assets and operated midstream assets in the Marcellus Shale of north-central Pennsylvania to Alta Marcellus Development LLC, a wholly owned subsidiary of Alta Resources ...'
p3
aS"Bike sharing takes hold in the US BikeRadar.com - Aug 28, 2011 &quot;We're over the major failure points: theft and vandalism, the systems in place are surviving; the safety record of the systems are, so far, extremely positive, and liability has not been an issue,&quot; said Alison Cohen, the president of Alta Bicycle ..."
p4
aS'Destructive Washington fire empties another town Daily Mail - Jul 18, 2014 PATEROS, Wash.  - A massive wildfire that has destroyed at least 100 homes has forced the residents of a second north-central Washington town to leave their homes, and prompted a partial evacuation of a third community, a sheriff said Friday night.'
p5
aS"The story of the tragic death of Ezekiel Stephan in 2012 begins with the ... Calgary Herald - Jun 13, 2016 n January of 1994, Debora Stephan drove her silver minivan to a remote park outside Cardston, Alta. The 40-year-old had been ... In addition to those treatments, Ezekiel regularly took several supplements, including one called EMPowerplus. It's the ..."
p6
aS'Alberta father jailed, mother gets house arrest in meningitis baby death Toronto Star - Jun 24, 2016 LETHBRIDGE, ALTA.A couple who failed to get proper medical treatment for their son who died of bacterial meningitis are going to spend time in custody.'
p7
aS"Jury deliberates in case of anti-vax parents charged in child's meningitis death Hamilton Spectator - Apr 26, 2016 LETHBRIDGE, ALTA.The jury in the case of an Alberta couple charged in the meningitis death of their toddler son will begin a second day of deliberations Tuesday."
p8
aS"AltaGas: Value, Safety And Growing Monthly Income Seeking Alpha - Aug 1, 2016 AltaGas Ltd.  [TSX:ALA] is one of North America's largest and most diversified energy infrastructure companies."
p9
aS"Exploiting December tax-loss selling MarketWatch - Dec 1, 2011 CHAPEL HILL, N.C.  - One oft-repeated trading rule on Wall Street says we shouldn't let Uncle Sam manage our portfolios."
p10
a.