(lp0
S"Air T, Inc. Reports Unaudited Third Quarter Earnings PR Newswire  - Feb 13, 2017 MAIDEN, N.C., Feb. 13, 2017 /PRNewswire/ -- Air T, Inc.   today reported consolidated net earnings of $856,000  for fiscal 2017's third quarter ended December 31, 2016 compared to consolidated net earnings&nbsp;..."
p1
aS"Air T, Inc. Terminates Stockholder Rights Plan PR Newswire  - Sep 26, 2016 MAIDEN, N.C., Sept. 26, 2016 /PRNewswire/ -- Air T, Inc.   today announced that a special committee of independent members of its Board of Directors voted to amend Air T's stockholder rights plan adopted in December 2014 to&nbsp;..."
p2
aS'Traders Take Note: Air T Inc  Stock Drops, Weakness in Technical ... CML News - 13 hours ago Take Note: Air T Inc  has hit some technical weakness in its momentum, and while it has not broken down all the way through support -- watch the key levels that we discuss below and further, watch the stochastics and technical oscillators ...'
p3
aS'Air T, Inc. Completes Investment In Delphax Technologies PR Newswire  - Dec 3, 2015 3, 2015 /PRNewswire/ -- Air T, Inc.  today announced that it has completed its investment in Delphax Technologies, Inc. and its subsidiary, Delphax Technologies Canada Limited, pursuant to the previously announced&nbsp;...'
p4
aS"BRIEF-Biglari Capital enters securities purchase agreement with Air T Inc Reuters - Jul 5, 2016 Reuters is the news and media division of Thomson Reuters. Thomson Reuters is the world's largest international multimedia news agency, providing investing news, world news, business news, technology news, headline news, small business news, news&nbsp;..."
p5
aS'The Plot Thickens At Air T Seeking Alpha - Aug 18, 2016 Air T operates as a contract air cargo carrier, and a provider of ground support equipment and services in the aviation industry, and is morphing into a diversified holding company.'
p6
aS'Delphax Closes On Financing Agreement With Air T, Inc. PR Newswire  - Dec 3, 2015 3, 2015 /PRNewswire/ -- Delphax Technologies Inc. , a global provider of high-speed digital printing equipment, today announced that it has closed on a financing agreement with Air T, Inc.,  that will support the&nbsp;...'
p7
aS"Insider Trading Activity Air T, Inc.   CEO Bought 1457 shares of ... Market Exclusive - Mar 7, 2017 Nicholas John Swenson , CEO of Air T, Inc.  reportedly Bought 1,457 shares of the company's stock at an average price of 20.99 for a total transaction amount of $30,582.43 SEC Form.Insider Trading at Air T Inc.? - BBNS"
p8
aS"Insider Trading Activity Air T, Inc.   CEO Bought 100 shares of ... Market Exclusive - Mar 14, 2017 Nicholas John Swenson , CEO of Air T, Inc.  reportedly Bought 100 shares of the company's stock at an average price of 20.8 for a total transaction amount of $2,080.00 SEC Form."
p9
aS"Insider Trading Activity Air T, Inc.   CEO Bought 400 shares of ... Market Exclusive - Mar 16, 2017 Nicholas John Swenson , CEO of Air T, Inc.  reportedly Bought 400 shares of the company's stock at an average price of 21.04 for a total transaction amount of $8,416.00 SEC Form.Air T Inc  Files Form 4 Insider Buying : Nicholas John Swenson Buys 400 ... - Energy Index"
p10
a.