(lp0
S"AstroNova, Inc.  Ex-Dividend Date Scheduled for March 21, 2017 Nasdaq - 15 hours ago AstroNova, Inc.  will begin trading ex-dividend on March 21, 2017. A cash dividend payment of $0.07 per share is scheduled to be paid on March 30, 2017.Trader Alert: Unusual Volume Spotted in AstroNova, Inc.  - Melville ReviewTop Positive Mover of Friday: AstroNova, Inc.'s  stock price finalizes ... - WsNews 4investors"
p1
aS'AstroNova Declares Regular Quarterly Dividend Business Wire  - Mar 13, 2017 WEST WARWICK, R.I.----AstroNova, Inc. , a global leader in data visualization technologies, today announced that the Directors of the Company have declared a regular quarterly cash dividend of $0.07 per share on its&nbsp;...'
p2
aS'Stock Returns: AstroNova Inc  versus TransAct Technologies ... CML News - 10 hours ago This is a snapshot to compare the stock returns for AstroNova Inc  versus TransAct Technologies Incorporated  .'
p3
aS"AstroNova Inc : Ex-dividend is coming in 3 days, should you buy? Simply Wall St - Mar 17, 2017 On the Thu 30 Mar 2017, AstroNova  will pay shareholders of record a dividend of $0.07 per share, but investors must have settled ownership of the company's stock by the Tue 21 Mar 2017, in order to qualify.The AstroNova Inc  Cut to C+ at TheStreet - Petro Global News 24TheStreet Downgrades AstroNova Inc  to C+ - Community Financial News"
p4
aS'Stock Returns: AstroNova Inc  versus Avid Technology Inc (NASDAQ ... CML News - Mar 15, 2017 This is a snapshot to compare the stock returns for AstroNova Inc  versus Avid Technology Inc  . The stock return points we compare look at the last three-months, six-months and twelve-months.AstroNova  At $13.60 Forms Bottom; Barnes &amp; Noble Has 1.23 Sentiment - Wolcott Daily'
p5
aS'AstroNova Completes Acquisition of European Digital Printing Manufacturer ... Business Wire  - Feb 2, 2017 WEST WARWICK, R.I.----AstroNova, Inc. , a global leader in data visualization technologies, has completed the previously announced acquisition by its wholly owned Danish subsidiary, ANI ApS, of Trojanlabel ApS,&nbsp;...'
p6
aS'AstroNova Inc  Downgraded by TheStreet to C+ Chaffey Breeze - Mar 15, 2017 AstroNova Inc  was downgraded by analysts at TheStreet from a b rating to a c+ rating in a research report issued to clients and investors on Monday.AstroNova Reports Record Revenue for the Fourth Quarter and Full Year 2017 - Business Wire AstroNova Inc  Rating Lowered to C+ at TheStreet - BNB Daily '
p7
aS'AstroNova Wins Contract with Boeing to Supply ToughWriter 5 Business Wire  - Jul 8, 2016 AstroNova, Inc.  announced on Friday, July 8, 2016 that it has been selected by The Boeing Company to provide the ToughWriter 5 model flight deck printer for its B777X aircraft under a multi-year agreement.'
p8
aS'AstroNova Inc  Announces Quarterly Dividend of $0.07 BNB Daily  - Mar 16, 2017 AstroNova logo AstroNova Inc  announced a quarterly dividend on Monday, March 13th. Shareholders of record on Thursday, March 23rd will be given a dividend of 0.07 per share on Thursday, March 30th.The AstroNova Inc  Downgraded by TheStreet to C+ - Petro Global News 24AstroNova Inc  Cut to C+ at TheStreet - The Cerbat Gem'
p9
aS'Stock Returns: AstroNova Inc  versus USA Technologies Inc (NASDAQ ... CML News - Mar 10, 2017 This is a snapshot to compare the stock returns for AstroNova Inc  versus USA Technologies Inc  .'
p10
a.