(lp0
S'Altona Energy Proactive Investors UK - May 29, 2015 Altona Energy Plc, formerly Altona Resources Plc, is engaged in the evaluation of the development of an integrated coal-to-liquid plant and co-generation power facility, supported by an open-cut coal mine at its Arckaringa Project in South Australia.'
p1
aS'Equity Insight: Indicator Review for Altona Energy PLC  BVN - Dec 19, 2016 Investors may want to examine some technical indicators when studying a stock. Currently, the 14-day Commodity Channel Index  for Altona Energy PLC  is sitting at -104.46. CCI is an indicator used in technical analysis that was designed by&nbsp;...'
p2
aS'Northland Capital Partners View on the City - Premier African Minerals ... Proactive Investors UK - Oct 18, 2016 ... the overlapping area covered by PEL Application 604, which was lodged by Sapex Limted a 100%-owned subsidiary of Linc Energy . The PEL application follows talks with the South Australian Government, which remains supportive.'
p3
aS'Global Coal Market is expected to grow at a CAGR of 11.2% to reach $22.0 ... Satellite PR News  - Feb 6, 2017 Some of the top players in global coal market include Altona Energy Plc, Anglo Pacific Group plc, Arch Coal, BHP Billiton Ltd.'
p4
aS'Market Movers - Top risers and fallers between 13:00 and 14:00 Stock Market Wire - Feb 14, 2017 Overall Market Altona Energy 0.65 +36.84% Evgen Pharma 27.50 +25.00% Golden Saint Resources 0.03 +18.18% Caledonian Trust 125.00 +8.70% PowerHouse Energy 1.48 +7.25% AFC Energy 12.00 -27.27% Baron Oil 0.39 -14.44% Auctus Growth 30.50 ... UPDATE: Dollar ...'
p5
aS'Market Movers - Top risers and fallers between 10:00 and 11:00 Stock Market Wire - Feb 17, 2017 ... Draganfly Investments 0.75 +11.11% Kimberly Enterprises N.V. 0.65 +8.33% Ncondezi Energy Limited 8.12 +6.56% Brave Bison Group 1.38 -26.60% Xtract Resources 0.02 -18.18% Emmerson Ord Npv 2.75 -12.00% Thor Mining 0.70 -9.68% Altona Energy 0.82 ...'
p6
aS'Metminco rallies after finance round Proactive Investors UK - Feb 14, 2017 Fuel cell firm AFC Energy plc  is to raise 8.1mln in three stages; a placing of up to 58.5mln new shares, a subscription of up to 1.5mln new shares and an open offer of up to 20.7mln shares.'
p7
aS"Australia  Next Petro Superstate? OilPrice.com - Jul 17, 2013 Australia's massive mineral exports allowed it to weather the global recession, which began in 2008, quite nicely. The U.S. government's Energy Information Administration noted in its country's analysis for Australia, Australia, rich in hydrocarbons ..."
p8
aS"Day ahead: Deluge of UK data to dominate in absence of corporate news Proactive Investors UK - Feb 9, 2017 In the absence of almost any corporate news, aside from a trading update by Electrocomponents PLC , the City's main focus on Friday will be on a big batch of UK economic data."
p9
aS'GameAccount Network Proactive Investors UK - Jan 19, 2014 GameAccount Network has a breadth of experience and knowledge in online gaming. The company has evolved since 2002 into a recognised gaming industry leader delivering Internet Gaming Systems, bespoke and off the shelf.'
p10
a.