(lp0
S"Analytical Guide for TD Ameritrade Holding Corporation , Apache ... The USA Commerce - 15 hours ago Shares of TD Ameritrade Holding Corporation  dropped -0.27% to $40.29. During the trading on 03/17/2017, Company's stock ranged from $40.02 to $40.43. The relative strength index or RSI highlights overbought  and oversold&nbsp;..."
p1
aS"Reliable stocks in today's share market: Apache Corporation  The News Journal - 8 hours ago The market cap of 19447.72 for Apache Corporation in today's market indicated its current strength, making the company's shares a lucrative one.How has Apache Corporation performed recently? - The Daily LeicesterStocks to Track: Apache Corporation  , Sunworks, Inc  - NYSE Journal "
p2
aS'Apache Is Selling At A Discount - Wait Or Plunge In? Seeking Alpha - Mar 4, 2017 Apache Corporation  did set itself up for some failure when it announced the potential its discovery at Alpine High represented, with the market rewarding it for the growth possibilities in the years ahead.'
p3
aS"How Does the Chart Look for Apache Corporation ? The USA Commerce - Mar 15, 2017 We have gathered the technical data on Apache Corporation , and see some interesting trends in the stock's behavior of late."
p4
aS'Apache says Alpine High discovery, despite skeptics, has even greater potential Houston Chronicle - Feb 24, 2017 The Alpine High oil and gas field, touted by Houston-based Apache Corp. as a major find, has greater potential than the company initially reported despite disappointing early production results, CEO John Christmann IV assured shareholders Thursday.Apache Corporation: Apache Corporation announces fourth-quarter and full-year ... - The Wall Street Transcript'
p5
aS'Stock Alert and Holding Pattern: Apache Corporation Realized Volatility Hits ... CML News - Mar 19, 2017 Before we cover the full analysis we make a quick alert here that Apache Corporation  has seen its stock price move at an inflection point level.'
p6
aS'Apache Is Abandoning Free Cash Flows, And It Makes Sense Seeking Alpha - Mar 3, 2017 Apache generated enough cash flows last year to fully fund its CapEx and dividends, unlike a vast majority of its peers. But following the improvement in oil prices, the company has decided to increase CapEx by 60%, which will likely lead to negative ...'
p7
aS'Apache  Q4 2016 Results - Earnings Call Transcript Seeking Alpha - Feb 24, 2017 Good afternoon. My name is Paige and I will be your conference operator today. At this time, I would like to welcome everyone to the Apache Corporation Fourth Quarter and Full-year 2016 Results Call. All lines have been placed on mute to prevent any&nbsp;...Apache Corporation  Dips 3.51% for February 23 - Equities.comDrilling Down Into Apache Corporation  - StockNewsJournal'
p8
aS'Analyst Downgrades  Apache Corporation  Stock Gets Downgraded By ... Market Exclusive - Feb 28, 2017 Today, Apache Corporation  stock was downgraded by Bank of America Corp from Underperform to . There are 3 sell ratings, 16 hold ratings, 4 buy ratings on the stock.Apache downgraded at Barclays on reduced oil growth view - Seeking AlphaDigging Up the Facts on Apache Corporation  - StockNewsJournal'
p9
aS'EPS Predicted Of Apache Corporation  At $0.6425 Transcript Daily - Mar 19, 2017 Analysts are expecting Apache Corporation  to report mean EPS of $0.6425 for the quarter ending 2017-03-31. Financial report can be issued on 2017-05-04.'
p10
a.