(lp0
S'Arrow Financial Corporation  Ex-Dividend Date Scheduled for February 27 ... Nasdaq - Feb 24, 2017 Arrow Financial Corporation  will begin trading ex-dividend on February 27, 2017. A cash dividend payment of $0.25 per share is scheduled to be paid on March 15, 2017.'
p1
aS'Arrow Financial Corporation Declares December Cash Dividend PR Newswire  - Oct 26, 2016 GLENS FALLS, N.Y., Oct. 26, 2016 /PRNewswire/ -- The Board of Directors of Arrow Financial Corporation  on October 26, 2016, declared a quarterly cash dividend of $0.25 per share payable December 15, 2016, to shareholders of&nbsp;...'
p2
aS"What's Ahead For This Dividend Darling: Arrow Financial Corporation  Aiken Advocate - 9 hours ago If investors are looking for a solid dividend stock with upside potential, Arrow Financial Corporation  could be one that ticks all the boxes."
p3
aS'Stock Returns: Arrow Financial Corporation  versus Great Southern ... CML News - Mar 19, 2017 This is a snapshot to compare the stock returns for Arrow Financial Corporation  versus Great Southern Bancorp Inc  .'
p4
aS"Is Arrow Financial Corporation's  11.9% ROE Good Enough When Compared To ... Simply Wall St - Mar 3, 2017 While Arrow Financial Corporation's  ROE of 11.9% over the past year tells us that the company generated 11.9 cents on every dollar invested by shareholders, we must consider it in the light of its industry's performance and other factors&nbsp;..."
p5
aS'This Albany area bank CEO just got a raise Albany Business Review - Jun 2, 2016 Arrow Financial is the parent company of Glens Falls National Bank and Saratoga National Bank and Trust Co. The banks expanded their presence in the Albany area in the last few years, experiencing double-digit commercial lending&nbsp;...'
p6
aS"ARROW FINANCIAL CORPORATION  Files An 8-K Departure of Directors ... Market Exclusive - Feb 7, 2017 Arrow Financial Corporation  is a bank holding company. The Company's banking subsidiaries are Glens Falls National Bank and Trust Company  and Saratoga National Bank and Trust Company ."
p7
aS'Stock Returns: Arrow Financial Corporation  versus Bank of Marin ... CML News - Mar 1, 2017 This is a snapshot to compare the stock returns for Arrow Financial Corporation  versus Bank of Marin Bancorp  .'
p8
aS'Stock Returns: Arrow Financial Corporation  versus Ames National ... CML News - Feb 22, 2017 This is a snapshot to compare the stock returns for Arrow Financial Corporation  versus Ames National Corporation  .Arrow Financial Co.  to Issue Quarterly Dividend of $0.25 on March 15th - The Cerbat Gem'
p9
aS'Stock Returns: BancFirst Corporation  is Beating Arrow Financial ... CML News - Feb 27, 2017 This is a snapshot to compare the stock returns for Arrow Financial Corporation  versus BancFirst Corporation  .'
p10
a.