(lp0
S"Asure Software, Inc.  Files An 8-K Entry into a Material ... Market Exclusive - 6 hours ago Asure Software, Inc. is a global provider of cloud-based software-as-a-service  solutions that help companies to bring people, time, space and assets together.Shares Losing Ground: Asure Software, Inc.  - Aiken AdvocateA look at Asure Software, Inc. 's track record of earnings - Post Analyst"
p1
aS'CORRECTING and REPLACING  Asure Software Reports Record Fourth Quarter and ... GlobeNewswire  - 13 hours ago Asure Software, Inc. , a leading provider of Human Capital Management  and workplace management software, reported results for the fourth quarter and year ended December 31, 2016.'
p2
aS'Asure Software Closes Three Acquisitions To Start 2017 Seeking Alpha - Jan 4, 2017 The company acquired two resellers and one HR outsourcing service company for a total of $11.6 million consideration.'
p3
aS'Asure Software buys Florida software company Austin Business Journal  - Mar 22, 2016 Austin-based Asure  said it closed the deal to acquire Mangrove, which is based in Tampa, on March 21. Asure paid $11.3 million in cash - which it financed through its credit line - and gave a $6 million promissory note to Richard ...Asure Software Acquires Mangrove Software - GlobeNewswire Austin tech firm buys Tampa software company for $17.3 million - Tampa Bay Business Journal'
p4
aS'Asure Software, Inc. Announces Pricing of Public Offering of Common Stock GlobeNewswire  - Dec 6, 2016 AUSTIN, Texas, Dec. 06, 2016  -- Asure Software, Inc. , a leading global provider of Human Capital Management and workplace management software, today announced the pricing of an underwritten public offering of&nbsp;...'
p5
aS'BRIEF-Asure Software Inc files for mixed shelf of upto $75 mln - SEC filing Reuters - Feb 15, 2017 OTTAWA, March 8 Canadian housing starts inched higher in February from the previous month, and building permits rose in January as the long housing boom continued to defy expectations of a slowdown, separate reports showed on Wednesday.'
p6
aS"Asure Software COO resigns, replaced by company exec Austin Business Journal - Sep 3, 2016 Asure Software Inc.'s chief operating officer resigned Friday and was replaced by the company's senior vice president of technology."
p7
aS'News Asure Software Inc.ASUR Wall Street Journal - Feb 11, 2011 News Asure Software Inc.ASUR. Significant News Only. 8 hours ago; Press Release. Asure Software Sets Fourth Quarter and Full Year 2016 Earnings Call for Monday, March 20, 2017 at 11 a.m.'
p8
aS'Asure Software: An Undervalued SaaS Growth Story With Substantial Upside Potential Seeking Alpha  - Feb 2, 2015 Asure Software  is a cloud-based workforce management software solutions provider based in Austin, TX. Founded in 1985, Asure is a $30M microcap company with an impressive growth story. The company is profiting by saving businesses&nbsp;...'
p9
aS'Asure Software Sets Fourth Quarter and Full Year 2016 Earnings Call for Monday ... Nasdaq - Mar 13, 2017 AUSTIN, Texas, March 13, 2017  -- Asure Software, Inc. , a leading provider of Human Capital Management  and workplace management software, will hold a conference call on Monday, March 20 at 11:00 a.m.'
p10
a.