(lp0
S'Stock Returns: Atmos Energy Corporation  versus New Jersey Resources ... CML News - 10 hours ago This is a snapshot to compare the stock returns for Atmos Energy Corporation  versus New Jersey Resources Corporation  .Atmos Energy Corporation  Moves Higher on Volume Spike for March 17 - Equities.comAtmos Energy Co. - Receive News &amp; Ratings Daily - BBNS'
p1
aS'Atmos Energy Corporation  Ex-Dividend Date Scheduled for February 23, 2017 Nasdaq - Feb 22, 2017 Atmos Energy Corporation  will begin trading ex-dividend on February 23, 2017. A cash dividend payment of $0.45 per share is scheduled to be paid on March 13, 2017.Atmos Energy Corporation Price Volatility Hits A Collapsing Low - CML NewsAtmos Energy Corporation  To Go Ex-Dividend on February 23rd - The Cerbat Gem'
p2
aS'Ex-Dividend Reminder: Tractor Supply, Great Plains Energy and Atmos Energy Corp. Nasdaq - Feb 21, 2017 Looking at the universe of stocks we cover at Dividend Channel , on 2/23/17, Tractor Supply Co. , Great Plains Energy Inc , and Atmos Energy Corp.  will all trade ex-dividend for their respective upcoming&nbsp;...'
p3
aS'Atmos Energy Corporation Announces Departure of Bret J. Eckert as Senior Vice ... Yahoo Finance - Jan 19, 2017 Atmos Energy Corporation  today announced that Bret J. Eckert will be leaving the company as Senior Vice President and Chief Financial Officer to pursue other opportunities, effective February 1, 2017.Atmos Energy Corporation Names Christopher T. Forsythe Chief Financial Officer - Business Wire '
p4
aS"CenterPoint Energy signs agreement with subsidiary of Atmos Energy Corporation ... PR Newswire  - Oct 31, 2016 HOUSTON, Oct. 31, 2016 /PRNewswire/ -- CenterPoint Energy Services, Inc. , an indirect, wholly-owned subsidiary of CenterPoint Energy, Inc. , announced that it had signed an agreement under which CES will acquire Atmos Energy's&nbsp;...CenterPoint Energy to buy nonregulated gas marketing subsidiary from Dallas co. - Houston Business Journal"
p5
aS'Atmos Energy Corporation  Ex-Dividend Date Scheduled for November 23, 2016 Nasdaq - Nov 22, 2016 Atmos Energy Corporation  will begin trading ex-dividend on November 23, 2016. A cash dividend payment of $0.45 per share is scheduled to be paid on December 12, 2016.'
p6
aS'Forsythe to succeed departing Atmos Energy CFO Oil & Gas Financial Journal - Jan 20, 2017 Atmos Energy Corp.  senior vice president and CFO Bret J. Eckert will leave the company to pursue other opportunities, effective February 1, 2017.'
p7
aS"Atmos Energy Corporation Reports Earnings for Fiscal 2017 First Quarter ... Business Wire  - Feb 7, 2017 Our first quarter results reflect the positive execution of our growth strategy, said Kim Cocklin, Chief Executive Officer of Atmos Energy Corporation. Ongoing capital investments made to our infrastructure have enhanced the safe and reliable ...Atmos Energy's  CEO Kim Cocklin on Q1 2017 Results - Earnings Call Transcript - Seeking AlphaAtmos Energy Corporation  Announces Earnings Results, Beats Expectations ... - The Cerbat Gem"
p8
aS'Atmos Energy Corporation Promotes Kevin Akers to Senior Vice President, Safety ... Business Wire  - Nov 30, 2016 DALLAS----Atmos Energy Corporation  today announced two important promotions to its senior management team, effective January 1, 2017.'
p9
aS"Atmos Energy Corporation Announces Retirement of Thomas C. Meredith from Board ... Business Wire  - Feb 9, 2017 Atmos Energy Corporation, headquartered in Dallas, is the country's largest natural-gas-only distributor, serving over three million natural gas distribution customers in over 1,400 communities in eight states from the Blue Ridge Mountains in the East ..."
p10
a.