(lp0
S'John Fery, former Boise Cascade CEO and leading Idaho philanthropist, dies at 86 La Grande Observer - Feb 13, 2017 Fery worked for Boise Cascade for nearly 40 years and served as CEO from 1972 through 1994, an era when the company was its most visible and active in the community.'
p1
aS'Goldman Neutral On Paper/Forest Products: Prefers Boise Cascade, Weyerhauser Benzinga - Sep 22, 2016 Boise Cascade: Buy; $34 price target, suggesting 38 percent upside. International Paper Co : Neutral; $49 price target, suggesting 1 percent upside.'
p2
aS'Boise Cascade completes lump-sum payment to active and former employees Pensions & Investments - Oct 27, 2016 Boise Cascade Co., Boise, Idaho, offered lump sums to active employees, as well as former employees vested in its defined benefit plan, the company announced in its 10-Q filing on Wednesday.'
p3
aS'Boise Cascade Company Fourth Quarter 2016 Earnings Webcast and Conference Call Nasdaq - Feb 14, 2017 BOISE, Idaho - Boise Cascade Company  will host a webcast and conference call to discuss 2016 fourth quarter earnings on Friday, February 24, at 11 a.m.'
p4
aS"Don't be afraid to deliver bad news, says Boise Cascade exec Idaho Statesman - Sep 25, 2016 John Sahlberg has worked for Boise Cascade for 34 years, seeing the lumber, construction and wood products company through its many corporate changes - growing, shrinking and moving on and off the stock market."
p5
aS'A word with Tom Corrick, CEO of Boise Cascade Idaho Business Review - Jan 25, 2016 Tom Corrick is CEO of Boise Cascade Company, an offshoot of the storied wood products giant that once employed 50,000 people worldwide and owned 2.2 million acres of timberland in Idaho and other states.'
p6
aS"At long last, Madison Dearborn says bye-bye Boise Crain's Chicago Business  - Dec 3, 2013 An entity controlled by Madison Dearborn sold $532.7 million worth of Boise Cascade Co. shares in a pair of transactions, one last month and the other in late July."
p7
aS'Boise Cascade Co - Receive News &amp; Ratings Daily BBNS - Mar 19, 2017 Boise Cascade logo Dimensional Fund Advisors LP boosted its stake in shares of Boise Cascade Co  by 14.3% during the fourth quarter, according to its most recent Form 13F filing with the Securities and Exchange Commission .'
p8
aS'Boise Cascade Co  Shares Bought by ART Advisors LLC BNB Daily  - Mar 12, 2017 Boise Cascade logo A.R.T. Advisors LLC boosted its stake in Boise Cascade Co  by 98.3% during the fourth quarter, Holdings Channel reports.The IG Investment Management LTD. Has $225000 Position in Boise Cascade Co  - DailyQuint'
p9
aS'Boise Cascade Co Q4 Earnings Miss Estimates; Stock Dives ValueWalk - Feb 19, 2015 The shares of Boise Cascade plummeted after reporting fourth quarter earnings that missed the consensus estimates of Wall Street analysts.'
p10
a.