(lp0
S"Why Barnes &amp; Noble Inc. Stock Rose Today Motley Fool - Mar 16, 2017 More specifically, Barnes &amp; Noble's board has opted to hold steady its quarterly cash dividend at $0.15 per share, payable on April 28, 2017, to shareholders of record as of the close of business on April 7, 2017.Barnes &amp; Noble, Inc.  Sees Unusually-High Trading Volume After Dividend ... - Chaffey BreezeBarnes &amp; Noble announces new stock repurchase program of up to $50 million of ... - EPR Retail News "
p1
aS"Barnes &amp; Noble, Inc. Reduces Guidance After a Tough Holiday Quarter Motley Fool - Mar 3, 2017 Barnes &amp; Noble  released weaker-than-expected results for the fiscal third quarter 2017 ended January 28, 2017, punctuated by declining profitability, lower traffic, and the continued slide of the company's NOOK business during the crucial&nbsp;...Barnes &amp; Noble dividend on the line? - Seeking Alpha"
p2
aS'Earnings Reaction History: Barnes &amp; Noble, Inc., 40.0% Follow-Through ... Nasdaq - Mar 2, 2017 Barnes &amp; Noble, Inc.  is due to issue its quarterly earnings report in the upcoming extended-hours session.'
p3
aS'Barnes &amp; Noble, Inc.  held by 36 SEC 13F Filers Post Analyst - 20 hours ago Barnes &amp; Noble, Inc.  reached 11.24% versus a 1-year low price of $8.45. The stock was last seen 2.73% higher, reaching at $9.4 on Mar. 17, 2017.Zacks Rank on Barnes &amp; Noble, Inc.  based on Estimated Earnings - Normangee StarInsider Trading at Barnes &amp; Noble Education Inc? - Chaffey Breeze'
p4
aS'Barnes &amp; Noble, Inc.  By The Numbers: Valuation in Focus Business Review - Mar 17, 2017 Barnes &amp; Noble, Inc.  has an ERP5 rank of 6544. The ERP5 Rank is an investment tool that analysts use to discover undervalued companies.'
p5
aS"Barnes &amp; Noble to host in-store building event to conclude three-month-long ... EPR Retail News  - Mar 7, 2017 New York, New York, 2017-Mar-07 - /EPR Retail News/ - Barnes &amp; Noble, Inc. , the nation's largest retail bookseller and a leading retailer of content, digital media and educational products, today  announced, in partnership ...Barnes &amp; Noble Concludes Three-Month-Long Celebration of The LEGO Batman ... - Military Technologies"
p6
aS"Barnes &amp; Noble Education sales slip MarketWatch - Feb 28, 2017 Barnes &amp; Noble Education Inc.'s sales weakened in the latest quarter as the college bookstore operator grappled with lower enrollment.Barnes &amp; Noble Education Acquires MBS for $174.2 Million - Yahoo FinanceBarnes &amp; Noble, Inc.  Stock Rating Lowered by Zacks Investment Research - The Cerbat Gem"
p7
aS'Dividend Yield &amp; Upside For Barnes &amp; Noble, Inc.  Aiken Advocate - 9 hours ago Long term investors looking for stable stocks should take a look at Barnes &amp; Noble, Inc. . The stock currently provides a dividend yield of 6.38% for the Services company.'
p8
aS"Option Trading: Barnes &amp; Noble Inc  Winning Short Put Spreads Can ... CML News - Mar 17, 2017 We're going to look at a wonderful result using short put spreads for Barnes &amp; Noble Inc by pinpointing earnings risk, and then navigating around it."
p9
aS'Barnes &amp; Noble Inc.  Plunges 5.56% on March 09 Equities.com - Mar 9, 2017 Barnes &amp; Noble Inc.  had a rough trading day for Thursday March 09 as shares tumbled 5.56%, or a loss of $-0.5 per share, to close at $8.50.Option Market: Barnes &amp; Noble Inc Risk Hits An Inflection Point - CML NewsBarnes &amp; Noble, Inc.  to Post Q3 2018 Earnings of $0.98 Per Share, Craig ... - Chaffey Breeze'
p10
a.