(lp0
S'Bob Evans Farms to sell restaurants and buy potatoes, stock soars MarketWatch - Jan 24, 2017 Bob Evans Farms Inc. BOBE, +0.98% announced a pair of acquisitions Tuesday along with an executive change meant to focus the company on grocery store sales, and shares jumped 10% in late trading.'
p1
aS'Bob Evans Farms, Inc.  Ex-Dividend Date Scheduled for March 09, 2017 Nasdaq - Mar 8, 2017 Bob Evans Farms, Inc.  will begin trading ex-dividend on March 09, 2017. A cash dividend payment of $0.34 per share is scheduled to be paid on March 27, 2017.Bob Evans food products thriving with split from restaurants looming - Columbus Business FirstBob Evans Farms raises fiscal 2017 outlook, even as profit and sales fall ... - MarketWatch'
p2
aS'Bob Evans Farms to Attend Two Upcoming Investor Conferences GlobeNewswire  - Feb 23, 2017 NEW ALBANY, Ohio, Feb. 23, 2017  -- Bob Evans Farms, Inc.  today announced that President, BEF Foods, Mike Townsley and Chief Administrative and Chief Financial Officer, Mark Hood will host investor meetings at&nbsp;...'
p3
aS'Why Bob Evans Farms, Inc. Stock Slipped 15% Last Month Motley Fool - Jul 7, 2016 What: Shares of Bob Evans Farms, Inc.  lost 15% in June as the casual dining chain delivered an underwhelming fourth-quarter earnings report and outlook for fiscal 2017.'
p4
aS'Michigan Bob Evans restaurants part of $565 million proposed sale MLive.com - Jan 27, 2017 ANN ARBOR, MI - Bob Evans restaurants across the United States, including Michigan, could switch hands after the company announced changes to its business structure and a possible sale of its more than 500 locations.Bob Evans Farms transforms itself from a restaurant chain to a food manufacturer - PotatoProBob Evans restaurants to be sold; area locations to remain open - Uniontown Herald Standard'
p5
aS"Bob Evans Farms' Story: Is There Any Value Left For Shareholders? ValueWalk - Feb 9, 2017 Despite positive coverage in the media about reportedly successful activist investor campaign at Bob Evans Farms Inc, I think one can hardly call this a success.Bob Evans Farms, Inc.  Stock Rating Lowered by Zacks Investment Research - The Cerbat GemWhy activists are targeting restaurants - Nation's Restaurant News"
p6
aS"Bob Evans Farms, Inc.  Ex-Dividend Date Scheduled for December 08, 2016 Nasdaq - Dec 7, 2016 Bob Evans Farms, Inc.  will begin trading ex-dividend on December 08, 2016. A cash dividend payment of $0.34 per share is scheduled to be paid on December 23, 2016.Bob Evans Farms'  CEO Saed Mohseni on Q2 2017 Results - Earnings Call ... - Seeking AlphaIs a breakup in store for Bob Evans? - Food Business News "
p7
aS"Dimensional Fund Advisors LP Sells 33361 Shares of Bob Evans Farms Inc  Chaffey Breeze - 16 hours ago Bob Evans Farms logo Dimensional Fund Advisors LP lowered its stake in shares of Bob Evans Farms Inc  by 3.5% during the fourth quarter, according to its most recent 13F filing with the SEC.Bob Evans Farms, Inc.'s  stock price is Worth at $61.59 while ends ... - Hot Stocks PointBob Evans Farms, Inc.  Mean Price Target At $65.00 - Equities Focus"
p8
aS"Bob Evans looks to reconnect with founding family Columbus Dispatch - Jun 3, 2016 Jewell Evans, widow of Bob Evans, looks at a plaque about her late husband's uncle Emerson Evans, one of the founders of Bob Evans Farms, Inc., as she is joined on a tour by CEO Saed Mohseni, her caretaker Dee Thaxton, her son Steve Evans and senior&nbsp;..."
p9
aS"Bob Evans Farms Inc.  Breaks into New 52-Week High on March 16 Session Equities.com - Mar 16, 2017 Shares of Bob Evans Farms Inc.  broke into a new 52-week high yesterday, hitting a peak of $61.40. Shares closed at $60.99 after opening at $60.99 for a move of 0.44%.Stock Returns: Bob Evans Farms Inc  is Beating BJ's Restaurants ... - CML NewsNew York State Teachers Retirement System Maintains Stake in Bob Evans Farms ... - Chaffey Breeze"
p10
a.