(lp0
S"Aviragen Therapeutics Inc : What's Next? Insider Financial - Feb 16, 2017 Aviragen Therapeutics Inc  is not having a good week. The company just put out data from a phase 2 study of its lead development asset, and has taken a close to 40% hit on the news.Aviragen Therapeutics Announces Top-Line Results From Phase 2b SPIRITUS Trial ... - Clinical Leader"
p1
aS'Aviragen Therapeutics slammed again by its second trial failure in days, this ... Endpoints News - Feb 13, 2017 In back-to-back setbacks, Aviragen Therapeutics $AVIR says that its lead drug vapendavir flunked a Phase IIb in moderate to severe asthmatics with a rhinovirus infection.'
p2
aS'Biota Pharmaceuticals Is Now Aviragen Therapeutics Seeking Alpha - Apr 27, 2016 Subsequent to our last update on Aviragen Therapeutics, the company has been busy attending and presenting at industry conferences.'
p3
aS"Aviragen Therapeutics'  CEO Joseph Patti on Q2 2017 Results - Earnings ... Seeking Alpha - Feb 3, 2017 Good day, ladies and gentlemen, and welcome to the Aviragen Therapeutics, Inc. Second Quarter 2017 Financial Results Conference Call.Aviragen Hits 52-Week Low on Drug Failure  - Investopedia"
p4
aS"Breaking Down: Aviragen Therapeutics Inc  Stock Drop Below ... CML News - 13 hours ago Aviragen Therapeutics Inc has a one bull  technical rating because it's trading below the 10 day, 50 day and 200 day simple moving averages while the 10-day moving average is below the 50-day moving average and the 50-day moving&nbsp;..."
p5
aS'Examining the Numbers on Shares of Aviragen Therapeutics, Inc.  Baxter Review - 15 hours ago Aviragen Therapeutics, Inc.  currently has a Gross Margin  ratio of 0.173451. Robert Novy-Marx has provided investors with insights on finding high-quality value stocks.'
p6
aS'Aviragen Therapeutics Completes Royalty Deal With HealthCare Royalty Partners ... GlobeNewswire  - Apr 25, 2016 ATLANTA, April 25, 2016  -- Aviragen Therapeutics, Inc.   a pharmaceutical company that is developing the next generation of antivirals, today announced that it has signed a&nbsp;...'
p7
aS'BRIEF-Aviragen Therapeutics announces top-line results from phase 2b SPIRITUS ... Reuters - Feb 13, 2017 Feb 13 Aviragen Therapeutics Inc. * Aviragen Therapeutics announces top-line results from phase 2b SPIRITUS trial of Vapendavir.'
p8
aS'Analyst Advice And Earnings Insight: Aviragen Therapeutics, Inc. (AVIR ... Post Analyst - Mar 17, 2017 Aviragen Therapeutics, Inc.  has made its way to a 12-month decline of -54.66%. Turning to Alimera Sciences, Inc. , its shares were trading at $1.69 a gain of $0.16, on the trading floor.'
p9
aS"Biota Pharma  Becomes Aviragen Therapeutics; Will Trade Under 'AVIR' StreetInsider.com - Apr 12, 2016 Biota Pharmaceuticals, Inc.  announced that the Company has changed its name to Aviragen Therapeutics, Inc., , a pharmaceutical company focused on the development of the next generation of direct-acting&nbsp;..."
p10
a.