(lp0
S"BPZ Resources, Inc. Announces Effectiveness of Plan of Liquidation GlobeNewswire  - Dec 31, 2015 ... contained herein include the risks and uncertainties set forth in the Company's filings with the U.S. Securities and Exchange Commission (available at www."
p1
aS'BPZ Resources files for bankruptcy as oil price plunge claims another victim Fortune - Mar 9, 2015 BPZ Resources said Monday that it has filed for Chapter 11 protection as the Houston-based oil and gas company became just the most recent energy industry company to end up in bankruptcy after months of falling oil prices. Crude prices have tumbled by&nbsp;...BPZ Resources Inc  Loses Its Ground - Traders350Houston exploration and production company files Chapter 11 - Houston Business Journal'
p2
aS'Energy execs launch new Houston venture after bankruptcy Houston Business Journal - Feb 29, 2016 Executives and leaders from Houston-based BPZ Resources Inc.  have launched a new company focused on the acquisition of oil and gas assets in North and South America.Talara Oil &amp; Gas, LLC Announces New Venture to Acquire Oil and Gas Assets - GlobeNewswire '
p3
aS'Form 8-K BPZ RESOURCES, INC. For: Jul 30 StreetInsider.com - Aug 6, 2015 As previously reported, on March 9, 2015, BPZ Resources, Inc.  filed a voluntary petition with the United States Bankruptcy Court in the Southern District of Texas  under Chapter 11 of Title 11 of the United ...'
p4
aS'Penny Stocks Alerts for Soligenix, EKSO BIONICS, Terra Tech, BPZ Resources ... PR Newswire  - Mar 4, 2015 Soligenix Inc : By the end of last trading, the Soligenix  shares soared 12.50%  to US$1.80 with about 0.397 million shares exchanged hands for the session, compared to its average volume of 0.146 million shares.'
p5
aS'Energy Investors Celebrate Price Jump, Then Call the Lawyers Bloomberg - Jun 23, 2016 s unsecured creditors and note holders of Forest Oil Co., which merged with Sabine in 2014, filed a report last week seeking a jump in recoveries.'
p6
aS'RAAM Global Energy Co. Hits Ch. 11 Law360  - Oct 28, 2015 Law360, New York  -- Kentucky-based RAAM Global Energy Co. filed for Chapter 11 bankruptcy protection Monday in Texas federal court, citing falling oil prices and the collapse of one of its oil fields and saying it is ...'
p7
aS"Oil company Quicksilver Resources files for bankruptcy protection Fortune - Mar 17, 2015 The company plans to continue providing services to Quicksilver related to existing deals. Oil prices have slid some 50 percent since June because of excessive supply, weighing down oil and gas companies' cash levels and raising debt.Quicksilver bankruptcy deals blow to LNG terminal - Campbell River MirrorQuicksilver Resources files for bankruptcy amid low commodity prices - Dallas Morning News"
p8
aS'For Texas Energy Companies, Ch. 11 Loomed Large In 2015 Law360  - Dec 22, 2015 BPZ Resources Inc. hit the Southern District the next day with $238 million in debt. Duer Wagner Oil &amp; Gas listed debt of $122 million when it filed in May, and Black Elk Energy listed $144 million in an August filing.'
p9
aS"The Best And Worst Analyst Recommendations Of 2014 TheStreet.com - Jan 8, 2015 Birchenough was optimistic about the company's &quot;efficient structure-based drug design platform [and] deep pipeline of highly selective small-molecule drugs across multiple therapeutic categories."
p10
a.