(lp0
S"BorgWarner Helps Launch Crowdfunding Campaign for 'Urban Agrihood' in Detroit PR Newswire  - Feb 21, 2017 BorgWarner Inc.  is a global product leader in clean and efficient technology solutions for combustion, hybrid and electric vehicles.Nonprofit kicks off $50000 campaign toward sustainable urban 'agrihood' in Detroit - Crain's Detroit Business"
p1
aS"Today's Brokerage Rating: BorgWarner Inc. , Radian Group Inc.  StockNewsJournal - 14 hours ago ROI deals with the invested cash in the company and the return the investor realize on that money based on the net profit of the business."
p2
aS'SHAREHOLDER ALERT: Purcell Julie &amp; Lefkowitz LLP is Investigating BorgWarner ... Yahoo Finance - Mar 17, 2017 NEW YORK, NY / ACCESSWIRE / March 17, 2017 / Purcell Julie &amp; Lefkowitz LLP, a class action law firm dedicated to representing shareholders nationwide, is investigating a potential breach of fiduciary duty claim involving the board of directors of&nbsp;...'
p3
aS'Keeping Tabs on the Technicals For BorgWarner Inc.  Rives Journal - 12 hours ago BorgWarner Inc.  currently has an FCF quality score of 2.230661. The free quality score helps estimate the stability of free cash flow.'
p4
aS'Stock Returns: Gentex Corporation  is Beating BorgWarner Inc ... CML News - 10 hours ago This is a snapshot to compare the stock returns for BorgWarner Inc  versus Gentex Corporation  . The stock return points we compare look at the last three-months, six-months and twelve-months.'
p5
aS'BorgWarner Inc.  Stake Increased by Federated Investors Inc. PA BNB Daily  - Mar 19, 2017 BorgWarner logo Federated Investors Inc. PA increased its stake in BorgWarner Inc.  by 1.7% during the fourth quarter, Holdings Channel reports.In Volatile Markets Do Analysts Think You Should Buy BorgWarner Inc. ? - The De Soto Edge'
p6
aS"BRIEF-Borgwarner CEO James Verrier's 2016 total compensation was $12.4 mln vs ... Reuters - Mar 17, 2017 Verrier's 2016 total compensation was $12.4 million versus $17.4 million in 2015 - sec filing. * Borgwarner inc - cfo ronald t. Hundzinski's 2016 total compensation was $4.5 million versus $6.3 million in 2015 Source text for Eikon: Further company ..."
p7
aS"Ex-Dividend Reminder: Tyson Foods, BorgWarner and McDonald's Corp Nasdaq - Feb 23, 2017 Looking at the universe of stocks we cover at Dividend Channel , on 2/27/17, Tyson Foods, Inc. , BorgWarner Inc , and McDonald's Corp  will all trade ex-dividend for their respective upcoming dividends. Tyson&nbsp;..."
p8
aS'Stock Price of BorgWarner Inc.  Increases 2.32% Highland Mirror - 16 hours ago BorgWarner Inc. stock performance trend indicates that the stock price has rallied 7.63% in the past 12 Weeks , but analyzing the 6 month charts for the stock , the price continues to stay positive and keep the rally at 21.55% .'
p9
aS"Top Institutional Investors That Own BorgWarner Inc.  Post Analyst - Mar 16, 2017 BorgWarner Inc.  reached 61.5% versus a 1-year low price of $27.52. The stock was last seen 2.16% higher, reaching at $43.95 on Wednesday, March 15, 2017.Most Active Stock: BorgWarner Inc.  - HugoPressAnalyst's Predictions on Investors Bancorp, Inc. , BorgWarner Inc.  - StockNewsJournal"
p10
a.