(lp0
S'Stock Returns: Boardwalk Pipeline Partners, LP  versus Summit ... CML News - 10 hours ago This is a snapshot to compare the stock returns for Boardwalk Pipeline Partners, LP  versus Summit Midstream Partners, LP  .'
p1
aS'Boardwalk Pipeline Partners: Forget Park Place, BUY Boardwalk Seeking Alpha - Jan 3, 2017 One year ago, I wrote my first Seeking Alpha article on Boardwalk Pipeline Partners  and suggested it was an excellent turnaround story.'
p2
aS'Why Investors Should Pass on Boardwalk Pipeline Partners, LP Motley Fool - Jul 14, 2016 ... for pulling crude oil and natural gas from the earth to distribution facilities and, eventually, into your gas tanks and homes.'
p3
aS"Another Quarter Goes By and Still No Distribution Raise From Boardwalk ... Motley Fool - Feb 8, 2017 Source: Boardwalk Pipeline Partners earnings release. One thing to always keep in mind when looking at Boardwalk's results is that the company's results are very seasonal, so looking at the sequential quarter doesn't really reflect how the company is ...Boardwalk Pipeline Partners'  CEO Stan Horton on Q4 2016 Results ... - Seeking AlphaBoardwalk Pipeline Partners, LP Reveals 34% Increase In Q4 Earnings - Nasdaq"
p4
aS'The Worst Mistake Boardwalk Pipeline Partners, LP Investors Can Make Right Now Motley Fool - Apr 26, 2016 Two years ago, Boardwalk Pipeline Partners  made the tough decision to slash its payout by 80%. With industry conditions deteriorating and its balance sheet weakening, the company needed that cash to reduce debt and fund some growth&nbsp;...'
p5
aS"Here's Why You Should Consider Boardwalk Pipeline Partners Seeking Alpha - Sep 27, 2016 Boardwalk Pipeline Partners LP offers an unattractive yield of just 2.4%. Boardwalk Pipeline Partners has failed to cut down its debt load, despite significantly cutting distributions."
p6
aS"Read This Before You Buy Boardwalk Pipeline Partners, LP Stock Motley Fool - Apr 14, 2016 Boardwalk Pipeline Partners  was one of the first MLPs to realize that distributing virtually every penny it made to unitholders wasn't a viable long-term strategy."
p7
aS'Boardwalk Pipeline Partners LP  Ex-Dividend Date Scheduled for February ... Nasdaq - Feb 13, 2017 Boardwalk Pipeline Partners L.P.  will begin trading ex-dividend on February 14, 2017. A cash dividend payment of $0.1 per share is scheduled to be paid on February 23, 2017.Boardwalk Pipeline Partners, LP  To Go Ex-Dividend on February 14th - BBNSBrookfield Asset Management Inc. Has $42841000 Stake in Boardwalk Pipeline ... - Community Financial News'
p8
aS"Boardwalk Pipeline Partners'  CEO Stan Horton on Q3 2016 Results ... Seeking Alpha - Oct 31, 2016 Good morning, everyone and welcome to the third quarter 2016 earnings call for Boardwalk Pipeline Partners. I'm pleased to be joined today by Mr. Stan Horton, our President and CEO and Mr. Jamie Buskill, our CFO."
p9
aS'Trading Sheet: Watching the Numbers for Boardwalk Pipeline Partners, LP  Sherwood Daily - 9 hours ago Tracking shares of Boardwalk Pipeline Partners, LP , the company has a current EV  of 8120103.'
p10
a.