(lp0
S'News BlueLinx Holdings Inc.BXC Wall Street Journal - Feb 12, 2011 BlueLinx Holdings Inc. BXC . search. View All companies. AT CLOSE 4:05 PM EST 03/09/17. $7.21 USD; 0.21 3.00%.'
p1
aS'Form 8-K BlueLinx Holdings Inc. For: Mar 02 StreetInsider.com - Mar 2, 2017 On March 2, 2017, BlueLinx Holdings Inc.  issued a press release announcing its financial results for the fiscal fourth quarter and fiscal year ended December 31, 2016.BlueLinx Holdings Inc.: BlueLinx Announces Fourth-Quarter and Full-Year Results - The Wall Street Transcript'
p2
aS'Why Could Bluelinx Holdings Inc  Not Be As Efficient As Its Industry In ... Simply Wall St - Mar 2, 2017 Bluelinx Holdings Inc , with a ROE of 0.8% over the past twelve months, appeared relatively inefficient compared to the broader industry, which averaged 34.33% ROE.BLUELINX HOLDINGS INC.  Files An 8-K Results of Operations and ... - Market ExclusiveBlueLinx posts 4Q profit - Yahoo Finance'
p3
aS'BlueLinx Holdings Inc. Announces Three-Year Real Estate Loan Deal GlobeNewswire  - Feb 1, 2016 ATLANTA, Feb. 01, 2016  -- BlueLinx Holdings Inc.   today announced that it has entered into a term sheet with its existing real estate lenders, pursuant to which the term of its outstanding&nbsp;...'
p4
aS'BlueLinx Holdings Inc.: BlueLinx to Announce Fourth Quarter and Full Year ... The Wall Street Transcript - Feb 14, 2017 14, 2017  -- BlueLinx Holdings Inc. , a leading distributor of building and industrial products in the United States will release fourth quarter and full year financial results on Thursday, March 2, with a conference call at ...'
p5
aS"Form 3 BlueLinx Holdings Inc. For: Mar 08 Filed by: Tisera John M StreetInsider.com - Mar 10, 2017 Get the Pulse of the Market with StreetInsider.com's Pulse Picks. Get your Free Trial here. FORM 3, UNITED STATES SECURITIES AND EXCHANGE COMMISSION Washington, D.C."
p6
aS'BlueLinx to Pay $265K to Settle Whistle-Blower Violation Bloomberg BNA - Aug 11, 2016 10 - Atlanta-based building products distributor BlueLinx Holdings Inc. agreed to pay $265,000 to settle Securities and Exchange Commission allegations that its severance agreements violated whistle-blower protection rules ( In re BlueLinx Holdings ...BlueLinx to pay SEC fine for violating whistleblower protection rule - Atlanta Business ChronicleBlueLinx to pay $265000 to resolve allegations of violating SEC whistleblower laws - Legal News Line'
p7
aS"BlueLinx Holdings'  CEO Mitchell Lewis on Q3 2016 Results - Earnings Call ... Seeking Alpha - Nov 10, 2016 Good morning. My name is Teresa and I will be your conference operator today. At this time, I would like to welcome everyone to the Third Quarter 2016 Investor Relations Call."
p8
aS'BlueLinx Holdings Inc. Receives Continued Listing Standards Notice From NYSE GlobeNewswire  - Jul 31, 2015 ATLANTA, July 31, 2015  -- BlueLinx Holdings Inc.   today announced that it received notification on July 29, 2015, from the New York Stock Exchange , that the price of its common&nbsp;...'
p9
aS"BlueLinx Holdings'  CEO Mitchell Lewis on Q2 2016 Results - Earnings Call ... Seeking Alpha - Aug 6, 2016 We appreciate you joining us for the BlueLinx second quarter 2016 earnings conference call. This call is being webcast on the company's website at www."
p10
a.