(lp0
S"Ben Graham Would Love Cato Corp. - Wouldn't He? Seeking Alpha - Feb 9, 2017 In &quot;The Intelligent Investor&quot; Benjamin Graham identifies seven criteria to be used in identifying appropriate investments for the Defensive Investor."
p1
aS"UNCC gets $5 million donation from Charlotte-based Cato Corp Charlotte Observer - Nov 11, 2016 UNC Charlotte announced Friday it is naming its College of Education for the Cato Corp., following a $5 million gift to the school from the company.New name for UNC Charlotte's College of Ed after $5M gift - Charlotte Business Journal"
p2
aS'Can Cato Corporation Get Back To $30 A Share? Seeking Alpha - Jan 9, 2017 The stock now is trading below $26 a share, which historically has been a support zone. Furthermore, Cato now has an earnings multiple under 10.'
p3
aS'Cato Corp.  February Comps Fall 25% StreetInsider.com - Mar 2, 2017 The Cato Corporation  today reported sales for the four weeks ended February 25, 2017 of $63.9 million, a 25% decrease over sales of $84.7 million for the four week period ended February 27, 2016.'
p4
aS"The Cato Corp  Releases Earnings Results, Beats Expectations By $0.04 EPS Petro Global News 24 - Mar 20, 2017 Cato Corp  released its quarterly earnings results on Thursday. The company reported  EPS for the quarter, beating analysts' consensus estimates of  by $0.04."
p5
aS"No, Cato Isn't Cheap Enough Seeking Alpha - 20 hours ago What's been impressive about Cato Corporation  over the years has been its consistency. As I've noted many times in the past, Cato's model - selling discount fashions in strip mall locations - would seem to be one of the more difficult in ..."
p6
aS'Heading into its third-quarter earnings report on Thursday morning, a short ... Seeking Alpha - Nov 21, 2016 Shares had plunged to a two-year low in October after the company pulled down Q3 guidance in conjunction with its September monthly sales report.'
p7
aS"Cato Corp  Announces Earnings Results Chaffey Breeze - Mar 16, 2017 Cato Corp logo Cato Corp  released its quarterly earnings results on Thursday. The company reported  earnings per share  for the quarter, beating the Zacks' consensus estimate of  by $0.04.Cato Corporation  Class A  Moves Lower on Volume Spike for March 16 - Equities.comThe Cato Corporation: Cato Reports 4Q And Full Year Earnings - The Wall Street Transcript"
p8
aS'Will The Cato Corporation  Continue To Underperform Its Industry? Simply Wall St - Mar 16, 2017 The Cato Corporation , with a ROE of 17.5% over the past twelve months, appeared relatively inefficient compared to the broader industry, which averaged 39.79% ROE.'
p9
aS'Cato Corporation  Ex-Dividend Date Scheduled for December 08, 2016 Nasdaq - Dec 7, 2016 Cato Corporation  will begin trading ex-dividend on December 08, 2016. A cash dividend payment of $0.33 per share is scheduled to be paid on January 02, 2017.'
p10
a.