(lp0
S'Verizon And CBS Corporation Announce Multiyear Content Carriage Agreement Yahoo Finance - Mar 15, 2017 NEW YORK, March 15, 2017 /PRNewswire/ -- Verizon Communications Inc.  and CBS Corporation  have announced a new multiyear content carriage agreement that includes continued retransmission consent of CBS-owned&nbsp;...'
p1
aS'CBS Corporation To Report First Quarter 2017 Results On Thursday, May 4 PR Newswire  - Mar 17, 2017 NEW YORK, March 17, 2017 /PRNewswire/ -- CBS Corporation  announced today that it will report results for the first quarter of 2017 after the market closes on Thursday, May 4, 2017.The Top Three Holders Of CBS Corporation  - Post Analyst'
p2
aS"Mastercard Incorporated , CBS Corporation  Stock Eyes Ahead of Earnings The USA Commerce - 17 hours ago Shares of Mastercard Incorporated  surged 0.14% to $112.83. During the trading on 03/17/2017, Company's stock ranged from $112.76 to $113.50.Watch List: CBS Corporation  , Cotiviti Holdings Inc  - NYSE Journal Share Price CBS Corporation  Compared to Index - Energy Index"
p3
aS'CBS Corporation Chairman And Chief Executive Officer Leslie Moonves To ... PR Newswire  - Feb 27, 2017 NEW YORK, Feb. 27, 2017 /PRNewswire/ -- CBS Corporation  announced that Leslie Moonves, Chairman and Chief Executive Officer, will participate in a question-and-answer session at the Deutsche Bank 2017 Media &amp; Telecom&nbsp;...'
p4
aS'CBS Corp.  and Verizon Communications  Agree on Multi-Year Content ... StreetInsider.com - Mar 15, 2017 Verizon Communications Inc.  and CBS Corporation  have announced a new multiyear content carriage agreement that includes continued retransmission consent of CBS-owned television stations, including CBS-owned The CW&nbsp;...'
p5
aS'CBS Corporation  Ex-Dividend Date Scheduled for March 08, 2017 Nasdaq - Mar 7, 2017 CBS Corporation  will begin trading ex-dividend on March 08, 2017. A cash dividend payment of $0.18 per share is scheduled to be paid on April 01, 2017.Cbs Corp  Files Form 4 Insider Selling : Lawrence Tu Sells 3247 Shares - Energy IndexCBS Corporation  To Announce June 2016 Results - The Voice Registrar'
p6
aS'This Is What The Chart For CBS Corporation  Is Showing Today NY Stock News - 12 hours ago The technicals for CBS Corporation  has spoken via its technical chart and the message is loud and clear. Based on that message, this is the relevant information necessary to make sense of that current setup.'
p7
aS'How has CBS Corporation performed recently? The Daily Leicester - 11 hours ago CBS Corporation  is a large market cap stock with a market cap of 29992.93. It is in the Entertainment - Diversified industry and sector Services, with a current P/E of 19.48, a forward P/E of 13.1 and EPS of 3.44.'
p8
aS"Analyst's Report Recap: CBS Corporation  Post Registrar - Mar 15, 2017 CBS Corporation  soared 0.15% during previous trade, a total of 2.19M shares exchanged hands compared with its average trading volume of 3.45M shares whereas its relative volume is 0.61.Review of Price Trends: CBS Corporation  - Is stories"
p9
aS'CBS Corporation Class B  Rises 2.69% for February 21 Equities.com - Feb 21, 2017 Among the biggest risers on the S&amp;P 500 on Tuesday February 21 was CBS Corporation Class B , popping some 2.69% to a price of $67.46 a share with some 4.97 million shares trading hands.'
p10
a.