(lp0
S'Crown Holdings, Inc. Announces Senior Management Changes PR Newswire  - Feb 6, 2017 PHILADELPHIA, Feb. 6, 2017 /PRNewswire/ -- Crown Holdings, Inc.  announced that Gerard H. Gifford, 61, has been appointed Executive Vice President and Chief Operating Officer effective April 1, 2017.Crown Holdings, Inc.  Given Consensus Rating of Buy by Brokerages - Community Financial NewsHigh Volume Consumer Goods Stocks: Crown Holdings Inc. , Meritor, Inc.  - TWN'
p1
aS'Crown Holdings Announces Pricing Of Senior Notes PR Newswire  - Sep 8, 2016 PHILADELPHIA, Sept. 8, 2016 /PRNewswire/ -- Crown Holdings, Inc.  announced today that it has priced its private placement of 600 million principal amount of 2.625% senior unsecured notes due 2024, issued at par by Crown European&nbsp;...'
p2
aS"Crown Holdings, Inc. Elects Rose Lee To Its Board Of Directors PR Newswire  - Jul 29, 2016 PHILADELPHIA, July 29, 2016 /PRNewswire/ -- Crown Holdings, Inc.  announced today that manufacturing industry executive Rose Lee has been elected to the Company's Board of Directors."
p3
aS"Well recognized Stock of Market: Crown Holdings, Inc.'s  stock price is ... Hot Stocks Point - 16 hours ago Crown Holdings, Inc.  stock price ended its day with gain 0.24% and finalized at the value of $53.91. During its last trading session, Stock traded with the total exchanged volume of 0.74 million shares."
p4
aS"Crown Scores Leadership Level Ranking in CDP's Climate Change Evaluation Program PR Newswire  - Nov 10, 2016 PHILADELPHIA, Nov. 10, 2016 /PRNewswire/ -- Crown Holdings, Inc.   , a leading supplier of metal packaging products worldwide, has achieved an &quot;A-&quot; ranking  for the climate change strategy&nbsp;..."
p5
aS'Crown Holdings Announces Senior Notes Offerings PR Newswire  - Sep 7, 2016 PHILADELPHIA, Sept. 6, 2016 /PRNewswire/ -- Crown Holdings, Inc.  announced today that it intends to offer 310 million in aggregate principal amount of senior unsecured notes due 2024 issued by Crown European Holdings S.A.'
p6
aS'October 20th Options Now Available For Crown Holdings Nasdaq - Feb 21, 2017 Investors in Crown Holdings Inc  saw new options become available today, for the October 20th expiration. One of the key inputs that goes into the price an option buyer is willing to pay, is the time value, so with 241 days until ...'
p7
aS"Insider Trading Activity Crown Holdings, Inc.   Insider Sold 40000 ... Market Exclusive - Feb 14, 2017 Thomas A Kelly , Insider of Crown Holdings, Inc.  reportedly Sold 40,000 shares of the company's stock at an average price of 53.18 for a total transaction amount of $2,127,200.00 SEC Form.Can Crown Holdings, Inc.  Attain EPS Target Of $0.795? - Markets Daily"
p8
aS"What To Expect From Crown Holdings Inc's  Earnings In The Year Ahead? Simply Wall St - Mar 3, 2017 Analysts covering Crown Holdings Inc  are predicting the earnings to grow 7.6% in years' time. What should potential investors be aware of?Analysts Set Crown Holdings, Inc.  Target Price at $62.25 - Chaffey BreezeWhich way Crown Holdings Inc.  earning numbers may go - The Voice Registrar"
p9
aS'Crown Holdings Inc Risk Points versus Industrials CML News - Mar 8, 2017 This is a scatter plot analysis of the critical risk points from the option market for Crown Holdings Inc  compared to its own past and the Industrials ETF.'
p10
a.