(lp0
S'CD International Enterprises Issues Letter to Shareholders PR Newswire  - Jun 15, 2015 15, 2015 /PRNewswire/ --CD International Enterprises, Inc.  , a U.S.-based company that sources and distributes industrial commodities internationally and provides business and management corporate consulting services,&nbsp;...'
p1
aS'The Inside Scoop on CD International Enterprises Inc  MicroCap Daily - Aug 23, 2016 CD International Enterprises Inc  has been moving up steadily in recent days since reversing off $0.0011 lows.'
p2
aS"What Happened to CD International Enterprises Inc  MicroCap Daily - Dec 7, 2015 CD International Enterprises Inc  is once again doing massive volume and leading the bb's in trades. The stock popped this morning but is back at its base just over $0.01."
p3
aS'CD International Enterprises Terminates Acquisition of EM Resource Enterprises PR Newswire  - Jan 16, 2015 16, 2015 /PRNewswire/ -- CD International Enterprises, Inc.  , a U.S.-based company that sources and distributes industrial commodities in China and the Americas, today announced that it has terminated acquisition of 100%&nbsp;...'
p4
aS"CD International Enterprises Inc  Wants To Do A Reverse Split HotStocked - May 16, 2016 In our articles we have been warning you about the monstrous dilution of CDII's common stock - during the quarter ended December 30, 2015, the number of outstanding shares grew from around 100 million to over 500 million."
p5
aS"CD International Enterprises Inc  Drops Below $0.001 HotStocked - May 3, 2016 CD International Enterprises Inc  Drops Below $0.001. by Georgi Kamburov May 3, 2016. 0. 0. 0 Comments. Now the stock is sitting at record lows and if you want a reason for it you won't have to look far - just open the latest financial ..."
p6
aS"CD International Enterprises Inc  Isn't as Lively Anymore HotStocked - Mar 10, 2016 December's sudden surge was followed by a quick loss of momentum and the ticker slowly but surely tumbled back down to the murky end of the double-zero range."
p7
aS"CD International Enterprises  Shareholders Yell 'Scam' As Shares Plummet Independent Reporter - Dec 17, 2015 CD International Enterprises Inc  shares are down big again today after the company's CEO Dr. James Wang remains silent."
p8
aS'CD International Enterprises Inc  Receives Purchase Order Worth ... Argus Journal - Dec 4, 2015 CD International Enterprises Inc  announced that it had received a purchase order of Copper Concentrate to be delivered over a period of two years.'
p9
aS'Minera MAPSA Completes Transfer of 178000 Acres of Mining Concessions in Peru ... PR Newswire  - Oct 8, 2013 CD International Enterprises, Inc.  , a U.S. based company that produces, sources, and distributes industrial commodities in China and the Americas and provides business and financial corporate consulting services ...'
p10
a.