(lp0
S'Cardinal Financial Corporation  Moves Lower on Volume Spike for February 17 Equities.com - Feb 17, 2017 Cardinal Financial Corporation  traded on unusually high volume on Feb. 17, as the stock lost 0.64% to close at $31.22.'
p1
aS'United Bankshares Said in Talks to Buy Cardinal Financial Bloomberg - Aug 17, 2016 United Bankshares Inc. is in talks to acquire rival Washington-area lender Cardinal Financial Corp., according to people familiar with the matter, as regional banks seek to pair up to counter low interest rates and mounting regulatory costs.United Bankshares to Buy Cardinal Financial in DC Bank Merger - Wall Street JournalUnited Bankshares acquires Cardinal Financial Corporation - HousingWire'
p2
aS'CARDINAL FINANCIAL CORPORATION  Files An 8-K Other Events Market Exclusive - Mar 17, 2017 Cardinal Financial Corporation is a financial holding company. The Company owns Cardinal Bank , a Virginia state-chartered community bank.Next Weeks Broker Price Targets For Cardinal Financial Corporation  - Fiscal Standard'
p3
aS'Cardinal Financial Corporation  Moves Higher on Volume Spike for March 10 Equities.com - Mar 10, 2017 Cardinal Financial Corporation  traded on unusually high volume on Mar. 10, as the stock gained 0.1% to close at $30.60.Cardinal Financial Co. - Receive News &amp; Ratings Daily - BBNS'
p4
aS'The Macquarie Group Ltd. Increases Position in Cardinal Financial Corp.  Petro Global News 24 - Mar 18, 2017 Macquarie Group Ltd. raised its position in shares of Cardinal Financial Corp.  by 17.5% during the second quarter, according to its most recent Form 13F filing with the Securities and Exchange Commission.Dividend Disbursement Of Cardinal Financial Corporation  At $0.13 - Equities FocusCardinal Financial Co.  Stake Held by State Board of Administration of ... - Sports Perspectives'
p5
aS'Cardinal Financial Corporation Acquisition May Not Be in the Best Interests of ... PR Newswire  - Aug 22, 2016 NEW YORK, Aug. 22, 2016 /PRNewswire/ -- WeissLaw LLP is investigating possible breaches of fiduciary duty and other violations of law by the Board of Directors of Cardinal Financial Corporation  in connection with the proposed&nbsp;...'
p6
aS'Cardinal Financial Corporation  Moves Lower on Volume Spike for February 24 Equities.com - Feb 24, 2017 Cardinal Financial Corporation  traded on unusually high volume on Feb. 24, as the stock lost 0.44% to close at $31.37.Mark A. Wendel Sells 1500 Shares of Cardinal Financial Corporation  Stock - The Cerbat GemInsider Trading at Cardinal Financial Corporation? - BBNS'
p7
aS'Insider Trading Activity Cardinal Financial Corporation (NASDAQ:CFNL ... Market Exclusive - Feb 22, 2017 On 12/10/2012 Cardinal Financial Corporation announced a quarterly dividend of $0.05 1.25% with an ex dividend date of 12/13/2012 which will be payable on 12/28/2012.'
p8
aS'Cardinal Financial Corporation  Moves Lower on Volume Spike for March 08 Equities.com - Mar 8, 2017 Cardinal Financial Corporation  traded on unusually high volume on Mar. 08, as the stock lost 1.13% to close at $30.75.Stock Returns: Cardinal Financial Corporation  versus Central ... - CML NewsCardinal Financial Corporation  Receives Average Rating of Hold from ... - Community Financial News'
p9
aS'Stock Returns: First Bancorp  is Beating Cardinal Financial ... CML News - Mar 14, 2017 This is a snapshot to compare the stock returns for Cardinal Financial Corporation  versus First Bancorp  .Russell Investments Group Ltd. Takes Position in Cardinal Financial Co.  - Chaffey BreezeThe Brokerages Set Cardinal Financial Co.  PT at $22.00 - Petro Global News 24'
p10
a.