(lp0
S'Which insiders are trading The Carlyle Group LP ? Post Analyst - 9 hours ago The Carlyle Group LP  reached 16.86% versus a 1-year low price of $14.35. The stock was last seen -2.43% lower, reaching at $16.05 on Mar. 17, 2017.'
p1
aS'The Carlyle Group LP  Ex-Dividend Date Scheduled for February 16, 2017 Nasdaq - Feb 15, 2017 The Carlyle Group L.P.  will begin trading ex-dividend on February 16, 2017. A cash dividend payment of $0.16 per share is scheduled to be paid on February 28, 2017.Impact of Brokerage Rating on The Carlyle Group LP - Morning OutlookThe Carlyle Group LP  To Go Ex-Dividend on February 16th - Community Financial News'
p2
aS'The Carlyle Group LP  Ex-Dividend Date Scheduled for November 04, 2016 Nasdaq - Nov 3, 2016 The Carlyle Group L.P.  will begin trading ex-dividend on November 04, 2016. A cash dividend payment of $0.5 per share is scheduled to be paid on November 16, 2016.'
p3
aS'The Carlyle Group LP: The Carlyle Group Agrees to Sell ITRS to TA Associates The Wall Street Transcript - Mar 6, 2017 London, UK and Boston, MA - Global alternative asset manager The Carlyle Group  and TA Associates, a leading global growth private equity firm, today announced that they have signed a definitive agreement under which Carlyle will sell&nbsp;...'
p4
aS'Dividend Darling in Focus: The Carlyle Group LP  Business Review - Mar 17, 2017 The Carlyle Group LP  currently has a 10-year dividend growth rate of -0.90670. This number is calculated using the geometric average which provides the typical value of dividend growth over the specified period using the product of their&nbsp;...'
p5
aS"3 Reasons Why The Carlyle Group  is a Great Value Stock January 03, 2017 Zacks.com - Jan 3, 2017 This method discovered several great candidates for value-oriented investors, but today let's focus on The Carlyle Group LP  as this stock is looking especially impressive right now. And while there are numerous reasons why this is ...The Carlyle Group LP  Given a $19.00 Price Target at Credit Suisse Group - Sports Perspectives"
p6
aS'The Carlyle Group LP: The Carlyle Group Closes Golden Goose Deluxe Brand ... The Wall Street Transcript - Mar 8, 2017 Milan/Venice, 7 March, 2017 - Global alternative asset manager The Carlyle Group  today announced that it has completed the acquisition of the Italian luxury lifestyle fashion company, Golden Goose Deluxe Brand from a pool of investors led&nbsp;...'
p7
aS'Stock Returns: The Carlyle Group LP  versus GAMCO Investors Inc ... CML News - Mar 19, 2017 This is a snapshot to compare the stock returns for The Carlyle Group LP  versus GAMCO Investors Inc  .The Carlyle Group LP  EPS Projection At $0.64 - Investor Newswire'
p8
aS'Analyst Recommendations And Earnings Forecast: The Carlyle Group LP (CG ... Post Analyst - Mar 15, 2017 The Carlyle Group LP  failed to surprise the stock market in its last reported earnings when it earned $0.02 a piece versus the consensus-estimated $0.41.Common Share Dividend Yield of The Carlyle Group LP  - Energy IndexMean Price Target Of The Carlyle Group LP  At $19 - Transcript Daily'
p9
aS'Short interest Of The Carlyle Group LP  At 1387898 Markets Daily - Mar 19, 2017 The Carlyle Group L.P.  has been given a 0.648 daily sentiment score. Likewise, Alpha One asserts daily impact spot on 1 - 100 scale.'
p10
a.