(lp0
S"Chemical Financial Corp. completes merger with Talmer Bancorp MLive.com - Sep 1, 2016 Chemical officials also announced that Gary Torgow, former chairman of Talmer Bancorp, will join the Chemical Financial Corp. board as chairman. He succeeds David B. Ramaker, who will remain a director as well as CEO and president of Chemical.Chemical Finance completes merger of Talmer Bancorp - Crain's Cleveland Business"
p1
aS'Chemical Financial requests additional shares to act on potential acquisitions MiBiz - Mar 19, 2017 MIDLAND - For the third time in two years, Chemical Financial Corp. wants to have more shares on hand to as it pursues additional acquisitions.'
p2
aS'Chemical Financial Corporation  Ex-Dividend Date Scheduled for March 01 ... Nasdaq - Feb 28, 2017 Chemical Financial Corporation  will begin trading ex-dividend on March 01, 2017. A cash dividend payment of $0.27 per share is scheduled to be paid on March 17, 2017.Stock Returns: KeyCorp  is Beating Chemical Financial Corporation ... - CML NewsO Shaughnessy Asset Management LLC Buys 4597 Shares of Chemical Financial ... - BNB Daily '
p3
aS"Traders Secrets on Chemical Financial Corporation , Dick's Sporting ... StockNewsJournal - 16 hours ago Investors who are keeping close eye on the stock of Chemical Financial Corporation  established that the company was able to keep return on investment at - in the trailing twelve month while Reuters data showed that industry's average&nbsp;..."
p4
aS"Chemical Financial Corp. to partner with Talmer Bank Michronicleonline - Jan 26, 2016 The boards of directors of Chemical Financial Corporation , the holding company for Chemical Bank, and Talmer Bancorp, Inc. , the holding company for Talmer Bank and Trust, announced on Tuesday the execution of a&nbsp;...Talmer Bancorp of Troy and Chemical Financial Corporation to merge - The Oakland PressChemical Financial to buy Talmer Bancorp in $1.1 billion deal - Crain's Detroit Business"
p5
aS"Chemical Financial Corp. announces Q1 2016 cash dividend MLive.com - Jan 20, 2016 Chemical Financial Corp.'s common stock trades on the NASDAQ Stock Market under the symbol CHFC and is one of the issues comprising the NASDAQ Global Select Market, the release states."
p6
aS'Chemical Financial Corporation  Files An 8-K Regulation FD Disclosure Market Exclusive - Mar 13, 2017 Chemical Financial Corporation is a financial holding company. The Company operates in the commercial banking segment. The Company, through its subsidiary bank, Chemical Bank, offers banking and fiduciary products and services.'
p7
aS"Chemical Financial shareholders overwhelmingly OK deal to buy Talmer Crain's Detroit Business - Jul 20, 2016 Shareholders of Midland-based Chemical Financial Corp.  Tuesday afternoon overwhelmingly approved the proposed $1.4 billion acquisition of Troy-based Talmer Bancorp Inc. .Chemical-Talmer deal heads toward close this year, pending regulatory approval - MiBiz"
p8
aS'Chemical Financial marks 100 years Midland Daily News - Mar 14, 2017 What started on March 14, 1917 as Chemical State Savings Bank with just $50,000 in assets and three employees has now, 100 years later, blossomed into a financial corporation with assets of $17.36 billion and the name Chemical Financial Corp. From our&nbsp;...Tomorrow is a big day for Chemical Bank - Huron Daily TribuneLocal bank celebrates milestone - Laredo Morning Times'
p9
aS'Insider Trading Activity Chemical Financial Corporation (NASDAQ:CHFC ... Market Exclusive - Mar 1, 2017 On 2/1/2016 Richard M. Lievense, Director Sell, 5,162 $32.19 with an average share price of $166,164.78 View SEC Filing 2/27/2015 per share and the total transaction amounting to Lori A Gwizdala.Chemical Financial Corporation  Director Larry D. Stauffer Sells 3350 Shares - Sports PerspectivesLatest Stocks: Nationwide Fund Advisors Has $8137000 Stake in Chemical ... - Petro Global News 24'
p10
a.