(lp0
S'Charter Financial Corp.  Breaks into New 52-Week High on February 13 Session Equities.com - Feb 13, 2017 Shares of Charter Financial Corp.  broke into a new 52-week high yesterday, hitting a peak of $17.64. Shares closed at $17.50 after opening at $17.42 for a move of 0.57%.'
p1
aS'Charter Financial Corp.  Breaks into New 52-Week High on February 24 Session Equities.com - Feb 24, 2017 Shares of Charter Financial Corp.  broke into a new 52-week high yesterday, hitting a peak of $19.98. Shares closed at $19.82 after opening at $19.60 for a move of 0.71%.'
p2
aS'Charter Financial Corp.  Breaks into New 52-Week High on February 17 Session Equities.com - Feb 17, 2017 Shares of Charter Financial Corp.  broke into a new 52-week high yesterday, hitting a peak of $19.50. Shares closed at $19.48 after opening at $19.03 for a move of 2.63%.Zacks: Charter Financial Corp.  Receives Consensus Rating of Hold from ... - The Cerbat Gem'
p3
aS'Charter Financial Corp.  Moves Higher on Volume Spike for February 16 Equities.com - Feb 16, 2017 Charter Financial Corp.  traded on unusually high volume on Feb. 16, as the stock gained 5.09% to close at $18.98. On the day, Charter Financial Corp. saw 76,032 shares trade hands on 706 trades. Considering that the stock averages only a daily&nbsp;...'
p4
aS"Why Charter Financial Corp  Stock Might be a Great Pick December 23, 2015 Zacks.com - Dec 23, 2015 Meanwhile, Charter Financial Corp is actually looking pretty good on its own too. The firm has seen solid earnings estimate revision activity over the past month, suggesting analysts are becoming a bit more bullish on the firm's prospects in both the ..."
p5
aS'Stock Returns: Charter Financial Corporation  versus United ... CML News - Mar 5, 2017 This is a snapshot to compare the stock returns for Charter Financial Corporation  versus United Community Financial Corp.  . The stock return points we compare look at the last three-months, six-months and twelve-months.'
p6
aS'Bessemer Group Inc. Increases Stake in Charter Financial Corp  BNB Daily  - Feb 25, 2017 Charter Financial Corp logo Bessemer Group Inc. increased its position in Charter Financial Corp  by 98.9% during the fourth quarter, Holdings Channel reports.'
p7
aS'The Renaissance Technologies LLC Has $15007000 Stake in Charter Financial Corp ... Petro Global News 24 - Mar 15, 2017 Renaissance Technologies LLC reduced its position in Charter Financial Corp  by 1.1% during the fourth quarter, according to its most recent 13F filing with the SEC.Charter Financial Corp first-quarter profit rises 9.35 percent on a YOY basis - Myiris.com'
p8
aS'Charter Financial Corp.  Receives Average Rating of Hold from Brokerages BNB Daily  - Feb 22, 2017 Charter Financial Corp. logo Shares of Charter Financial Corp.  have been assigned a consensus broker rating score of 3.00  from the one analysts that provide coverage for the company, Zacks Investment Research reports.'
p9
aS'Charter Financial Completes Merger With CBS Financial Corporation GlobeNewswire  - Apr 15, 2016 WEST POINT, Ga., April 15, 2016  -- Charter Financial Corporation  announced today the completion of its merger  with Smyrna, Georgia-based CBS Financial Corporation  effective April 15, 2016,&nbsp;...'
p10
a.