(lp0
S'Cna Financial Corp  Downgraded by Zacks Investment Research Chaffey Breeze - 14 hours ago Cna Financial Corp logo Zacks Investment Research lowered shares of Cna Financial Corp  from a buy rating to a hold rating in a report released on Wednesday morning.CNA Financial Corporation  Top Sales Projection At $9830 - Investor NewswireMean Price Target Of CNA Financial Corporation  At $44.50 - Equities Focus'
p1
aS'CNA Announces Joyce Trimuel As Chief Diversity Officer PR Newswire  - Mar 6, 2017 For more information, please visit CNA at www.cna.com. &quot;CNA&quot; is a registered trademark of CNA Financial Corporation. Certain CNA Financial Corporation subsidiaries use the &quot;CNA&quot; trademark in connection with insurance underwriting and claims activities.'
p2
aS'CNA Financial Announces Fourth Quarter 2016 Results PR Newswire  - Feb 6, 2017 CHICAGO, Feb. 6, 2017 /PRNewswire/ -- CNA Financial Corporation  today announced fourth quarter 2016 net income of $241 million, or $0.89 per share, and net operating income of $221 million, or $0.82 per share.Cna Financial Corp  Releases Earnings Results, Beats Expectations By $0 ... - Highland Mirror'
p3
aS"CNA Appoints Emma Riza To Vice President, Corporate Development PR Newswire  - Dec 19, 2016 CNA's services include risk management, information services, underwriting, risk control and claims administration. For more information, please visit CNA at www."
p4
aS'CNA Announces Douglas Worman as Executive Vice President and Chief ... PR Newswire  - Feb 16, 2017 For more information, please visit CNA at www.cna.com. &quot;CNA&quot; is a registered trademark of CNA Financial Corporation. Certain CNA Financial Corporation subsidiaries use the &quot;CNA&quot; trademark in connection with insurance underwriting and claims activities.'
p5
aS'CNA Financial Corporation  Moves Higher on Volume Spike for March 17 Equities.com - Mar 17, 2017 CNA Financial Corporation  traded on unusually high volume on Mar. 17, as the stock gained 0.68% to close at $44.57. On the day, CNA Financial Corporation saw 555,709 shares trade hands on 4,218 trades. Considering that the stock averages only&nbsp;...'
p6
aS"Form 4 CNA FINANCIAL CORP For: Mar 15 Filed by: Haefner Larry A. StreetInsider.com - Mar 17, 2017 The Company's Incentive Compensation Plan  provides for the issuance of CNA Financial Corporation's common stock under the Special Supplemental Equity  and Performance Share Plan &nbsp;..."
p7
aS"CNA Announces New Executive Vice President of Technology and Operations PR Newswire  - Jan 25, 2017 CNA's services include risk management, information services, underwriting, risk control and claims administration. For more information, please visit CNA at www."
p8
aS'CNA Named Premier Sponsor of Worldwide Broker Network PR Newswire  - Mar 9, 2017 For more information, please visit CNA at www.cna.com. &quot;CNA&quot; is a registered trademark of CNA Financial Corporation. Certain CNA Financial Corporation subsidiaries use the &quot;CNA&quot; trademark in connection with insurance underwriting and claims activities.'
p9
aS'Cna Financial Corp  Stock Rating Lowered by Zacks Investment Research The Cerbat Gem - Mar 15, 2017 Cna Financial Corp logo Cna Financial Corp  was downgraded by Zacks Investment Research from a buy rating to a hold rating in a note issued to investors on Wednesday.The Cna Financial Corp  Cut to Hold at Zacks Investment Research - Petro Global News 24Cna Financial Corp - Receive News &amp; Ratings Daily - BBNS'
p10
a.