(lp0
S'Costco Wholesale Corporation Announces New Board Member Nasdaq - 7 hours ago ISSAQUAH, Wash., March 20, 2017  -- Costco Wholesale Corporation   today announced the election to its Board of Directors of Kenneth D. Denman.'
p1
aS"5 Things You Didn't Know About Costco Wholesale Corporation Motley Fool - Mar 10, 2017 Costco  opened its 100th warehouse in December 1992. A quarter-century later, the retailer generates $116 billion of annual business out of its 728 locations.Is Costco's Business Model Outdated? - Seeking Alpha"
p2
aS'Costco Wholesale Corporation Announces 6% Fall In Q2 Earnings Nasdaq - Mar 2, 2017  - Costco Wholesale Corporation  reported a profit for second quarter that retreated from last year. The company said its earnings dropped to $515 million, or $1.17 per share.Costco Wholesale Corporation  Stock: The Danger Is Growing - Investorplace.com'
p3
aS'Earnings Reaction History: Costco Wholesale Corporation, 50.0% Follow-Through ... Nasdaq - Mar 2, 2017 Costco Wholesale Corporation  is due to issue its quarterly earnings report in the upcoming extended-hours session.'
p4
aS"BRIEF-Bubs Australia entered into supply agreement with Costco Wholesale ... Reuters - Mar 8, 2017 Reuters is the news and media division of Thomson Reuters. Thomson Reuters is the world's largest international multimedia news agency, providing investing news, world news, business news, technology news, headline news, small business news, news&nbsp;..."
p5
aS"Buy, Sell or Hold? Analysts Approach: Lennar Corporation , Costco ... The USA Commerce - 15 hours ago Shares of Lennar Corporation  dropped -0.26% to $52.83. During the trading on 03/17/2017, Company's stock ranged from $52.63 to $53.29."
p6
aS'Decision Time: Costco Wholesale Corporation  Stock Technicals Hit ... CML News - 11 hours ago Decision Time: Costco Wholesale Corporation  now sits in the perhaps the most difficult technical position -- the stock has no urgency in its direction and that has left it at an inflection point.'
p7
aS"Which insiders are selling Costco Wholesale Corporation ? Post Analyst - Mar 17, 2017 Costco Wholesale Corporation  reached 21.58% versus a 1-year low price of $138.57. The stock was last seen 0.31% higher, reaching at $167.06 on Mar. 16, 2017.Earnings Clues on Xcel Energy Inc. , Costco Wholesale Corporation (COST ... - StockNewsJournalAnalyst's Proposition on Costco Wholesale Corporation , Weyerhaeuser Co ... - The USA Commerce"
p8
aS'We Are Buyers Of Costco - Cowen Seeking Alpha - Mar 9, 2017 We believe Costco is well-positioned to continue delivering double-digit earnings growth over the near-to-medium term driven by square footage growth, steady membership revenue growth, and positive same-store sales comps.'
p9
aS'Costco Wholesale Corporation  Technical Analysis Overbought Condition Live Trading News - Mar 3, 2017 During the past 10 bars, there have been 8 white candles and 2 black candles for a net of 6 white candles. During the past 50 bars, there have been 27 white candles and 23 black candles for a net of 4 white candles.'
p10
a.