(lp0
S'CoStar Group, Inc. Earnings Boosted by Apartments.com Growth Motley Fool - Feb 24, 2017 CoStar Group  reported fourth-quarter results on Feb. 22. The provider of commercial real estate information, analytics, and online marketplaces is reaping the rewards of its investments in its apartments business while it works to ...CoStar Group, Inc.  Position Raised by State Board of Administration of ... - Chaffey BreezeCoStar Group Inc  has been upgraded to B in a statement by ... - Breaking Finance News'
p1
aS"CoStar Group Launches Apartamentos.com PR Newswire  - Feb 7, 2017 WASHINGTON, Feb. 7, 2017 /PRNewswire/ -- CoStar Group, Inc.  has launched the nation's only exclusively Spanish apartment-listing site, Apartamentos.CoStar launches Spanish-language version of Apartments.com - Washington Business Journal"
p2
aS'CoStar Group Inc  Upgraded to Hold at Zacks Investment Research Chaffey Breeze - 12 hours ago CoStar Group Inc logo Zacks Investment Research upgraded shares of CoStar Group Inc  from a sell rating to a hold rating in a research note issued to investors on Friday morning.The CoStar Group Inc  Lifted to Hold at Zacks Investment Research - Petro Global News 24Stock Returns: CoStar Group Inc  is Beating Cimpress NV  - CML News'
p3
aS'CoStar Group, Inc. Widens Its Lead in the Multifamily Arena Motley Fool - Oct 28, 2016 CoStar Group also boosted its 2016 adjusted earnings forecast to a range of $4.20 to $4.25, raising the midpoint by $0.13 from its prior outlook and by $0.55 from its initial 2016 guidance.CoStar Group Grows Net Income $28 Million Year-over-Year - PR Newswire CoStar Group  Stock: Falling Apart On Minimal Expansion - CNA Finance '
p4
aS"Trends In Latest CoStar Composite Price Index Hold Steady As Property Prices ... PR Newswire  - Dec 28, 2016 WASHINGTON, Dec. 28, 2016 /PRNewswire/ -- This month's CoStar Commercial Repeat Sale Indices  provides the market's first look at commercial real estate pricing trends through November 2016."
p5
aS"CoStar Composite Price Indices Increase Nearly 6% In 2016 Even As Price Growth ... PR Newswire  - Jan 27, 2017 WASHINGTON, Jan. 27, 2017 /PRNewswire/ -- This month's CoStar Commercial Repeat Sale Indices  provides the market's first look at commercial real estate pricing trends through December 2016."
p6
aS'Apartments.com Dominance Fuels CoStar Group, Inc. Earnings Motley Fool - Aug 9, 2016 CoStar Group  reported second-quarter results on July 27. The provider of commercial real estate information, analytics, and online marketplaces enjoyed strong increases in sales and profits driven by share gains in its key Apartments.'
p7
aS'CoStar Group Grows 2016 Revenue 18%, Increases Annual Net Income $88 Million ... GlobeNewswire  - Feb 22, 2017 22, 2017  -- CoStar Group, Inc. , the leading provider of commercial real estate information, analytics and online marketplaces, announced today that revenue for the year ended December 31, 2016 was $838 million,&nbsp;...'
p8
aS"CoStar Group Selects Richmond to Headquarter Research Center for Nation's ... PR Newswire  - Oct 24, 2016 WASHINGTON, Oct. 24, 2016 /PRNewswire/ -- CoStar Group, Inc.  announced today that it has concluded a national search for its research operations headquarters, selecting Richmond, Virginia.CoStar to establish research hub in Richmond - Washington Business JournalCoStar CEO say lots of interest in jobs at new Richmond research center - Richmond.com"
p9
aS"Latest CoStar Composite Price Index: Steady Price Growth At Low End Of ... PR Newswire  - Feb 28, 2017 WASHINGTON, Feb. 28, 2017 /PRNewswire/ -- This month's CoStar Commercial Repeat Sale Indices  provides the market's first look at commercial real estate pricing trends through January 2017."
p10
a.