(lp0
S'First Cash to Buy Cash America for $994 Million in Pawn Deal Bloomberg - Apr 28, 2016 First Cash Financial Services Inc. agreed to buy Cash America International Inc. for about $994 million in stock in a deal to bring together two of the largest retail pawn shop operators in the U.S.. First Cash, based in Arlington, Texas, will pay 0.84 ...First Cash, Cash America merging to form giant pawnshop company - Fort Worth Star TelegramTwo North Texas pawn giants, First Cash and Cash America, are merging - Dallas Business Journal'
p1
aS'Cash America Shareholder Sues Over $2.4B First Cash Merger Law360  - Jul 7, 2016 Law360, New York  -- Cash America International Inc. and First Cash Financial Services Inc. were hit with a shareholder derivative suit in Texas state court Wednesday alleging the $2.4 billion merger between the pawn shop&nbsp;...'
p2
aS'FirstCash Announces Successful Completion of Merger of Equals Combining First ... GlobeNewswire  - Sep 2, 2016 02, 2016  -- FirstCash, Inc.   today announced the successful completion of the merger of equals between First Cash Financial Services, Inc.  and Cash America International, Inc.First Cash Financial And Cash America Complete Merger, Create FirstCash (NYSE ... - Benzinga'
p3
aS'First Cash and Cash America Announce Shareholder Approval of Merger of Equals GlobeNewswire  - Aug 31, 2016 ARLINGTON, Texas and FORT WORTH, Texas, Aug. 31, 2016  -- First Cash Financial Services  and Cash America International, Inc.  announced today that the shareholders of both First Cash and Cash&nbsp;...Cash America-First Cash pawnshop merger set to close Thursday - Fort Worth Star Telegram'
p4
aS'SAF Capital Delivers Letter to Cash America International, Inc. Board of Directors PR Newswire  - Mar 6, 2015 CHICAGO, March 6, 2015 /PRNewswire/ -- In response to inquiries from Cash America International, Inc.  shareholders and various market participants, SAF Capital Management LLC today released its letter delivered to&nbsp;...'
p5
aS'The Cash America / First Cash Financial Merger Creates A Pawn Powerhouse Worth ... Seeking Alpha - May 4, 2016 On April 28, 2016, First Cash Financial Services  and Cash America Inc.  announced a &quot;merger of equals&quot; transaction between the two companies.'
p6
aS'Investor News: Takeover of Cash America International Inc  under ... GroundReport - May 12, 2016 An investigation for investors in NYSE:CSH shares was announced concerning the takeover of Cash America International Inc by First Cash Financial Services, Inc. Investors who purchased shares of Cash America International Inc  and currently&nbsp;...'
p7
aS'Pi Capital Advises First Cash Financial Services on its Merger of Equals with ... PR Newswire  - Sep 8, 2016 NEW YORK, Sept. 8, 2016 /PRNewswire/ -- Pi Capital International LLC has announced it initiated, structured and supported the transaction from inception to closing, acting as financial adviser to First Cash Financial Services, Inc. in its $2.4B merger ...'
p8
aS'Sealed Air  Reaches $45.69 After 8.00% Up Move; Cash America ... Herald KS - Mar 14, 2017 See Cash America International Inc  latest ratings: Sealed Air Corporation is engaged in food safety and security, facility hygiene and product protection business.'
p9
aS'First Cash Financial Services, Inc. Announces Transfer to NYSE GlobeNewswire  - Aug 19, 2016 ... York Stock Exchange  from the NASDAQ Global Select Market  following the completion of its announced merger transaction with Cash America International, Inc. , which is expected to close on September 1, 2016.'
p10
a.