(lp0
S'Calavo Growers, Inc. Announces Fiscal 2017 First Quarter Results Yahoo Finance - Mar 7, 2017 Calavo Growers, Inc. , a global avocado industry leader and expanding provider of value-added fresh food, today reported double-digit revenue growth for its fiscal 2017 first quarter propelled by the exceptional performance in its Renaissance ...Calavo Growers Inc.  Moves Higher on Volume Spike for March 07 - Equities.comAvocado trends look positive for Calavo Growers - Seeking Alpha'
p1
aS'CALAVO GROWERS, INC  Files An 8-K Results of Operations and ... Market Exclusive - Mar 10, 2017 Calavo Growers, Inc. is a provider of fresh food and operates in the avocado industry. The Company is engaged in marketing and distributing avocados, prepared avocados and other perishable foods.Calavo Growers - Investment Management Strategies Amidst Market Turmoil - Seeking AlphaCalavo Growers sees record revenues but net income down in 2017 - FreshPlaza'
p2
aS"California Drought Could Have Lasting Effects On Calavo Growers Benzinga - Aug 29, 2016 D.A. Davidson analyst Eric Gottlieb is worried about Calavo Growers, Inc. 's volume because of the drought in California and the strike in Mexico."
p3
aS'Johnson Controls  Received New Susquehanna Rating, Calavo Growers, Inc ... Herald KS - 14 hours ago Among 19 analysts covering Johnson Controls Inc. , 12 have Buy rating, 0 Sell and 7 Hold. Therefore 63% are positive.'
p4
aS'Calavo Growers, Inc. Acquires Riverside, Calif. Production Facility Yahoo Finance - Nov 3, 2016 Calavo Growers, Inc.  has completed the purchase of a 128,000-square-foot facility  in Riverside, Calif.'
p5
aS'Calavo Growers Inc.  Moves Lower on Volume Spike for March 03 Equities.com - Mar 3, 2017 Calavo Growers Inc.  traded on unusually high volume on Mar. 03, as the stock lost 2.67% to close at $52.80. On the day, Calavo Growers Inc. saw 362,062 shares trade hands on 2,657 trades. Considering that the stock averages only a daily volume&nbsp;...Calavo Growers, Inc.  to Release Earnings on Monday - Chaffey BreezeThe Calavo Growers, Inc.  Shares Bought by Martingale Asset Management LP - DailyQuint'
p6
aS"Insider Trading Activity Calavo Growers, Inc.   Chairman Bought ... Market Exclusive - Mar 14, 2017 Lecil E Cole , Chairman of Calavo Growers, Inc.  reportedly Bought 95,000 shares of the company's stock at an average price of 56.42 for a total transaction amount of $5,359,900.00 SEC Form.Calavo Growers Inc.  Moves Lower on Volume Spike for March 13 - Equities.comMichael A. Browne Acquires 2000 Shares of Calavo Growers, Inc.  Stock - Sports Perspectives"
p7
aS'Is Calavo Growers, Inc.  Preparing For A Breakout Trade? Post Analyst - 17 hours ago Calavo Growers, Inc.  traded at an unexpectedly high level on 03/17/2017 when the stock experienced a -4.43% loss to a closing price of $58.3.Stocks Favored By Analysts: Calavo Growers, Inc.  Five9, Inc ... - Davidson RegisterTarget Price Review on Calavo Growers, Inc.  - Rockville Register'
p8
aS"Calavo Growers, Inc. Announces Record Fiscal 2016 Fourth Quarter and Full-Year ... Business Wire  - Dec 20, 2016 SANTA PAULA, Calif.----Calavo Growers, Inc. , a global avocado-industry leader and expanding provider of value-added fresh food, today reported record fiscal 2016 fourth-quarter and full-year results.Calavo Growers' Upcoming Fiscal Year 2017 Looks Bright - Seeking Alpha"
p9
aS'Calavo Growers Inc.  Moves Higher on Volume Spike for March 15 Equities.com - Mar 15, 2017 Calavo Growers Inc.  traded on unusually high volume on Mar. 15, as the stock gained 1.2% to close at $59.20. On the day, Calavo Growers Inc. saw 387,498 shares trade hands on 3,607 trades. Considering that the stock averages only a daily&nbsp;...Calavo Growers, Inc.  Reaches $59.30 After 8.00% Up Move, Sunstone Hotel ... - Herald KSCalavo Growers, Inc.  Chairman Lecil E. Cole Purchases 95000 Shares - Sports Perspectives'
p10
a.