(lp0
S"Digirad Corporation to Release 2016 Fourth Quarter and Year-End Financial ... GlobeNewswire  - Feb 15, 2017 A simultaneous webcast of the call may be accessed online from the Events &amp; Presentations link on the Investor Relations page of the Digirad website at http://drad.client.shareholder.com; an archived replay of the webcast will be available within 15 ...Volatile Mover Inside Radar: Digirad Corporation's  stock price ... - WsNews 4investors"
p1
aS'Digirad Corporation to Present at the 29th Annual ROTH Conference on March 14 ... GlobeNewswire  - Feb 28, 2017 SUWANEE, Ga., Feb. 28, 2017  -- Digirad Corporation , today announced that it will present at the 29th Annual ROTH Conference.'
p2
aS'Digirad Corporation  Looks Good: Stock Jumps 10% Nasdaq - Feb 27, 2017 Digirad Corporation DRAD was a big mover last session, as the company saw its shares rise almost 10% on the day. The move came after the company reported better-than-expected fourth-quarter 2016 results.Zacks Investment Research downgraded Digirad Corporation  to Sell ... - Breaking Finance News'
p3
aS'Digirad Corporation Announces Agreement to Acquire DMS Health Technologies for ... GlobeNewswire  - Oct 14, 2015 SUWANEE, Ga. and FARGO, N.D., Oct. 14, 2015  -- Digirad Corporation  , the leader in providing healthcare solutions on an as needed, when needed, and where needed basis, today announced that it has&nbsp;...Digirad Corp.  to Acquire Project Rendezvous in $36M Deal - StreetInsider.com'
p4
aS'Given Its Low Debt-Load, Is Digirad Corporation  A Financially Sound ... Simply Wall St - Feb 24, 2017 Small-cap companies such as Digirad Corporation  with its market cap of USD $93 Million, benefit the most from improving economic conditions due to the growth potential, but on the other hand they also are highly prone to a downturn, thus&nbsp;...DIGIRAD CORPORATION  Files An 8-K Results of Operations and ... - Market Exclusive'
p5
aS'Digirad Corporation  Looks Good: Stock Jumps 10% February 27, 2017 Zacks.com - Feb 27, 2017 Digirad Corporation  was a big mover last session, as the company saw its shares rise almost 10% on the day.'
p6
aS'Digirad Corporation Announces Closing of DMS Health Technologies Acquisition ... GlobeNewswire  - Jan 5, 2016 SUWANEE, GA and FARGO, ND, Jan. 05, 2016  -- Digirad Corporation  , the leader in providing healthcare solutions on an as needed, when needed, and where needed basis, announced&nbsp;...'
p7
aS'Digirad: A Growth Stock To Consider Seeking Alpha - Dec 15, 2016 Digirad Corporation  is a dividend play with lots of upside. The acquisition of DMS Health Technologies is a game changer for Digirad because it opens it to more opportunities for revenue growth.'
p8
aS'Digirad Corporation Acquires MD Office Solutions, Inc. GlobeNewswire  - Mar 6, 2015 SUWANEE, Ga., March 6, 2015  -- Digirad Corporation , the leader in providing diagnostic imaging services and technology on an as needed, when needed and where needed basis, announced today that it acquired MD&nbsp;...'
p9
aS'Digirad Corporation  Ex-Dividend Date Scheduled for February 11, 2016 Nasdaq - Feb 10, 2016 Digirad Corporation  will begin trading ex-dividend on February 11, 2016. A cash dividend payment of $0.05 per share is scheduled to be paid on February 29, 2016.'
p10
a.