(lp0
S"ChannelAdvisor: Shifting Business Model Creates A Buying Opportunity Seeking Alpha - Nov 18, 2016 Since its IPO, ChannelAdvisor's stock has been all over the place: soaring to sky-high valuations based on revenue growth, and then crashing down to single-digits as growth decelerated."
p1
aS'News ChannelAdvisor Corp.ECOM Wall Street Journal - May 18, 2013 News ChannelAdvisor Corp.ECOM. Significant News Only. 03/07/17; Press Release. ChannelAdvisor to Announce Significant Platform Enhancements at Catalyst Americas 2017.'
p2
aS'The Analysts Set ChannelAdvisor Corp  PT at $18.00 Petro Global News 24 - Mar 13, 2017 Shares of ChannelAdvisor Corp  have earned a consensus rating of Hold from the six research firms that are presently covering the company.ChannelAdvisor Corp  Receives $18.00 Average Price Target from Analysts - Chaffey BreezeNext Weeks Broker Price Targets For ChannelAdvisor Corporation  - Fiscal Standard'
p3
aS'ChannelAdvisor Corporation  Soars 6.16% on February 20 Equities.com - Feb 20, 2017 ChannelAdvisor Corporation  had a good day on the market for Monday February 20 as shares jumped 6.16% to close at $11.20.Take a look at Price Fluctuations: ChannelAdvisor Corporation  - Is storiesOne Stock Analysts Are Watching  ChannelAdvisor Corporation  - UK Market News'
p4
aS'Option Market Alert: ChannelAdvisor Corporation Implied Price Swing Hits An ... CML News - 10 hours ago No Risk Alert Here: Before we dive into any analysis we simply note that ChannelAdvisor Corporation  risk is neither elevated nor depressed.'
p5
aS'ChannelAdvisor Corporation  Moves Lower on Volume Spike for February 10 Equities.com - Feb 10, 2017 ChannelAdvisor Corporation  traded on unusually high volume on Feb. 10, as the stock lost 23.86% to close at $10.85. On the day, ChannelAdvisor Corporation saw 1.11 million shares trade hands on 5,633 trades. Considering that the stock averages&nbsp;...ChannelAdvisor Corporation  Posts Earnings Results - Sports Perspectives'
p6
aS'ChannelAdvisor Corporation  Moves Lower on Volume Spike for February 23 Equities.com - Feb 23, 2017 ChannelAdvisor Corporation  traded on unusually high volume on Feb. 23, as the stock lost 1.85% to close at $10.60. On the day, ChannelAdvisor Corporation saw 233,771 shares trade hands on 1,607 trades. Considering that the stock averages&nbsp;...'
p7
aS'Mid-Day Market Update: Infinera Surges On Earnings Beat; ChannelAdvisor Shares ... Benzinga - Feb 10, 2017 ChannelAdvisor Corp  shares dropped 22 percent to $11.15 following Q4 results. ChannelAdvisor reported Q4 net income of $5.8 million on revenue of $31.8 million.Mid-Morning Market Update: Markets Open Higher; NVIDIA Beats Q4 Views - Nasdaq'
p8
aS'ChannelAdvisor Corporation  Moves Lower on Volume Spike for February 16 Equities.com - Feb 16, 2017 ChannelAdvisor Corporation  traded on unusually high volume on Feb. 16, as the stock lost 0.94% to close at $10.55. On the day, ChannelAdvisor Corporation saw 202,846 shares trade hands on 1,549 trades. Considering that the stock averages&nbsp;...'
p9
aS"ChannelAdvisor's  CEO David Spitz on Q4 2016 Results - Earnings Call ... Seeking Alpha - Feb 10, 2017 Good day, ladies and gentlemen, and welcome to ChannelAdvisor Fourth Quarter 2016 Earnings Call. At this time, all participants are in a listen-only mode."
p10
a.