(lp0
S"Is It Time to go for CyrusOne Inc. , Energen Corporation ? StockNewsJournal - 17 hours ago Energen Corporation , maintained return on investment for the last twelve months at -3.91, higher than what Reuters data shows regarding industry's average.Energen Corp  Files Form 4 Insider Selling : John S Richardson Sells 6500 ... - Energy IndexThe Insider John Richardson Sold 6500 shares of Energen ; Polypipe Group ... - Wolcott Daily"
p1
aS'Analyst Activity  Deutsche Bank AG Lowers Its Price Target On Energen ... Market Exclusive - Mar 7, 2017 Today, Deutsche Bank AG lowered its price target on Energen Corporation  to $62.00 per share. There are 7 hold ratings, 19 buy ratings on the stock.Energen Corporation  Moves Lower on Volume Spike for March 08 - Equities.comEnergen Corporation  Downgraded by Zacks Investment Research - Chaffey Breeze'
p2
aS'Investor Update: Checking on Shares of Energen Corporation  Sherwood Daily - 13 hours ago Tracking shares of Energen Corporation , the company has a current EV  of 5630476. Enterprise Value measures the total value of a specific company.'
p3
aS'Energen: 2017 Permian Power Play Seeking Alpha - Jan 27, 2017 Energen  is an oil and natural gas exploration and production company based in Birmingham, Alabama that has emerged from the downturn with a cash-rich balance sheet and core acreage in the most prolific play in the United States, the&nbsp;...'
p4
aS"Insider Trading Activity Energen Corporation   Chairman Sold 16662 ... Market Exclusive - Feb 16, 2017 On 9/12/2013 J David Woodruff, Jr., General Counsel Sell, 2,500 $70.76 with an average share price of $176,900.00 View SEC Filing 9/4/2013 per share and the total transaction amounting to J T Mcmanus.Equity Perception: Analyst's Indicator Review for Energen Corporation (EGN ... - The USA Commerce"
p5
aS'Energen Corporation  Files An 8-K Departure of Directors or Certain ... Market Exclusive - Feb 12, 2017 Energen Corporation  is an oil and natural gas exploration and production company. The Company is engaged in the exploration, development and production of oil and natural gas properties and natural gas in the Permian Basin in west Texas and&nbsp;...'
p6
aS'Revenue Approximations Analysis: Energen Corporation , ViaSat, Inc.  StockNewsJournal - Mar 16, 2017 Energen Corporation  have shown a high EPS growth of -20.80% in the last 5 years and has earnings decline of 85.70% yoy.Stock Returns: Clayton Williams Energy Inc  is Beating Energen ... - CML News'
p7
aS"Energen's Position In Permian Basin Makes It 1 Of Williams Capital's Top Picks ... Benzinga - Aug 29, 2016 Williams Capital has started coverage of Energen Corporation  with a Buy rating and $68 target price on company's strong position in the Permian Basin and balance sheet."
p8
aS'Energen Corporation Stock Volatility Hits An Inflection Point CML News - Mar 16, 2017 This is a proprietary realized volatility rating created by Capital Market Laboratories  based on a large number of data interactions for Energen Corporation  . We examine the little used gem of daily stock volatility over a 20-day ...'
p9
aS"Why Analysts put forward these two stocks: Energen Corporation , People's ... The USA Commerce - Mar 17, 2017 Presently Energen Corporation  stock have an ABR of 1.65. This is built on a simplified 1 to 5 scale where 1 represents a Strong Buy and 5 a Strong Sell.Is Energen Corporation  Preparing For A Breakout Trade? - Post Analyst"
p10
a.