(lp0
S'Endeavour International Corporation Announces Closing of $440 Million Senior ... PR Newswire  - Oct 1, 2014 HOUSTON, Oct. 1, 2014 /PRNewswire/ -- Endeavour International Corporation   today announced the closing of a $440 million senior secured term loan  with an annual interest rate of LIBOR plus 10% (with a&nbsp;...'
p1
aS"Endeavour Files for Bankruptcy in Debt Swap With Bondholders Wall Street Journal - Oct 11, 2014 Endeavour International Corp., a Houston-based oil and gas company, filed for bankruptcy protection late Friday night as part of a debt-for-equity swap with bondholders that will slash about $568 million in debt off the company's books.North Sea challenges Endeavour International - Houston ChronicleEndeavour Executes Restructuring Support Agreement Pursuant to Chapter 11 ... - PR Newswire "
p2
aS'Endeavour Keeps Disappointing, But The Upside Is Significant Seeking Alpha  - Sep 3, 2014 For those of you not familiar with this company, Endeavour International Corp.  is an independent oil and gas company engaged in the exploration, development and acquisition of energy reserves in the U.S.'
p3
aS'Endeavour Gets Nod To End Ch. 11 In Structured Dismissal Law360  - Oct 17, 2015 Law360, Wilmington  -- A Delaware bankruptcy judge on Friday agreed to allow Endeavour Operating Corp. to go ahead with a so-called structured dismissal of its Chapter 11 case after the oil company struck a deal with&nbsp;...'
p4
aS'Oil crash forces Endeavour to seek sale, abandon bankruptcy plan Reuters - Apr 30, 2015 April 30 Weak energy prices have forced bankrupt oil-and-gas company Endeavour International Corp to abandon a deal with bondholders to cut its debt by $568 million and instead seek buyers for its U.S.'
p5
aS'Lone Star Value Issues Open Letter To Endeavour International Shareholders PR Newswire  - May 13, 2014 NEW YORK, May 13, 2014 /PRNewswire/ -- Lone Star Value Management, LLC , a significant shareholder of Endeavour International Corporation (&quot;Endeavour&quot; or the&nbsp;...'
p6
aS'Endeavour International puts all its assets up for sale FuelFix  - Jun 1, 2015 Endeavour International, which filed for bankruptcy protection last fall, is planning to put all its oil and gas producing assets up for sale.'
p7
aS"Bankruptcy MVP: Weil Gotshal's Gary Holtzer Law360  - Dec 15, 2016 ... leading the $1.1 billion prepackaged reorganization of oil services company Paragon Offshore, representing Halcn Resources Corp."
p8
aS'The Endeavour Capital Advisors Inc. Acquires Shares of 63411 Crown Castle ... DailyQuint - Feb 26, 2017 Endeavour Capital Advisors Inc. acquired a new stake in shares of Crown Castle International Corporation  during the fourth quarter, Holdings Channel reports.'
p9
aS"Acacia Mining and Endeavour merger could be compelling - analyst Proactive Investors UK - Jan 16, 2017 Nganou notes that it wouldn't quite be a merger of equals, with Acacia valued at US$2.2bn versus Endeavour's US$1.7bn, but he reckons there's a strong case to be made for a merger to proceed.Rival miners Acacia and Endeavour mull $4-billion merger - The Globe and MailBillionaire Sawiris behind planned Endeavour-Acacia merger - Financial Times"
p10
a.