(lp0
S'EnerSys Reports Fourth Quarter and Full Year Fiscal 2016 Results PR Newswire  - May 31, 2016 READING, Pa., May 31, 2016 /PRNewswire/ -- EnerSys  the global leader in stored energy solutions for industrial applications, announced today results for its fourth quarter and full year of fiscal 2016, which ended on March 31, 2016.'
p1
aS'EnerSys Acquires Florida Based Advanced Lithium Battery Manufacturing Business PR Newswire  - Apr 14, 2016 READING, Pa., April 14, 2016 /PRNewswire/ -- EnerSys , the global leader in stored energy solutions for industrial applications, today announced that it has completed the acquisition of certain assets of The Enser Corporation ,&nbsp;...EnerSys acquires Florida-based battery manufacturer - Reading Eagle'
p2
aS'Enersys  Ex-Dividend Date Scheduled for March 15, 2017 Nasdaq - Mar 14, 2017 Enersys  will begin trading ex-dividend on March 15, 2017. A cash dividend payment of $0.175 per share is scheduled to be paid on March 31, 2017.EnerSys  Shares Sold by Royce &amp; Associates LP - BNB Daily EnerSys  to Issue Quarterly Dividend of $0.18 on March 31st - Chaffey Breeze'
p3
aS"EnerSys  Beats on Q3 Earnings; Revenues Miss Estimate Nasdaq - Feb 9, 2017 EnerSys' operating earnings for the quarter remained flat year over year at $55.1 million. Nevertheless, gross margin expanded 230 basis points to 27.7."
p4
aS'EnerSys - Acquisition Machine Looks Appealing, Despite Headwinds Seeking Alpha - Apr 18, 2016 EnerSys  announced that it has acquired certain assets from Enser Corporation, a Florida-based manufacturer of molten salt thermal batteries.'
p5
aS'Enersys, Exide Technologies Land DLA Contracts to Provide Army Storage Batteries ExecutiveBiz  - 13 hours ago The Defense Logistics Agency has awarded a potential $71.1 million contract to Enersys Energy Products and a separate $47.4 million contract to Exide Technologies to supply the U.S.'
p6
aS'Enersys  Moves Higher on Volume Spike for March 15 Equities.com - Mar 15, 2017 Enersys  traded on unusually high volume on Mar. 15, as the stock gained 1.01% to close at $76.50. On the day, Enersys saw 635,379 shares trade hands on 5,061 trades. Considering that the stock averages only a daily volume of 200,735 shares a&nbsp;...Smart Money Selling the Price Strength of Enersys  - Highland MirrorTwo Sigma Investments LP Sells 87493 Shares of EnerSys  - Sports Perspectives'
p7
aS'BRIEF-Enersys reports Q3 adjusted earnings per share $1.18 Reuters - Aug 2, 2016 BRIEF-Enersys reports Q3 adjusted earnings per share $1.18. Feb 8 Enersys : * Enersys reports third quarter fiscal 2017 results.'
p8
aS'Enersys  Moves Higher on Volume Spike for March 01 Equities.com - Mar 1, 2017 Enersys  traded on unusually high volume on Mar. 01, as the stock gained 3.78% to close at $79.63. On the day, Enersys saw 354,194 shares trade hands on 3,543 trades. Considering that the stock averages only a daily volume of 208,647 shares a&nbsp;...Latest Stocks: Bank of Montreal Can Buys 19030 Shares of Enersys  - Petro Global News 24'
p9
aS'EnerSys turns in strong third quarter Reading Eagle - Feb 10, 2017 Bern Township-based EnerSys, an industrial battery maker, reported strong net earnings for the third quarter of fiscal 2017 of $36.2 million, or 82 cents per diluted share.'
p10
a.