(lp0
S"Why ExamWorks Group Inc Shares Are Falling Hard Today Motley Fool - Nov 5, 2015 What: Shares of ExamWorks Group , a provider of independent medical exams, were down more than 19% in early morning trading today after investors gave the company's third quarter earnings report a failing grade. So what: Revenue in third&nbsp;..."
p1
aS"Moody's places ExamWorks Group's ratings under review for downgrade Moodys.com   - Apr 27, 2016 New York, April 27, 2016 -- Moody's Investors Service placed the ratings of ExamWorks Group, Inc.  under review for downgrade, including the company's B2 Corporate Family Rating, B2-PD Probability of Default Rating, as well as the B3 ..."
p2
aS'ExamWorks Completes Acquisition of ABI Document Support Services GlobeNewswire  - Jan 11, 2016 ATLANTA, GA., Jan. 11, 2016  -- ExamWorks Group, Inc. , a leading provider of independent medical examinations, peer reviews, bill reviews, Medicare compliance services, case management services, and other related&nbsp;...Examworks Group  Acquires ABI Document Support Services in $62M Deal - StreetInsider.com'
p3
aS'Examworks Group, Inc.  Goes Private As $2.2 Billion Change Hands Market Exclusive - Jul 28, 2016 The acquisition journey that began several months ago and involved Examworks Group, Inc.  and a private-equity firm has come to completion.'
p4
aS'ExamWorks: The Case For Downside Seeking Alpha - Jan 16, 2015 ExamWorks  operates in four countries: Australia, Canada, the United Kingdom and the United States. The company provides independent medical examinations , peer and bill reviews, and related services, including litigation support and&nbsp;...'
p5
aS'ExamWorks Completes Acquisition of Advanced Medical Reviews GlobeNewswire  - Jan 19, 2016 ATLANTA, GA., Jan. 19, 2016  -- ExamWorks Group, Inc. , a leading provider of independent medical examinations, peer reviews, bill reviews, Medicare compliance services, case management services, and other related&nbsp;...Examworks Group  Acquires Advanced Medical Reviews for $30M - StreetInsider.com'
p6
aS'Robbins Arroyo LLP: Acquisition of ExamWorks Group, Inc.  by Leonard ... Business Wire  - Apr 27, 2016 SAN DIEGO &amp; ATLANTA----Shareholder rights attorneys at Robbins Arroyo LLP are investigating the proposed acquisition of ExamWorks Group, Inc.  by Leonard Green &amp; Partners, L.P. On April 27, 2016, the two companies&nbsp;...Leonard Green to Buy ExamWorks in $2.2 Billion Deal - Wall Street JournalExamWorks to be bought by Leonard Green in $2.2 billion deal - Reuters'
p7
aS"Pulling the Curtain Back on ExamWorks Group, Inc.  Earnings ... Melville Review - 18 hours ago Wall Street is predicting that ExamWorks Group, Inc. 's earnings per share  will be $N/A when the firm is expected to announce earnings around N/A."
p8
aS'ExamWorks Investors Seek Stock Appraisal After $2B Buyout Law360  - Aug 26, 2016 Law360, Wilmington  -- Investors in independent medical exam company ExamWorks Group Inc. petitioned the Delaware Chancery Court on Thursday to appraise the value of its shares now that the deal for Leonard Green&nbsp;...'
p9
aS"ExamWorks: The Case For Upside Seeking Alpha - Aug 19, 2013 IME's are conducted to verify the veracity of claims by sick or injured individuals, and are facilitated through the company's national physician network; the company captures a spread between what its clients pay to the company and what EXAM pays out ..."
p10
a.