(lp0
S"Exact Sciences Grants Inducement Restricted Stock Unit Awards to Recently ... PR Newswire  - Mar 17, 2017 MADISON, Wis., March 17, 2017 /PRNewswire/ -- Exact Sciences Corp.  today announced that, in support of the Company's continued growth plans, it granted restricted stock units covering a total of 85,421 shares of common stock to 77&nbsp;..."
p1
aS"Investors Are Betting Big Against Exact Sciences Corporation -- Are They Right? Motley Fool - Feb 28, 2017 Molecular diagnostics company Exact Sciences  thinks there's a $4 billion U.S. market opportunity for its proprietary colorectal cancer test, Cologuard.Exact Sciences Corporation , The Michaels Companies, Inc.  Stock ... - The USA Commerce"
p2
aS"Why Exact Sciences Corp. Is Surging 19.3% Today Motley Fool - Jan 9, 2017 Assuming Exact Sciences' expenses fall as a percentage of sales, and management offers a pathway to profitability, then this company could be worth owning in growth portfolios. Since Cologuard was added to national screening guidelines last year,&nbsp;...Exact Sciences to report $99 million in revenues, 150 percent growth for 2016 - PR Newswire Exact Sciences Q4 Sales Beat, Colon-Cancer Test Procedures Double - Investor's Business Daily"
p3
aS"Why Exact Sciences Shares Are Already Up 65% in 2017 Motley Fool - Mar 14, 2017 Kristine Harjes: Our next stock is also another cancer-related oncology company. This one is Exact Sciences, ticker EXAS.Exact Sciences Corporation  Moves Higher on Volume Spike for March 17 - Equities.comLet's Get Complex With Exact Sciences Corporation  - Post Analyst"
p4
aS'Exact Sciences generated $99.4 million in revenues during 2016, a 152-percent ... PR Newswire  - Feb 21, 2017 MADISON, Wis., Feb. 21, 2017 /PRNewswire/ -- Exact Sciences Corp.  today announced that the company generated revenues of $99.4 million and completed approximately 244,000 Cologuard tests during the year ended Dec. 31, 2016.EXACT Sciences  Q4 2016 Results - Earnings Call Transcript - Seeking Alpha'
p5
aS'Exact Sciences and Mayo Clinic study shows promise of new blood-based lung ... PR Newswire  - Mar 1, 2017 MADISON, Wis., March 1, 2017 /PRNewswire/ -- A study from Exact Sciences Corp.  and Mayo Clinic released today by the American Association of Cancer Research  shows promise for the development of a blood-based lung cancer&nbsp;...'
p6
aS"Checking Out the Technicals for Exact Sciences Corporation  The USA Commerce - 14 hours ago We have gathered the technical data on Exact Sciences Corporation , and see some interesting trends in the stock's behavior of late."
p7
aS'Stock Returns: Exact Sciences Corporation  versus Ironwood ... CML News - 12 hours ago This is a snapshot to compare the stock returns for Exact Sciences Corporation  versus Ironwood Pharmaceuticals Inc  .Featured Stock: Exact Sciences Corporation  - HugoPressEarnings Clues on Exact Sciences Corporation , Exelixis, Inc. (EXEL ... - StockNewsJournal'
p8
aS'Investor Chatter: Looking at Shares of Exact Sciences Corporation  Sherwood Daily - 12 hours ago Looking at shares of Exact Sciences Corporation , the company has an EV  of 2047382. Enterprise Value is a measure of the total value of a specific company.'
p9
aS'Exact Sciences Corporation  And The Naked Truth Exposed In Its Technicals NY Stock News - 15 hours ago Exact Sciences Corporation  has created a compelling message for traders in the most recent trading. That message has grown stronger as the technical chart setup has developed into a more composite picture for the stock.'
p10
a.