(lp0
S'Archrock, Inc. Reports Fourth-Quarter and Full-Year 2016 Results GlobeNewswire  - Feb 23, 2017 HOUSTON, Feb. 23, 2017  -- Archrock, Inc.  today reported a net loss from continuing operations of $45.7 million in the fourth quarter of 2016, compared to a net loss from continuing operations of $10.0 million in the third&nbsp;...Archrock Inc. reports 4Q loss - Yahoo FinanceArchrock Inc.  Moves Lower on Volume Spike for February 24 - Equities.com'
p1
aS'Option Market Alert: Archrock Inc Implied Price Swing Hits An Inflection Point CML News - 10 hours ago No Risk Alert Here: Before we dive into any analysis we simply note that Archrock Inc  risk is neither elevated nor depressed.'
p2
aS'News Archrock Inc.AROC Wall Street Journal - Nov 4, 2015 News Archrock Inc.AROC. Significant News Only. 02/23/17; Press Release. Archrock, Inc. Reports Fourth-Quarter and Full-Year 2016 Results.'
p3
aS'Archrock Inc. MarketWatch - Nov 4, 2015 Check out the returns on our 8 Lazy Portfolios that are made up of low-cost buy-and-hold index funds.  How to create your own Lazy Portfolio.'
p4
aS'Which insiders are trading Archrock, Inc. ? Post Analyst - 20 hours ago Archrock, Inc.  reached 135.02% versus a 1-year low price of $5.6. The stock was last seen 3.28% higher, reaching at $12.6 on Mar. 17, 2017.Public Sector Pension Investment Board Has $632000 Stake in Archrock Inc  - BNB Daily Biggest Energy Movers: Williams Partners LP , Archrock, Inc.  - TWN'
p5
aS'Archrock, Inc. Completes Spin-Off of Exterran Corporation Business Wire  - Nov 4, 2015 HOUSTON----Archrock, Inc.  today announced the completion of the previously announced spin-off of the international services and global fabrication businesses of Exterran Holdings, Inc. into a new, publicly traded company,&nbsp;...Houston energy company spins off international business, changes name - Houston Business Journal'
p6
aS'Insider Trading Activity Archrock Inc   CFO Sold 3265 shares of Stock Market Exclusive - Mar 8, 2017 On 8/10/2012 Kenneth R Bickett, VP, sold 6,246 with an average share price of $18.49 per share and the total transaction amounting to $115,488.54.Insider Trading at Archrock Partners LP? - BBNSExterran Partners, LP  Reviewed By Analysts - The De Soto Edge'
p7
aS'Archrock Inc.  Soars 5.51% on March 15 Equities.com - Mar 15, 2017 Archrock Inc.  had a good day on the market for Wednesday March 15 as shares jumped 5.51% to close at $12.45. About 605,292 shares traded hands on 4,488 trades for the day, compared with an average daily volume of 607,859 shares out of a&nbsp;...'
p8
aS'Archrock Inc  Heffx Technical Analysis Downward Trend Live Trading News - Feb 27, 2017 During the past 10 bars, there have been 2 white candles and 4 black candles for a net of 2 black candles. During the past 50 bars, there have been 19 white candles and 25 black candles for a net of 6 black candles.'
p9
aS'Archrock, Inc. Receives NYSE Notice Regarding Late Form 10-Q Filing Business Wire  - May 19, 2016 HOUSTON----Archrock, Inc.   announced today that on May 17, 2016, it received a notice from the New York Stock Exchange  indicating that Archrock is not in compliance with the&nbsp;...'
p10
a.