(lp0
S"FTI Consulting Appoints Todd Lester to Boost EPP Practice Zacks.com - Mar 14, 2017 FTI Consulting, Inc.  recently announced the appointment of Todd Lester as Senior Managing Director of the firm's Economic Consulting segment and its Energy, Power &amp; Products  industry practice.FTI Consulting Inc.  Moves Lower on Volume Spike for March 17 - Equities.com"
p1
aS'FTI Consulting Professionals Recognized as Leading Forensic Accountants and ... GlobeNewswire  - Mar 15, 2017 FTI Consulting, Inc. is a global business advisory firm dedicated to helping organizations manage change, mitigate risk and resolve disputes: financial, legal, operational, political &amp; regulatory, reputational and transactional.'
p2
aS"FTI Consulting Expands Energy, Power &amp; Products Practice with the Addition of ... GlobeNewswire  - Mar 2, 2017 WASHINGTON, March 02, 2017  -- FTI Consulting, Inc.  today announced that Todd Lester has joined the firm's Economic Consulting segment and its Energy, Power &amp; Products  industry practice as a Senior Managing&nbsp;..."
p3
aS"FTI Consulting's Global Shareholder Activism Map Illustrates the Growth of ... GlobeNewswire  - Feb 15, 2017 WASHINGTON, Feb. 15, 2017  -- FTI Consulting, Inc.  published an update to its interactive Global Shareholder Activism Map, which shows that shareholder activism gained momentum and geographic breadth in 2016."
p4
aS'FTI Consulting Projects US Online Retail Sales to Approach $440 Billion in 2017 GlobeNewswire  - Nov 1, 2016 FTI Consulting, Inc. is a global business advisory firm dedicated to helping organizations manage change, mitigate risk and resolve disputes: financial, legal, operational, political &amp; regulatory, reputational and transactional.'
p5
aS"Claire's Is Said to Tap FTI Consulting for Help Bloomberg - Sep 23, 2016 FTI Consulting Inc. is advising Claire's Stores Inc. as the beleaguered chain works to stave off default, according to people with knowledge of the situation."
p6
aS"FTI Consulting, Inc. Announces $100.0 Million Stock Repurchase Program GlobeNewswire  - Jun 2, 2016 WASHINGTON, June 02, 2016  -- FTI Consulting, Inc. , the global business advisory firm dedicated to helping organizations protect and enhance their enterprise value, today announced that on June 2, 2016, FTI Consulting's&nbsp;..."
p7
aS'FTI CONSULTING, INC.  Files An 8-K Regulation FD Disclosure Market Exclusive - Mar 1, 2017 FTI Consulting, Inc.  is a business advisory firm. The Company operates through five segments: Corporate Finance &amp; Restructuring, Forensic and Litigation Consulting, Economic Consulting, Technology and Strategic Communications.FTI Consulting, Inc. Expected to Post Q3 2017 Earnings of $0.59 Per Share  - BNB Daily SunTrust Banks Analysts Raise Earnings Estimates for FTI Consulting, Inc.  - The Cerbat Gem'
p8
aS'FTI CONSULTING, INC. StreetInsider.com - Mar 17, 2017 FTI Consulting, Inc.  uses a presentation from time to time in its discussions with investors .'
p9
aS'FTI Consulting  Misses on Q4 Earnings, Stock Falls Yahoo Finance - Mar 1, 2017 Management services provider FTI Consulting, Inc. FCN reported tepid fourth-quarter 2016 results with adjusted earnings of $9.9 million or 24 cents per share compared with $10.2 million or 24 cents per share in the year-earlier quarter on relatively ...FTI Consulting  Q4 2016 Results - Earnings Call Transcript - Seeking AlphaFTI Consulting, Inc.  Releases FY17 Earnings Guidance - BNB Daily '
p10
a.