(lp0
S'Franklin Electric Co. Inc.  Moves Higher on Volume Spike for March 17 Equities.com - Mar 17, 2017 Franklin Electric Co. Inc.  traded on unusually high volume on Mar. 17, as the stock gained 1.69% to close at $42.00.State Board of Administration of Florida Retirement System Has $1601000 ... - Sports Perspectives'
p1
aS"Franklin Electric Reports Fourth Quarter 2016 Sales and Earnings GlobeNewswire  - Feb 21, 2017 21, 2017  -- Franklin Electric Co., Inc.  reported fourth quarter 2016 GAAP fully diluted earnings per share  of $0.37, versus a GAAP fully diluted EPS in the fourth quarter 2015 of $0.33, an increase of 12 percent.Franklin Electric Co's  CEO Gregg Sengstack on Q4 2016 Results ... - Seeking AlphaIs Franklin Electric Co Inc  As Financially Strong As Its Low Debt-Load ... - Simply Wall St"
p2
aS'The State Board of Administration of Florida Retirement System Has $1601000 ... Petro Global News 24 - 2 hours ago State Board of Administration of Florida Retirement System continued to hold its stake in shares of Franklin Electric Co.  during the fourth quarter, Holdings Channel reports.Stock Watch on Shares of Franklin Electric Co., Inc.  - The Herald'
p3
aS'Franklin Electric Appoints Jonathan Grandon as Chief Administrative Officer ... GlobeNewswire  - Sep 12, 2016 FORT WAYNE, Ind., Sept. 12, 2016  -- Franklin Electric Co., Inc.  announced today the appointment of Jonathan M. Grandon as Chief Administrative Officer and General Counsel of the Company.'
p4
aS'Franklin Electric Co., Inc.  EPS Projection At $0.455 RealistInvestor.com - 14 hours ago Franklin Electric Co., Inc.  is likely to account earnings of $0.455 for prior quarter, which can come on 2017-05-01.'
p5
aS'Franklin Electric Co., Inc.  Daily Sentiment At 0.685 Markets Daily - 9 hours ago Franklin Electric Co., Inc.  has been given a 0.685 daily sentiment score. This dataset comprises average sentiment and impact scores figured on all articles linked to Franklin Electric Co., Inc. , published in preceding 24 ...'
p6
aS'Common Share Dividend Yield of Franklin Electric Co., Inc.  Energy Index - Mar 15, 2017 The dividend growth rate of Franklin Electric Co. calculated based on 20 historical quarterly dividends is 9.36% while the R-Squared dividend growth rate regression is 0.93.'
p7
aS"'Franklin Electric' Reading Series Coming to Crown Heights Co-Working Space DNAinfo - Feb 1, 2016 The event is set to take place in a 40-seat community space at Franklin Electric, a new office space at 650 Franklin Ave., said co-host Victoria Kornick. A writer herself, Kornick is launching the new reading series with three college friends who, like ..."
p8
aS"Pulling the Curtain Back on Franklin Electric Co., Inc.  Earnings ... Melville Review - 11 hours ago Wall Street is predicting that Franklin Electric Co., Inc. 's earnings per share  will be $0.35 when the firm is expected to announce earnings around 2017-05-01."
p9
aS'Risk Malaise Alert in Option Market: Franklin Electric Co. Inc Implied Price ... CML News - Mar 17, 2017 Before we dive into any analysis we simply note that Franklin Electric Co. Inc  risk is actually priced pretty low by the option market as of right now.'
p10
a.