(lp0
S'How F5 Networks, Inc. Gained 11% in October Motley Fool - Nov 13, 2016 Shares of F5 Networks  rose 10.9% in October, according to data from S&amp;P Global Market Intelligence. The specialist in secure application delivery platforms got off to a bad start as share prices fell more than 5% in the first two weeks of&nbsp;...'
p1
aS'F5 Networks  Poised for Long-Term Growth Despite Risks Nasdaq - Mar 15, 2017 One such stock that investors need to hold on to right now is F5 Networks Inc. FFIV . Though there are a few concerns, these are short-lived.Long-Term Growth Estimate Of F5 Networks, Inc.  At $11.8578 - Transcript Daily'
p2
aS"Why F5 Networks, Inc. Jumped This Morning Motley Fool - Oct 27, 2016 Including today's pop, F5 investors have seen their shares rising 35% so far in 2016. Data security is a hot item again, punctuated by a high-profile denial-of-service attack taking down several popular online services last Friday."
p3
aS"F5 Networks, Inc.  Files An 8-K Submission of Matters to a Vote ... Market Exclusive - Mar 14, 2017 The Company's Traffic Management Operating System  based offerings include software products for local and global traffic management, network and application security, access management, Web acceleration and various network and application&nbsp;...Smart Money Buying the Price Weakness of F5 Networks, Inc.  - Energy IndexTop Institutional Investors That Own F5 Networks, Inc.  - Post Analyst"
p4
aS'Why F5 Networks, Inc. Jumped 12.6% Today Motley Fool - Jun 7, 2016 Reuters did note that F5 has been the subject of takeover bids before and that the current interest could fizzle out just like the previous ones.Exclusive: F5 Networks hires Goldman to field takeover interest - sources - Reuters UKF5 Networks Potential Buyers: Hewlett Packard, EMC And Cisco Lead The Way - Benzinga'
p5
aS"Running Mover to Focus: F5 Networks, Inc.'s  stock price is Worth at ... Hot Stocks Point - 13 hours ago F5 Networks, Inc. , a part of Technology sector and belongs to Business Software &amp; Services industry; ended its day with gain 0.66% and finalized at the price of $148.79."
p6
aS"F5 Networks  Q4 2016 Results - Earnings Call Transcript Seeking Alpha - Oct 27, 2016 Good afternoon, and welcome to the F5 Networks' Fourth Quarter and Fiscal 2016 Financial Results Conference Call. At this time, all participants will be on listen-only, until the question-and-answer portion."
p7
aS'F5 Networks, Inc.  Position Decreased by Franklin Resources Inc. The Cerbat Gem - 15 hours ago F5 Networks logo Franklin Resources Inc. reduced its position in shares of F5 Networks, Inc.  by 21.3% during the fourth quarter, according to its most recent filing with the Securities and Exchange Commission.F5 Networks, Inc.  Broker Price Targets For The Coming Week - Fiscal StandardF5 Networks, Inc.  EPS Forecast At $1.9 - Transcript Daily'
p8
aS"Insider Trading Activity F5 Networks, Inc.   Insider Sold 21862 ... Market Exclusive - Feb 14, 2017 John Mcadam , Insider of F5 Networks, Inc.  reportedly Sold 21,862 shares of the company's stock at an average price of 139.73 for a total transaction amount of $3,054,777.26 SEC Form.Insider Trading at F5 Networks Inc.? - Sports PerspectivesJonathan Chadwick Sells 3954 Shares of F5 Networks, Inc.  Stock - The Cerbat Gem"
p9
aS'The F5 Networks Inc.  Upgrade at The Zacks Investment Research Petro Global News 24 - Mar 18, 2017 Zacks Investment Research upgraded shares of F5 Networks Inc.  from a hold rating to a buy rating in a report published on Thursday morning.Quarterly EPS Of F5 Networks, Inc.  Anticipated At $1.9? - Markets DailyF5 Networks, Inc.  Reaches $148.63 52-Week High, Last Week Superior ... - Wolcott Daily'
p10
a.