(lp0
S"Featured Stock Update: First Horizon National Corporation  HugoPress - 15 hours ago JP Morgan Upgrades First Horizon National Corporation 's stock to Overweight with no specific Price Target. This rating was issued on 1/05/17.Zacks Provided 2.45 Rating to First Horizon National Corporation  - The Newburgh PressTraders Secrets on Groupon, Inc. , First Horizon National Corporation  - StockNewsJournal"
p1
aS'First Horizon National Corporation  Ex-Dividend Date Scheduled for March ... Nasdaq - Mar 7, 2017 First Horizon National Corporation  will begin trading ex-dividend on March 08, 2017. A cash dividend payment of $0.09 per share is scheduled to be paid on April 03, 2017.'
p2
aS"First Horizon National Corporation  Moves Lower on Volume Spike for March 08 Equities.com - Mar 8, 2017 First Horizon National Corporation  traded on unusually high volume on Mar. 08, as the stock lost 1.41% to close at $19.56.First Horizon National Corporation : What's the Story? - StockNewsJournalWhat Analysts are Predicting For TEGNA Inc. , First Horizon National ... - The USA Commerce"
p3
aS"First Horizon named one of nation's best companies for women GlobeNewswire  - Mar 14, 2017 MEMPHIS, Tenn., March 14, 2017  -- First Horizon National Corp. , parent company of First Tennessee Bank, has been honored by the National Association for Female Executives for being one of the 2017 NAFE Top 60&nbsp;...First Horizon National Corporation  Moves Lower on Volume Spike for March 17 - Equities.comFirst Horizon National Corp  Shares Bought by Janus Capital Management LLC - Chaffey Breeze"
p4
aS"Analyst's Proposition on First Horizon National Corporation , Tangoe, Inc ... The USA Commerce - Mar 17, 2017 Presently First Horizon National Corporation  stock have an ABR of 2.45. This is built on a simplified 1 to 5 scale where 1 represents a Strong Buy and 5 a Strong Sell."
p5
aS'The Charts For First Horizon National Corporation  Is Attracting Massive ... NY Stock News - 14 hours ago The technicals for First Horizon National Corporation  have taken shape, and with them a comprehensive picture has emerged.'
p6
aS"Taking a Look at the Chart for First Horizon National Corporation  The USA Commerce - Mar 14, 2017 We have gathered the technical data on First Horizon National Corporation , and see some interesting trends in the stock's behavior of late."
p7
aS"The Charts For First Horizon National Corporation  Is Speaking Volumes Today NY Stock News - Mar 17, 2017 First Horizon National Corporation  has presented a rich pool of technical data in recent sessions. These are the trends we've been tracking and how we feel they should be played in the current environment."
p8
aS"Analytical Guide for Dick's Sporting Goods, Inc. , First Horizon National ... The USA Commerce - Mar 13, 2017 Shares of Dick's Sporting Goods, Inc.  surged 1.01% to $48.84. During the trading on 03/10/2017, Company's stock ranged from $48.13 to $48.99.2 Stocks Grabbing Analyst Attention: Dick's Sporting Goods, Inc. (NYSE:DKS ... - The Voice Registrar"
p9
aS'Deutsche Bank Kept Ophir Energy  as Buy; First Horizon National (FHN ... HuronReport - Mar 13, 2017 First Horizon National Corporation is a bank holding company. The company has market cap of $4.45 billion. The Firm provides financial services through its subsidiary, First Tennessee Bank National Association .First Horizon National Corporation  Institutional Ownership stands ... - The Newburgh Press'
p10
a.