(lp0
S"Republic First Bancorp, Inc. Adds Lisa R. Jacobs to Board of Directors PR Newswire  - Mar 6, 2017 PHILADELPHIA, March 6, 2017 /PRNewswire/ -- Republic First Bancorp, Inc. , the parent company of Republic Bank, today announced that Lisa R. Jacobs, has joined the company's Board of Directors."
p1
aS'Republic First Bancorp Inc.  Moves Higher on Volume Spike for March 17 Equities.com - Mar 17, 2017 Republic First Bancorp Inc.  traded on unusually high volume on Mar. 17, as the stock gained 1.22% to close at $8.30.'
p2
aS'REPUBLIC FIRST BANCORP, INC.  Files An 8-K Departure of Directors ... Market Exclusive - Mar 6, 2017  On February 28, 2017, Robert J. Coleman, a Class II director of Republic First Bancorp, Inc. , provided the Company notice of his resignation from the board of directors, effective immediately.'
p3
aS"Really worthy Stock Republic First Bancorp, Inc.'s  stock price is Worth ... Hot Stocks Point - 18 hours ago Republic First Bancorp, Inc.  ended its day with gain 1.22% and finalized at the price of $8.30. During its last trading session, Stock traded with the total exchanged volume of 0.62 million shares."
p4
aS"Insider Trading Activity Republic First Bancorp, Inc.   Director ... Market Exclusive - Feb 21, 2017 Barry Spevak , Director of Republic First Bancorp, Inc.  reportedly Sold 3,000 shares of the company's stock at an average price of 8.03 for a total transaction amount of $24,090.00 SEC Form."
p5
aS'Republic Bank Announces Promotion of Two Vice Presidents to Newly Created Team ... PR Newswire  - Apr 5, 2016 PHILADELPHIA, April 5, 2016 /PRNewswire/ -- Republic First Bancorp, Inc. , the parent company of Republic Bank, today announced that two Vice Presidents of Commercial and Industrial Lending, Matt Skilton and Matt Moresco, have been&nbsp;...'
p6
aS'Republic First Bancorp Inc.  Moves Higher on Volume Spike for March 15 Equities.com - Mar 15, 2017 Republic First Bancorp Inc.  traded on unusually high volume on Mar. 15, as the stock gained 0.61% to close at $8.25.Next Weeks Broker Price Targets For Republic First Bancorp, Inc.  - Fiscal Standard'
p7
aS'Republic First Bancorp Inc.  Moves Higher on Volume Spike for February 28 Equities.com - Feb 28, 2017 Republic First Bancorp Inc.  traded on unusually high volume on Feb. 28, as the stock gained 1.27% to close at $8.00.Stock Returns: Republic First Bancorp Inc  is Beating First ... - CML News'
p8
aS'Stock Returns: Republic First Bancorp Inc  is Beating Capital ... CML News - Feb 16, 2017 This is a snapshot to compare the stock returns for Capital City Bank Group Inc  versus Republic First Bancorp Inc  . The stock return points we compare look at the last three-months, six-months and twelve-months. At the end&nbsp;...'
p9
aS'Stock Returns: Republic First Bancorp Inc  is Beating Stonegate ... CML News - Feb 6, 2017 This is a snapshot to compare the stock returns for Republic First Bancorp Inc  versus Stonegate Bank  .'
p10
a.