(lp0
S'Price Alert: Greene County Bancorp Inc  Stock Nears Resistance ... CML News - Mar 19, 2017 Price Alert: Greene County Bancorp Inc  has now crossed into technical strength -- watch the technical oscillators for momentum gaps.'
p1
aS'Greene County Bancorp Inc.  Moves Higher on Volume Spike for March 17 Equities.com - Mar 17, 2017 Greene County Bancorp Inc.  traded on unusually high volume on Mar. 17, as the stock gained 4.06% to close at $23.05.'
p2
aS"Greene County Bancorp, Inc. Declares Two-for-One Stock Split GlobeNewswire  - Feb 17, 2016 CATSKILL, N.Y., Feb. 17, 2016  -- Greene County Bancorp, Inc.  today announced that its Board of Directors has declared a two-for-one stock split on the Company's outstanding common stock."
p3
aS'Greene County Bancorp Inc.  Moves Higher on Volume Spike for February 20 Equities.com - Feb 20, 2017 Greene County Bancorp Inc.  traded on unusually high volume on Feb. 20, as the stock gained 4.67% to close at $23.55.'
p4
aS'Greene County Bancorp Inc.  Moves Lower on Volume Spike for March 09 Equities.com - Mar 9, 2017 Greene County Bancorp Inc.  traded on unusually high volume on Mar. 09, as the stock lost 2.92% to close at $21.60. On the day, Greene County Bancorp Inc. saw 9,900 shares trade hands on 84 trades. Considering that the stock averages only a&nbsp;...'
p5
aS'Greene County Bancorp Inc.  Moves Lower on Volume Spike for February 27 Equities.com - Feb 27, 2017 Greene County Bancorp Inc.  traded on unusually high volume on Feb. 27, as the stock lost 1.79% to close at $21.90. On the day, Greene County Bancorp Inc. saw 7,225 shares trade hands on 67 trades. Considering that the stock averages only a&nbsp;...'
p6
aS'Greene County Bancorp Inc.  Moves Lower on Volume Spike for February 23 Equities.com - Feb 23, 2017 Greene County Bancorp Inc.  traded on unusually high volume on Feb. 23, as the stock lost 0.88% to close at $22.45. On the day, Greene County Bancorp Inc. saw 6,744 shares trade hands on 97 trades. Considering that the stock averages only a&nbsp;...'
p7
aS'Stock Returns: Greene County Bancorp Inc  versus MMA Capital ... CML News - Mar 10, 2017 This is a snapshot to compare the stock returns for Greene County Bancorp Inc  versus MMA Capital Management, LLC  .'
p8
aS'Stock Returns: Greene County Bancorp Inc  versus Territorial ... CML News - Feb 24, 2017 This is a snapshot to compare the stock returns for Greene County Bancorp Inc  versus Territorial Bancorp Inc  .'
p9
aS"Greene County Bancorp  Is At $22.25 Formed Wedge; 8 Analysts Bullish ... HuronReport - Mar 15, 2017 Greene County Bancorp  formed wedge up with $24.25 target or 9.00% above today's $22.25 share price. Greene County Bancorp  has $192.23M valuation. The stock increased 0.68% or $0.15 during the last trading session, reaching $22.25."
p10
a.