(lp0
S"GulfMark Offshore: Insolvency Ahead? Seeking Alpha - Mar 9, 2017 The company operates 71 vessels that provide support to offshore operations of the oil and gas industry, and fixed assets' carrying value has been impaired in the last months.The GulfMark Offshore, Inc.  to Release Earnings on Monday - DailyQuintGulfMark Offshore, Inc.  Receives An Update From Brokers - The De Soto Edge"
p1
aS"BRIEF-Gulfmark Offshore files for non timely 10-K Reuters - Mar 17, 2017 Reuters is the news and media division of Thomson Reuters. Thomson Reuters is the world's largest international multimedia news agency, providing investing news, world news, business news, technology news, headline news, small business news, news&nbsp;..."
p2
aS'Reviewing the Numbers for Gulfmark Offshore, Inc.  Baxter Review - 7 hours ago Individual investors might be studying multiple metrics in order to maximize returns. Gulfmark Offshore, Inc.  presently has a Gross Margin  ratio of 0.034056.'
p3
aS"GulfMark Offshore Finally Prepares For Bankruptcy - Expect Equityholders To Be ... Seeking Alpha - Mar 15, 2017 GulfMark Offshore Finally Prepares For Bankruptcy - Expect Equityholders To Be Wiped Out ... I have previously covered GulfMark Offshore , so investors should view this article as an update to my earlier articles on the company. While it ...Gulfmark Offshore's stock plummets after debt payment wasn't made when due - MarketWatchGulfmark Offshore  Hires Financial Advisors to Review Liquidity Needs - StreetInsider.com"
p4
aS'Gulfmark Offshore: Hated, Misunderstood And Ultimately Undervalued Seeking Alpha - Jan 10, 2017 Since my first article on Gulfmark Offshore  two months ago, the stock is up about 25%  and up 10%  since my second article on GLF.'
p5
aS"Gulfmark Offshore: Huge Problems Ahead, But Shares Clearly Oversold Seeking Alpha - Oct 28, 2016 Gulfmark Offshore: Huge Problems Ahead, But Shares Clearly Oversold. Oct.28.16 | About: GulfMark ... GLF's vessels transport drilling materials and personnel to offshore facilities, and also moves and positions drilling structures. GLF's vessels ..."
p6
aS'GulfMark Offshore Is A Falling Knife Seeking Alpha - Sep 7, 2016 GulfMark Offshore  engages in the provision of marine support and transportation services. It operates through three business segments: North Sea, Southeast Asia, and Americas.'
p7
aS'GULFMARK OFFSHORE, INC.  Files An 8-K Departure of Directors or ... Market Exclusive - Mar 17, 2017 Its vessels transport materials, supplies and personnel to offshore facilities, as well as move and position drilling and production facilities.'
p8
aS'The GulfMark Offshore, Inc.  Bonds Drop 2% During Trading Petro Global News 24 - 11 hours ago An issue of GulfMark Offshore, Inc.  debt fell 2% as a percentage of its face value during trading on Thursday.Gulfmark Offshore, Inc.  likely to see bigger moves on its earnings ... - Post AnalystDiffusion Pharmaceuticals  Reaches $2.91 After 9.00% Down Move; GulfMark ... - MoneyMakingArticles'
p9
aS"Breaking Down: Gulfmark Offshore Inc  Stock Drop Below Support ... CML News - 13 hours ago Gulfmark Offshore Inc has a one bull  technical rating because it's trading below the 10 day, 50 day and 200 day simple moving averages while the 10-day moving average is below the 50-day moving average and the 50-day moving&nbsp;..."
p10
a.