(lp0
S'Global Power Equipment Group Inc. GLPW  Wall Street Journal - Feb 11, 2011 News Global Power Equipment Group Inc.GLPW. Significant News Only. 02/24/17; Press Release. Global Power Reports on Delay in Schedule for Financial Reporting.'
p1
aS'Global Power Equipment Group Inc  Is Our Undervalued Pick Insider Financial - Dec 20, 2016 Back in July, we highlighted Global Power Equipment Group Inc  as being a company to keep an eye on throughout the remainder of the year.'
p2
aS'Global Power Equipment Group Inc  Is About To Turn Around On ... Insider Financial - Jul 18, 2016 Global Power Equipment Group Inc  hit headlines at the beginning of 2015, when the company identified some potential irregularities in its 2014 filing and put together an internal task force to investigate  its ...'
p3
aS'Global Power Equipment Group Announces Acquisition of IBI Power GlobeNewswire  - Jul 9, 2013 IRVING, Texas, July 9, 2013  -- Global Power Equipment Group Inc.   reported today that it has acquired privately-owned IBI, LLC .'
p4
aS'Global Power Equipment Group Announces Stanley Breitweiser as President of ... GlobeNewswire  - Aug 13, 2015 IRVING, Texas, Aug. 13, 2015  -- Global Power Equipment Group Inc.   today announced that Stanley &quot;Chip&quot; Breitweiser has joined the Company as President, Electrical Solutions.'
p5
aS'Global Power Provides Update on Restatement Process and Financial Position GlobeNewswire  - Sep 28, 2016 IRVING, Texas, Sept. 28, 2016  -- Global Power Equipment Group Inc.   today provided an update on the timing of when it expects to file its financial statements as well as its liquidity&nbsp;...'
p6
aS"Global Power Equipment Group  Luis Manuel Ramirez on Q4 2014 Results ... Seeking Alpha  - Mar 9, 2015 Greetings and welcome to the Global Power Equipment Group's Fourth Quarter 2014 Financial Results Conference Call. At this time ... Luis and Randy will be reviewing the results of the quarter and also provide a review of the company's strategy and outlook."
p7
aS"Chart Industries  Acquires Hetsco from Global Power Equipment  for ... StreetInsider.com - Jan 17, 2017 Chart Industries, Inc.  announced that its subsidiary, Chart Lifecycle, Inc. has acquired Hetsco, Inc., from Global Power Equipment Group, Inc.  for approximately $22 million. The Hetsco and Chart Lifecycle combined business ...Chart Lifecycle Acquires Hetsco For $22 Million - E&amp;PChart Industries subsidiary buys Indiana company for $22 million - Crain's Cleveland Business"
p8
aS'Global Power Equipment Group Inc  Gets Corrected HotStocked - Jul 14, 2016 Those are some pretty impressive numbers for an OTC marketplace listed entity and it would appear that GLPW looks underpriced with a market valuation of just over $50 million.'
p9
aS'Company Focus on Global Power Equipment Group Inc.  Lenox Ledger - 6 hours ago Value investors may be interested in the Magic Formula  on shares of Global Power Equipment Group Inc. .'
p10
a.