(lp0
S"Here's Why Green Plains Inc. Stock Rose 10.3% in February Motley Fool - Mar 10, 2017 Shares of Green Plains  rose more than 10% last month after the company reported fourth-quarter and full-year 2016 earnings.Brokers Offer Predictions for Green Plains Inc's Q1 2017 Earnings  - The Cerbat GemEquities Analysts Set Expectations for Green Plains Inc's Q2 2017 Earnings  - Sports Perspectives"
p1
aS"Green Plains Acquires Fleischmann's Vinegar Company GlobeNewswire  - Oct 3, 2016 OMAHA, Neb., Oct. 03, 2016  -- Green Plains Inc.  today announced that it has acquired SCI Ingredients Holdings, Inc.  and its wholly owned operating subsidiary Fleischmann's Vinegar Company, Inc., the world's&nbsp;...Stone Canyon Sells SCI Ingredients to Green Plains  for $250M - StreetInsider.comGreen Plains purchases Fleischmann's Vinegar - Ethanol Producer Magazine"
p2
aS'Option Market Alert: Green Plains Inc Implied Price Swing Hits An Inflection Point CML News - Mar 19, 2017 No Risk Alert Here: Before we dive into any analysis we simply note that Green Plains Inc  risk is neither elevated nor depressed.'
p3
aS'Green Plains, Inc.  Ex-Dividend Date Scheduled for February 22, 2017 Nasdaq - Feb 21, 2017 Green Plains, Inc.  will begin trading ex-dividend on February 22, 2017. A cash dividend payment of $0.12 per share is scheduled to be paid on March 17, 2017.Two Sigma Investments LP Buys New Stake in Green Plains, Inc.  - Sports PerspectivesGreen Plains, Inc.  Target Price At $33 - Markets Daily'
p4
aS"Green Plains Reports Fourth Quarter and Full Year 2016 Financial Results GlobeNewswire  - Feb 8, 2017 OMAHA, Neb., Feb. 08, 2017  -- Green Plains Inc.  today announced financial results for the fourth quarter of 2016.Green Plains will make more acquisitions, CEO says - Omaha World-HeraldGreen Plains'  CEO Todd Becker On Q4 2016 Results - Earnings Call Transcript - Seeking Alpha"
p5
aS'Green Plains to Purchase Three Abengoa Bioenergy Ethanol Plants GlobeNewswire  - Aug 22, 2016 OMAHA, Neb., Aug. 22, 2016  -- Green Plains Inc.  today announced that it was the successful bidder on three ethanol plants for sale by Abengoa Bioenergy conducted under the provisions of the U.S.Green Plains to buy 3 ethanol plants, increasing its production by 20 percent - Omaha World-HeraldGreen Plains to buy three Abengoa bioenergy ethanol plants for $237 million - STLtoday.com'
p6
aS'Green Plains Inc : How Well Does It Fare Against This Financial Health ... Simply Wall St - Mar 3, 2017 While small-cap stocks, such as Green Plains Inc  with its market cap of USD $927 Million, are popular for their explosive growth, investors should also pay heed to their balance sheet to judge whether the company can survive a downturn.Noticeable Buzzer: Green Plains, Inc.  - Is storiesGreen Plains Inc.  Files Form 4 Insider Selling : Brian Peterson Sells ... - Energy Index'
p7
aS"Green Plains Seeks to Buy Two Ethanol Mills for $200 Million Bloomberg - Jun 14, 2016 Green Plains Inc., the fourth-biggest U.S. ethanol producer, agreed to buy ethanol plants in Illinois and Indiana from Spain's Abengoa SA for $200 million in cash.Green Plains and Jefferson Terminal Logistics enter into Joint Venture to ... - GlobeNewswire Green Plains plans ethanol export terminal as expansion continues - Reuters"
p8
aS'Dividend Stock With Analysts Upside: Green Plains Inc.  Aiken Advocate - 3 hours ago If investors are looking for a solid dividend stock with upside potential, Green Plains Inc.  could be one that ticks all the boxes.'
p9
aS'Green Plains Inc  Expects Ethanol Exports From United States To ... Market Exclusive - Feb 13, 2017 According to a Green Plains Inc  executive, the ethanol industry in the United States will export at least 1.1 billion gallons of the biofuel this year even with China out of the equation.Q1 2017 Earnings Forecast for Green Plains, Inc.  Issued By Feltl &amp; Co. - BNB Daily Q2 2017 Earnings Estimate for Green Plains, Inc.  Issued By Feltl &amp; Co. - Sports Perspectives'
p10
a.