(lp0
S'GSI Technology, Inc. to Present at the Global Predictive Analytics Conference Marketwired  - Mar 16, 2017 SUNNYVALE, CA-- - GSI Technology, Inc.  today announced that Dr. Avidan Akerib, VP of Associative Computing BU, will present at the Global Predictive Analytics Conference in Santa Clara on March 29, 2017.'
p1
aS'The Way Analysts See GSI Technology, Inc.  Post Analyst - 15 hours ago GSI Technology, Inc.  traded at an unexpectedly high level on 03/17/2017 when the stock experienced a 5.74% gain to a closing price of $9.4.Lee-Lean Shu Sells 10313 Shares of GSI Technology, Inc.  Stock - Chaffey BreezeThe GSI Technology, Inc.  CEO Sells $82504.00 in Stock - Petro Global News 24'
p2
aS'GSI Technology Inc. GSIT  Wall Street Journal  - Feb 12, 2011 News GSI Technology Inc.GSIT. Significant News Only. 02/17/17; Press Release. GSI Technology, Inc. to Present at the Energy Consequences of Information  Workshop.'
p3
aS'Exclusive Interview With GSI Technology Management Seeking Alpha - Sep 28, 2016 Company Description: Founded in 1995, GSI Technology  is a provider of high-performance semiconductor memory solutions to networking, industrial, medical, aerospace and military customers.'
p4
aS'GSI Technology Acquires MikaMonu Marketwired  - Nov 23, 2015 SUNNYVALE, CA-- - GSI Technology, Inc. , a provider of high performance semiconductor devices, today announced that it has acquired all of the outstanding capital stock of privately held MikaMonu Group Ltd.'
p5
aS"Insider Trading Activity GSI Technology, Inc.   CEO Sold 10313 ... Market Exclusive - Mar 16, 2017 Lee-Lean Shu , CEO of GSI Technology, Inc.  reportedly Sold 10,313 shares of the company's stock at an average price of 8 for a total transaction amount of $82,504.00 SEC Form.Stock within Investors Screening: GSI Technology, Inc.  - Is stories"
p6
aS"GSI Technology Announces Industry's Highest Density RadHard SigmaQuad-II+ SRAM Marketwired  - Jan 10, 2017 SUNNYVALE, CA-- - GSI Technology, Inc. , a provider of high performance semiconductor devices, today announced a services engagement with Silicon Turnkey Solutions , a Micross Company, targeted at&nbsp;..."
p7
aS'Why GSI Technology Inc  Has Zero-Debt On Its Balance Sheet? Simply Wall St - Feb 21, 2017 Including debt in the capital structure of companies such as GSI Technology Inc , which has no debt, can improve its capital returns as the cost of capital comes down.Active Volume Stock: GSI Technology Inc.  - HugoPressStock Returns: GSI Technology Inc  versus Pixelworks Inc (NASDAQ ... - CML News'
p8
aS"GSI Technology  Rejects GigOptix's  Unsolicited Offer StreetInsider.com - Sep 17, 2015 GSI Technology  announced that its Board of Directors, in consultation with its financial and legal advisors, unanimously determined to reject GigOptix, Inc.'s  unsolicited, non-binding and conditional proposal to acquire the&nbsp;..."
p9
aS"Unusual Volume Spotted in GSI Technology, Inc.  Stock Melville Review - 11 hours ago GSI Technology, Inc.  stock is experiencing unusual volume during today's trading. While the stock price moved along with the volume change, shares are touching $9.18."
p10
a.