(lp0
S"BRIEF-Heico Corp declares 5-for-4 stock split Reuters - 17 hours ago Reuters is the news and media division of Thomson Reuters. Thomson Reuters is the world's largest international multimedia news agency, providing investing news, world news, business news, technology news, headline news, small business news, news&nbsp;..."
p1
aS'Heico Corp.   Declares 5-for-4 Stock Split StreetInsider.com - 17 hours ago HEICO Corporation   announced today that its Board of Directors approved a 5-for-4 stock split on both its Class A Common Stock and Common Stock.HEICO Corporation  Files An 8-K Submission of Matters to a Vote of ... - Market ExclusiveBrokerages Set Heico Corp  Target Price at $84.00 - The Cerbat Gem'
p2
aS'Heico Corporation Reports Another Big Quarter Motley Fool - Mar 1, 2017 A booming aviation market and a string of successful acquisitions are helping Heico Corporation  drive top- and bottom-line growth.Heico Corporation  Moves Higher on Volume Spike for March 01 - Equities.comHeico Corp  Upgraded by Zacks Investment Research to Buy - Sports Perspectives'
p3
aS"Acquisitions Drove Heico Corp.'s Growth in Q3 Motley Fool - Aug 25, 2016 The investments Heico Corp.  has made to grow its business in the last year are starting to pay off for investors and will drive an expanding business in the future.HEICO Corporation Reports Record Net Sales, Operating Income and Net Income ... - GlobeNewswire "
p4
aS'Heico Corp. Continues to Ride Acquisitions to Growth Motley Fool - Dec 14, 2016 Heico Corp.  is riding a wave of growth in both aircraft sales and acquisitions, pushing financial results higher.'
p5
aS"HEICO Corporation Sets Annual Meeting and Record Dates GlobeNewswire  - Dec 12, 2016 MIAMI and HOLLYWOOD, Fla., Dec. 12, 2016  -- HEICO Corporation   today announced that its Annual Shareholders' Meeting will be held on March 17, 2017."
p6
aS'Chairman of Heico donates $10M to university South Florida Business Journal - Nov 25, 2016 The family of Larry Mendelson, chairman of Hollywood-based aerospace firm Heico Corp.  donated $10 million to Columbia University.'
p7
aS'Why I Plan To Buy More HEICO Corporation On A Pullback Seeking Alpha - Aug 18, 2016 HEICO Corp is a specialty manufacturer and designer of electrical equipment, primarily for the aviation and defence industries.'
p8
aS'HEICO to Acquire Leading Aviation Interconnect Distributor GlobeNewswire  - Mar 8, 2017 MIAMI and SUNRISE, Fla., March 08, 2017  -- HEICO Corporation   today announced that its Flight Support Group has signed an agreement to acquire 80.1% of the operating units of Air Cost Control .'
p9
aS"HEICO Corporation: Undervalued No More, But Still Predictable Yahoo Finance - Jul 20, 2016 If you fly, regardless of what you fly, you've probably had indirect contact with the HEICO Corporation , even though you may never have heard the name."
p10
a.