(lp0
S'The Zacks Analyst Blog Highlights: Berkshire Hathaway, Huntington Ingalls ... Yahoo Finance - 16 hours ago Every day the Zacks Equity Research analysts discuss the latest news and events impacting stocks and the financial markets. Stocks recently featured in the blog include Berkshire Hathaway Inc. , Huntington Ingalls Industries,&nbsp;...'
p1
aS'Why this Newport News shipbuilder is doubling down on government services ... Washington Business Journal - Dec 7, 2016 On Tuesday, Newport News-based Huntington Ingalls Industries Inc.  created the rare instance of a large contractor building defense hardware doubling down on its services offerings, announcing that it finalized its acquisition of Camber Corp.'
p2
aS'Huntington Ingalls Industries Inc.  Moves Higher on Volume Spike for March 17 Equities.com - Mar 17, 2017 Huntington Ingalls Industries Inc.  traded on unusually high volume on Mar. 17, as the stock gained 1.69% to close at $213.72.Stock Returns: Huntington Ingalls Industries Inc  is Beating ... - CML NewsThe Huntington Ingalls Industries Inc  Shares Bought by Ladenburg ... - Petro Global News 24'
p3
aS"MEDIA ADVISORY - Huntington Ingalls Industries to Host Fourth Quarter Earnings ... GlobeNewswire  - Feb 14, 2017 NEWPORT NEWS, Va., Feb. 14, 2017  -- Huntington Ingalls Industries  will release its fourth quarter 2016 financial results on Thursday and host an earnings conference call at 9 a.m.Huntington Ingalls  Q4 Earnings: What's in the Cards? - Zacks.com"
p4
aS"PHOTO RELEASE--Huntington Ingalls Industries' Executive Vice President and ... GlobeNewswire  - Feb 16, 2017 NEWPORT NEWS, Va., Feb. 16, 2017  -- Huntington Ingalls Industries  announced today that Kellye Walker, executive vice president and general counsel, was inducted into the DirectWomen's 2017 Board Institute class."
p5
aS'Huntington Ingalls Industries, Inc.  Ex-Dividend Date Scheduled for March ... Nasdaq - Feb 28, 2017 Huntington Ingalls Industries, Inc.  will begin trading ex-dividend on March 01, 2017. A cash dividend payment of $0.6 per share is scheduled to be paid on March 10, 2017.Huntington Ingalls Industries, Inc.  Lowered to Neutral at Citigroup Inc. - The Cerbat GemHuntington Ingalls Industries Inc  is Downgraded by Citigroup to  Neutral - Highland Mirror'
p6
aS'VIDEO RELEASE--Huntington Ingalls Industries Performs Superlift Unique to Ford ... GlobeNewswire  - Jan 23, 2017 NEWPORT NEWS, Va., Jan. 23, 2017  -- Huntington Ingalls Industries  announced today that its Newport News Shipbuilding division lifted a 704-metric ton unit into Dry Dock 12, where the aircraft carrier John F. Kennedy (CVN&nbsp;...Huntington Ingalls uses superlift to construct Ford-class carrier - UPI.com'
p7
aS'PHOTO RELEASE--Huntington Ingalls Industries Completes Acquisition of Camber ... GlobeNewswire  - Dec 2, 2016 NEWPORT NEWS, Va., Dec. 02, 2016  -- Huntington Ingalls Industries  announced today that it has completed its previously announced acquisition of Camber Corporation and formed a new operating division, HII Technical&nbsp;...Huntington Ingalls completes Camber Corporation acquisition - UPI.comHII Acquires Camber Corp - MarineLink'
p8
aS'Stock Returns: DigitalGlobe Inc  versus Huntington Ingalls ... CML News - 12 hours ago This is a snapshot to compare the stock returns for DigitalGlobe Inc  versus Huntington Ingalls Industries Inc  .Investment Research Analysts Opinion: Huntington Ingalls Industries, Inc. (HII ... - TWNCompany Stock Price of Huntington Ingalls Industries, Inc.  Increases 0.95% - Times Money'
p9
aS'You Should Get to Know Huntington Ingalls Industries TheStreet.com - Jan 27, 2017 Huntington Ingalls Industries  is not a household name, but the charts are very bullish. This is one name that could be worth the time to get to know better as it has it has more than doubled in the past three years.'
p10
a.