(lp0
S"Heska Corp.  PT Raised to $100 at Benchmark StreetInsider.com - Feb 6, 2017 Benchmark raised its price target on Heska Corp.  to $100.00  while maintaining a Hold rating. Analyst Raymond Myers comments &quot;Based on the strength of Heska's competitive position and the margin upside we understand is&nbsp;...Stock Returns: Heska Corporation  is Beating Teligent Inc (NASDAQ ... - CML News"
p1
aS'Stock Returns: Corcept Therapeutics Incorporated  versus Heska ... CML News - 11 hours ago This is a snapshot to compare the stock returns for Corcept Therapeutics Incorporated  versus Heska Corporation  . The stock return points we compare look at the last three-months, six-months and twelve-months. At the end&nbsp;...'
p2
aS"Revenue Update on Heska Corp Money Flow Index & Trends - Mar 6, 2017 Heska Corp announced the earnings results for Fiscal Year 2016 and Q4. The results came in during Pre-Market on Feb 28, 2017.Heska Corporation's  CEO Kevin Wilson On Q4 2016 Results - Earnings Call ... - Seeking AlphaBenchmark Co. Releases a Buy Rating on Heska Corp - Analyst Ratings"
p3
aS"Insider Selling: Heska Corp  EVP Sells $504715.59 in Stock Chaffey Breeze - Mar 14, 2017 Heska Corp logo Heska Corp  EVP Rod Lippincott sold 5,157 shares of the business's stock in a transaction that occurred on Thursday, March 9th.Heska Corp  CFO Sells $68973.36 in Stock - The Cerbat GemHeska Corp  Files Form 4 Insider Selling : Nancy Wisnewski Sells 500 Shares - Energy Index"
p4
aS'Insider Trading Activity Heska Corp   CFO Sold 708 shares of Stock Market Exclusive - Mar 10, 2017 On 8/28/2012 William A Aylesworth, Director, bought 2,000 with an average share price of $7.95 per share and the total transaction amounting to $15,900.00.'
p5
aS'Allianz Asset Management AG Has $3085000 Stake in Heska Corp  Chaffey Breeze - Mar 11, 2017 Heska Corp logo Allianz Asset Management AG boosted its stake in Heska Corp  by 3.6% during the fourth quarter, according to its most recent filing with the Securities and Exchange Commission.Heska Corporation  Breaks into New 52-Week High on March 08 Session - Equities.comHeska Corp  Files Form 4 Insider Selling : Kevin S. Wilson Sells 8000 Shares - Energy Index'
p6
aS'Heska Corporation: Heska Reports Record Quarter and Annual Results The Wall Street Transcript - Feb 28, 2017 LOVELAND, CO, February 28, 2017 -- Heska Corporation , a provider of advanced veterinary diagnostic and specialty products, today reported record financial results for its fourth quarter and year ended&nbsp;...Heska Corporation  Breaks into New 52-Week High on February 28 Session - Equities.comHESKA CORPORATION  Files An 8-K Results of Operations and ... - Market Exclusive'
p7
aS"Zacks.com featured highlights: American Woodmark, Heska, OraSure Technologies ... Yahoo Finance - 16 hours ago Chicago, IL - March 20, 2017 - Stocks in this week's article includeAmerican Woodmark Corporation , Heska Corporation , OraSure Technologies, Inc. &nbsp;..."
p8
aS'The Allianz Asset Management AG Has $3085000 Stake in Heska Corp  Petro Global News 24 - Mar 11, 2017 Allianz Asset Management AG raised its stake in Heska Corp  by 3.6% during the fourth quarter, according to its most recent Form 13F filing with the SEC.'
p9
aS'Heska Corporation  ERP5  A Look at Valuation Business Review - Mar 18, 2017 Heska Corporation  has an ERP5 rank of 9430. The ERP5 Rank is an investment tool that analysts use to discover undervalued companies.'
p10
a.