(lp0
S'Integra LifeSciences Announces Acceptance of Shares Tendered into Offer for ... GlobeNewswire  - Feb 23, 2017 PLAINSBORO, N.J., Feb. 23, 2017  -- Integra LifeSciences Holdings Corporation  , a global leader in medical technology, announced today that its tender offer by its wholly-owned subsidiary, Integra Derma, Inc.Integra LifeSciences Holdings Corporation  Moves Lower on Volume Spike ... - Equities.com'
p1
aS'Which insiders are selling Integra LifeSciences Holdings Corporation ? Post Analyst - 10 hours ago Integra LifeSciences Holdings Corporation  reached 36.74% versus a 1-year low price of $40.77. The stock was last seen 2.48% higher, reaching at $43.32 on Mar. 17, 2017.Integra Lifesciences Holdings  CVP  CHIEF FINANCIAL OFFICER Glenn ... - Herald KS'
p2
aS'Integra LifeSciences Plans to Acquire the Codman Neurosurgery Business from ... GlobeNewswire  - Feb 15, 2017 PLAINSBORO, N.J., Feb. 15, 2017  -- Integra LifeSciences Holdings Corporation , a global leader in medical technology, today announced that it has made a binding offer to acquire the Johnson &amp; Johnson Codman&nbsp;...Guess Who Picked Up Integra Lifesciences Holdings Corp.  Shares - Small Cap Exclusive Integra LifeSciences Holdings Corporation  Moves Higher on Volume Spike ... - Equities.com'
p3
aS'Integra LifeSciences Introduces Next Generation CUSA Clarity Ultrasonic ... Nasdaq - Mar 16, 2017 PLAINSBORO, N.J., March 16, 2017  -- Integra LifeSciences Holdings Corporation , a global leader in medical technology, announces the launch of its new CUSA Clarity ultrasonic tissue ablation platform designed to&nbsp;...Integra LifeSciences Launches Press-Fit Reverse Shoulder for Fracture for the ... - OrthoSpineNews'
p4
aS"Integra LifeSciences Holdings'  CEO Peter Arduini on Q3 2016 Results ... Seeking Alpha - Oct 28, 2016 Welcome to the Integra LifeSciences' Third Quarter 2016 Financial Results Conference Call. As a reminder, today's call is being recorded."
p5
aS'Integra LifeSciences Reports Third Quarter 2016 Financial Results GlobeNewswire  - Oct 27, 2016 Integra LifeSciences, a world leader in medical technology, is dedicated to limiting uncertainty for clinicians, so they can concentrate on providing the best patient care.'
p6
aS'Integra LifeSciences  to Acquire Derma Sciences  for $7/Share, or ... StreetInsider.com - Jan 11, 2017 Derma Sciences, Inc.  signed a definitive agreement whereby Derma Sciences will be acquired by Integra LifeSciences Holdings Corporation  for $7.00 per share of common stock in cash, or a total of approximately $204 million&nbsp;...Integra LifeSciences buys Derma Sciences for $7/share - Seeking Alpha'
p7
aS'Integra LifeSciences to Present at the Barclays Global Healthcare Conference ... GlobeNewswire  - Feb 28, 2017 Integra LifeSciences, a world leader in medical technology, is dedicated to limiting uncertainty for clinicians, so they can concentrate on providing the best patient care.'
p8
aS'Integra LifeSciences Announces First Clinical Uses of Cadence Total Ankle ... GlobeNewswire  - Sep 20, 2016 PLAINSBORO, N.J., Sept. 20, 2016  -- Integra LifeSciences Holdings Corporation , a leading global medical technology company, today announced that the first three procedures using the Integra Cadence Total&nbsp;...'
p9
aS"BRIEF-Integra Lifesciences plans to acquire Codman neurosurgery business from ... Reuters - Feb 15, 2017 CAIRO, March 20 Egypt's new stamp duty on stock exchange transactions will come into effect in May and include for the first time a 0.3 percent levy for investors acquiring more than a third of a company's stocks, deputy finance minister Amr al-Munayer ..."
p10
a.