(lp0
S'Independent Bank Corp.  IBCP  Wall Street Journal - Feb 11, 2011 News Independent Bank Corp. IBCP. Significant News Only. 01/26/17; Press Release. Independent Bank Corporation Reports 2016 Fourth Quarter and Full Year Results and 2017 Share Repurchase Authorization.'
p1
aS'Independent Bank Corporation Announces Date for Its Fourth Quarter 2016 ... GlobeNewswire  - Dec 22, 2016 GRAND RAPIDS, Mich., Dec. 22, 2016  -- Independent Bank Corporation , the holding company of Independent Bank, a Michigan-based community bank, announced that it expects to issue its 2016 fourth quarter financial&nbsp;...'
p2
aS'Independent Bank Corporation Announces Appointment of Christina Keller to Its ... GlobeNewswire  - Dec 19, 2016 GRAND RAPIDS, Mich., Dec. 19, 2016  -- Independent Bank Corporation , the holding company of Independent Bank, a Michigan-based community bank, announced that its Board of Directors appointed Christina Keller&nbsp;...'
p3
aS'Independent Bank Corporation  Moves Lower on Volume Spike for March 17 Equities.com - Mar 17, 2017 Independent Bank Corporation has a P/B ratio of 1.81. It also has a P/E ratio of 20. Independent Bank Corp  is a bank holding company. It offers products &amp; services, including checking and savings accounts, commercial lending, direct and ...Independent Bank Corp /mi/  Files Form 4 Insider Selling : Mark L ... - Energy Index'
p4
aS'Independent Bank Corp. announces 6 branch closings across Michigan MLive.com - Jan 23, 2015 IONIA, MI - Independent Bank Corp. announced Friday, Jan. 23, it will close six branches in out-state Michigan as part of its continuing strategy to improve its balance sheet and bottom line. The branch closings include its Broadway branch in Bay City,&nbsp;...'
p5
aS"Insider Trading Activity Independent Bank Co.   Director ... Market Exclusive - Mar 1, 2017 Loan Charles C Van , Director of Independent Bank Co.  reportedly Sold 10,417 shares of the company's stock at an average price of 21.93 for a total transaction amount of $228,444.81 SEC Form. Insider Trading History For Independent&nbsp;...Independent Bank Co.  Director Loan Charles C. Van Sells 10417 Shares - The Cerbat Gem"
p6
aS'Independent Bank Corporation Common Stock Quote &amp; Summary Data Nasdaq - Aug 20, 2011 Independent Bank Corporation was incorporated under the laws of the State of Michigan on September 17, 1973, for the purpose of becoming a bank holding company. We are registered under the Bank Holding Company Act of 1956, as amended, and own&nbsp;...'
p7
aS'Independent Bank Corporation  Breaks into New 52-Week High on February ... Equities.com - Feb 22, 2017 Independent Bank Corporation is based out of Grand Rapids, MI and has some 831 employees. Its CEO is William B. Kessel.'
p8
aS'Zacks.com featured highlights: Marcus, Ultratech, First Financial Northwest ... Yahoo Finance - Mar 6, 2017 Independent Bank Corporation  - based in Grand Rapids, MI - is a leading provider of banking services to customers in Michigan. The company delivered an average positive earnings surprise of 5.31% over the last four&nbsp;...'
p9
aS'Independent Bank reports growth for 2016 MiBiz - Jan 26, 2017 IONIA - Independent Bank Corp. today reported higher earnings for the fourth quarter and all of 2016. The Ionia-based Independent Bank  reported net income of $5.8 million, or 27 cents per diluted share, for the last three months of 2016.'
p10
a.