(lp0
S'Shares in Focus: Institutional Financial Markets, Inc.  Baxter Review - 9 hours ago Institutional Financial Markets, Inc.  currently has a Gross Margin  ratio of 0.090108. Robert Novy-Marx has provided investors with insights on finding high-quality value stocks.'
p1
aS"The Institutional Financial Markets Inc  Declares $0.02 Quarterly Dividend Petro Global News 24 - 8 hours ago Institutional Financial Markets Inc  announced a quarterly dividend on Tuesday, March 14th. Shareholders of record on Tuesday, March 28th will be given a dividend of 0.02 per share on Tuesday, April 11th.Institutional Financial Markets Inc  Declares $0.02 Quarterly Dividend - Chaffey BreezeTop Positive Mover of Friday: Institutional Financial Markets, Inc.'s (IFMI ... - WsNews 4investors"
p2
aS'INSTITUTIONAL FINANCIAL MARKETS,INC.  Files An 8-K Other Events Market Exclusive - Mar 17, 2017 On March 17, 2017, IFMI, LLC , a Delaware limited liability company and a majority owned subsidiary of Institutional Financial Markets, Inc., a Maryland corporation , entered into a letter agreement  with Sandler ...'
p3
aS"Institutional Financial Markets'  CEO Lester Brafman on Q2 2016 Results ... Seeking Alpha - Aug 3, 2016 Good morning, ladies and gentlemen, and welcome to Institutional Financial Markets' Second Quarter 2016 Earnings Call. My name is Lori and I'll be your operator for today."
p4
aS"INSTITUTIONAL FINANCIAL MARKETS,INC.  Files An 8-K Results of ... Market Exclusive - Mar 14, 2017 The Company's whose businesses provide consumers, corporations, governments and institutions with a range of financial products and services, including consumer banking and credit, corporate and investment banking, securities brokerage, trade and&nbsp;..."
p5
aS"Institutional Financial Markets'  CEO Lester Brafman on Q3 2016 Results ... Seeking Alpha - Nov 1, 2016 Good morning, ladies and gentlemen, and welcome to Institutional Financial Markets' Third Quarter 2016 Earnings Call. My name is Maria and I'll be your operator for today."
p6
aS"Institutional Financial Markets Inc  Plans $0.02 Quarterly Dividend The Cerbat Gem - Mar 14, 2017 Institutional Financial Markets logo Institutional Financial Markets Inc  declared a quarterly dividend on Tuesday, March 14th.Top Loser Mover of Monday: Institutional Financial Markets, Inc.'s (IFMI ... - WsNews 4investors"
p7
aS"Traders Observable Stock: Institutional Financial Markets, Inc.  Is stories - Feb 21, 2017 Institutional Financial Markets, Inc.'s  witnessed a gain of 3.03% in recent trading period with closing price of $ 1.36."
p8
aS"Noteworthy Stock of Tuesday: Institutional Financial Markets, Inc.'s (IFMI ... WsNews 4investors - Mar 15, 2017 Institutional Financial Markets, Inc.  stock price escalated 6.19% to finalize at $1.20 throughout previous buying and selling session."
p9
aS'Watching Shares of Institutional Financial Markets Inc  Providence Standard - Mar 14, 2017 In terms of moving averages for Institutional Financial Markets Inc , the 200-day is currently at 1.12, the 50-day is 1.27, and the 7-day is resting at 1.2.'
p10
a.