(lp0
S'ILG, Inc  Ex-Dividend Date Scheduled for March 10, 2017 Nasdaq - Mar 9, 2017 ILG, Inc  will begin trading ex-dividend on March 10, 2017. A cash dividend payment of $0.15 per share is scheduled to be paid on March 28, 2017.Insider Selling: ILG Inc  SVP Sells $128520.00 in Stock - The Cerbat GemILG Inc  Given Average Recommendation of Strong Buy by Brokerages - BBNS'
p1
aS'ILG Inc  Momentum Rolls On Business Review - 13 hours ago ILG Inc  shares are showing positive momentum over the past week as the stock has clocked in consecutive positive sessions over that time.'
p2
aS'19.28 MarketWatch - Oct 18, 2016 ILG Inc. NASDAQ: ILG. GO. Set Alerts &middot; Find a Broker &middot; Join TD Ameritrade &middot; Market Index &middot; Overview Profile News Charts Financials Historical Quotes Analyst Estimates Options SEC Filings Insiders.'
p3
aS"Traders Secrets on ILG, Inc. , First Midwest Bancorp, Inc.  StockNewsJournal - 15 hours ago Investors who are keeping close eye on the stock of ILG, Inc.  established that the company was able to keep return on investment at 14.03 in the trailing twelve month while Reuters data showed that industry's average stands at 8.34 and&nbsp;..."
p4
aS'ILG, Inc  Ex-Dividend Date Scheduled for December 02, 2016 Nasdaq - Dec 1, 2016 ILG, Inc  will begin trading ex-dividend on December 02, 2016. A cash dividend payment of $0.12 per share is scheduled to be paid on December 20, 2016.'
p5
aS'Investor Update: Checking on Shares of ILG, Inc.  Sherwood Daily - 11 hours ago Looking at shares of ILG, Inc. , the company has an EV  of 3435054. Enterprise Value is a measure of the total value of a specific company.'
p6
aS'Stock Price of ILG, Inc  Increases 5.59% Highland Mirror - 20 hours ago ILG, Inc stock performance trend indicates that the stock price has rallied 5.88% in the past 12 Weeks , but analyzing the 6 month charts for the stock , the price continues to stay positive and keep the rally at 12.17% .State Street Corp Buys Shares of 2575951 ILG Inc  - BBNS'
p7
aS"Earnings Clues on Exact Sciences Corporation , ILG, Inc.  Analyst's ... StockNewsJournal - Mar 14, 2017 ILG, Inc. , maintained return on investment for the last twelve months at 14.03, higher than what Reuters data shows regarding industry's average."
p8
aS'Olin Corporation  &amp; ILG Inc  Stocks in the Spotlight Daily News Journal - 15 hours ago On Friday, Shares of Olin Corporation  gained 0.05% to $33.07. The share price is trading in a range of $32.90 - 33.33. The stock exchanged hands with 5.06 million shares contrast to its average daily volume of 2.37 million shares.'
p9
aS"Analysts Near-Term outlook: ILG, Inc. , Black Hills Corporation  The USA Commerce - Mar 9, 2017 Shares of ILG, Inc.  dropped -0.27% to $18.30. During the trading on 03/08/2017, Company's stock ranged from $18.10 to $18.40."
p10
a.