(lp0
S'Infinity Pharmaceuticals Inc.  Plunges 5.35% on March 20 Equities.com - 7 hours ago Infinity Pharmaceuticals Inc.  had a rough trading day for Monday March 20 as shares tumbled 5.35%, or a loss of $-0.19 per share, to close at $3.36.Infinity Pharmaceuticals, Inc. : Analyst Rating Changes and PT Levels - Post Analyst'
p1
aS"Why Infinity Pharmaceuticals Inc. Is Being Obliterated Today Motley Fool - Jun 14, 2016 So what: Infinity Pharmaceuticals released data from its phase 2 monotherapy study of duvelisib, the company's investigational compound being researched as a possible treatment for non-Hodgkin lymphoma.Infinity Pharmaceuticals' Disappointing Data - Barron'sInfinity Reports Topline Results From DYNAMO, A Phase 2 Monotherapy Study Of ... - PR Newswire "
p2
aS'Infinity Pharmaceuticals Inc.  Soars 5.08% on March 15 Equities.com - Mar 15, 2017 Infinity Pharmaceuticals Inc.  had a good day on the market for Wednesday March 15 as shares jumped 5.08% to close at $3.10.Infinity Pharmaceuticals Inc.  Forecasted to Post FY2019 Earnings of ($0 ... - Chaffey BreezeInfinity Pharmaceuticals Inc.  Updates Phase I Trial Report - StockNewsUnion'
p3
aS'Risk Alert in Option Market: Infinity Pharmaceuticals Inc Implied Price Swing ... CML News - 8 hours ago Risk Alert: Before we dive into any analysis we simply note that Infinity Pharmaceuticals Inc  risk is at an extremely elevated level.'
p4
aS'Infinity Announces Organizational Changes PR Newswire  - Jan 4, 2017 CAMBRIDGE, Mass., Jan. 4, 2017 /PRNewswire/ -- Infinity Pharmaceuticals, Inc.  today announced that Lawrence Bloch, M.D.Infinity Pharma R&amp;D Chief Adams Retires Amid Restructuring, Job Cuts - Xconomy'
p5
aS'Infinity Pharma Surges On Latest Cancer Drug Hope Seeking Alpha - Jan 25, 2017 Infinity Pharma  has seen its stock price shoot up in recent days due to promising preclinical data on its IPI-549 cancer drug.'
p6
aS'Infinity Pharmaceuticals  Catches Eye: Stock Up 13.5% Yahoo Finance - Mar 1, 2017 Infinity Pharmaceuticals, Inc. INFI was a big mover last session, as the company saw its shares rise almost 7% on the day.Infinity Pharmaceuticals Inc.  Plunges 5.65% on March 03 - Equities.comWhy did Infinity Pharmaceuticals, Inc.  Gain +20%? - StockNewsUnion'
p7
aS'Infinity Pharma cuts 100 jobs after AbbVie deal is terminated The Boston Globe - Jun 28, 2016 Infinity Pharmaceuticals Inc. said Tuesday it will cut 100 jobs and give retention bonuses to remaining employees - including a total of almost $1 million to four top executives - in a bid to continue developing its experimental treatment for blood ...Infinity Regains Worldwide Rights To Duvelisib Following Mutual Agreement With ... - PR Newswire AbbVie scraps Infinity collab in wake of weak data; biotech slashes jobs - FierceBiotech'
p8
aS'Infinity Pharmaceuticals Inc  Shares Up 7 Bars Business Review - 14 hours ago Infinity Pharmaceuticals Inc  shares are showing positive signals short-term as the stock has finished higher for 7 consecutive bars.'
p9
aS"Infinity Presents Preclinical Data and Phase 1 Clinical Data on IPI-549 at ... PR Newswire  - Jan 20, 2017 CAMBRIDGE, Mass., Jan. 20, 2017 /PRNewswire/ -- Today, during a plenary session at the Keystone Symposia Conference, &quot;PI3K Pathways in Immunology, Growth Disorders and Cancer,&quot; Infinity Pharmaceuticals, Inc.  presented preclinical&nbsp;...Infinity Pharma's lead product candidate IPI-549 shows encouraging results in ... - Seeking Alpha"
p10
a.