(lp0
S'Ingredion Looks Promising Seeking Alpha - Mar 14, 2017 Ingredion  is by most definitions a boring company. I for one, like boring. The company has a significant history of growth and presents an attractive valuation.Norges Bank Purchases New Position in Ingredion Inc  - Community Financial NewsThe DZ BANK AG Deutsche Zentral Genossenschafts Bank Frankfurt am Main Buys ... - Petro Global News 24'
p1
aS'Ingredion Inc  Receives Average Rating of Buy from Brokerages Chaffey Breeze - 16 hours ago Ingredion logo Ingredion Inc  has earned an average recommendation of Buy from the six research firms that are currently covering the firm.'
p2
aS"Why Ingredion Inc Is My Top Stock to Buy on the Dip  Investorplace.com - Feb 3, 2017 We're a few weeks into fourth-quarter earnings season, and already we've had a few big winnersand several high-profile upsets."
p3
aS"INGREDION TO ACQUIRE TIC GUMS; EXPANDS INGREDION'S CUSTOMER BASE, SPECIALTY ... GlobeNewswire  - Dec 20, 2016 WESTCHESTER, Ill., Dec. 20, 2016 - Ingredion Incorporated , a leading global provider of ingredient solutions to diversified industries, announced today that it has entered into a stock purchase agreement to acquire all of the outstanding ...Ingredion buys TIC Gums - Meat & Poultry "
p4
aS'INGREDION COMPLETES ACQUISITION OF SHANDONG HUANONG SPECIALTY CORN DEVELOPMENT ... GlobeNewswire  - Nov 30, 2016 WESTCHESTER, Ill., Nov. 29, 2016 - Ingredion Incorporated , a leading global provider of ingredient solutions to diversified industries, announced today that it has successfully completed the acquisition of Shandong Huanong Specialty Corn&nbsp;...'
p5
aS"INGREDION NAMED ONE OF THE WORLD'S MOST ADMIRED COMPANIES EIGHTH CONSECUTIVE YEAR GlobeNewswire  - Feb 16, 2017 WESTCHESTER, Ill., February 16, 2017 - Ingredion Incorporated , a leading global providerof ingredient solutions to diversified industries, has again been named one of the World's Most Admired Companies for 2017 by FORTUNE Magazine.O Shaughnessy Asset Management LLC Boosts Stake in Ingredion Incorporated  - Community Financial News"
p6
aS'INGREDION COMPLETES ACQUISITION OF TIC GUMS GlobeNewswire  - Jan 3, 2017 WESTCHESTER, Ill., Jan. 3, 2017 - Ingredion Incorporated , a leading global provider of ingredient solutions to diversified industries, announced that it has successfully completed the acquisition of TIC Gums Incorporated, a U.S.'
p7
aS'INGREDION TO PRESENT AT THE CONSUMER ANALYST GROUP OF NEW YORK (CAGNY ... GlobeNewswire  - Jan 30, 2017 WESTCHESTER, Ill., January 30, 2017 - Ingredion Incorporated , a leading global provider of ingredient solutions to diversified industries, will present at the Consumer Analyst Group of New York  Conference on Tuesday, February 21,&nbsp;...'
p8
aS'INGREDION CFO, JACK FORTNUM, RECEIVES CHICAGO CFO OF THE YEAR AWARD GlobeNewswire  - Nov 21, 2016 WESTCHESTER, Ill., November 21, 2016 - Jack Fortnum, CFO of Ingredion Incorporated , a leading global provider of ingredient solutions to diversified industries,has been named 2016 Chicago CFO of the year by the Financial Executives&nbsp;...'
p9
aS'Ingredion Inc. Acquires Tic Gum WholeFoods Magazine - Dec 28, 2016 Westchester, IL - Ingredion Inc. has entered into a stock purchase agreement to acquire all outstanding shares of privately-held Tic Gums, Inc., White Marsh, MD which makes advanced texture systems for the food and beverage industry.'
p10
a.