(lp0
S'Identiv, Inc. : Thoughts on the Momentum Post Analyst - 15 hours ago Identiv, Inc.  traded at an unexpectedly high level on 03/17/2017 when the stock experienced a 6.81% gain to a closing price of $7.21.Fundamentals in Focus for Identiv, Inc.  - The Finance RegistrarStocks to Grab Market: Identiv, Inc. , Immune Design Corp ... - KC Register'
p1
aS'Investor Review: Focusing in on Shares of Identiv Inc  Davidson Register - 13 hours ago Active traders have a wide variety of technical indicators at their disposal for completing technical stock analysis. Presently, the 14-day ATR for Identiv Inc  is spotted at 0.43. First developed by J. Welles Wilder, the ATR may assist traders ...'
p2
aS'Identiv Inc  Trending Up Last 7 Bars Business Review - 14 hours ago Identiv Inc  shares are showing positive signals short-term as the stock has finished higher for 7 consecutive bars. In taking a look at recent performance, we can see that shares have moved 36.55% over the past week, 30.38% over the past 4-weeks ...'
p3
aS"Identiv Partners With DNP to Provide UHF RFID Tags for Infrastructure ... GlobeNewswire  - Mar 16, 2017 FREMONT, Calif., March 16, 2017  -- Identiv, Inc.  today announced that the company's ultra high-frequency  radio frequency identification  tags have been incorporated into a new system that monitors critical&nbsp;..."
p4
aS'Identiv Granted ISO 14001:2015 and ISO 9001:2015 Certification GlobeNewswire  - Mar 15, 2017 FREMONT, Calif., March 15, 2017  -- Identiv, Inc.  today announced that it has been awarded the sustainable, environmentally responsible ISO 14001:2015 standard and the new quality management ISO 9001:2015.'
p5
aS"Identiv Inc. INVE  Wall Street Journal - Feb 11, 2011 P/E Ratio : The Price to Earnings  ratio, a key valuation measure, is calculated by dividing the stock's most recent closing price by the sum of the diluted earnings per share from continuing operations for the trailing 12 month period ..."
p6
aS'Identiv Appoints Sandra Wallach as Chief Financial Officer GlobeNewswire  - Feb 16, 2017 FREMONT, Calif., Feb. 16, 2017  -- Identiv, Inc.  today announced that effective February 16, 2017, Sandra Wallach has been appointed Chief Financial Officer  of Identiv.BRIEF-Identiv appoints Sandra Wallach as chief financial officer - ReutersSandra Wallach has been appoint as CFO of Identiv  - KC Register'
p7
aS'Sell-side Weighing in on Enzo Biochem, Inc.  Identiv, Inc.  Rives Journal - Mar 19, 2017 Enzo Biochem, Inc.  shares have been labeled a top pick by Beta Research as it meets the A+ criteria outlined by the firm.'
p8
aS"What Investors Should Know About Identiv Inc's  Financial Strength? Simply Wall St - Mar 8, 2017 Investors are always looking for growth in small-cap stocks like Identiv Inc  with its market cap of USD $54 Million."
p9
aS'Cohen Milstein Sellers &amp; Toll PLLC Announces the Investigation of Identiv, Inc. GlobeNewswire  - Jan 19, 2016 WASHINGTON, Jan. 19, 2016  -- Cohen Milstein Sellers &amp; Toll PLLC is conducting an investigation to determine whether Identiv, Inc.  and certain of its officers and directors made false and misleading&nbsp;...'
p10
a.