(lp0
S'Latest Stocks: Gartner, Inc.  Stock Rating Upgraded by Barclays PLC Petro Global News 24 - Jan 13, 2017 Barclays PLC upgraded shares of Gartner, Inc.  from an equal weight rating to an overweight rating in a report issued on Monday.Federated Investors Inc. PA Sells 1197 Shares of Gartner, Inc.  - Sports PerspectivesGartner, Inc.  Shares Sold by Loomis Sayles &amp; Co. LP - Community Financial News'
p1
aS'Gartner, Inc.  to Acquire L2; Terms Not Disclosed StreetInsider.com - Mar 6, 2017 Gartner, Inc.  entered into an agreement to acquire L2, Inc., a privately-held Delaware corporation  that benchmarks the digital performance of brands.'
p2
aS"Moody's assigns Ba2 CFR to Gartner; outlook stable Moodys.com   - Mar 6, 2017 New York, March 06, 2017 -- Moody's Investors Service  assigned a Ba2 Corporate Family Rating  and a Ba2-PD Probability of Default Rating to Gartner, Inc.  upon the announcement of the financing for the acquisition of&nbsp;..."
p3
aS'Gartner, Inc. to create 600 new jobs in Lee County Fox 4 - Mar 7, 2017 LEE COUNTY, Fla. -- A major corporation is creating hundreds of new jobs in Lee County. Florida Governor Rick Scott announced Monday that Gartner, Inc. will expand in the county, and add 600 new jobs in the process. The technology company will also&nbsp;...'
p4
aS'Gartner, Inc.  Files An 8-K Entry into a Material Definitive Agreement Market Exclusive - Mar 17, 2017 Gartner, Inc. is an information technology research and advisory company. The Company works with clients to research, analyze and interpret the business of information technology  within the context of their individual roles.The Gartner Inc  Raised to Top Pick at Royal Bank of Canada - Petro Global News 24'
p5
aS'Gartner Inc.  Moves Higher on Volume Spike for March 15 Equities.com - Mar 15, 2017 Gartner Inc.  traded on unusually high volume on Mar. 15, as the stock gained 2.62% to close at $111.93. On the day, Gartner Inc. saw 971,832 shares trade hands on 10,819 trades. Considering that the stock averages only a daily volume of 556,199&nbsp;...'
p6
aS'Successful Earnings Option Trading: Gartner Inc  CML News - 13 hours ago As we look at Gartner Inc we note that a short put is one of the most common implementations of an option strategy, but the analysis completed when employing the short put often times lacks the necessary rigor especially surrounding earnings.'
p7
aS'Gartner Inc. Expands Fort Myers, Florida Operations Center Area Development Online - Mar 8, 2017 Michelle Dennard, CareerSource Florida President &amp; CEO said, CareerSource Florida is pleased to have assisted Gartner, Inc., with employee skills training through a Quick Response Training grant. The CareerSource Florida network stands ready to help&nbsp;...'
p8
aS"Earnings Clues on Acadia Healthcare Company, Inc. , Gartner, Inc. (IT ... StockNewsJournal - Mar 16, 2017 Gartner, Inc. , maintained return on investment for the last twelve months at 22.10, higher than what Reuters data shows regarding industry's average."
p9
aS'Gartner intends to offer $600M in senior notes Seeking Alpha - Mar 9, 2017 ... the cash consideration and other amounts payable in respect of its previously announced acquisition of CEB Inc., the repayment and redemption of certain outstanding indebtedness of CEB and its subsidiaries and the payment of related fees and expenses.Gartner Announces Intention to Offer $600 Million in Senior Notes - Business Wire '
p10
a.