(lp0
S'BRIEF-Investment Technology Group says February 2017 US trading volume was 2.9 ... Reuters - Mar 8, 2017 NEW YORK, March 8 Pacific Investment Management Co  is replacing the full slate of managers on its Total Return Active Exchange-Traded Fund and changing its name, a spokeswoman for the fund management company said on Wednesday, the&nbsp;...'
p1
aS"Hot Stocks Among Investors: Investment Technology Group, Inc. , Gevo, Inc ... Post Analyst - 18 hours ago Wall Street is only getting more bullish on the stock, with 2 of analysts who cover ITG having a buy-equivalent rating. Analysts have placed a $22.75 price target on Investment Technology Group, Inc., suggesting a 11.25% gain from recent close. It's ...Franks International NV  Touches $10.06 Low on Mar, 20; Investment Tech ... - Wolcott Daily"
p2
aS"BRIEF-Investment Technology Group's reports trading vols for Jan 2017 Reuters - Feb 8, 2017 BRIEF-Investment Technology Group's reports trading vols for Jan 2017. Feb 8 Investment Technology Group Inc. * January 2017 U.S."
p3
aS"Investment Technology Group's  CEO Frank Troise On Q4 2016 Results ... Seeking Alpha - Feb 1, 2017 Good morning and thank you for joining us to discuss ITG's Fourth Quarter 2016 Results. My name is Drew, and I will facilitate the call today."
p4
aS'Investment Technology Group, Inc.  Ex-Dividend Date Scheduled for ... Nasdaq - Feb 22, 2017 Investment Technology Group, Inc.  will begin trading ex-dividend on February 23, 2017. A cash dividend payment of $0.07 per share is scheduled to be paid on March 15, 2017.Investment Technology Group, Inc.  Analyst Coverage - NewsDen'
p5
aS'Investment Technology Group Inc.  Moves Lower on Volume Spike for March 17 Equities.com - Mar 17, 2017 Investment Technology Group Inc.  traded on unusually high volume on Mar. 17, as the stock lost 2.9% to close at $20.45.Zacks Investment Research Downgrades Investment Technology Group  to Hold - Chaffey Breeze'
p6
aS'Update in Lawsuit for Certain Investors in Investment Technology Group (NYSE ... Yahoo Finance - Feb 14, 2017 SAN DIEGO, CA / ACCESSWIRE / February 14, 2017 / The Shareholders Foundation, Inc. announces that a lawsuit is pending on behalf of certain purchasers of Investment Technology Group  shares. Investors who purchased shares of Investment&nbsp;...'
p7
aS"Investment Technology Group's  CEO Frank Troise on Q3 2016 Results ... Seeking Alpha - Nov 9, 2016 Good morning and thank you for joining us to discuss the ITG's Third Quarter 2016 Results. My name is Michelle and I will be facilitating this call.ITG Reports Third Quarter 2016 Results - GlobeNewswire "
p8
aS'ITG Releases January 2017 US Trading Volume GlobeNewswire  - Feb 8, 2017 NEW YORK, Feb. 08, 2017  -- ITG , a leading independent broker and financial technology provider, today announced that January 2017 U.S.'
p9
aS'Investment Technology Group Inc.  Moves Higher on Volume Spike for March 03 Equities.com - Mar 3, 2017 Investment Technology Group Inc.  traded on unusually high volume on Mar. 03, as the stock gained 0.55% to close at $20.03.Would You Buy Investment Technology Group, Inc.  On These Analyst ... - Fiscal Standard'
p10
a.