(lp0
S'IXYS Corporation  Breaks into New 52-Week High on March 20 Session Equities.com - 8 hours ago Shares of IXYS Corporation  broke into a new 52-week high yesterday, hitting a peak of $14.20. Shares closed at $14.00 after opening at $13.60 for a move of 2.94%.'
p1
aS'IXYS Corporation  Moves Higher on Volume Spike for March 20 Equities.com - 8 hours ago IXYS Corporation  traded on unusually high volume on Mar. 20, as the stock gained 2.94% to close at $14.00. On the day, IXYS Corporation saw 290,811 shares trade hands on 1,760 trades. Considering that the stock averages only a daily volume of&nbsp;...IXYS Corporation : Analysts bet a 10.29 percent change in price - Post AnalystReview of Price Trends: IXYS Corporation  - Is stories'
p2
aS'IXYS Corporation  Moves Higher on Volume Spike for March 17 Equities.com - Mar 17, 2017 IXYS Corporation  traded on unusually high volume on Mar. 17, as the stock gained 3.82% to close at $13.60. On the day, IXYS Corporation saw 338,439 shares trade hands on 1,233 trades. Considering that the stock averages only a daily volume of&nbsp;...Next Weeks Broker Price Targets For IXYS Corporation  - Fiscal StandardIxys Corp /de/  Files Form 4 Insider Selling : S Joon Lee Sells 19060 Shares - Energy Index'
p3
aS'Insider Trading Activity IXYS Corporation   Director Sold 18968 ... Market Exclusive - Feb 25, 2017 On 5/23/2013 Donald L Feucht, Director Sell, 8,100 $11.96 with an average share price of $96,876.00 View SEC Filing 8/23/2012 per share and the total transaction amounting to S Joon Lee.IXYS Corporation  Deferred Tax Assets At $7.085 Millions - RealistInvestor.com'
p4
aS'Stock Alert: IXYS Corporation Price Volatility Hits A Deteriorated Level CML News - Mar 19, 2017 Before we cover the full analysis we make a quick alert here that IXYS Corporation  has seen its stock price move at a substantially lowered level.'
p5
aS"IXYS Corporation Board of Directors Appoints Uzi Sasson as CEO Business Wire  - Aug 29, 2016 LEIDEN, Netherlands &amp; MILPITAS, Calif.----IXYS Corporation's  Board of Directors today announced that Uzi Sasson has been promoted to the position of CEO of IXYS Corporation, a title he will share with Chairman and&nbsp;..."
p6
aS'IXYS Is The Play On Drone Technology Seeking Alpha - Jul 17, 2014 IXYS Corporation  is an integrated semiconductor company whose product offerings include, but are not limited to: power semiconductors, a variety of integrated circuits, and microcontrollers.'
p7
aS"IXYS Introduces New 2.2kV 'Wespack' Rectifier Diode with Record Current Rating GlobeNewswire  - Jan 19, 2017 LEIDEN, Netherlands and CHIPPENHAM, United Kingdom, Jan. 19, 2017  -- IXYS Corporation  an international power and IC semiconductor company, today announced that its wholly owned UK subsidiary, IXYS UK&nbsp;..."
p8
aS'IXYS Corporation  Rolls Out New MOSFET-Based Systems Market Exclusive - Jul 20, 2016 IXYS Corporation  has announced the expansion of its product portfolio with the release of two 1200V SiC MOSFETs namely IXFN50N120SK and the IXFN70N120SK.IXYS launches 1200V SiC power MOSFETs in SOT227 MiniBLOC packages for higher ... - Semiconductor Today'
p9
aS'IXYS Corporation  Moves Lower on Volume Spike for February 20 Equities.com - Feb 20, 2017 IXYS Corporation  traded on unusually high volume on Feb. 20, as the stock lost 0.57% to close at $12.98. On the day, IXYS Corporation saw 195,026 shares trade hands on 1,330 trades. Considering that the stock averages only a daily volume of&nbsp;...IXYS Corporation  Reviewed By Analysts - The De Soto Edge'
p10
a.