(lp0
S'Trading Focus: Checking ATR Levels for JMP Group Inc  Davidson Register - 14 hours ago Traders may be narrowing in on the ATR or Average True Range indicator when reviewing technicals. At the time of writing, JMP Group Inc  has a 14-day ATR of 0.14. The average true range indicator was created by J. Welles Wilder in order to measure&nbsp;...'
p1
aS"JMP Group LLC  Ex-Dividend Date Scheduled for February 24, 2017 Nasdaq - Feb 23, 2017 JMP is a part of the Finance sector, which includes companies such as Goldman Sachs Group, Inc.  and Morgan Stanley . JMP's current earnings per share, an indicator of a company's profitability, is $.13. Zacks Investment Research reports ..."
p2
aS'Is JMP Group a Great Stock for Value Investors? Nasdaq - Dec 27, 2016 Though JMP Group might be a good choice for value investors, there are plenty of other factors to consider before investing in this name.'
p3
aS"JMP Group LLC  Ex-Dividend Date Scheduled for September 28, 2016 Nasdaq - Sep 27, 2016 JMP is a part of the Finance sector, which includes companies such as Goldman Sachs Group, Inc.  and Morgan Stanley . JMP's current earnings per share, an indicator of a company's profitability, is -$.13. Zacks Investment Research reports ..."
p4
aS'JMP Group  Looks Good: Stock Adds 5.1% in Session Nasdaq - Feb 16, 2017 JMP Group LLCJMP was a big mover last session, as the company saw its shares rise 5% on the day. The move came on solid volume too with far more shares changing hands than in a normal session.JMP Group LLC : Ex-dividend is coming in 8 days, should you buy? - Simply Wall StJMP Group LLC  Announces Earnings Results - The Cerbat Gem'
p5
aS'JMP Group to Report 2016 Financial Results on February 15, 2017 Business Wire  - Feb 9, 2017 SAN FRANCISCO----JMP Group LLC , an investment banking and alternative asset management firm, announced today that the company will report financial results for the quarter and full fiscal year ended December 31, 2016,&nbsp;...'
p6
aS'Jmp Group Llc  CEO Joseph A Jolson Bought $263500 of Stocks Nasdaq - Aug 10, 2016 CEO of Jmp Group Llc  Joseph A Jolson bought 48,260 shares of JMP on 08/09/2016 at an average price of $5.46 a share.'
p7
aS'Revenue Update on JMP Group Energy Index - Feb 26, 2017 JMP Group  shares turned negative on Wednesdays trading session with the shares closing down -0.07 points or -1.02% at a volume of 1,64,316.JMP Group LLC  Forecasted to Earn FY2017 Earnings of $0.45 Per Share - The Cerbat GemBarrington Research Analysts Raise Earnings Estimates for JMP Group LLC  - BBNS'
p8
aS'The Hilltop Holdings Inc. Has $294000 Stake in JMP Group LLC  DailyQuint - Mar 3, 2017 Hilltop Holdings Inc. continued to hold its position in shares of JMP Group LLC  during the fourth quarter, Holdings Channel reports.Brokers Change Their Target Price On JMP Group Inc  - Fiscal Standard'
p9
aS'JMP Group Inc  Reviewed By Analysts The De Soto Edge - Mar 15, 2017 Stock market analysts watching JMP Group Inc  have recently changed their ratings on the stock. The latest reports which are outstanding on Wednesday 15th of March state 1 analyst has a rating of strong buy, 1 analysts buy, 0 analysts&nbsp;...Broker Outlook For The Week Ahead JMP Group Inc  - Fiscal Standard'
p10
a.