(lp0
S"General Employment Enterprises renamed GEE Group Inc. Chicago Daily Herald - Jul 18, 2016 &quot;Our name change to GEE Group Inc. is transformational and reflective of a new era for the company that will more clearly reflect the company's broad capability of delivering highly specialized staffing, consulting and human resources solutions through ..."
p1
aS'Investor Update on Shares of GEE Group Inc  Davidson Register - 14 hours ago Technical traders have a large inventory of technical indicators they may use when doing technical stock analysis. After a recent look, the 14-day ATR for GEE Group Inc  is resting at 0.22. First developed by J. Welles Wilder, the ATR may help ...'
p2
aS'General Employment Enterprises, Inc. Announces Name Change to GEE Group Inc. Marketwired  - May 31, 2016 NAPERVILLE, IL-- - General Employment Enterprises, Inc.  , a provider of professional staffing services and solutions, today announced that it intends to change its&nbsp;...'
p3
aS'Broker Rating Review For Callon Petroleum Company  Gee Group Inc.  Davidson Register - 8 hours ago Stock research firms currently have a positive stance on shares of Callon Petroleum Company . Analysts are projecting that the stock will reach $19.04 on a short term  basis.'
p4
aS'Street Consensus Update on Acorn Energy, Inc.  Gee Group Inc.  Sherwood Daily - 13 hours ago Stock research firms currently have a positive stance on shares of Acorn Energy, Inc. . Analysts are projecting that the stock will reach $3.00 on a short term  basis.'
p5
aS'GEE Group to Present at the 29th Annual ROTH Capital Conference in Orange ... Yahoo Finance - Mar 6, 2017 NAPERVILLE, IL / ACCESSWIRE / March 6, 2017 / GEE Group Inc.  , a provider of professional staffing services and solutions, today announced that the Company will participate in the 29th Annual ROTH&nbsp;...The Zacks Investment Research Lowers GEE Group Inc  to Sell - DailyQuint'
p6
aS"GEE Group 3rd Qtr. Revenue up 91% to $22 Million; EBITDA $1.5 Million Marketwired  - Aug 15, 2016 The aforementioned 2016 Third Quarter Highlights and Financial Information should be read in conjunction with all of the financial and other information included in GEE Group 's Quarterly Reports on Form 10Q, Current Reports on Forms 8K &amp; 8K/A,&nbsp;..."
p7
aS"GEE Group's IT Staffing Services and Solutions Subsidiary, Agile Resources ... Yahoo Finance - Mar 2, 2017 NAPERVILLE, IL / ACCESSWIRE / March 2, 2017 / GEE Group Inc.  , a provider of professional staffing services and solutions, today announced that Atlanta-based Agile Resources , a subsidiary of the&nbsp;..."
p8
aS'Stock Returns: CDI Corp.  is Beating Gee Group Inc  CML News - Feb 27, 2017 This is a snapshot to compare the stock returns for CDI Corp.  versus Gee Group Inc  . The stock return points we compare look at the last three-months, six-months and twelve-months.'
p9
aS'GEE Group reports revenue rises 19% in fiscal Q1 Staffing Industry Analysts - Feb 14, 2017 GEE Group Inc.  reported net revenue rose 19.2% to $21.0 million in its fiscal first quarter ended Dec. 31. Gross margin at the Naperville, Ill.'
p10
a.