(lp0
S'Liberty Property Trust is Oversold Nasdaq - Mar 11, 2017 But making Liberty Property Trust an even more interesting and timely stock to look at, is the fact that in trading on Friday, shares of LPT entered into oversold territory, changing hands as low as $37.25 per share.'
p1
aS'Liberty Property Trust Announces Tax Treatment of 2016 Distributions GlobeNewswire  - Jan 12, 2017 MALVERN, Pa., Jan. 12, 2017  -- Liberty Property Trust  announced today the final tax treatment for the 2016 distributions on its common shares.'
p2
aS'Workspace Property Trust closes acquisition on $969 Million portfolio from ... PR Newswire  - Oct 5, 2016 HORSHAM, Pa., Oct. 5, 2016 /PRNewswire/ -- Workspace Property Trust  www.workspaceproperty.com, a real estate investment firm led by longtime successful industry veterans Thomas Rizk and Roger Thomas, announced on Monday, October 3rd&nbsp;...Workspace buys 1.1M sf of commercial space in South Florida as part of $1B deal - The Real Deal MagazineLiberty Property closes on $1B asset sale - Philadelphia Business Journal'
p3
aS'Liberty Property Trust Becomes Oversold Nasdaq - Jan 30, 2017 But making Liberty Property Trust an even more interesting and timely stock to look at, is the fact that in trading on Monday, shares of LPT entered into oversold territory, changing hands as low as $37.49 per share.'
p4
aS'The Franklin Resources Inc. Maintains Position in Liberty Property Trust  Petro Global News 24 - 9 hours ago Franklin Resources Inc. held its stake in Liberty Property Trust  during the fourth quarter, Holdings Channel reports.Revenue Approximations Analysis: Liberty Property Trust , Akorn, Inc.  - StockNewsJournalNorges Bank Acquires New Stake in Liberty Property Trust  - Sports Perspectives'
p5
aS'Liberty Property Trust  Moves Higher on Volume Spike for March 17 Equities.com - Mar 17, 2017 Liberty Property Trust  traded on unusually high volume on Mar. 17, as the stock gained 0.73% to close at $38.53. On the day, Liberty Property Trust saw 1.47 million shares trade hands on 8,868 trades. Considering that the stock averages only a ...Liberty Property Trust  Reviewed By Analysts - The De Soto EdgeThe 74205 Shares of Liberty Property Trust  are sold by Dalton Greiner ... - Petro Global News 24'
p6
aS'Liberty Property Trust Announces Third Quarter Results GlobeNewswire  - Oct 25, 2016 MALVERN, Pa., Oct. 25, 2016  -- Liberty Property Trust  announced today that net income available to common shareholders for the third quarter of 2016 was $54.3 million, or $0.37 per diluted share, compared to $91.3&nbsp;...'
p7
aS'Liberty Property Trust sells K of P offices to German firm for $26.8M Philly.com - Nov 11, 2016 Liberty Property Trust has sold an office building at 151 S. Warner Rd. in King of Prussia to a German investment firm for $26.8 million.Recently Changed Price Targets On Liberty Property Trust  - NewsDen'
p8
aS'Liberty Property to Develop Distribution Center for STIHL Yahoo Finance - Mar 9, 2017 Liberty Property Trust LPT, the Malvern, PA-based real estate investment trust  has announced that it will develop a build-to-suit project for STIHL Southeast, Inc., at Liberty Park at AIPO in Orlando.New Stihl distributor warehouse to break ground near OIA - Orlando Business Journal'
p9
aS"Liberty Property Trust Prices $400 Million of 3.25% Senior Notes Due 2026 GlobeNewswire  - Sep 13, 2016 MALVERN, Pa., Sept. 13, 2016  -- Liberty Property Trust , announced today that its limited partnership subsidiary, Liberty Property Limited Partnership , has priced a $400 million offering of 3.25%&nbsp;...Buyer Beware: Liberty Property Trust's Dividend Is At Risk - Seeking Alpha"
p10
a.