(lp0
S'Why Xcerra Corporation  Shares Popped Today Motley Fool - May 22, 2014 What: Shares of LTX Credence Corp.  -- which as of today changed its respective name and ticker to Xcerra  -- rose more than 17% early Thursday, then settled to close up around 8% after the company released&nbsp;...'
p1
aS'Russell Investments Group Ltd. Buys New Stake in Xcerra Corp  BNB Daily  - Mar 13, 2017 Xcerra Corp logo Russell Investments Group Ltd. acquired a new stake in Xcerra Corp  during the fourth quarter, Holdings Channel reports.Should You Buy Or Sell Xcerra Corporation  On Analyst Concensus? - NewsDen'
p2
aS"Here's Who Just Picked Up Xcerra Corp.  Shares Small Cap Exclusive  - Jan 27, 2017 For those not familiar with the company, Xcerra Corporation is a provider of test and handling capital equipment, interface products, test fixtures and related services to the semiconductor and electronics manufacturing industries."
p3
aS'Xcerra Announces the Acquisition of Titan Semiconductor Tool GlobeNewswire  - Feb 5, 2015 NORWOOD, Mass., Feb. 5, 2015  -- Xcerra Corporation , today announced the acquisition of substantially all of the assets and certain liabilities of Titan Semiconductor Tool, LLC , effective as of February 2, 2015.'
p4
aS'Xcerra Announces the Completion of the Sale of the Interface Board Business GlobeNewswire  - Dec 1, 2015 NORWOOD, Mass., Dec. 1, 2015  -- Xcerra Corporation  today announced that on November 30, 2015 the Company completed the previously announced sale and transfer of its semiconductor test interface board&nbsp;...'
p5
aS'Xcerra Announces the Signing of a Definitive Agreement to Divest Its Interface ... GlobeNewswire  - Sep 9, 2015 NORWOOD, Mass., Sept. 9, 2015  -- Xcerra Corporation , today announced that it has agreed to sell its semiconductor test interface board business based in Santa Clara, CA  to Fastprint Hong&nbsp;...'
p6
aS'Xcerra Corporation  Moves Lower on Volume Spike for February 23 Equities.com - Feb 23, 2017 Xcerra Corporation  traded on unusually high volume on Feb. 23, as the stock lost 0.78% to close at $8.96. On the day, Xcerra Corporation saw 576,520 shares trade hands on 4,471 trades. Considering that the stock averages only a daily volume of&nbsp;...Xcerra Corporation : Does Low Debt-Load Make It A Financially Strong ... - Simply Wall StXcerra Corporation  Posts Quarterly Earnings Results, Beats Estimates By ... - BNB Daily '
p7
aS'Xcerra Corporation Announces Proposed Public Offering of Common Stock GlobeNewswire  - Sep 8, 2014 NORWOOD, Mass., Sept. 8, 2014  -- Xcerra Corporation  today announced that it has commenced a public offering of $40,000,000 of its common stock pursuant to an effective shelf registration statement.'
p8
aS'The GSA Capital Partners LLP Cuts Position in Xcerra Corp  Petro Global News 24 - Mar 12, 2017 GSA Capital Partners LLP decreased its position in shares of Xcerra Corp  by 68.7% during the fourth quarter, Holdings Channel reports.'
p9
aS'Xcerra Announces the Execution of a Non-Binding Letter of Intent to Divest Its ... GlobeNewswire  - Jun 12, 2015 NORWOOD, Mass., June 12, 2015  -- Xcerra Corporation , today announced that it has signed a non-binding letter of intent with Fastprint Hong Kong Co.'
p10
a.