(lp0
S'LSI Industries Inc. Announces the Addition of Howard E. Japlon as Executive ... Nasdaq - Mar 15, 2017 CINCINNATI, March 15, 2017  -- LSI Industries Inc. today announced the appointment of Howard  E. Japlon to the position of Executive Vice President, Human Resources and General Counsel, effective March&nbsp;...Insider Trading Activity LSI Industries, Inc.   Director Sold ... - Market ExclusiveThe James P/ Sferra Sells 98933 Shares of LSI Industries, Inc.  Stock - Petro Global News 24'
p1
aS'LSI Industries Inc. Announces the Consolidation of Graphics Manufacturing, and ... GlobeNewswire  - Nov 15, 2016 CINCINNATI, Nov. 15, 2016  -- LSI Industries Inc.  today announced that it will permanently close its existing LSI Retail Graphics LLC manufacturing facility, and that it will expand its office space in Woonsocket, Rhode&nbsp;...'
p2
aS'LSI Industries, Inc.  Director Sells $57526.26 in Stock BNB Daily  - 16 hours ago LSI Industries logo LSI Industries, Inc.  Director James P/ Sferra sold 6,081 shares of the stock in a transaction that occurred on Tuesday, March 14th.Dividend Yield &amp; Upside For LSI Industries Inc.  - Aiken AdvocateAllianz Asset Management AG Has $1107000 Position in LSI Industries, Inc.  - Sports Perspectives'
p3
aS"LSI Industries Inc. Reports Operating Results for the Year and Fourth Quarter ... GlobeNewswire  - Aug 18, 2016 With continued strong cash flow, a sound and conservatively capitalized balance sheet, and $30 million in credit facilities, LSI Industries believes its financial condition is sound and capable of supporting the Company's planned growth, including ..."
p4
aS'LSI Industries Inc. Appoints Robert A. Steele to the Board of Directors and ... GlobeNewswire  - Jul 21, 2016 CINCINNATI, July 21, 2016  -- LSI Industries Inc.  today announced the appointment of Robert A. Steele , to the Board of Directors.Former P&amp;G vice chairman to help guide Blue Ash firm - Cincinnati Business Courier'
p5
aS'Eye on Technicals for LSI Industries Inc  Davidson Register - 13 hours ago When applying indicators for technical analysis, traders and investors might want to examine the ATR or Average True Range. The current 14-day ATR for LSI Industries Inc  is currently sitting at 0.27. The ATR basically measures the volatility of ...'
p6
aS'LSI Industries Inc. Announces New Management Appointments GlobeNewswire  - Oct 1, 2014 CINCINNATI, Oct. 1, 2014  -- LSI Industries Inc.  today announced that it has appointed Dennis W. Wells as Chief Operating Officer  effective immediately.'
p7
aS'LSI Industries Inc. Announces Hire of Chief Technology Officer GlobeNewswire  - Mar 2, 2015 CINCINNATI, March 2, 2015  -- LSI Industries Inc.  today announced the appointment of Andrew J. Foerster to the position of Executive Vice President and Chief Technology Officer, effective March 2, 2015.LSI Industries adds to C-suite - Cincinnati Business Courier'
p8
aS"Insider Trading Activity LSI Industries, Inc.   Director Sold ... Market Exclusive - Mar 13, 2017 James P/ Sferra , Director of LSI Industries, Inc.  reportedly Sold 98,933 shares of the company's stock at an average price of 9.76 for a total transaction amount of $965,586.08 SEC Form.Insider Trade: James Sferra Sold 98933 Shares of LSI Industries, Inc. (LYTS ... - MoneyMakingArticlesJames P/ Sferra Sells 98933 Shares of LSI Industries, Inc.  Stock - Sports Perspectives"
p9
aS"LSI Industries Inc. Combines Graphics and Lighting Capabilities to Become ... GlobeNewswire  - Apr 15, 2015 CINCINNATI, April 15, 2015  -- LSI Industries Inc.  today announced the Company has been named the provider of graphics and lighting for two of Phillips 66's fuel brands."
p10
a.