(lp0
S"Macy's: Starboard's Trash Can Be Your Treasure Seeking Alpha - Mar 19, 2017 Activist Starboard Value exits their position in Macy's. The stock has fallen significantly over the last 2 years. But if you haven't been along for the ride, and if you haven't considered the thesis, &quot;it's new to you&quot;."
p1
aS'Macys Inc.  Dips 3.83% for March 20 Equities.com - 8 hours ago Macys Inc. started at an opening price of 30.59 and hit a high of $30.59 and a low of $29.31. Ultimately, the stock took a hit and finished the day at $1.17 per share.'
p2
aS"Why Macy's Inc  Delivered An Inferior ROE Compared To The Industry? Simply Wall St - Mar 19, 2017 Macy's Inc , with a ROE of 14.3% over the past twelve months, appeared relatively inefficient compared to the broader industry, which averaged 39.79% ROE."
p3
aS"Macy's: Activist Investor Relieves Some Pressure Seeking Alpha - Mar 18, 2017 Now, Macy's soon to be CEO  Jeff Gennette is free to work toward its turnaround strategy. Something the company could really use the potential buyout by Hudson's Bay  went cold earlier this year."
p4
aS"Macy's, Inc.'s Real-Estate Cash Machine Takes Off Motley Fool - Feb 24, 2017 For more than a year, Macy's  has been talking about monetizing some of its underutilized real estate. However, it wasn't until last quarter that Macy's started to generate large amounts of cash from real-estate sales. Many investors seem to be&nbsp;..."
p5
aS"With Sales Sliding, Macy's Inc Explores New Frontiers Motley Fool - Mar 7, 2017 In this episode of Industry Focus: Consumer Goods, the team looks at the company's fourth quarter results and its plans for the future."
p6
aS"Macy's, Inc. Reports Weak Q4 Earnings, but Dillard's Earnings Were Even Worse Motley Fool - Feb 22, 2017 On Tuesday morning, Macy's  and Dillard's  kicked off earnings season for the department-store sector."
p7
aS"Macy's - The Bull Case Seeking Alpha - Mar 13, 2017 Macy's is trading at or near the lowest multiples of the last 5-6 years due to the recent weakness. In this article, I present a value case for the stock, which I think is an attractive long at the current levels."
p8
aS"Macy's Inc  Ex-Dividend Date Scheduled for March 13, 2017 Nasdaq - Mar 10, 2017 Macy's Inc  will begin trading ex-dividend on March 13, 2017. A cash dividend payment of $0.377 per share is scheduled to be paid on April 03, 2017."
p9
aS"Macy's, Inc. Reports Fourth Quarter and FY2016 Results Yahoo Finance - Feb 21, 2017 Macy's, Inc.  today reported fiscal 2016 earnings per diluted share of $1.99, or $3.11 per diluted share excluding certain items discussed below.Macy's Inc  Earnings Beat Is Another Head Fake - Investorplace.comMacy's Q4 EPS Beats Estimates, Expects Sales Drop To Continue - Benzinga"
p10
a.