(lp0
S'Meredith Corp. loses top execs amid cuts New York Post - Feb 4, 2017 Even as Meredith Corp. gets ready to release its second issue of the hottest new print magazine of the year, Magnolia Journal, more details are emerging on the cuts the company unveiled earlier in the week in its national media division.'
p1
aS'Meredith Corporation to create two bookazines in 2017 based on the House ... Talking New Media - Mar 14, 2017 DES MOINES, Iowa and NEW YORK, NY - March 14, 2017 - Meredith Corporation - the leading media and marketing company with national brands serving more than 110 million American women including nearly 75 percent of U.S.Meredith To Create Bookazine Based On Iconic House &amp; Garden Brand - PR Newswire '
p2
aS'Time Inc., Meredith Corp. stocks jump amid merger speculation New York Post - Jan 5, 2017 The shares of both Time Inc. and Meredith Corp. touched 52-week highs on Wednesday after a top Meredith executive said he would, in certain circumstance, be interested in opportunities for his TV or magazines assets.'
p3
aS'Meredith Corp. may bid against billionaire trio for Time Inc. New York Post - Nov 30, 2016 As the Time Inc. drama played out for a second day, some media insiders were betting that Meredith Corp. will soon enter the fray and trigger a potential bidding war against the billionaire trio of Edgar Bronfman Jr.Industry eyes Meredith as Time Inc. suitor - CNNMoneyTime Inc. Buyout Bid May Spark Interest From Other Potential Buyers - Minonline'
p4
aS"Meredith Corp. Announces Layoffs MediaPost Communications - Feb 1, 2017 Big publishers aren't slacking on cost-cutting measures in the New Year. Women's interest publisher Meredith Corp. revealed that it has cut 40 positions across the company, with half of the layoffs falling on its New York office and the rest spread ...Meredith Lays Off 40 Staffers - Folio Magazine"
p5
aS'Meredith Contacts Time to Express Interest in Merger Bloomberg - Jan 5, 2017 Meredith Corp. has contacted Time Inc. to express interest in a potential merger, according to people familiar with the matter, rekindling a possible tie-up that died in 2013.A publishing powerhouse has reportedly approached Time Inc about a merger, and ... - Business Insider'
p6
aS'Political Advertising Helps Fuel Better-Than-Expected Q2 for Meredith Corp. Motley Fool - Jan 26, 2017 Shares of Meredith Corporation , a publicly held media and marketing services company with core knowledge of the home, family, food, and lifestyle markets, were up about 10% yesterday after the company reported better-than-expected&nbsp;...Meredith CEO plays it cool on possible merger with Time - DesMoinesRegister.comMeredith Corporation  Moves Higher on Volume Spike for January 25 - Equities.com'
p7
aS'Meredith taking another run at buying Time Inc. New York Business Journal - Feb 8, 2017 Meredith  tried to buy Time Inc.  back in 2013 when Time was owned by Time Warner. But the deal fell apart, and the magazine group was spun off as a publicly traded company in 2014. Bronfman and Access Industries also have&nbsp;...Time +3.5% on report of nondisclosure deal with Bronfman, Meredith - Seeking AlphaMeredith, Bronfman Move Forward in Effort to Acquire Time Inc. - Wall Street Journal'
p8
aS'Meredith cuts 40 jobs in reorgnization Seeking Alpha - Jan 31, 2017 Publisher Meredith Corp.  is cutting 40 jobs, part of a reorg that includes other job shuffles and losses for about 1% of the workforce.'
p9
aS"Why to Keeping Eye on TiVo Corporation , Meredith Corporation ? StockNewsJournal - 16 hours ago Meredith Corporation , maintained return on investment for the last twelve months at 4.22, higher than what Reuters data shows regarding industry's average.Stock Price of Meredith Corporation  Decreases -0.48% - Highland MirrorThis Weeks Target Prices For Meredith Corporation  - NewsDen"
p10
a.