(lp0
S'Mobile Mini, Inc.  Ex-Dividend Date Scheduled for February 27, 2017 Nasdaq - Feb 24, 2017 Mobile Mini, Inc.  will begin trading ex-dividend on February 27, 2017. A cash dividend payment of $0.227 per share is scheduled to be paid on March 15, 2017.'
p1
aS'Mobile Mini Inc.  Moves Higher on Volume Spike for March 17 Equities.com - Mar 17, 2017 Mobile Mini Inc.  traded on unusually high volume on Mar. 17, as the stock gained 1.29% to close at $31.35. On the day, Mobile Mini Inc. saw 408,433 shares trade hands on 1,321 trades. Considering that the stock averages only a daily volume of&nbsp;...Brokerages Set Mobile Mini Inc  PT at $36.00 - BNB Daily '
p2
aS'Mobile Mini Inc. Delivers on Its Growth Plan Motley Fool - Oct 23, 2014 Yet with the hassle of renting an off-site storage facility and then transporting all your stuff to a remote location, portable storage providers like Mobile Mini  have found a lucrative niche to cater to homeowners and business owners who ...'
p3
aS"Mobile Mini Announces Rebrand Yahoo Finance - Feb 28, 2017 Mobile Mini, Inc.  , the world's leading supplier of portable storage and a leading provider of specialty containment solutions in the United States, announces the rebranding of its Evergreen Tank ...Mobile Mini Inc  Shares Bought by Envestnet Asset Management Inc. - BBNS"
p4
aS'Mobile Mini Inc  Receives Average Recommendation of Hold from Brokerages The Cerbat Gem - 17 hours ago Mobile Mini logo Shares of Mobile Mini Inc  have been given a consensus recommendation of Hold by the five analysts that are currently covering the firm.'
p5
aS'Mobile Mini Announces CFO Transition Yahoo Finance - Mar 13, 2017 Mobile Mini, Inc.  today announced that Executive Vice President and Chief Financial Officer, Mark E. Funk, will be stepping down as CFO on June 30, 2017.'
p6
aS"Mobile Mini Inc.'s Sales Decline on Delayed Storage Orders Motley Fool - Jul 28, 2016 CEO Erik Olsson stressed the positive demand trends that executives witnessed, particularly within Mobile Mini's portable storage segment."
p7
aS'Mobile Mini  Q3 2016 Results - Earnings Call Transcript Seeking Alpha - Oct 25, 2016 Good day, everyone. And welcome to the Mobile Mini 2016 Third Quarter Conference Call. At this time, I would like to inform you that this conference is being recorded and that all participants are currently in a listen-only mode.'
p8
aS'Mobile Mini  Q4 2016 Results - Earnings Call Transcript Seeking Alpha - Feb 3, 2017 Good day, everyone. And welcome to the Mobile Mini 2016 Fourth Quarter Conference Call. At this time, I would like to inform you that this conference is being recorded and that all participants are currently in a listen-only mode.Mobile Mini, Inc.  Announces Quarterly Earnings Results, Beats Estimates ... - The Cerbat Gem'
p9
aS'Mobile Mini, Inc.  Stock ABR At 2.4 Markets Daily - 12 hours ago Market experts outlook on Mobile Mini, Inc.  equity is positive. As of 2017-03-19, the stock ABR is 2.4 in 1-5 range.'
p10
a.