(lp0
S"MarketAxess Holdings Inc. Earnings Surge 36% Motley Fool - Oct 28, 2016 MarketAxess Holdings  reported third-quarter results on Oct. 26. The bond-trading network's share of the U.S."
p1
aS'What to Watch When MarketAxess Holdings Inc. Reports Earnings Motley Fool - Apr 26, 2016 The Motley Fool owns shares of and recommends MarketAxess Holdings. Try any of our Foolish newsletter services free for 30 days.'
p2
aS'Record Trading Volume Fuels MarketAxess Holdings Inc. Earnings Motley Fool - Jan 27, 2016 MarketAxess again benefited from its operating leverage during the fourth quarter, as an 8.1% increase in total expenses to $39.7 million -- due mostly to higher employee compensation costs -- trailed revenue growth.'
p3
aS'MarketAxess Holdings Inc. Delivers 28% Revenue Growth Motley Fool - Jul 29, 2016 MarketAxess Holdings  reported second-quarter results on July 28. Revenue surged 28% year over year to $96.6 million as the electronic bond-trading network enjoyed record trading across all of its core product lines.'
p4
aS'Share Gains Boost MarketAxess Holdings Inc. Earnings Motley Fool - Apr 28, 2016 MarketAxess Holdings  reported first-quarter results on April 27. Revenue leapt 15.4% year over year to $88.6 million, as the electronic bond-trading network enjoyed record trading across all of its core product lines.'
p5
aS"Recent Update on Price Movements: MarketAxess Holdings, Inc.  Is stories - 21 hours ago MarketAxess Holdings Inc.'s  witnessed a loss of -0.38% in recent trading period with closing price of $ 190.05. The company's last traded volume of 0.26 million shares as compared to it's an average volume of 0.22 million shares."
p6
aS'Stock Returns: CBOE Holdings Inc  versus MarketAxess Holdings Inc ... CML News - Mar 19, 2017 This is a snapshot to compare the stock returns for CBOE Holdings Inc  versus MarketAxess Holdings Inc  .Brokerages Set MarketAxess Holdings Inc.  Target Price at $175.17 - Sports PerspectivesBroker Outlook For The Week Ahead MarketAxess Holdings, Inc.  - Fiscal Standard'
p7
aS'MarketAxess Announces Monthly Volume Statistics for January 2017 GlobeNewswire  - Feb 2, 2017 NEW YORK, Feb. 02, 2017  -- MarketAxess Holdings Inc. , the operator of a leading electronic trading platform for fixed-income securities, and the provider of market data and post-trade services for the global fixed-income&nbsp;...'
p8
aS'MarketAxess Holdings Taps Christophe Roupie as its Head of Europe and Asia Finance Magnates - Feb 28, 2017 MarketAxess Holdings Inc. , an operator of a leading electronic trading platform for fixed-income securities, has appointed Christophe Roupie as its newest Head of Europe and Asia for MarketAxess Europe Limited and Trax, pending approval from the&nbsp;...MarketAxess Appoints Christophe Roupie as Head of Europe and Asia - GlobeNewswire MOVES-Marketaxess names Christophe Roupie head of Europe, Asia - Reuters'
p9
aS"Why You Should Buy MarketAxess Holdings  Stock Now Yahoo Finance - Feb 22, 2017 Shares of MarketAxess Holdings Inc. MKTX surged 67.2% in a year's time, significantly outperforming the 27.8% gain for the Zacks categorized Securities Exchanges industry."
p10
a.