(lp0
S'Merit Medical Systems  to Offer $125M in Common Stock StreetInsider.com - 10 hours ago Merit Medical Systems, Inc.  announced that it has commenced an underwritten public offering of shares of its common stock.'
p1
aS'Merit Medical Announces Commencement of Public Offering of Common Stock GlobeNewswire  - 10 hours ago SOUTH JORDAN, Utah, March 20, 2017  -- Merit Medical Systems, Inc.  , a leading manufacturer and marketer of proprietary disposable devices used in interventional, diagnostic and therapeutic procedures,&nbsp;...Merit Medical Systems, Inc.  Reaches $31.55 52-Week High, Tybourne ... - Wolcott DailyMerit Medical Systems, Inc.  Mean Price Target At $33.50 - Equities Focus'
p2
aS"Merit Medical Acquires DFINE, Inc. GlobeNewswire  - Jul 6, 2016 SOUTH JORDAN, Utah, July 06, 2016  -- Merit Medical Systems, Inc. , a leading manufacturer and marketer of proprietary disposable devices used primarily in cardiology, radiology and endoscopy, today announced that&nbsp;...Merit Medical pays $98m for DFine's spine devices - Mass Device"
p3
aS'Merit Medical to Participate at BTIG and Barclays Conferences GlobeNewswire  - Feb 16, 2017 SOUTH JORDAN, Utah, Feb. 16, 2017  -- Merit Medical Systems, Inc. , a leading manufacturer and marketer of proprietary disposable devices used primarily in cardiology, radiology and endoscopy, today announced&nbsp;...'
p4
aS'Why Merit Medical Systems Inc is Tanking Today Motley Fool - Oct 23, 2015 What: Shares of Merit Medical Systems , a manufacturer of disposable medical devices used in primarily in cardiology, radiology and endoscopy, were in the doghouse in early trading today.Merit Medical plummets on Q3 earnings, rev misses - Mass Device'
p5
aS'Merit Medical Systems Inc.  Moves Higher on Volume Spike for March 17 Equities.com - Mar 17, 2017 Merit Medical Systems Inc.  traded on unusually high volume on Mar. 17, as the stock gained 3.13% to close at $31.35.Merit Medical Systems, Inc.  held by 27 SEC 13F Filers - Post AnalystThe Two Sigma Investments LP Has $2075000 Stake in Merit Medical Systems, Inc ... - Petro Global News 24'
p6
aS'Merit Medical Reports Results for Fourth Quarter and Year Ended December 31, 2015 GlobeNewswire  - Feb 22, 2016 SOUTH JORDAN, Utah, Feb. 22, 2016  -- Merit Medical Systems, Inc. , a leading manufacturer and marketer of proprietary disposable devices used primarily in cardiology, radiology and endoscopy, today announced&nbsp;...'
p7
aS'Merit Medical Systems Inc.  Breaks into New 52-Week High on February 28 ... Equities.com - Feb 28, 2017 Shares of Merit Medical Systems Inc.  broke into a new 52-week high yesterday, hitting a peak of $31.10. Shares closed at $30.80 after opening at $30.95 for a move of -0.16%.Merit Medical Systems, Inc.  Files An 8-K Financial Statements ... - Market Exclusive'
p8
aS"Merit Medical Acquires the HeROGraft From CryoLife, Inc. GlobeNewswire  - Feb 4, 2016 SOUTH JORDAN, Utah, Feb. 04, 2016  -- Merit Medical Systems, Inc. , a leading manufacturer and marketer of proprietary disposable medical devices used in interventional and diagnostic procedures, particularly in&nbsp;...CryoLife Announces Sale of HeRO Graft to Merit Medical Systems - PR Newswire Merit Medical  Acquires CryoLife's  HeRO Graft Product Line - StreetInsider.com"
p9
aS"Merit Medical Reports Results for Fourth Quarter and Year Ended December 31, 2016 GlobeNewswire  - Feb 21, 2017 21, 2017  -- Merit Medical Systems, Inc. , a leading manufacturer and marketer of proprietary disposable devices used in interventional, diagnostic and therapeutic procedures, particularly in cardiology, radiology and&nbsp;...Merit Medical Systems Inc.  Moves Higher on Volume Spike for February 21 - Equities.comMerit Medical Systems'  CEO Fred Lampropoulos on Q4 2016 Results ... - Seeking Alpha"
p10
a.