(lp0
S'Monolithic Power Systems Inc.  Breaks into New 52-Week High on March 20 ... Equities.com - 8 hours ago Shares of Monolithic Power Systems Inc.  broke into a new 52-week high yesterday, hitting a peak of $94.49. Shares closed at $93.73 after opening at $93.29 for a move of 0.83%.The Monolithic Power Systems, Inc.  Position Reduced by Teachers ... - Petro Global News 24Monolithic Power Systems, Inc.  Touches $94.11 High on Mar, 20 ... - Wolcott Daily'
p1
aS"Monolithic Power Systems  Q4 2016 Results - Earnings Call Transcript Seeking Alpha - Feb 10, 2017 Good day, ladies and gentlemen, and welcome to the Monolithic Power Systems' Q4 2016 Earnings Call. At this time, all participants are in a listen-only mode.Earnings Reaction History: Monolithic Power Systems, Inc.  Post Earnings ... - Post AnalystMonolithic Power Systems, Inc.  CEO Michael Hsing Sells 19482 Shares - The Cerbat Gem"
p2
aS'After Earnings Is Monolithic Power Systems Inc. a Buy? Motley Fool - Feb 18, 2016 Monolithic Power Systems,  defied some of its other tech peers on February 4, when it released fourth quarter results that came in higher than analyst expectations, along with strong guidance for next quarter and a simultaneous&nbsp;...'
p3
aS"AMD, Analog Get Analyst Boosts; Monolithic Power Still A Buy Investor's Business Daily - 12 hours ago Chipmakers Advanced Micro Devices  and Analog Devices  received price-target hikes from Wall Street analysts on Monday, while Monolithic Power Systems  got a new bullish report from an investment bank, as the sector in general got a&nbsp;..."
p4
aS'Symmetry Electronics and Monolithic Power Systems Announce Distribution ... PR Newswire  - Feb 28, 2017 SAN JOSE, California, Feb. 28, 2017 /PRNewswire/ -- Monolithic Power Systems, Inc.  , a leading company in high-performance analog solutions, today announced a distribution agreement with Symmetry Electronics, a distributor&nbsp;...Monolithic Power Systems, Inc.  VP Sells $2061547.04 in Stock - Sports PerspectivesMonolithic Power Systems, Inc.  Target Price At $100 - Markets Daily'
p5
aS'Market View: Watching the Numbers for Monolithic Power Systems, Inc.  Sherwood Daily - 9 hours ago Looking at shares of Monolithic Power Systems, Inc. , the company has an EV  of 3559122.'
p6
aS'About: Monolithic Power  Seeking Alpha - Jul 26, 2016 Each company currently serves a mostly different market. While no two companies are alike sometimes it can be helpful to compare the fundamental performance of two similar companies to get a sense of which one may represent a better investment&nbsp;...'
p7
aS'Monolithic Power Systems Announces Chief Financial Officer Transition PR Newswire  - Feb 23, 2016 SAN JOSE, Calif., Feb. 23, 2016 /PRNewswire/ -- Monolithic Power Systems, Inc.  , a leading company in high performance power solutions, today announced that Meera Rao has informed the company of her intention to retire from the&nbsp;...'
p8
aS"Monolithic Power Systems'  CEO Michael Hsing on Q3 2016 Results ... Seeking Alpha - Nov 1, 2016 Good day, ladies and gentlemen, and welcome to the Monolithic Power Systems' Third Quarter 2016 Earnings Conference Call."
p9
aS'Monolithic Power Systems Announces First Quarter Dividend Broadway World - Mar 15, 2017 SAN JOSE, Calif., March 15, 2017  Monolithic Power Systems  , a leading company in high-performance analog solutions, today announced its first quarter dividend of $0.20 per common share to all stockholders of&nbsp;...Monolithic Power Systems, Inc.  EPS Projection At $0.6767 - Investor Newswire'
p10
a.