(lp0
S"Marten Transport Ltd.  Moves Higher on Volume Spike for March 17 Equities.com - Mar 17, 2017 Marten Transport Ltd.  traded on unusually high volume on Mar. 17, as the stock gained 1.65% to close at $24.60. On the day, Marten Transport Ltd. saw 225,545 shares trade hands on 895 trades. Considering that the stock averages only a daily&nbsp;...Marten Transport, Ltd  Director Thomas J. Winkel Sells 2750 Shares of Stock - Sports PerspectivesWhy Marten Transport Ltd's  ROE Of 7.9% Does Not Tell The Whole Story - Simply Wall St"
p1
aS"Recent Movements of Stock: Marten Transport, Ltd.  Is stories - 18 hours ago Marten Transport, Ltd.'s  witnessed a gain of 1.65% in recent trading period with closing price of $ 24.60."
p2
aS'Marten Transport Ltd.  Moves Higher on Volume Spike for March 01 Equities.com - Mar 1, 2017 Marten Transport Ltd.  traded on unusually high volume on Mar. 01, as the stock gained 3.26% to close at $25.35. On the day, Marten Transport Ltd. saw 151,755 shares trade hands on 1,215 trades. Considering that the stock averages only a daily&nbsp;...Insider Trading at Marten Transport Ltd? - Chaffey BreezeMarten Transport, Ltd.  Under Analyst Spotlight - UK Market News'
p3
aS"Pulling the Curtain Back on Marten Transport, Ltd.  Earnings ... Melville Review - 5 hours ago Wall Street is predicting that Marten Transport, Ltd. 's earnings per share  will be $0.22 when the firm is expected to announce earnings around 2017-04-20."
p4
aS'Smallcaps To Observe: Hhgregg, Inc. , Marten Transport, Ltd (NASDAQ ... Scibility Media - Apr 26, 2016 Marten Transport, Ltd  is still struggling to shake off the aftermath of its disappointing 1Q2016 revenue.'
p5
aS'Marten Transport, Ltd  Announces $0.03 Quarterly Dividend Chaffey Breeze - Mar 16, 2017 Marten Transport logo Marten Transport, Ltd  announced a quarterly dividend on Wednesday, March 15th. Investors of record on Friday, March 24th will be paid a dividend of 0.025 per share on Friday, March 31st.Marten Transport, Ltd.  1-Year Price Target At $22.5 - Enterprise Leader'
p6
aS"Marten Transport receives its 10000th Utility Trailer model Fleet Owner - Aug 29, 2014 Founded in Mondovi, WI, by Roger Marten, Marten Transport has been servicing North America since 1946. The very first trailers Roger Marten purchased from Badger Utility's sales representative, Greg Steinhorst were in 1984 for 35 units, said Todd&nbsp;..."
p7
aS'Stock Returns: ArcBest Corporation  is Beating Marten Transport ... CML News - Feb 17, 2017 This is a snapshot to compare the stock returns for ArcBest Corporation  versus Marten Transport, Ltd.  .'
p8
aS'Marten Transport, Ltd.  Stock Technicals at Critical Inflection Point CML News - Feb 19, 2017 This is a technical analysis stock rating for Marten Transport, Ltd.  . The company has a three bull technical rating which indicates an inflection point.Marten Transport, Ltd.  Consolidated Diluted EPS At 1.0241 - Equities Focus'
p9
aS'Marten Transport reports Q4, full-year 2016 earnings American Shipper  - Jan 27, 2017 The Mondovi, Wis.-based temperature-sensitive truckload carrier reported a net income of $33.5 million on operating revenues of $671.1 million for the full year of 2016.'
p10
a.