(lp0
S"Five Point Capital Partners and Matador Resources Form Strategic Joint Venture ... PR Newswire  - Feb 17, 2017 HOUSTON, Feb. 17, 2017 /PRNewswire/ -- A wholly owned subsidiary of Five Point Capital Partners LLC  and Matador Resources Company   today announced the formation of San Mateo Midstream, LLC (&quot;San Mateo&quot;&nbsp;...Matador Resources Co  has been downgraded to Hold in a report by ... - Breaking Finance NewsMatador's Midstream JV Plugs Delaware Capex Hole - Oil and Gas Investor "
p1
aS"News Matador Resources Co.MTDR Wall Street Journal - Jan 28, 2012 P/E Ratio : The Price to Earnings  ratio, a key valuation measure, is calculated by dividing the stock's most recent closing price by the sum of the diluted earnings per share from continuing operations for the trailing 12 month period ..."
p2
aS'Portolan Capital Management, LLC Buys Unisys, Matador Resources Co, Skechers ... Nasdaq - Feb 16, 2017 Portolan Capital Management, LLC initiated holdings in Unisys Corp. The purchase prices were between $8.95 and $16.4, with an estimated average price of $12.71.'
p3
aS"Matador Resources Co.'s 13.4% June Swoon Defies Analysts Motley Fool - Jul 7, 2016 What: Shares of Matador Resources  sank 13.4% in June despite several bullish notes from analysts. So what: After bottoming out in mid-January at around $13 a share, Matador Resources' stock rallied along with crude this spring before ..."
p4
aS"Analysts' Recommendations Stocks Buzz: Matador Resources Co (NYSE:MTDR ... Daily News Journal - 13 hours ago On Friday, Shares of Matador Resources Co  lost -0.69% to $23.10. The share price is trading in a range of $22.96 - 23.57.Company Stock Price of Matador Resources Company  Decreases -0.94% - Times Money"
p5
aS'Form 4 Matador Resources Co For: Mar 14 Filed by: Goodwin Billy E StreetInsider.com - Mar 17, 2017 Check this box if no longer subject to Section 16. Form 4 or Form 5 obligations may continue. See Instruction 1. 1. Name and Address of Reporting Person *. Goodwin Billy E. , , . 5400 LBJ FREEWAY. SUITE 1500. . DALLAS ...'
p6
aS'Matador Resources Company Announces Start-up of Rustler Breaks Cryogenic ... BOE Report  - Aug 29, 2016 DALLASMatador Resources Company   today announced the successful start-up last week of the Black River cryogenic natural gas processing plant Matador built in its Rustler Breaks prospect&nbsp;...'
p7
aS'Matador Resources Company  Moves Lower on Volume Spike for February 20 Equities.com - Feb 20, 2017 Matador Resources Company  traded on unusually high volume on Feb. 20, as the stock lost 0.22% to close at $26.80. On the day, Matador Resources Company saw 2.93 million shares trade hands on 18,976 trades. Considering that the stock&nbsp;...Houston PE firm forms JV with Dallas energy co. - Houston Business Journal'
p8
aS'Consensus Earnings Estimate for Matador Resources Company Energy Index - Mar 10, 2017 Matador Resources Company Indepth Earnings, EPS and Estimated Revenue Guidance give detailed picture on the performance.Matador Resources Company  Moves Higher on Volume Spike for March 09 - Equities.comInsider Trading at Matador Resources Company? - Chaffey Breeze'
p9
aS'Revenue Update on Matador Resources Co Energy Index - Mar 2, 2017 Matador Resources Co announced the earnings results for Fiscal Year 2016 and Q4. The results came in during After-Market on Feb 22, 2017.Stock Movers- TechnipFMC plc Ordinary Share , Matador Resources Co ... - Wall Street Times Envestnet Asset Management Inc. Acquires 91339 Shares of Matador Resources ... - Sports Perspectives'
p10
a.