(lp0
S'MGIC Investment Corporation  Moves Lower on Volume Spike for March 20 Equities.com - 8 hours ago MGIC Investment Corporation  traded on unusually high volume on Mar. 20, as the stock lost 2.26% to close at $10.39. On the day, MGIC Investment Corporation saw 7.68 million shares trade hands on 10,783 trades. Considering that the stock averages&nbsp;...Most Active Stock: MGIC Investment Corp.  - HugoPressWhy to Keeping Eye on Coherent, Inc. , MGIC Investment Corporation ? - StockNewsJournal'
p1
aS"MGIC Investment Corporation Reports Fourth Quarter 2016 Results PR Newswire  - Jan 19, 2017 MILWAUKEE, Jan. 19, 2017 /PRNewswire/ -- MGIC Investment Corporation  today reported operating and financial results for the quarter ended December 31, 2016.Fourth-quarter profits rise 5% for MGIC - Milwaukee Journal SentinelMGIC Investment's  CEO Pat Sinks on Q3 2016 Results - Earnings Call ... - Seeking Alpha"
p2
aS'MGIC Promotes Hughes and Miosi to Executive Vice President PR Newswire  - Jan 24, 2017 MILWAUKEE, Jan. 24, 2017 /PRNewswire/ -- Mortgage Guaranty Insurance Corporation , the principal subsidiary of MGIC Investment Corporation , has announced the promotion of James Hughes to Executive Vice President - Sales and&nbsp;...'
p3
aS'Risk Malaise Alert in Option Market: MGIC Investment Corporation Implied Price ... CML News - Mar 19, 2017 Before we dive into any analysis we simply note that MGIC Investment Corporation  risk is actually priced pretty low by the option market as of right now.'
p4
aS'Taking a Fresh Look at MGIC Investment Corp  StockNewsJournal - Mar 15, 2017 MGIC Investment Corporation  is an interesting player in the Financial space, with a focus on Property &amp; Casualty Insurance.Highly Traded Stock: MGIC Investment Corp.  - HugoPressThe Brokerages Set MGIC Investment Corp.  PT at $11.19 - Petro Global News 24'
p5
aS'MGIC Investment  Announces Strong February Results Yahoo Finance - Mar 9, 2017 MGIC Investment Corp. MTG recently announced its Feb 2017 operating business statistics. Insurance in force for the month was $182.9 billion, up 4.6% year over year.Traders Secrets on Exelixis, Inc. , MGIC Investment Corporation  - StockNewsJournalStock Returns: MGIC Investment Corporation  is Beating Provident ... - CML News'
p6
aS'Today Analysts Focus on MGIC Investment Corp. , Murphy Oil Corp.  StockNewsJournal - Mar 2, 2017 ROI deals with the invested cash in the company and the return the investor realize on that money based on the net profit of the business.'
p7
aS'Stock Alert: MGIC Investment Corporation Stock Volatility Hits A Collapsing Low CML News - Mar 17, 2017 Before we cover the full analysis we make a quick alert here that MGIC Investment Corporation  has seen its stock price move at a collapsing low level.'
p8
aS"Analytical Guide for Ciena Corporation , MGIC Investment Corporation ... The USA Commerce - Mar 3, 2017 Shares of Ciena Corporation  dropped -0.08% to $26.39. During the trading on 03/02/2017, Company's stock ranged from $26.11 to $26.59.Is MGIC Investment Corporation  Preparing For A Breakout Trade? - Post AnalystThe MGIC Investment Corp.  Upgraded at TheStreet - DailyQuint"
p9
aS"MGIC Investment Corp.  Upgraded to B at TheStreet Chaffey Breeze - Feb 27, 2017 MGIC Investment Corp. logo MGIC Investment Corp.  was upgraded by stock analysts at TheStreet from a c+ rating to a b rating in a report issued on Wednesday.Analyst's Indicator Review for CONSOL Energy Inc. , MGIC Investment ... - The USA Commerce"
p10
a.