(lp0
S"Meritage Homes Corp. Finishes 2016 Strong, but a Few Things Bear Watching Motley Fool - Feb 2, 2017 Meritage Homes Corp.  reported its fourth-quarter and fiscal-year 2016 earnings on Feb. 1, beating analyst expectations for profit.Meritage Homes'  CEO Steve Hilton on Q4 2016 Results - Earnings Call ... - Seeking AlphaWhirlpool &amp; Meritage Homes Renew Deal to Bolster Growth - Zacks.com"
p1
aS"Meritage Homes Corp Stock Down 12% Post Earnings: Here's What Matters Motley Fool - Apr 28, 2016 Building energy-efficient homes is helping Meritage Homes be more profitable. Image source: Meritage Homes Corp. Shares of top-10 homebuilder Meritage Homes Corp  are down 12% following the release of the company's first-quarter&nbsp;..."
p2
aS'Meritage Homes and iStar Announce Joint Venture to Develop New Community in ... GlobeNewswire  - Jan 23, 2017 Artesia will be one of the most desirable places to live in the greater Scottsdale and Paradise Valley area, said Steve Hilton, chairman and chief executive officer of Meritage Homes. The community caters to those looking for a health and wellness ...'
p3
aS'Meritage Homes Corp. Reports Strong Earnings Growth, Continues Working Through ... Motley Fool - Nov 1, 2016 Meritage Homes Corp.  reported financial results for the third quarter on Oct. 27, delivering 11% home closing revenue growth, a 22% jump in earnings, and strong home order growth.'
p4
aS'Meritage Homes Corporation  Moves Lower on Volume Spike for March 17 Equities.com - Mar 17, 2017 Meritage Homes Corporation  traded on unusually high volume on Mar. 17, as the stock lost 1.29% to close at $38.25. On the day, Meritage Homes Corporation saw 575,726 shares trade hands on 3,477 trades. Considering that the stock averages only&nbsp;...Meritage Homes Reschedules Analyst Meeting for March 30 in New York City - GlobeNewswire '
p5
aS'By the Numbers: A Breakdown of the 2015 Results for Meritage Homes Corp. Motley Fool - Feb 2, 2016 Meritage Homes Corp.  is one of the 10 largest homebuilders in the U.S., and reported a strong finish to 2015, announcing fourth-quarter and full-year financial results on Jan. 28.'
p6
aS'Meritage Homes Corp Profits Up, Gross Margin Down: Guess What Mister Market Does? Motley Fool - Aug 3, 2016 The southeastern U.S. is a big growth market for Meritage. Image source: Meritage Homes. When Meritage Homes Corp  reported second quarter results on July 28, there was a lot to like.'
p7
aS"Here's Why Meritage Homes Corp Stock Fell 10% Today Motley Fool - Sep 10, 2015 What's happening: Top-10 U.S. homebuilder Meritage Homes Corporation  stock fell more than 12% early in trading today, before picking back up a little bit of those losses."
p8
aS'Meritage Homes Corporation Elects Deb Henretta to Its Board of Directors Marketwired  - Mar 8, 2016 SCOTTSDALE, AZ-- - Meritage Homes Corporation , a leading U.S. homebuilder, announced the election of Deb Henretta to its Board of Directors as an independent director.'
p9
aS"Meritage Homes Fourth Quarter 2016 Earnings Release and Webcast Conference ... GlobeNewswire  - Dec 28, 2016 SCOTTSDALE, Ariz., Dec. 28, 2016  -- Meritage Homes Corporation , a leading U.S. homebuilder, plans to release the Company's fourth quarter 2016 results on Wednesday, February 1, 2017 before the market opens."
p10
a.