(lp0
S'Meritor Announces P600 Series Tridem Heavy-Haul Planetary Axle for Severe ... PR Newswire  - Mar 7, 2017 TROY, Mich., March 7, 2017 /PRNewswire/ -- Meritor, Inc.  today announced at CONEXPO-CON/AGG 2017 the introduction of its new P600 Series Tridem Heavy-Haul Planetary Axle for heavy-duty, long-haul, oil field, mining and logging&nbsp;...'
p1
aS'Meritor Earns Top 20 Product Award from Heavy Duty Trucking Magazine for MFS ... PR Newswire  - Feb 28, 2017 Meritor, Inc. is a leading global supplier of drivetrain, mobility, braking and aftermarket solutions for commercial vehicle and industrial markets.'
p2
aS'Meritor Announces 14X HE  Tandem Drive Axle for North ... PR Newswire  - Feb 27, 2017 Meritor, Inc. is a leading global supplier of drivetrain, mobility, braking and aftermarket solutions for commercial vehicle and industrial markets.Meritor, Inc.  Receives $13.71 Average Price Target from Analysts - The Cerbat Gem'
p3
aS"Meritor Earns Diamond Supplier Award from Navistar PR Newswire  - Feb 20, 2017 TROY, Mich., Feb. 20, 2017 /PRNewswire/ -- Meritor, Inc.  announced today that it was among 34 suppliers to earn Navistar's Diamond Supplier Award, which recognizes the top 2 percent of Navistar's supply chain."
p4
aS'Meritor Virtual Reality App Showcases Advanced Product Solutions from Meritor PR Newswire  - Jan 24, 2017 Meritor, Inc. is a leading global supplier of drivetrain, mobility, braking and aftermarket solutions for commercial vehicle and industrial markets.Meritor Inc.  Upgraded at Zacks Investment Research - Sports Perspectives'
p5
aS'Meritor Expands FastSet No-Ream King Pin Kit Product Line PR Newswire  - Jan 24, 2017 Meritor, Inc. is a leading global supplier of drivetrain, mobility, braking and aftermarket solutions for commercial vehicle and industrial markets.'
p6
aS'Meritor Reports First-Quarter Fiscal Year 2017 Results PR Newswire  - Feb 1, 2017 Meritor, Inc. is a leading global supplier of drivetrain, mobility, braking and aftermarket solutions for commercial vehicle and industrial markets.'
p7
aS'Meritor Reports Fourth-Quarter and Fiscal Year 2016 Results PR Newswire  - Nov 16, 2016 Net income attributable to Meritor was $452 million, or $5.10 per diluted share, compared with a net loss of $21 million, or $0.22 per diluted share, in the prior year.'
p8
aS'Meritor Inc.  Breaks into New 52-Week High on March 16 Session Equities.com - Mar 16, 2017 Shares of Meritor Inc.  broke into a new 52-week high yesterday, hitting a peak of $17.04. Shares closed at $17.03 after opening at $16.93 for a move of 1.13%.'
p9
aS'Risk Malaise Alert in Option Market: Meritor Inc Implied Price Swing Hits A ... CML News - Mar 19, 2017 Before we dive into any analysis we simply note that Meritor Inc  risk is actually priced pretty low by the option market as of right now.'
p10
a.