(lp0
S"Maxim Integrated Products, Inc.  Ex-Dividend Date Scheduled for February ... Nasdaq - Feb 27, 2017 Maxim Integrated Products, Inc.  will begin trading ex-dividend on February 28, 2017. A cash dividend payment of $0.33 per share is scheduled to be paid on March 16, 2017.Why Is Maxim Integrated  Up 7.4% Since the Last Earnings Report? - Yahoo FinanceAnalyst's Predictions on Maxim Integrated Products, Inc. , Illumina, Inc ... - StockNewsJournal"
p1
aS"Equity Perception: Analyst's Indicator Review for Monster Beverage Corporation ... The USA Commerce - 16 hours ago Shares of Monster Beverage Corporation  dropped -0.87% to $46.47. During the trading on 03/17/2017, Company's stock ranged from $46.44 to $47.17. The relative strength index or RSI highlights overbought  and oversold&nbsp;...What's Acceptable Profitability For Monster Beverage Corporation  and ... - USA Commerce Daily"
p2
aS'Risk Malaise Alert in Option Market: Maxim Integrated Products Inc Implied ... CML News - 10 hours ago Before we dive into any analysis we simply note that Maxim Integrated Products Inc  risk is actually priced pretty low by the option market as of right now.The Franklin Resources Inc. Buys 25876 Shares of Maxim Integrated Products Inc ... - Petro Global News 24Maxim Integrated Products Inc.  Moves Higher on Volume Spike for March 17 - Equities.com'
p3
aS'Ex-Dividend Reminder: Maxim Integrated Products, Fluor Corp. and Watts Water ... Nasdaq - Feb 24, 2017 Looking at the universe of stocks we cover at Dividend Channel , on 2/28/17, Maxim Integrated Products, Inc. , Fluor Corp.Should income investors buy Maxim Integrated Products Inc  before its ex ... - Simply Wall StMaxim Integrated Products Inc Stock Volatility Hits A Deteriorated Level - CML News'
p4
aS'Easily Implement Efficient Public-Key Crypto to Protect IoT Devices and Data ... PR Newswire  - Mar 9, 2017 ... plus providing authenticity and integrity of small data transactions between the device and the cloud, is now easier and quicker with the MAXREFDES155# DeepCover embedded security reference design from Maxim Integrated Products, Inc. (NASDAQ:&nbsp;...'
p5
aS'Maxim Integrated Products, Inc.  added to 47 new portfolios Post Analyst - Mar 14, 2017 Maxim Integrated Products, Inc.  reached 40.4% versus a 1-year low price of $33.38. The stock was last seen 1.69% higher, reaching at $45.78 on Mar. 13, 2017.Stock Returns: Maxim Integrated Products Inc  is Beating Xilinx ... - CML NewsBuy, Sell or Hold? Analysts Approach: Maxim Integrated Products, Inc. (MXIM ... - The USA Commerce'
p6
aS"Analysts Near-Term outlook: Maxim Integrated Products, Inc. , Edison ... The USA Commerce - Mar 10, 2017 Shares of Maxim Integrated Products, Inc.  dropped -0.02% to $44.83. During the trading on 03/09/2017, Company's stock ranged from $44.55 to $45.05."
p7
aS'Stock Tracker: Earnings &amp; Estimates for Maxim Integrated Products, Inc ... Aiken Advocate - Mar 17, 2017 Investors and analysts will be closely watching when the company next reports earnings numbers. Earnings results can offer insight into the overall profitability of a specific company.'
p8
aS"Maxim's nanoPower Boost Regulator Delivers Industry's Longest Battery Life and ... PR Newswire  - Mar 13, 2017 SAN JOSE, Calif. and NUREMBERG, Germany, March 13, 2017 /PRNewswire/ -- With the industry's highest efficiency and lowest quiescent current  of only 300nA, the MAX17222 nanoPower boost regulator from Maxim Integrated Products, Inc. (NASDAQ:&nbsp;..."
p9
aS'Traders Secrets on DENTSPLY SIRONA Inc. , Maxim Integrated Products, Inc ... StockNewsJournal - Mar 9, 2017 Maxim Integrated Products, Inc. , at its latest closing price of $44.84, it has a price-to-book ratio of 5.90, compared to an industry average at 2.17.'
p10
a.