(lp0
S"Key Takeaways From Noble Corporation Ordinary Shares  's Fleet ... Market Exclusive - Nov 23, 2016 Noble Corporation Ordinary Shares   has released the latest update on the status of its fleet of rigs as of November 22, 2016."
p1
aS'2 Sizzling Hot Stocks  Noble Corporation Ordinary Shares  (NYSE:NE ... Wall Street Times  - 16 hours ago Noble Corporation Ordinary Shares   traded at a yearly high level of $12.25 during the last trading session.'
p2
aS'Stocks To Watch For- Noble Corporation Ordinary Shares  , SLM ... Wall Street Times  - Mar 16, 2017 Noble Corporation Ordinary Shares   traded at a yearly high level of $12.32 during the last trading session.'
p3
aS'Stock under Consideration: Noble Corporation Ordinary Shares   Post Registrar - Oct 13, 2016 Noble Corporation Ordinary Shares   share price plunged -1.63% or -0.10 points to reach at $6.03 during previous trading session.'
p4
aS'Will Noble Corporation Ordinary Shares   Beat Earnings Estimates? Post Registrar - Feb 9, 2017 Noble Corporation Ordinary Shares   plunged -2.37% or -0.16 points during previous trade after opening at the price of $ 6.65, a total of 12,455,800 shares exchanged hands compared with its average trading volume of 11.57M shares.'
p5
aS'Top Stock Movers  Cliffs Natural Resources Inc , Noble Corporation ... Wall Street Times  - 11 hours ago Shares in Noble Corporation Ordinary Shares   declined -1.45%, trading current session at $5.78 with a total trading volume of 6.73 million shares.'
p6
aS'Share Price of Noble Corporation  Decreases -2% Energy Index - 15 hours ago Noble Corporation Ordinary Shares  was Upgraded by Societe Generale to Buy on Feb 14, 2017. Noble Corporation Ordinary Shares  was Upgraded by Morgan Stanley to Equal-Weight on Feb 2, 2017. Noble Corporation Ordinary Shares  was&nbsp;...'
p7
aS'Gentherm  Hit By Argus Upgrade; Last Week Noble Ordinary Shares (UK ... Herald KS - Mar 16, 2017 Seaport Global Securities downgraded Noble Corporation Ordinary Shares   on Friday, October 7 to Neutral rating.'
p8
aS'Shares of Noble Corporation  Sees Large Outflow of Money Energy Index - Feb 24, 2017 Noble Corporation Ordinary Shares  Last issued its quarterly earnings results on Feb 9, 2017. The company reported $-0.15 EPS for the quarter, beating the analyst consensus estimate by $ 0.07.Noble Corporation Ordinary Shares   &amp; CyrusOne Inc '
p9
aS'Noble Ordinary Shares   Reaches $6.03 After 6.00% Up Move, Thompson ... HuronReport - Mar 15, 2017 About 17.26 million shares traded or 27.85% up from the average. Noble Corporation Ordinary Shares   has declined 22.82% since August 8, 2016 and is downtrending.'
p10
a.