(lp0
S'Why Neogenomics Inc is Soaring Higher Today Motley Fool - Oct 21, 2015 What: Shares of Neogenomics , a cancer-focused provider of genetic and molecular testing services for hospitals, pathologists, and oncologists, were up more than 20% in trading today after the company announced that it is acquiring Clarient ...NeoGenomics to Acquire GE Cancer Testing Unit Clarient - Wall Street JournalForm 8-K NEOGENOMICS INC For: Oct 21 - StreetInsider.com'
p1
aS'NeoGenomics Completes Acquisition of Clarient, Inc. PR Newswire  - Dec 30, 2015 30, 2015 /PRNewswire/ -- NeoGenomics, Inc. , a leading provider of cancer-focused genetic testing services, announced today that it has completed the acquisition of Clarient, Inc. and its wholly-owned subsidiary Clarient Diagnostic ...NeoGenomics acquires Clarient and Clarient Diagnostic Services - News-Medical.net'
p2
aS'NeoGenomics signs Definitive Agreement to acquire Clarient, Inc. PR Newswire  - Oct 21, 2015 FORT MYERS, Fla., Oct. 21, 2015 /PRNewswire/ -- NeoGenomics, Inc. , a leading provider of cancer-focused genetic testing services, announced today that it has reached an agreement to acquire Clarient, Inc., and its wholly-owned&nbsp;...'
p3
aS'Technical Review on Shares of Neogenomics Inc  Davidson Register - 9 hours ago When applying indicators for technical analysis, traders and investors might want to examine the ATR or Average True Range. The current 14-day ATR for Neogenomics Inc  is currently sitting at 0.2. The ATR basically measures the volatility of a ...'
p4
aS"BRIEF-Neogenomics Inc, some units and Neogenomics Laboratories enter credit ... Reuters - Dec 27, 2016 Feb 12 Kuwait's central bank released the following December money supply and bank lending data on Sunday, showing annual bank loan growth at its slowest since January 2012."
p5
aS'NeoGenomics reports Q4 and FY16 results; updates guidance Seeking Alpha - Feb 22, 2017 NeoGenomics  Q4 results: Revenues: $60.5M ; Operating Loss:  ; Net Loss: ; Loss Per Share: ; Non-GAAP EPS: $0.05 .NeoGenomics Inc.  Moves Lower on Volume Spike for February 21 - Equities.comNeoGenomics reports 4Q loss - Yahoo Finance'
p6
aS'NeoGenomics up on mixed results The News-Press - Mar 1, 2016 Fort Myers-based NeoGenomics Inc. on Tuesday reported a fourth-quarter loss of $1.6 million, after reporting a profit in the same period a year earlier.'
p7
aS'NeoGenomics Inc.  Moves Lower on Volume Spike for March 13 Equities.com - Mar 13, 2017 NeoGenomics Inc.  traded on unusually high volume on Mar. 13, as the stock lost 0.63% to close at $7.91. On the day, NeoGenomics Inc. saw 536,742 shares trade hands on 1,807 trades. Considering that the stock averages only a daily volume of&nbsp;...'
p8
aS"Margins Are Key For NeoGenomics In Q2 2016 Seeking Alpha - Jul 25, 2016 NeoGenomics  is set to release its 2Q'16 earnings report Tuesday morning July 26, 2016. NEO made a huge splash in the Cancer diagnostic world last year when it acquired Clarient."
p9
aS"Current Update on Price Fluctuations: NeoGenomics, Inc.  Is stories - 14 hours ago NeoGenomics, Inc.'s  witnessed a gain of 0.51% in recent trading period with closing price of $ 7.91. The company's last traded volume of 0.33 million shares as compared to it's an average volume of 0.26 million shares."
p10
a.