(lp0
S'Traders Take Note: Nicholas Financial Inc  Stock Drops, Weakness ... CML News - 13 hours ago Take Note: Nicholas Financial Inc  has hit some technical weakness in its momentum, and while it has not broken down all the way through support -- watch the key levels that we discuss below and further, watch the stochastics and technical&nbsp;...'
p1
aS"Here's Who Just Picked Up Nicholas Financial Inc.  Shares Small Cap Exclusive  - Jan 7, 2017 In a just published Form 13, filed with the US Securities and Exchange Commission , Nicholas Financial Inc.  reported that Magnolia Capital Fund, Lp."
p2
aS"Nicholas Financial, Inc.  Major Shareholder Magnolia Capital Fund, Lp ... Chaffey Breeze - Mar 15, 2017 Nicholas Financial logo Nicholas Financial, Inc.  major shareholder Magnolia Capital Fund, Lp bought 41,475 shares of the firm's stock in a transaction on Tuesday, March 14th."
p3
aS"Nicholas Financial, Inc.  Major Shareholder Acquires $78206.80 in Stock Chaffey Breeze - Mar 16, 2017 Nicholas Financial logo Nicholas Financial, Inc.  major shareholder Magnolia Capital Fund, Lp acquired 7,420 shares of the business's stock in a transaction that occurred on Wednesday, March 15th.Insider Magnolia Capital Fund  Lp Purchased 7420 shares of Nicholas Financial ... - Wolcott DailyMagnolia Capital Fund, Lp Buys 41475 Shares of Nicholas Financial, Inc. (NICK ... - Community Financial News"
p4
aS"Insider Trading Activity Nicholas Financial, Inc.   major ... Market Exclusive - Feb 23, 2017 Magnolia Capital Fund, Lp , major shareholder of Nicholas Financial, Inc.  reportedly Bought 13,530 shares of the company's stock at an average price of 11.28 for a total transaction amount of $152,618.40 SEC Form.Insider Buying: Nicholas Financial, Inc.  Major Shareholder Buys $19092 ... - The Cerbat GemNicholas Financial, Inc.  Major Shareholder Magnolia Capital Fund, Lp ... - Sports Perspectives"
p5
aS"The Nicholas Financial, Inc.  Major Shareholder Magnolia Capital Fund ... Petro Global News 24 - Mar 18, 2017 Nicholas Financial, Inc.  major shareholder Magnolia Capital Fund, Lp purchased 7,420 shares of the company's stock in a transaction that occurred on Wednesday, March 15th."
p6
aS'Stock Returns: Consumer Portfolio Services Inc  versus Nicholas ... CML News - Feb 9, 2017 This is a snapshot to compare the stock returns for Consumer Portfolio Services Inc  versus Nicholas Financial Inc  . The stock return points we compare look at the last three-months, six-months and twelve-months. At the end&nbsp;...'
p7
aS'The Nicholas Financial, Inc.  Major Shareholder Magnolia Capital Fund ... Petro Global News 24 - Mar 15, 2017 Nicholas Financial, Inc.  major shareholder Magnolia Capital Fund, Lp purchased 41,475 shares of Nicholas Financial stock in a transaction that occurred on Tuesday, March 14th.'
p8
aS'Nicholas Financial Inc  Stock Technicals at Critical Inflection Point CML News - Feb 24, 2017 This is a technical analysis stock rating for Nicholas Financial Inc  . The company has a three bull technical rating which indicates an inflection point.'
p9
aS'Nicholas Financial, Inc.  Major Shareholder Magnolia Capital Fund, Lp ... The Cerbat Gem - Mar 15, 2017 Nicholas Financial logo Nicholas Financial, Inc.  major shareholder Magnolia Capital Fund, Lp acquired 41,475 shares of the stock in a transaction dated Tuesday, March 14th.'
p10
a.