(lp0
S'BRIEF-Numerex Corp files for non-timely 10-K Reuters - Mar 16, 2017  * Canadian dollar ends at C$1.3347, or 74.92 U.S. cents * Loonie touches its strongest since Feb. 28 at C$1.3277 * Bond prices fall across a steeper yield curve By Fergal Smith TORONTO, March 16 The Canadian dollar&nbsp;...'
p1
aS"Numerex Corp.  Moves Lower on Volume Spike for March 20 Equities.com - Mar 17, 2017 Numerex Corp.  traded on unusually high volume on Mar. 20, as the stock lost 1.5% to close at $4.59. On the day, Numerex Corp. saw 61,670 shares trade hands on 518 trades. Considering that the stock averages only a daily volume of 29,332 shares&nbsp;...Stock Returns: iPass Inc  is Beating Numerex Corp.  - CML NewsFirst Analysis Comments on Numerex Corp.'s FY2018 Earnings  - Chaffey Breeze"
p2
aS'Option Market Alert: Numerex Corp. Implied Price Swing Hits An Inflection Point CML News - Mar 19, 2017 No Risk Alert Here: Before we dive into any analysis we simply note that Numerex Corp.  risk is neither elevated nor depressed.'
p3
aS'There Are Better IoT Plays Than Numerex Seeking Alpha - Oct 25, 2015 We believe investors who have put faith in Numerex as a play on the Internet of Things are mistaken. There is a safer way to benefit from IoT.'
p4
aS"Numerex Corp.  Settles Into New 52-Week Low on March 16 Session Equities.com - Mar 16, 2017 Shares of Numerex Corp.  sank into a new 52-week low yesterday, and could be a company to watch at the open. The company's stock fell to as low as $4.30 yesterday after opening at $4.75."
p5
aS'Numerex Corp.  Moves Lower on Volume Spike for March 15 Equities.com - Mar 15, 2017 Numerex Corp.  traded on unusually high volume on Mar. 15, as the stock lost 1.76% to close at $5.01. On the day, Numerex Corp. saw 56,977 shares trade hands on 379 trades. Considering that the stock averages only a daily volume of 23,831&nbsp;...'
p6
aS'Numerex terminates CEO Marc Zionts Atlanta Business Chronicle - Jan 11, 2017 Numerex Corp.  fired CEO Marc Zionts saying the move was not related to any company accounting, internal controls, or financial reporting matter.'
p7
aS'Frost &amp; Sullivan Recognizes Numerex with 2016 Customer Value Leadership Award ... PR Newswire  - Mar 8, 2016 MOUNTAIN VIEW, Calif., March 8, 2016 /PRNewswire/ -- Based on its recent analysis of the connectivity and software application tools market for Industrial Internet of Things , Frost &amp; Sullivan today recognized Numerex Corp with the 2016 North&nbsp;...'
p8
aS'Numerex Partners with Sensile Technologies for iTank Solution GlobeNewswire  - Oct 5, 2016 ATLANTA, Oct. 05, 2016  -- Numerex Corp , a leading provider of enterprise solutions enabling the Internet of Things , today announced their partnership with Sensile Technologies, a leading provider of solutions&nbsp;...'
p9
aS'Numerex Corp.  Moves Lower on Volume Spike for February 24 Equities.com - Feb 24, 2017 Numerex Corp.  traded on unusually high volume on Feb. 24, as the stock lost 2.31% to close at $5.07. On the day, Numerex Corp. saw 60,600 shares trade hands on 278 trades. Considering that the stock averages only a daily volume of 30,890&nbsp;...Numerex Corp.  Valuation According To Analysts - UK Market News'
p10
a.