(lp0
S'Nucor Makes For An Excellent Infrastructure Play Seeking Alpha - Mar 10, 2017 Nucor Corporation  has a lot going for it. Should an infrastructure spending bill pass the company will undoubtedly benefit.Top Stocks of the day: Nucor Corporation  - The News JournalNucor Corporation  Impact Score At 83 - Stock Observer'
p1
aS"Checking the Overall Picture for Nucor Corporation  StockNewsJournal - 11 hours ago Nucor Corporation  is an interesting player in the Basic Materials space, with a focus on Steel &amp; Iron. The stock has been active on the tape, currently trading at $64.72, up from yesterday's close by 0.19%.Nucor Corporation: Nucor Announces Guidance For Its First Quarter Earnings - The Wall Street Transcript"
p2
aS'Stock Volatility Risk Alert: Nucor Corporation Stock Volatility Hits An ... CML News - 11 hours ago Before we cover the full analysis we make a quick alert here that Nucor Corporation  has seen its stock price whip around at an unsually high level.'
p3
aS'Nucor Announces John H. Walker to serve as Lead Director of the Nucor Board of ... PR Newswire  - Feb 21, 2017 CHARLOTTE, N.C., Feb. 21, 2017 /PRNewswire/ -- Nucor Corporation  announced today that the independent directors of its board of directors have appointed John H. Walker to serve as lead director of the board of directors effective February&nbsp;...'
p4
aS'Why Is Nucor Corp  Up 12.4% Since the Last Earnings Report? Nasdaq - Mar 3, 2017 It has been about a month since the last earnings report for Nucor Corporation NUE . Shares have added about 12.4% in that time frame, outperforming the market.'
p5
aS'Stock Perspective: Nucor Corporation  Company Earnings Watch Aiken Advocate - 5 hours ago Investors and analysts are typically super focused on company earnings numbers when they are reported. Company earnings are a good way to evaluate the company profitability.'
p6
aS'Nucor Corporation  Is Making A Strong Argument Through Its Technicals NY Stock News - 13 hours ago The technicals for Nucor Corporation  has spoken via its technical chart and the message is loud and clear. Based on that message, this is the relevant information necessary to make sense of that current setup.'
p7
aS'Nucor Corporation  Rises 4.48% for March 15 Equities.com - Mar 15, 2017 Among the biggest risers on the S&amp;P 500 on Wednesday March 15 was Nucor Corporation , popping some 4.48% to a price of $63.45 a share with some 3.78 million shares trading hands.'
p8
aS'Risk Malaise Alert in Option Market: Nucor Corporation Implied Price Swing ... CML News - Mar 17, 2017 Before we dive into any analysis we simply note that Nucor Corporation  risk is actually priced pretty low by the option market as of right now.'
p9
aS'Insider Trading Activity Nucor Corporation   Insider Sold 12400 ... Market Exclusive - Feb 23, 2017 On 10/21/2013 Robert J Stratman, EVP Sell, 15,397 $51.37 with an average share price of $790,943.89 View SEC Filing 2/4/2013 per share and the total transaction amounting to Peter C Browning.'
p10
a.