(lp0
S'New York &amp; Company Plans to Double the Eva Mendes Business PR Newswire  - Mar 16, 2017 NEW YORK, March 16, 2017 /PRNewswire/ -- New York &amp; Company, Inc. [NYSE: NWY] is continuing to build its ever-growing partnership with actress and fashion entrepreneur, Eva Mendes.Eva Mendes and New York &amp; Company expand fashion collaboration - Malay Mail Online'
p1
aS"New York &amp; Company's  CEO Greg Scott on Q4 2016 Results - Earnings Call ... Seeking Alpha - Mar 17, 2017 The growth in accessories is driven by our strong gifting strategies during our holiday season which also led to expansion in our sweater category, a very important category for New York &amp; Company during fourth quarter. In total, however, these ..."
p2
aS"New York &amp; Co: Priced To Buy Seeking Alpha - Dec 30, 2016 But in taking a look at comparable department stores including New York &amp; Company, Inc. , Express , Bebe , Tilly's  and Aeropostale ; there are wide swings in these stock prices."
p3
aS"New York &amp; Company Launches Customer-Inspired Capsule Collections Yahoo Finance - Feb 22, 2017 Specialty women's apparel chain, New York &amp; Company, Inc. [NYSE:NWY] is thrilled to announce the launch of collections inspired by customers."
p4
aS'New York &amp; Company Appoints Michelle Pearlman as EVP, eCommerce and Chief ... Business Wire  - Nov 8, 2016 NEW YORK----New York &amp; Company, Inc. , a specialty apparel chain with 483 retail stores, today announced that Michelle Pearlman has been named to the position of Executive Vice President, eCommerce and Chief&nbsp;...'
p5
aS"Disgruntled Shareholders Call Out New York &amp; Company Management Benzinga - Dec 16, 2016 Kanen Wealth Management/The Philotimo Fund delivered on Friday a letter to New York &amp; Company, Inc. 's board of directors."
p6
aS'New York &amp; Company, Inc.  Posts Quarterly Earnings Results, Misses ... Chaffey Breeze - Mar 17, 2017 New York &amp; Company logo New York &amp; Company, Inc.  issued its earnings results on Thursday. The company reported  EPS for the quarter, missing the consensus estimate of  by $0.01.What Makes New York &amp; Company Inc  A Financially Strong Company, Is It ... - Simply Wall St'
p7
aS'Price Alert: New York &amp; Company Inc  Stock Nears Resistance ... CML News - Mar 19, 2017 Price Alert: New York &amp; Company Inc  has now crossed into technical strength -- watch the technical oscillators for momentum gaps.'
p8
aS"New York &amp; Company, Inc. Announces 2016 Fourth Quarter and Fiscal Year Results Business Wire  - Mar 16, 2017 New York &amp; Company, Inc. is a specialty retailer of women's fashion apparel and accessories, and the modern wear-to-work destination for women, providing fashion that is feminine, polished, on-trend and versatile."
p9
aS'New York &amp; Company, Inc.  Expected to Post Q1 2018 Earnings of ($0.07 ... BNB Daily  - 20 hours ago New York &amp; Company logo New York &amp; Company, Inc.  - SunTrust Banks issued their Q1 2018 earnings estimates for shares of New York &amp; Company in a research report issued on Thursday.Next Weeks Broker Price Targets For New York &amp; Company, Inc.  - Fiscal Standard'
p10
a.