(lp0
S"NEW YORK COMMUNITY BANCORP, INC.  Files An 8-K Entry into a ... Market Exclusive - Mar 16, 2017 The Company's subsidiaries are New York Community Bank, a chartered savings bank with approximately 230 branches that operates through over seven local divisions, and New York Commercial Bank, a chartered commercial bank with approximately 30&nbsp;...New York Community Bancorp Inc.  Moves Higher on Volume Spike for March 17 - Equities.comAnalytical Guide for New York Community Bancorp, Inc. , Catalyst ... - The USA Commerce"
p1
aS'New York Community Bancorp, Inc. Announces Proposed Offering of Depositary ... Yahoo Finance - Mar 6, 2017 New York Community Bancorp, Inc.   today announced its intention, subject to market conditions, to offer depositary shares that will represent proportional ownership interests in shares of a new series of fixed-to-floating rate&nbsp;...Checking the Overall Picture for New York Community Bancorp, Inc.  - StockNewsJournalBuy, Sell or Hold? Analysts Approach: New York Community Bancorp, Inc. (NYCB ... - The USA Commerce'
p2
aS"Hot Stock to Watch: New York Community Bancorp Inc.  HugoPress - 17 hours ago Raymond James Downgrades New York Community Bancorp Inc. 's stock to Market Perform with no specific Price Target.The New York Community Bancorp, Inc.  Shares Sold by AQR Capital ... - Petro Global News 24Why to Keeping Eye on New York Community Bancorp, Inc. , Rice Midstream ... - StockNewsJournal"
p3
aS'New York Community Bancorp, Inc. Announces Pricing of Offering of $500 Million ... Yahoo Finance - Mar 10, 2017 New York Community Bancorp, Inc.  , the parent company for New York Community Bank and New York Commercial Bank, today announced the pricing of its underwritten public offering of 20,000,000 depositary shares, each&nbsp;...'
p4
aS'Stock Alert: New York Community Bancorp Inc Realized Volatility Hits A Rock ... CML News - Mar 19, 2017 Before we cover the full analysis we make a quick alert here that New York Community Bancorp Inc  has seen its stock price move at a plunging low level.'
p5
aS'New York Community Bancorp, Inc. Sets Date of 2017 Annual Meeting of Shareholders Business Wire  - Feb 27, 2017 WESTBURY, N.Y.----New York Community Bancorp, Inc.   today announced that Tuesday, June 6th, has been established as the date of its 2017 Annual Meeting of Shareholders.'
p6
aS"Stocks under Consideration: The Walt Disney Company , New York Community ... TRA - 15 hours ago The Walt Disney Company  ended its previous trading session at $111.76 with the Gain of 0.04%. The company's market cap is $176.9 Billion, and the average volume is $6.52 Million."
p7
aS'ABR Of New York Community Bancorp, Inc.  At 3.55 Stock Observer - 18 hours ago Zacks agreed average brokerage mark on New York Community Bancorp, Inc.  is 3.55. This rating type interprets the equity scores of brokerages active in the industry.'
p8
aS"Equity Perception: Analyst's Indicator Review for New York Community Bancorp ... The USA Commerce - Mar 13, 2017 Shares of New York Community Bancorp, Inc.  dropped -0.41% to $14.40. During the trading on 03/10/2017, Company's stock ranged from $14.35 to $14.58.Significant Brokerage Ratings of Two Stocks: New York Community Bancorp, Inc ... - The Voice RegistrarAnalyst Stock Recommendations For Spirit Realty Capital, Inc. , New York ... - TWN"
p9
aS'New York Community Bancorp, Inc.  EPS Projection At $0.2375 RealistInvestor.com - 9 hours ago New York Community Bancorp, Inc.  is likely to account earnings of $0.2375 for prior quarter, which can come on 2017-04-19.'
p10
a.