(lp0
S"Can Oracle Keep Up Its Cloud Revenue Growth In The Third Quarter? Benzinga - Mar 15, 2017 It's a generally a quiet time of the year for earnings and a lot of focus is on The Fed's March meeting, but tech heavyweight Oracle Corporation  earnings come out after market close today. Going into earnings, Oracle's stock price is up a ..."
p1
aS"Oracle: Now Is The Time To Buy Seeking Alpha - Mar 17, 2017 Oracle's total cloud business has reached the $5 billion mark; the company now sells more cloud apps than Salesforce.Sharp Pullback for Oracle Corporation  Following Fiscal 3Q Results ... - Smrt Stck NwsOracle Could Run Away with $50.8 Billion in Enterprise Spending - Market Realist"
p2
aS"Why Oracle Corporation  Could Acquire Salesforce.com, Inc  BNL Finance    - Mar 18, 2017 Oracle Corporation  is now tipping the scale with a valuation of $200 billion. Hence, there is great value in ORCL stock for M&amp;A.What are Analyst's Indicators for Oracle Corporation , Intel Corporation ... - The USA CommerceChecking the Overall Picture for Oracle Corporation  - StockNewsJournal"
p3
aS"Market Challenge: Oracle Delivers Seeking Alpha - Mar 16, 2017 Shares in Oracle  are on the rise today after the company reported decent fiscal third quarter results. The company missed on revenue estimates  but beat on EPS . What impressed some was&nbsp;...Thursday's Market Insights: GoPro Inc , Oracle Corporation  - Smarter AnalystOracle  Beats on Q3 Earnings &amp; Revenues; Stock Up - Yahoo Finance"
p4
aS'Oracle: Same Program, Same Station, Different Time Seeking Alpha - Mar 17, 2017 Oracle reported the results of its fiscal Q3 last evening. The results were a beat on earnings and a small miss on revenues.Oracle Dominates ERP Market; Netsuite, Cloud Key Catalysts - Yahoo Finance'
p5
aS'Oracle Corporation  Heffx Technical Analysis Live Trading News - Mar 17, 2017 A big black candle occurred. This is bearish, as prices closed significantly lower than they opened. If the candle appears when prices are high, it may be the first sign of a top.'
p6
aS"Oracle Makes New All-Time High Benzinga - Mar 16, 2017 Oracle Corporation  shares are trading higher by $3.68  at $46.73 in Thursday's session. The catalyst for the rally is a Q4 EPS beat along with a $400 million beat for revenues."
p7
aS'Oracle Earnings Preview: All About The Cloud Seeking Alpha - Mar 6, 2017 SaaS and PaaS gross margins expanded by a whopping 18 percentage points YOY to 61% last quarter, and helped to finally stabilize total company op margins. Profitability in cloud  seems to be heading in&nbsp;...'
p8
aS"Thursday's Vital Data: Apple Inc. , Oracle Corporation  and Tesla ... Investorplace.com - Mar 16, 2017 U.S. stock futures are in rally mode this morning, as Wall Street continues to cheer what some are calling a dovish interest rate hike from Federal Reserve."
p9
aS'Oracle Corporation announces Q3 results Pakistan Observer - Mar 17, 2017 Oracle Corporation  has announced fiscal 2017 Q3 results. Total Revenues were $9.2 billion, up 2% in US dollars and up 3% in constant currency.'
p10
a.