(lp0
S'Old Republic International Corporation  Ex-Dividend Date Scheduled for ... Nasdaq - Mar 1, 2017 Old Republic International Corporation  will begin trading ex-dividend on March 02, 2017. A cash dividend payment of $0.19 per share is scheduled to be paid on March 15, 2017.Revenue Approximations Analysis: Old Republic International Corporation (ORI ... - StockNewsJournal'
p1
aS'Old Republic International Corporation - A Money Machine Seeking Alpha - Jan 26, 2017 Old Republic International Corporation , an insurance company, has a long history of reliable, and growing, dividend payments.Old Republic International Reports Increase In Q4 Profit - Nasdaq'
p2
aS"Most Active Stock Update: Old Republic International Corporation  HugoPress - 14 hours ago Keefe Bruyette &amp; Woods Maintains Old Republic International Corporation 's stock to Market Perform with the price target of $15.Two Stocks in Concentration: Old Republic International Corporation (NYSE:ORI ... - TopChronicleStock Price Old Republic International Corporation  Compared to Index - Highland Mirror"
p3
aS'Today Analysts Focus on OGE Energy Corp. , Old Republic International ... StockNewsJournal - 14 hours ago Old Republic International Corporation , at its latest closing price of $20.17, it has a price-to-book ratio of 1.19, compared to an industry average at 1.11.'
p4
aS"Old Republic's Board Of Directors Announces The Following Actions: PR Newswire  - Feb 23, 2017 CHICAGO, Feb. 23, 2017 /PRNewswire/ -- Old Republic International Corporation  today announced the three above-noted actions taken at today's regularly scheduled meeting of the Board of Directors: A quarterly cash dividend at a new rate of&nbsp;..."
p5
aS'Ex-Dividend Reminder: TFS Financial, Old Republic International and Principal ... Nasdaq - Feb 28, 2017 Looking at the universe of stocks we cover at Dividend Channel , on 3/2/17, TFS Financial Corp , Old Republic International Corp. , and Principal Financial Group, Inc.  will all trade ex-dividend for their ...'
p6
aS'Old Republic International Corporation : Some of the key technical areas USA Commerce Daily - 15 hours ago With all other things going on, Old Republic International Corporation  has been on a run - rising 10.69 percent in just three months.'
p7
aS'Old Republic International Corporation  Moves Lower on Volume Spike for ... Equities.com - Mar 17, 2017 Old Republic International Corporation  traded on unusually high volume on Mar. 17, as the stock lost 0.69% to close at $20.17.Stock Returns: Markel Corporation  versus Old Republic International ... - CML NewsZacks Rank on Old Republic International Corporation  based on Estimated ... - Energy Index'
p8
aS"Old Republic Construction Program Group, Inc. Is Now Old Republic Contractors ... PR Newswire  - Feb 17, 2017 Chicago-based Old Republic International Corporation is one of the nation's 50 largest publicly held insurance organizations."
p9
aS'Old Republic International: A Steady Income Provider Seeking Alpha - Aug 23, 2016 Old Republic International had a very good Q2. It is, for all intents and purposes, a dividend aristocrat. While its dividend yield is lower than its five-year-average yield, the stock is a bargain.'
p10
a.