(lp0
S'Tenax Therapeutics, Inc.  Files An 8-K Notice of Delisting or ... Market Exclusive - Mar 17, 2017 On March 15, 2017, Tenax Therapeutics, Inc.  received a notification letter from the Listing Qualifications Department of The Nasdaq Stock Market LLC  indicating that, for the last 30 consecutive business days, the bid price ...The Tenax Therapeutics, Inc.  Short Interest Up 33.4% in February - ClickLancashireActive Volume Stock: Tenax Therapeutics, Inc.  - Normangee Star'
p1
aS"Examining Tenax Therapeutics, Inc. 's track record of earnings Post Analyst - 40 minutes ago Tenax Therapeutics, Inc.  is trading down on a volume of 1.92 million, or 1.22 times its standard daily volume.Past 5 Year EPS Growth Rate of Tenax Therapeutics, Inc.  is 47.5% - The Oracle ExaminerCompany Stock Price of Tenax Therapeutics, Inc.  Decreases -12.41% - Times Money"
p2
aS'Tenax Therapeutics to Discuss Year-End 2016 Financial Results and Provide ... Business Wire  - Mar 15, 2017 MORRISVILLE, N.C.----Tenax Therapeutics, Inc. , a specialty pharmaceutical company focused on identifying, developing and commercializing products for the critical care market, today announced that the Company will&nbsp;...Next Weeks Broker Price Targets For Tenax Therapeutics, Inc.  - Fiscal Standard'
p3
aS'Tenax Therapeutics Inc  Looks Oversold On Data Miss Insider Financial - Feb 1, 2017 Tenax Therapeutics Inc  is not having a good week. The company just put out data from its lead cardiovascular study, and the data failed to impress.Tenax Therapeutics  Stock: Falls Hard On Disappointing Clinical Data - CNA Finance '
p4
aS"Tenax Therapeutics Inc  Might Be A Discount Opportunity Ahead Of ... Market Exclusive - Jan 27, 2017 Tenax Therapeutics Inc  is a North Carolina-based biotechnology company focusing on the development of treatments for what is called the critical care market - a subsection of medical care for patients whose illness requires close ...Tenax Therapeutics, Inc.'s  stock price is Currently Worth at $1.81; How ... - Hot Stocks PointTenax Therapeutics, Inc.  1 Year Price Target is set at $9.25 - TopChronicle"
p5
aS"Tenax Therapeutics: Will It Or Won't It? RTT News - Jan 30, 2017 Just 2 more days until the end of this month, and if Tenax Therapeutics Inc.  is able to keep to its deadline, a major catalyst is coming its way."
p6
aS"Tenax Therapeutics Announces Third Quarter 2016 Financial Results and Provides ... Business Wire  - Nov 10, 2016 MORRISVILLE, N.C.----Tenax Therapeutics, Inc. , a specialty pharmaceutical company focused on identifying, developing and commercializing products for the critical care market, today announced financial results for the&nbsp;...Tenax Therapeutics'  CEO John Kelley on Q3 2016 Results - Earnings call ... - Seeking Alpha"
p7
aS"Tenax Therapeutics, Inc. , NII Holdings, Inc.  Stock Eyes Ahead of ... The USA Commerce - Mar 13, 2017 Shares of Tenax Therapeutics, Inc.  surged 6.64% to $0.75. During the trading on 03/10/2017, Company's stock ranged from $0.70 to $0.79."
p8
aS'Tenax Therapeutics Is Tackling Critical Care With Levosimendan Seeking Alpha - Sep 25, 2015 Based in Morrisville, NC, Tenax Therapeutics, Inc.  is a development-stage specialty pharmaceutical company focused on the identification, development, and commercialization of products for critical care patients.'
p9
aS"Tenax Therapeutics' lead product candidate flunks late-state study; shares ... Seeking Alpha - Jan 31, 2017 Nano cap Tenax Therapeutics  craters on a 22x surge in volume in response to its announcement that lead product candidate levosimendan failed to beat placebo in a Phase 3 clinical trial  assessing the use of the calcium&nbsp;..."
p10
a.