(lp0
S"PBF Energy Inc  Given Hold Rating at Royal Bank of Canada Chaffey Breeze - 8 hours ago PBF Energy logo PBF Energy Inc 's stock had its hold rating reaffirmed by research analysts at Royal Bank of Canada in a research report issued on Monday.Why Investors remained confident on HRG Group, Inc. , PBF Energy Inc. ? - StockNewsJournalNorges Bank Purchases New Position in PBF Energy Inc  - BBNS"
p1
aS"PBF Energy Will Participate in the Bank of America Merrill Lynch Refining ... PR Newswire  - Feb 22, 2017 PARSIPPANY, N.J., Feb. 22, 2017 /PRNewswire/ -- PBF Energy Inc.  announced today that the company's management will be participating in meetings with investors at the Bank of America Merrill Lynch Refining Conference on Thursday, March&nbsp;...A Look Ahead For 2 Stocks: PBF Energy Inc. , Splunk Inc.  - Post Analyst"
p2
aS"PBF Energy Inc.  Ex-Dividend Date Scheduled for February 23, 2017 Nasdaq - Feb 22, 2017 PBF Energy Inc.  will begin trading ex-dividend on February 23, 2017. A cash dividend payment of $0.3 per share is scheduled to be paid on March 13, 2017.Let's Get Complex With PBF Energy Inc.  - Post AnalystInvestor's Alert: PBF Energy Inc.  - TopChronicle"
p3
aS"Should You Be Worried About PBF Energy Inc's  Financial Health? Simply Wall St - Mar 4, 2017 A market capitalization of USD $2,531 Million puts PBF Energy Inc  in the mid-cap stocks category. Despite not being one of the most popular groups in the investment community, mid-caps have actually outperformed the small and large-cap&nbsp;...Analyst's Proposition on PBF Energy Inc. , Skechers USA, Inc.  - The USA CommerceThe Way Analysts See PBF Energy Inc.  - Post Analyst"
p4
aS'Should You Get Rid of PBF Energy  Now? March 10, 2017 Zacks.com - Mar 10, 2017 One such stock that you may want to consider dropping is PBF Energy Inc.  , which has witnessed a significant price decline in the past four weeks, and it has seen negative earnings estimate revisions for the current quarter and the ...'
p5
aS'Jpmorgan Chase &amp; Co. is Buying Pbf Energy Inc.  Shares Small Cap Exclusive  - Mar 7, 2017 In a just published Form 13, filed with the US Securities and Exchange Commission , Pbf Energy Inc.  reported that Jpmorgan Chase &amp; Co.Impact of Brokerage Rating on PBF Energy Inc.  - Money Flow Index & TrendsPBF Energy Inc.  held by 16 SEC 13F Filers - Post Analyst'
p6
aS'PBF Energy Inc. : Thoughts on the Momentum Post Analyst - Mar 17, 2017 PBF Energy Inc.  traded at an unexpectedly low level on 03/16/2017 when the stock experienced a -1.02 loss to a closing price of $22.35.Most Active Stock: PBF Energy Inc.  - HugoPressNoteworthy Mover of Last Trading Session: PBF Energy Inc.  - Is stories'
p7
aS'Market View: Checking on the Technicals for PBF Energy Inc.  Sherwood Daily - 11 hours ago Looking at shares of PBF Energy Inc. , the company has an EV  of 5087186. Enterprise Value is a measure of the total value of a specific company.'
p8
aS'Today Analysts Focus on PBF Energy Inc. , Axalta Coating Systems Ltd.  StockNewsJournal - Mar 16, 2017 PBF Energy Inc.  have shown a high EPS growth of -17.08% in the last 5 years and has earnings decline of 5.40% yoy. Analysts have a mean recommendation of 2.60 on this stock (A rating of less than 2 means buy, hold within the 3 range, sell ...'
p9
aS'Analysts Near-Term outlook: PBF Energy Inc. , Ocean Rig UDW LLC  The USA Commerce - Mar 17, 2017 Analysts might review their estimates as they will get closer to the actual results date. PBF Energy Inc.  share price decreased in the last trading session with a previous 52-week high of $33.94.'
p10
a.