(lp0
S'Why Patterson Companies, Inc. Is Plunging Today Motley Fool - Nov 22, 2016 Shares of Patterson Companies , a medical equipment wholesaler primarily focused on veterinary and dental products, dropped by more than 20% as of 11:30 a.m. EST on Tuesday after the company reported fiscal second-quarter 2017&nbsp;...Patterson Companies: Something Sizeable This Way Comes - BenzingaPatterson plunges 17% after guidance cut, no Amazon pact - Seeking Alpha'
p1
aS'Patterson Companies: Is A Takeover Inevitable? Seeking Alpha - Jan 17, 2017 Consolidation continues in the animal health/pet care industry as Mars, Inc. announced it was acquiring veterinary hospital operator VCA Inc for $7.7 billion. Archer Daniels Midland Company also announced its acquisition of Crosswind Industries, an ...'
p2
aS'Patterson Companies Inc. Reports 15% Drop In Q3 Profit Nasdaq - Feb 23, 2017  - Patterson Companies Inc.  revealed earnings for third quarter that decreased compared to the same period last year.Patterson Companies Inc : Earnings Expected To Remain Subdued - Simply Wall St'
p3
aS'Stock Alert: Patterson Companies Inc Realized Volatility Hits A Collapsing Low CML News - 11 hours ago Before we cover the full analysis we make a quick alert here that Patterson Companies Inc  has seen its stock price move at a rock bottom low level.'
p4
aS'Market View: Watching the Numbers for Patterson Companies, Inc.  Sherwood Daily - 11 hours ago Looking at shares of Patterson Companies, Inc. , the company has an EV  of 5533178. Enterprise Value is a measure of the total value of a specific company.'
p5
aS'The Patterson Companies, Inc.  Now Covered by Analysts at Deutsche Bank AG Petro Global News 24 - Mar 20, 2017 Deutsche Bank AG assumed coverage on shares of Patterson Companies, Inc.  in a research report report published on Wednesday morning.'
p6
aS"Patterson Companies Inc.  Dips 2.62% for March 06 Equities.com - Mar 6, 2017 Among the S&amp;P 500's biggest fallers on Monday March 06 was Patterson Companies Inc. . The stock experienced a 2.62% decline to $43.82 with 2.16 million shares changing hands.Evercore ISI Downgrades Patterson Companies, Inc.  to Underperform - Chaffey BreezePatterson Companies, Inc.  Downgraded by Evercore ISI - BNB Daily "
p7
aS'Commit To Buy Patterson Companies At $41, Earn 6.7% Annualized Using Options Nasdaq - Feb 24, 2017 Investors considering a purchase of Patterson Companies Inc  stock, but tentative about paying the going market price of $44.78/share, might benefit from considering selling puts among the alternative strategies at their disposal.'
p8
aS"Insider Trading Activity Patterson Companies, Inc.   Director ... Market Exclusive - Mar 2, 2017 James W Wiltz , Director of Patterson Companies, Inc.  reportedly Sold 10,000 shares of the company's stock at an average price of 45.65 for a total transaction amount of $456,500.00 SEC Form.Patterson Companies Inc Risk Points versus Health Care - CML NewsPatterson Companies, Inc.  Issues Earnings Results, Beats Expectations ... - Chaffey Breeze"
p9
aS'Patterson Companies Increases Cash Dividend by 8 Percent Business Wire  - Mar 14, 2017 ST. PAUL, Minn.----The board of directors of Patterson Companies Inc. , today declared a dividend of $0.26 per share, representing an 8 percent increase in its quarterly cash dividend from the prior quarter.Insider Trading at Patterson Companies Inc.? - Chaffey BreezeThe Analysts Set Patterson Companies, Inc.  Price Target at $43.00 - Petro Global News 24'
p10
a.