(lp0
S'PetMed Express Inc. PETS  Wall Street Journal - Feb 12, 2011 News PetMed Express Inc.PETS. Significant News Only. 01/23/17; Press Release. PetMed Express D/B/A 1-800-PetMeds Announces Its Third Quarter Financial Results and Its $0.19 Per Share Quarterly Dividend.'
p1
aS'PetMed Express: Q3 Seems To Support The Bear Case Seeking Alpha - Jan 25, 2017 PetMed Express has cut marketing spend and put the funds into discounting, which has helped both revenue and margins in the past few quarters.'
p2
aS'PetMed Express Inc.  Moves Lower on Volume Spike for March 06 Equities.com - Mar 6, 2017 PetMed Express Inc.  traded on unusually high volume on Mar. 06, as the stock lost 3.66% to close at $20.02. On the day, PetMed Express Inc. saw 564,136 shares trade hands on 4,892 trades. Considering that the stock averages only a daily volume&nbsp;...Stock Movements to Focus: PetMed Express, Inc.  - Is stories'
p3
aS'Petmed Express Inc  Lowered to Sell at Zacks Investment Research Sports Perspectives - 13 hours ago Petmed Express Inc  was downgraded by Zacks Investment Research from a hold rating to a sell rating in a report issued on Monday.Stock Move to Focus: PetMed Express, Inc.  - Is stories'
p4
aS'PetMed Express Inc. MarketWatch - Aug 22, 2009 Check out the returns on our 8 Lazy Portfolios that are made up of low-cost buy-and-hold index funds.  How to create your own Lazy Portfolio.'
p5
aS'Traders Take Note: PetMed Express Inc  Stock Drops, Weakness in ... CML News - 13 hours ago Take Note: PetMed Express Inc  has hit some technical weakness in its momentum, and while it has not broken down all the way through support -- watch the key levels that we discuss below and further, watch the stochastics and technical&nbsp;...'
p6
aS'Watch out PetSmart, Inc.: PetMed Express, Inc. Is The Best Way To Cash In On ... Motley Fool - May 13, 2014 Pet pharmacy PetMeds Express  could very well be a diamond in the rough. With a market capitalization of just $250 million, PetMeds very likely flies under your radar. However, it would be a mistake to overlook it just because of its small ...'
p7
aS'PetMed Express: Competitive Advantage And Growth Prospects Seeking Alpha - Nov 24, 2014 PetMed Express  is an online pet medicine retailer providing over-the-counter and prescription medicine to pet owners.'
p8
aS'Stock Alert: PetMed Express Inc Realized Volatility Hits A Collapsing Low CML News - Mar 17, 2017 Before we cover the full analysis we make a quick alert here that PetMed Express Inc  has seen its stock price move at a plunging low level.'
p9
aS'Value Score in View for PetMed Express, Inc.  The Standard - 14 hours ago Taking a look at shares of PetMed Express, Inc. , the stock has a Value Composite Score of 34. Based on a scale from 0 to 100, a score near zero would indicate an undervalued company and a higher score would signal an expensive or&nbsp;...'
p10
a.