(lp0
S"3 Reasons Procter &amp; Gamble Co. Stock Could Drop Motley Fool - 12 hours ago Procter &amp; Gamble  is beating the market so far in 2017, up 8% compared to the Dow Jones Industrial Average's 6% advance.Procter &amp; Gamble Company   Closes 0.24% Up on the Day for March 20 - Equities.comDrilling Down Into The Procter &amp; Gamble Company  - StockNewsJournal"
p1
aS"3 Reasons to Expect a Big Dividend Hike From Procter &amp; Gamble Co. in April Motley Fool - Mar 13, 2017 P&amp;G now sees organic sales rising by 2.5% at the midpoint of guidance, up from the 2% they initially projected and the 1% that the company achieved in 2016. In another welcome contrast with competitors, P&amp;G's growth is both accelerating and being ...Procter &amp; Gamble Company   Closes 0.04% Up on the Day for March 16 - Equities.com"
p2
aS'One Put, One Call Option To Know About for Procter &amp; Gamble Nasdaq - 14 hours ago Consistently, one of the more popular stocks people enter into their stock options watchlist at Stock Options Channel is Procter &amp; Gamble Co. . So this week we highlight one interesting put contract, and one interesting call contract, from ...'
p3
aS"5 Must-See Slides From Procter &amp; Gamble Co's Investor Presentation Motley Fool - Feb 28, 2017 Procter &amp; Gamble  executives last week presented at an analyst conference to update shareholders on their cost-cutting plans while laying out why they believe they're right on track to begin snatching back market share after two years of&nbsp;...EOD Risers: Procter &amp; Gamble Co, The Coca-Cola Co, Travelers Companies Inc ... - DirectorsTalk Interviews"
p4
aS"How Procter &amp; Gamble is using social criticism to build brands in China WCPO - Mar 6, 2017 CINCINNATI - It's a feel-good campaign about female empowerment. But Procter &amp; Gamble Co. is confronting one of China's thorniest social issues in its latest rollout of Like a Girl.Procter &amp; Gamble Vs. Unilever - Seeking Alpha"
p5
aS"EOD Risers: Nike Inc, Procter &amp; Gamble Co, The Coca-Cola Co, United ... DirectorsTalk Interviews - Mar 14, 2017 Shares of Procter &amp; Gamble Co found using EPIC:  a company focused on providing branded consumer packaged goods to the consumers across the world, gained 0.26% or 0.24 points at the end of yesterday's session."
p6
aS"EOD Risers: Procter &amp; Gamble Co, The Coca-Cola Co, Visa Inc DirectorsTalk Interviews - Mar 17, 2017 Shares of Procter &amp; Gamble Co company symbol:  a company focused on providing branded consumer packaged goods to the consumers across the world, increased 0.04% or 0.04 points at the end of yesterday's session.Procter &amp; Gamble Co's  Buy Rating Reaffirmed at Jefferies Group LLC - Chaffey BreezeEarnings Clues on The Procter &amp; Gamble Company , The Williams Companies ... - StockNewsJournal"
p7
aS'Former P&amp;G employee to plead guilty in fraud scheme Cincinnati Business Courier - Mar 13, 2017 P&amp;G began working with the appropriate authorities in this matter following the results of a routine audit, company spokesman Damon Jones told me. Susan Ruhe worked in administrative roles at P&amp;G for more than 20 years and left the company in 2013..Former P&amp;G employee to plead guilty to stealing $454000 from company - WXIX'
p8
aS"Procter &amp; Gamble: Long-Term Expectations Seeking Alpha - Feb 22, 2017 Procter &amp; Gamble's brand portfolio is second to none among consumer staples, and has a record of growth that spans back decades.Should I Buy Procter &amp; Gamble Co  Stock? 3 Pros, 3 Cons - Investorplace.com"
p9
aS'Procter &amp; Gamble Co  EPS Forecast At $0.858 Markets Daily - 17 hours ago Sell-side brokers are supposing Procter &amp; Gamble Co  to report EPS of $0.858 for the quarter ending 2017-03-31.'
p10
a.