(lp0
S"Why Photronics, Inc. Stock Plunged Today Motley Fool - Nov 12, 2016 And regarding longer-term growth, Kirlin reminded investors that construction is moving forward for Photronics' new IC photomask manufacturing facility in China.Photronics, Inc. | $PLAB Stock | Shares Crash Down Lower Than Expected Fourth ... - TickerTV News "
p1
aS"Photronics, Inc.  to Ring The Nasdaq Stock Market Opening Bell Nasdaq - Mar 6, 2017 Photronics, Inc. , a worldwide leader in supplying innovative imaging technology solutions for the global electronics industry, will visit the Nasdaq MarketSite in Times Square, in celebration of the company's 30 year listing anniversary ...In Volatile Markets Do Analysts Think You Should Buy Photronics, Inc. (NASDAQ ... - The De Soto EdgeToday Photronics, Inc.  Shares Sold by BlackRock Investment Management LLC - DailyQuint"
p2
aS'79 institutional investors are raising stakes in Photronics, Inc.  Post Analyst - 20 hours ago Photronics, Inc.  reached 35.37% versus a 1-year low price of $8.2. The stock was last seen 2.78% higher, reaching at $11.1 on Mar. 17, 2017.'
p3
aS'Photronics Inc.  Moves Higher on Volume Spike for March 17 Equities.com - Mar 17, 2017 Photronics Inc.  traded on unusually high volume on Mar. 17, as the stock gained 2.78% to close at $11.10. On the day, Photronics Inc. saw 507,500 shares trade hands on 2,036 trades. Considering that the stock averages only a daily volume of&nbsp;...Photronics, Inc.  Upgraded to Hold at Zacks Investment Research - Sports PerspectivesNext Weeks Broker Price Targets For Photronics, Inc.  - Fiscal Standard'
p4
aS'Stock Returns: Veeco Instruments Inc  is Beating Photronics Inc ... CML News - 14 hours ago This is a snapshot to compare the stock returns for Photronics Inc  versus Veeco Instruments Inc  .'
p5
aS'Photronics Inc. MarketWatch - Sep 11, 2009 Check out the returns on our 8 Lazy Portfolios that are made up of low-cost buy-and-hold index funds.  How to create your own Lazy Portfolio.'
p6
aS'Photronics, Inc.  Acquires Assets and Certain IP from Infinite Graphics StreetInsider.com - Nov 1, 2016 Photronics estimates the large area mask market segment to be approximately $40 million per year and highly fragmented. With these assets, Photronics plans to leverage its global presence and customer relationships to grow the business. The sector is&nbsp;...'
p7
aS'Price Alert: Photronics Inc  Stock Nears Resistance -- Technicals ... CML News - 13 hours ago Price Alert: Photronics Inc  has now crossed into technical strength -- watch the technical oscillators for momentum gaps.'
p8
aS"Photronics Has Opportunities - But Challenges To Match Seeking Alpha - Jan 24, 2017 But the new opportunities may be offset by shrinking legacy sales; overall market growth seems likely to be limited, with independents like Photronics continually losing share. On a normalized basis, PLAB isn't that cheap, and I don't like the business ..."
p9
aS'Photronics, Inc.  Daily Sentiment At 0.439 Markets Daily - 10 hours ago Photronics, Inc.  has been given a 0.439 daily sentiment score. This dataset comprises average sentiment and impact scores figured on all articles linked to Photronics, Inc. , published in preceding 24 hours. It is basically ...'
p10
a.