(lp0
S'Douglas Dynamics, Inc.  Ex-Dividend Date Scheduled for March 17, 2017 Nasdaq - Mar 16, 2017 Douglas Dynamics, Inc.  will begin trading ex-dividend on March 17, 2017. A cash dividend payment of $0.24 per share is scheduled to be paid on March 31, 2017.Douglas Dynamics Inc  To Go Ex-Dividend on March 17th - BNB Daily '
p1
aS"Douglas Dynamics, Inc. Announces Fourth Quarter 2016 Earnings Release and ... GlobeNewswire  - Feb 23, 2017 MILWAUKEE, Feb. 23, 2017  -- Douglas Dynamics, Inc. , North America's premier manufacturer and upfitter of work truck attachments and equipment, today announced that it will release financial results for the fourth&nbsp;..."
p2
aS'Stock Returns: Astec Industries Inc  is Beating Douglas Dynamics ... CML News - 10 hours ago This is a snapshot to compare the stock returns for Astec Industries Inc  versus Douglas Dynamics Inc  .'
p3
aS'Douglas Dynamics meets 4Q expectations despite lower snowfall Milwaukee Business Journal - Mar 7, 2017 Douglas Dynamics Inc., the maker of Western, Blizzard and Fisher snow plows and other specialized heavy-duty vehicle attachments, reported increased sales in its fourth quarter despite lower than average snowfall.Douglas Dynamics Overcomes a Weak Winter - Motley Fool'
p4
aS"News Douglas Dynamics Inc.PLOW Wall Street Journal - Feb 11, 2011 P/E Ratio : The Price to Earnings  ratio, a key valuation measure, is calculated by dividing the stock's most recent closing price by the sum of the diluted earnings per share from continuing operations for the trailing 12 month period ..."
p5
aS'Douglas Dynamics Inc.  Moves Higher on Volume Spike for March 17 Equities.com - Mar 17, 2017 Douglas Dynamics Inc.  traded on unusually high volume on Mar. 17, as the stock gained 0.14% to close at $29.40. On the day, Douglas Dynamics Inc. saw 252,305 shares trade hands on 1,497 trades. Considering that the stock averages only a daily&nbsp;...Next Weeks Broker Price Targets For Douglas Dynamics, Inc.  - Fiscal StandardBasic Consolidated EPS Of Douglas Dynamics, Inc.  At $1.7352 - Equities Focus'
p6
aS'Douglas Dynamics Is A Buy On Pullbacks Seeking Alpha - Jun 20, 2016 Douglas Dynamics  is a relatively small manufacturer of vehicle attachments and equipment. The company has a market capitalization of just half a billion but surfaced on my radar as it announced the acquisition of Dejana Truck and Utility Equipment.'
p7
aS'Is There Analysts Upside For Douglas Dynamics, Inc. ? Aiken Advocate - 9 hours ago Investors looking for a stable dividend stock with upside should take a look at Douglas Dynamics, Inc. . The stock currently provides a dividend yield of 3.27% for the Consumer Goods company.Douglas Dynamics, Inc.  Valuation According To Analysts - UK Market News'
p8
aS'Douglas Dynamics Completes Acquisition of Henderson Products, Inc. GlobeNewswire  - Dec 31, 2014 MILWAUKEE, Dec. 31, 2014  -- Douglas Dynamics, Inc.  today announced that it has completed the acquisition of Henderson Products, Inc. for approximately $95 million in cash, subject to post-closing adjustments.'
p9
aS'Douglas Dynamics Inc.  Moves Higher on Volume Spike for February 27 Equities.com - Feb 27, 2017 Douglas Dynamics Inc.  traded on unusually high volume on Feb. 27, as the stock gained 3.93% to close at $34.40. On the day, Douglas Dynamics Inc. saw 124,182 shares trade hands on 1,213 trades. Considering that the stock averages only a daily&nbsp;...Douglas Dynamics Inc  is Initiated by Sidoti to Buy - Highland MirrorThe Douglas Dynamics, Inc.  Given Average Recommendation of Hold by ... - DailyQuint'
p10
a.