(lp0
S'Worldwide Acoustic Foam Insulation Market 2017-2022 with BASF, Techlite ... GlobeNewswire  - Mar 16, 2017 Industrial applications segment is expected to maintain global dominance in application segments, whereas China and India driven Asia Pacific region is expected to increase its regional share in global acoustic foam insulation.'
p1
aS"PolyOne Announces Amendment to Revolving Credit Facility PR Newswire  - Feb 27, 2017 CLEVELAND, Feb. 27, 2017 /PRNewswire/ -- PolyOne Corporation , a leading global provider of specialized polymer materials, services and solutions, today announced that the company has finalized an amendment to its Senior Secured&nbsp;...PolyOne Corp. raises its credit line by $50 million - Crain's Cleveland Business"
p2
aS'PolyOne Corporation  Ex-Dividend Date Scheduled for March 10, 2017 Nasdaq - Mar 9, 2017 PolyOne Corporation  will begin trading ex-dividend on March 10, 2017. A cash dividend payment of $0.135 per share is scheduled to be paid on April 06, 2017.PolyOne Board Elects Kim Ann Mink as Director - WorldPressOnline '
p3
aS"What is Behind PolyOne Corporation's  Superior ROE? Simply Wall St - Mar 18, 2017 With 23.1% ROE in the last year, PolyOne Corporation  appeared more efficient when we look at the industry average of 18.45% ROE.PolyOne Corporation  Moves Higher on Volume Spike for March 17 - Equities.comIn Volatile Markets Do Analysts Think You Should Buy PolyOne Corporation (NYSE ... - The De Soto Edge"
p4
aS"A Tough Macro Environment Is Masking Some Improvement At PolyOne Seeking Alpha - Dec 6, 2016 A weaker economy has hurt PolyOne's revenue performance for more than two years, but management has at least addressed some of its own internal performance deficiencies over that time."
p5
aS'PolyOne Announces Fourth Quarter and Full Year 2016 Results PR Newswire  - Jan 27, 2017 CLEVELAND, Jan. 27, 2017 /PRNewswire/ -- PolyOne Corporation  today reported its fourth quarter and full year results for 2016.'
p6
aS"PolyOne Corp. appoints James Sloan as treasurer Crain's Cleveland Business - Aug 29, 2016 Avon Lake-based polymer producer PolyOne Corp.  said it has named James N. Sloan as vice president and treasurer."
p7
aS"Robert Patterson takes over as PolyOne Corp. chairman Crain's Cleveland Business - May 13, 2016 &quot;Steve has admirably served PolyOne and its many stakeholders over the last decade, transforming the portfolio and culture to create a specialty growth company.PolyOne records sixth straight year of earnings growth - Plastics News"
p8
aS'Market View: Looking at the Technicals for PolyOne Corporation  Sherwood Daily - 13 hours ago PolyOne Corporation  has an EV  of 4057720. Enterprise Value measures the complete value of a specific company.'
p9
aS"PolyOne Board of Directors Appoints Robert M. Patterson as Chairman of the Board PR Newswire  - Mar 15, 2016 CLEVELAND, March 15, 2016 /PRNewswire/ -- PolyOne Corporation , a leading global provider of specialized polymer materials, services and solutions, today announced that its Board of Directors has elected PolyOne's president and CEO&nbsp;..."
p10
a.