(lp0
S'Power Integrations, Inc.  Files An 8-K Departure of Directors or ... Market Exclusive - 10 hours ago On March 16, 2017, the Board of Directors  of Power Integrations, Inc.  appointed Wendy Arienzo to serve as a director beginning on April 1, 2017.'
p1
aS'Power Integrations Names Wendy Arienzo to Its Board of Directors Business Wire  - 17 hours ago Dr. Arienzo has more than three decades of technical and executive experience in technology industries, including the semiconductor and power-electronics industries. Since 2013 she has served as vice president of operations at Fujifilm Dimatix, Inc.,&nbsp;...Power Integrations Inc  Shares Showing Upward Momentum - Business ReviewPower Integrations Inc.  Moves Higher on Volume Spike for March 17 - Equities.com'
p2
aS'Ex-Dividend Reminder: Badger Meter, Power Integrations and Ebix Nasdaq - Feb 22, 2017 Looking at the universe of stocks we cover at Dividend Channel , on 2/24/17, Badger Meter Inc , Power Integrations Inc. , and Ebix Inc  will all trade ex-dividend for their respective upcoming dividends. Badger&nbsp;...'
p3
aS"Power Integrations  Q4 2016 Results - Earnings Call Transcript Seeking Alpha - Feb 2, 2017 Good afternoon. My name is Jody and I will be your conference operator today. At this time, I would like to welcome everyone to the Power Integrations' Fourth Quarter 2016 Earnings Conference Call. All lines have been placed on mute to prevent any&nbsp;..."
p4
aS'Stock Returns: MACOM Technology Solutions Holdings Inc  versus ... CML News - 9 hours ago This is a snapshot to compare the stock returns for MACOM Technology Solutions Holdings Inc  versus Power Integrations Inc  . The stock return points we compare look at the last three-months, six-months and twelve-months.'
p5
aS"Power Integrations  Q3 2016 Results - Earnings Call Transcript Seeking Alpha - Oct 28, 2016 Good afternoon. My name is Mariama, and I will be your conference operator today. At this time, I would like to welcome everyone to the Power Integrations' Third Quarter 2016 Earnings Call. Thank you. I would now like to turn the call over to Joe ..."
p6
aS'Power Integrations Denied Extra Damages In $140M IP Win Law360  - Jan 14, 2017 Law360, Los Angeles  -- Power Integrations Inc. is not entitled to enhanced damages for its $140 million jury win against rival chip maker Fairchild Semiconductor International Inc. for patent infringement, a California ...'
p7
aS'Price Alert: Power Integrations Inc  Stock Nears Resistance ... CML News - Mar 19, 2017 Price Alert: Power Integrations Inc  has now crossed into technical strength -- watch the technical oscillators for momentum gaps.'
p8
aS'Power Integrations v. Fairchild Semiconductor Patently-O - Dec 12, 2016 This appeal is the latest in a long-running patent saga between Power Integrations and Fairchild. Each asserted patents against the other; each won as to liability against the other.'
p9
aS'Power Integrations Appoints Thomas Simonis as VP of High-Power Products Business Wire  - Jul 25, 2016 For more information please visit www.power.com. Power Integrations, LYTSwitch and the Power Integrations logo are trademarks or registered trademarks of Power Integrations, Inc. All other trademarks are the property of their respective owner.'
p10
a.