(lp0
S"Pacific Premier Bancorp Seems To Be Living Up To Its Name Seeking Alpha - Feb 10, 2017 Exceptional loan growth, good expense control, and a long-term transformation in the bank's lending and deposit books have driven significant changes for the better at Pacific Premier. Although tied to the health of smaller businesses, Pacific Premier ...Stock Returns: Pacific Premier Bancorp Inc  is Beating Access ... - CML NewsKenneth A. Boudreau Sells 6436 Shares of Pacific Premier Bancorp Inc  Stock - Sports Perspectives"
p1
aS"Pacific Premier Bancorp, Inc. to Acquire Heritage Oaks Bancorp GlobeNewswire  - Dec 13, 2016 IRVINE, Calif., Dec. 13, 2016  -- Pacific Premier Bancorp, Inc.  , the holding company of Pacific Premier Bank  and Heritage Oaks Bancorp&nbsp;...Heritage Oaks Bank's Parent Company Being Acquired by Pacific Premier Bancorp - NoozhawkPacific Premier Buys in Central Coast - Orange County Business Journal"
p2
aS'56 hedge funds sold their entire positions in Pacific Premier Bancorp, Inc.  Post Analyst - 13 hours ago Pacific Premier Bancorp, Inc.  reached 99.05% versus a 1-year low price of $20.05. The stock was last seen 2.18% higher, reaching at $39.9 on Mar. 17, 2017.'
p3
aS'Pacific Premier Bancorp Announces Upcoming Investor Conferences Yahoo Finance - Mar 6, 2017 Pacific Premier Bancorp, Inc. , the holding company of Pacific Premier Bank, announced today that Steven R. Gardner, Chairman, President and Chief Executive Officer, will participate in the Raymond James 38th Annual Institutional Investors&nbsp;...'
p4
aS'Stock Returns: Pacific Premier Bancorp Inc  is Beating Park ... CML News - Mar 14, 2017 This is a snapshot to compare the stock returns for Pacific Premier Bancorp Inc  versus Park National Corporation  .The Russell Investments Group Ltd. Purchases Shares of 112765 Pacific Premier ... - Petro Global News 24PEG Ratio Of Pacific Premier Bancorp Inc  At 2.510 - Equities Focus'
p5
aS"Pacific Premier Bancorp's  CEO Steve Gardner on Q3 2016 Results ... Seeking Alpha - Oct 19, 2016 Good afternoon, and welcome to the Pacific Premier Bancorp's Q3 2016 Conference Call. All participants will be in listen-only mode today."
p6
aS'Pacific Premier Bancorp Inc  Moves Higher on Volume Spike for March 17 Equities.com - Mar 17, 2017 Pacific Premier Bancorp Inc  traded on unusually high volume on Mar. 17, as the stock gained 2.18% to close at $39.90.'
p7
aS'Pacific Premier Bancorp Inc  Daily Sentiment At 0.529 Markets Daily - 13 hours ago Pacific Premier Bancorp Inc  has been given a 0.529 daily sentiment score. This dataset comprises average sentiment and impact scores figured on all articles linked to Pacific Premier Bancorp Inc , published in preceding 24&nbsp;...'
p8
aS'Pacific Premier Bancorp, Inc. Announces Completion of Acquisition of Security ... Business Wire  - Feb 1, 2016 IRVINE, Calif.----Pacific Premier Bancorp, Inc.  , the holding company of Pacific Premier Bank , announced today that it has completed the acquisition, effective as of January 31, 2016, of Security&nbsp;...'
p9
aS'PACIFIC PREMIER BANCORP, INC.  Files An 8-K Other Events Market Exclusive - Feb 17, 2017 On February 17, 2017, Steven R. Gardner, Chairman, President and Chief Executive Officer of Pacific Premier Bancorp, Inc. , adopted a prearranged Rule 10b5-1 trading plan  with a broker to sell up to $200,000 of shares (the&nbsp;...Stock Returns: Pacific Premier Bancorp Inc  is Beating TowneBank ... - CML News'
p10
a.