(lp0
S'PRGX Global, Inc. Announces Fourth Quarter and Full Year 2016 Financial Results GlobeNewswire  - Feb 28, 2017 ATLANTA, Feb. 28, 2017  -- PRGX Global, Inc. , a global leader in Recovery Audit and Spend Analytics services, today announced its unaudited financial results for the fourth quarter and year ended December 31, 2016.PRGX Global, Inc.  Files An 8-K Results of Operations and ... - Market Exclusive'
p1
aS'PRGX Global Inc. announces 4Q, full-year financial results MDJOnline.com - Mar 3, 2017 Cumberland-based PRGX Global Inc. on Feb. 28 announced its unaudited financial results for the fourth quarter and year ending Dec. 31.PRGX Global Inc  to Post FY2016 Earnings of $0.16 Per Share, Barrington ... - The Cerbat GemPRGX Global Inc  Upgraded by Barrington Research to Outperform - BBNS'
p2
aS'PRGX Global Inc. announces appointment of new vice president MDJOnline.com - Aug 15, 2016 Cumberland-based PRGX Global Inc., a provider of recovery audit and spend analytics services, announced on Aug. 9 that Robby Gulri has been named vice president of marketing.'
p3
aS"Matthew A. Drapkin Purchases 2285 Shares of PRGX Global Inc  Stock The Cerbat Gem - 14 hours ago PRGX Global logo PRGX Global Inc  Director Matthew A. Drapkin acquired 2,285 shares of the company's stock in a transaction on Thursday, March 16th."
p4
aS'PRGX Global, Inc. Announces Appointment of New Vice President  Analytics ... GlobeNewswire  - Jun 24, 2016 ATLANTA, June 24, 2016  -- PRGX Global, Inc. , a global leader in Recovery Audit and Spend Analytics services, today announced that Justin Honoman has been named Vice President - Analytics Product Management,&nbsp;...'
p5
aS'Trading Focus: Checking ATR Levels for PRGX Global Inc  Davidson Register - 15 hours ago Traders may be narrowing in on the ATR or Average True Range indicator when reviewing technicals. At the time of writing, PRGX Global Inc  has a 14-day ATR of 0.2. The average true range indicator was created by J. Welles Wilder in order to&nbsp;...'
p6
aS'PRGX Global, Inc. Announces Appointment of New Senior Vice President  Growth ... GlobeNewswire  - May 9, 2016 ATLANTA, May 09, 2016  -- PRGX Global, Inc. , a global leader in Recovery Audit and Spend Analytics services, today announced that Salvatore DePrima has been named Senior Vice President - Growth and Market&nbsp;...'
p7
aS'PRGX Global, Inc. Announces Appointment of New Vice President  Marketing GlobeNewswire  - Aug 9, 2016 ATLANTA, Aug. 09, 2016  -- PRGX Global, Inc. , a global leader in Recovery Audit and Spend Analytics services, today announced that Robby Gulri has been named Vice President - Marketing.'
p8
aS'The PRGX Global Inc  Director Purchases $235837.50 in Stock Petro Global News 24 - Mar 19, 2017 PRGX Global Inc  Director Matthew A. Drapkin purchased 37,734 shares of PRGX Global stock in a transaction that occurred on Monday, March 13th.PRGX Global Inc  Director Matthew A. Drapkin Buys 2285 Shares of Stock - Sports PerspectivesPrgx Global, Inc.  Files Form 4 Insider Buying : Matthew A Drapkin Buys ... - Energy Index'
p9
aS"The PRGX Global Inc  Earns Buy Rating from B. Riley Petro Global News 24 - Mar 19, 2017 PRGX Global Inc 's stock had its buy rating restated by B. Riley in a research report issued on Wednesday."
p10
a.