(lp0
S'PROS Holdings Inc.  Moves Higher on Volume Spike for March 17 Equities.com - Mar 17, 2017 PROS Holdings Inc.  traded on unusually high volume on Mar. 17, as the stock gained 1.76% to close at $23.67. On the day, PROS Holdings Inc. saw 272,305 shares trade hands on 1,308 trades. Considering that the stock averages only a daily volume&nbsp;...Andres Reiner Sells 50000 Shares of PROS Holdings, Inc.  Stock - The Cerbat GemThe PROS Holdings, Inc.  CEO Sells $1120000.00 in Stock - Petro Global News 24'
p1
aS'PROS Holdings, Inc. to Present at JMP Securities 2017 Technology Conference Yahoo Finance - Feb 21, 2017 PROS Holdings, Inc.  is a revenue and profit realization company that helps B2B and B2C customers realize their potential through the blend of simplicity and data science.'
p2
aS'PROS Holdings Inc.  Moves Higher on Volume Spike for March 10 Equities.com - Mar 10, 2017 PROS Holdings Inc.  traded on unusually high volume on Mar. 10, as the stock gained 3.86% to close at $22.62. On the day, PROS Holdings Inc. saw 276,993 shares trade hands on 2,010 trades. Considering that the stock averages only a daily volume&nbsp;...'
p3
aS'PROS Holdings Inc Realized Volatility Hits An Extreme Low CML News - Mar 13, 2017 This is a proprietary realized volatility rating created by Capital Market Laboratories  based on a large number of data interactions for PROS Holdings Inc  . We examine the little used gem of daily stock volatility over a 20-day and ...'
p4
aS'PROS Holdings Inc.: PROS, Icertis to Join Forces at eXtreme 365 2017 The Wall Street Transcript - Mar 13, 2017 HOUSTON &amp; LONDON, March 13, 2017 - PROS , the revenue and profit realization company, and Icertis, the leading provider of enterprise contract management in the cloud and a PROS partner, will jointly showcase their solutions at the&nbsp;...'
p5
aS'The PROS Holdings, Inc.  Upgraded at Zacks Investment Research Petro Global News 24 - Mar 18, 2017 PROS Holdings, Inc.  was upgraded by Zacks Investment Research from a sell rating to a hold rating in a research report issued to clients and investors on Wednesday.Insider Selling: PROS Holdings, Inc.  CEO Sells $1120000.00 in Stock - Chaffey BreezePROS Holdings, Inc.  Valuation According To Analysts - UK Market News'
p6
aS'PROS Holdings Inc.  Moves Lower on Volume Spike for March 13 Equities.com - Mar 13, 2017 PROS Holdings Inc.  traded on unusually high volume on Mar. 13, as the stock lost 0.53% to close at $22.50. On the day, PROS Holdings Inc. saw 298,820 shares trade hands on 2,143 trades. Considering that the stock averages only a daily volume of&nbsp;...'
p7
aS"Latest Price movements of Stock: PROS Holdings, Inc.  Is stories - 21 hours ago PRO's stock has received different recommendations from Financial Analysts, according to data provided by FactSet. 1 Month Ago, shares have been suggested as BUY from 5 and 0 issued SELL signal for the company's stock."
p8
aS"Option Market: PROS Holdings Inc Risk Hits A Deteriorated Level CML News - Mar 15, 2017 We're going to look at a proprietary risk rating for the next 30-days built by Capital Market Laboratories  based on a large number of interactions of data points, many of which come directly from the option market for PROS Holdings Inc (NYSE ..."
p9
aS'PROS Holdings Inc.  Moves Lower on Volume Spike for March 09 Equities.com - Mar 9, 2017 PROS Holdings Inc.  traded on unusually high volume on Mar. 09, as the stock lost 1.71% to close at $21.78. On the day, PROS Holdings Inc. saw 241,594 shares trade hands on 1,708 trades. Considering that the stock averages only a daily volume of&nbsp;...'
p10
a.