(lp0
S"Prudential Financial Inc  Given Consensus Recommendation of Buy by ... BNB Daily  - 18 hours ago Prudential Financial logo Prudential Financial Inc  has earned an average recommendation of Buy from the fourteen analysts that are covering the company.Equity Perception: Analyst's Indicator Review for Synopsys, Inc. (SNPS ... - The USA Commerce"
p1
aS"Prudential Financial, Inc. to Participate in Citi's 2017 Asset Management ... Yahoo Finance - Feb 22, 2017 Prudential Financial, Inc.  will participate in Citi's 2017 Asset Management, Broker Dealer &amp; Market Structure Conference in New York on Wednesday, March 1, 2017.Insider Trading Activity Prudential Financial, Inc.   Director ... - Market ExclusiveEarnings Guidance on Prudential Financial, Inc. - Energy Index"
p2
aS'139 hedge funds buy Prudential Financial, Inc.  for the first time Post Analyst - Mar 17, 2017 Prudential Financial, Inc.  reached 71.73% versus a 1-year low price of $66.51. The stock was last seen 0.21% higher, reaching at $111.62 on Thursday, March 16, 2017.Lookout for Price Target? Invesco Ltd. , Prudential Financial, Inc.  - StockNewsJournalTraders Watch-list Stock: Prudential Financial, Inc.  - Is stories'
p3
aS"Americans Shun Life Insurance, Forcing New Tactics at Prudential Fox Business - Mar 16, 2017 The changing tactic at Prudential is a major reason the firm is on track to become the nation's biggest U.S. life insurer by assets when MetLife Inc. deliberately shrinks. The rival is set by June 30 to spin off about a fourth of its $898.76 billion in ..."
p4
aS'Stock Returns: Aflac Incorporated  versus Prudential Financial Inc ... CML News - Mar 19, 2017 This is a snapshot to compare the stock returns for Aflac Incorporated  versus Prudential Financial Inc  .'
p5
aS"Why Prudential Financial is a Top Socially Responsible Dividend Stock  Nasdaq - Mar 9, 2017 Prudential Financial, Inc.  has been named a Top Socially Responsible Dividend Stock by Dividend Channel , signifying a stock with above-average ''DividendRank'' statistics including a strong 2.7% yield, as well as being recognized by&nbsp;...Today's Brokerage Rating: ABB Ltd , Prudential Financial, Inc.  - StockNewsJournalInsider Selling: Prudential Financial Inc  Insider Sells $3808572.41 in Stock - BNB Daily "
p6
aS'Prudential Financial Inc. Strives to Help those with Disabilities BestofNJ.com  - Mar 8, 2017 The world can be a difficult place to navigate. For individuals with some form of impairment or disability, this challenge is magnified.'
p7
aS'Prudential Financial Inc.: PGIM Real Estate completes acquisition of T Tower ... The Wall Street Transcript - Feb 28, 2017 PGIM Real Estate is the real estate investment business of PGIM, the trillion-dollar global investment management business of Prudential Financial, Inc. . PGIM Real Estate acted on behalf of institutional investors in the acquisition, which ...'
p8
aS"What Analysts are Predicting For Constellation Brands, Inc. , Prudential ... The USA Commerce - Mar 14, 2017 Shares of Constellation Brands, Inc.  surged 0.53% to $158.39. During the trading on 03/13/2017, Company's stock ranged from $156.16 to $158.45.Significant Brokerage Ratings of Two Stocks: Constellation Brands, Inc. (NYSE ... - The Voice Registrar"
p9
aS"Stock's Buzzers Vista Outdoor Inc , Prudential Financial Inc  Daily News Journal - 13 hours ago On Friday, Vista Outdoor Inc  stock opened its trade at $20.69 and after floating in a range of $20.58 to $20.93, settled at $20.89."
p10
a.