(lp0
S'Zacks Investment Research Lowers HC2 Holdings Inc  to Sell Community Financial News - Nov 24, 2016 HC2 Holdings Inc logo Zacks Investment Research lowered shares of HC2 Holdings Inc  from a hold rating to a sell rating in a research note released on Monday morning.'
p1
aS'Guess Who Just Picked Up Hc2 Holdings Inc.  Shares Small Cap Exclusive  - 11 hours ago For those not familiar with the company, HC2 Holdings, Inc. is a holding company. The Company operates through seven segments: Manufacturing , Marine Services , Insurance, Telecommunications , Utilities, Life Sciences and&nbsp;...Technical Review on Shares of HC2 Holdings Inc  - Davidson RegisterGetty Realty  to pay $0.28 on Apr 6, 2017, Shorts at Hc2 Holdings ... - HuronReport'
p2
aS'BRIEF-HC2 Holdings Inc says Q4 net loss of $1.62 per share Reuters - Mar 8, 2017 LONDON, March 9 Royal Dutch Shell has agreed to sell most of its Canadian oil sands assets for $8.5 billion, the latest international oil major to withdraw from the costly projects, which are among the most carbon heavy.'
p3
aS"HC2 Holdings Inc.  Moves Lower on Volume Spike for March 17 Equities.com - Mar 17, 2017 HC2 Holdings Inc.  traded on unusually high volume on Mar. 17, as the stock lost 0.17% to close at $5.84. On the day, HC2 Holdings Inc. saw 322,821 shares trade hands on 926 trades. Considering that the stock averages only a daily volume of&nbsp;...Friday Mover Inside Investors Spotlight: HC2 Holdings, Inc.'s  stock ... - WsNews 4investors"
p4
aS"Mover inside Traders Radar: HC2 Holdings, Inc.  Is stories - 14 hours ago HC2 Holdings, Inc.'s  witnessed a loss of -0.17% in recent trading period with closing price of $ 5.84. The company's last traded volume of 0.32 million shares as compared to it's an average volume of 0.22 million shares."
p5
aS'HC2 Holdings Reports Fourth Quarter and Full Year 2016 Results Yahoo Finance - Mar 8, 2017 NEW YORK, March 08, 2017  -- HC2 Holdings, Inc.  , a diversified holding company that focuses on acquiring, operating and growing businesses that it considers to be under or fairly valued, today announced&nbsp;...'
p6
aS'HC2 Holdings Inc : How Well Does It Fare Against This Financial Health ... Simply Wall St - Mar 8, 2017 While small-cap stocks, such as HC2 Holdings Inc  with its market cap of USD $225 Million, are popular for their explosive growth, investors should also pay heed to their balance sheet to judge whether the company can survive a downturn.Telecom, Marine drive revenue gains for HC2 Holdings - Seeking AlphaHC2 Holdings, Inc.  price reactions to earnings announcements - Post Analyst'
p7
aS'Stock Returns: HC2 Holdings Inc  versus Orion Group Holdings Inc ... CML News - 12 hours ago This is a snapshot to compare the stock returns for HC2 Holdings Inc  versus Orion Group Holdings Inc  .'
p8
aS'HC2 Holdings Appoints Andrew G. Backman as Managing Director Investor ... GlobeNewswire  - Apr 6, 2016 NEW YORK, April 06, 2016  -- HC2 Holdings, Inc.  , a diversified holding company that focuses on acquiring and operating businesses that it considers to be under or fairly valued and growing its acquired&nbsp;...'
p9
aS'HC2 Submits Second Letter to The Andersons, Inc. Regarding Potential Acquisition GlobeNewswire  - Jun 2, 2016 NEW YORK, June 02, 2016  -- HC2 Holdings, Inc.  , a diversified holding company, announced today that it has sent a second letter to Michael J. Anderson, Chairman of the Board of Directors of The Andersons&nbsp;...'
p10
a.