(lp0
S'Cavium, Inc. Commences Exchange Offer to Acquire QLogic Corporation PR Newswire  - Jul 13, 2016 Upon satisfaction of the conditions to the Offer, and after the shares tendered in the Offer are accepted for payment, Cavium and QLogic intend, as promptly as practicable, to effect a merger pursuant to Section 251 of the Delaware General ...'
p1
aS"Why Shares of QLogic Corp. Surged Today Motley Fool - May 6, 2016 What: Shares of network infrastructure solutions provider QLogic Corp.  soared on Friday following the company's fiscal fourth-quarter report."
p2
aS'QLogic: Constant Comparison With Emulex Is An Opportunity Seeking Alpha - May 26, 2016 QLogic  is suffering from the constant comparison with Emulex, another Fiber Channel competitor that was acquired at a great price by Broadcom , but this constant comparison seems to be short-changing the fast improving&nbsp;...'
p3
aS'QLogic: Growing Market Share, Future Innovation Are Keys For Success Seeking Alpha  - Mar 16, 2015 My current recommendation is the company called QLogic Corporation . This company has been in the Ethernet industry for 20 years and has consistently created forward-looking innovations to meet the demands of the future.'
p4
aS'QLogic Corp  CEO Rampalli Resigns StreetInsider.com - Aug 21, 2015 QLogic Corp  announced that the board has appointed Christine King as executive chairman and Jean Hu as acting CEO.QLogic Announces Leadership Change - Business Wire QLogic Makes Leadership Changes - Orange County Business Journal'
p5
aS"QLogic Corp. FlexSuite 2600 Series Fibre Channel Adapters TechTarget - Feb 13, 2013 QLogic Corp.'s FlexSuite 2600 Series Fibre Channel  adapter won the networking equipment category in Storage magazine's/SearchStorage."
p6
aS'QLogic Corporation  Being Acquired For $1.36 Billion Market Exclusive - Jun 17, 2016 QLogic Corporation  has agreed to be acquired by fellow semiconductor company Cavium Inc . The transaction has an equity value of $1.36 billion if cash on the balance sheet of QLogic is included.Cavium to Buy Networking Products Company QLogic - Wall Street Journal'
p7
aS'QLogic Said to Hire Qatalyst Group to Explore Potential Sale Bloomberg - Apr 8, 2016 QLogic Corp., the maker of adapters, switches and other technology for data centers and network infrastructure, hired Qatalyst Partners to explore strategic alternatives including a potential sale, people with knowledge of the matter said.'
p8
aS'Broadcom to sell assets to QLogic in $147 mln deal MarketWatch - Feb 18, 2014 Broadcom Corp. BRCM said Tuesday that it will sell certain assets and non-exclusive licenses to QLogic Corp. QLGC, +0.12% for $147 million in cash.QLogic grabs Broadcom Ethernet assets - Register'
p9
aS"Why QLogic Corp. Stock Fell 22% Today Motley Fool - Jul 9, 2015 What: Shares of storage networking specialist QLogic  fell as much as 22% in Thursday's morning session, following a dreadful preliminary report of first-quarter 2016 sales and earnings."
p10
a.