(lp0
S"Quality Systems Has Enormous Growth In The Cards Seeking Alpha - Mar 8, 2017 Quality Systems Inc  is well positioned to benefit from the expansion of this nation's healthcare sector. QSII's software products focus on serving administrative needs in the business."
p1
aS'Quality Systems Inc.  Moves Lower on Volume Spike for March 17 Equities.com - Mar 17, 2017 Quality Systems Inc.  traded on unusually high volume on Mar. 17, as the stock lost 0.2% to close at $15.18. On the day, Quality Systems Inc. saw 662,541 shares trade hands on 2,808 trades. Considering that the stock averages only a daily volume ...Next Weeks Broker Price Targets For Quality Systems, Inc.  - Fiscal Standard'
p2
aS"What Type of Consensus Opinions Analysts hold about Quality Systems, Inc.'s ... Hot Stocks Point - 15 hours ago Quality Systems, Inc. , a part of Technology sector and belongs to Healthcare Information Services industry; ended its day with loss -0.20% and finalized at the price of $15.18."
p3
aS'Quality Systems, Inc. to Host Fiscal 2017 Third Quarter Results Conference Call Business Wire  - Jan 18, 2017 IRVINE, Calif.----Quality Systems, Inc.  will release its fiscal 2017 third quarter operating results on Wednesday, January 25, 2017 after the market closes, with a conference call to follow at 5:00 p.m.Quality Systems, Inc.  Downgraded by Zacks Investment Research to Sell - Sports Perspectives'
p4
aS'Quality Systems Inc.  Moves Higher on Volume Spike for February 27 Equities.com - Feb 27, 2017 Quality Systems Inc.  traded on unusually high volume on Feb. 27, as the stock gained 0.2% to close at $15.28. On the day, Quality Systems Inc. saw 1.02 million shares trade hands on 6,283 trades. Considering that the stock averages only a daily&nbsp;...Quality Systems, Inc.  Position Held by the Public Employees Retirement ... - Petro Global News 24Quality Systems, Inc.  Position Cut by Systematic Financial Management LP - Sports Perspectives'
p5
aS"Analysts Taking Aim at Quality Systems, Inc. : Consensus View in ... Melville Review - 9 hours ago Quality Systems, Inc. 's stock has been of interest for both individual investors and Wall Street analysts recently."
p6
aS"Quality Systems'  CEO Rusty Frantz on Q3 2017 Results - Earnings Call ... Seeking Alpha - Jan 26, 2017 Welcome to the Quality Systems, Incorporated Fiscal 2017 Third Quarter Conference Call. Hosting the call today from Quality Systems' NextGen are Rusty Frantz, President and Chief Executive Officer; and Jamie Arnold, Chief Financial Officer. Today's ..."
p7
aS'Quality Systems Inc.  Breaks into New 52-Week High on February 13 Session Equities.com - Feb 13, 2017 Shares of Quality Systems Inc.  broke into a new 52-week high yesterday, hitting a peak of $15.72. Shares closed at $15.60 after opening at $15.69 for a move of -0.26%.'
p8
aS'Q4 2017 EPS Estimates for Quality Systems, Inc.  Cut by Analyst BNB Daily  - Mar 7, 2017 Quality Systems logo Quality Systems, Inc.  - Equities research analysts at KeyCorp cut their Q4 2017 EPS estimates for shares of Quality Systems in a research report issued to clients and investors on Sunday.Quality Systems, Inc.  Lowered to Sell at Zacks Investment Research - Petro Global News 24'
p9
aS'PEG Ratio Of Quality Systems, Inc.  At 2.34 Equities Focus - Mar 19, 2017 Market professionals have $13.33 fixed mean price target on Quality Systems, Inc.  stock. This is the spot attained in First Call survey.'
p10
a.