(lp0
S'Research Frontiers net loss narrows Newsday - Mar 17, 2017 Research Frontiers Inc., a Woodbury maker of smart glass used in high-end automobiles and business jets, reported lower fourth quarter fee income, but a smaller net loss due in part to $483,000 of stock and option compensation charges in the year ...'
p1
aS'Research Frontiers Reports Full Year 2016 Financial Results Yahoo Finance - Mar 13, 2017 WOODBURY, NY-- - Research Frontiers Inc.  announced its financial results for its full year ended December 31, 2016.Research Frontiers Incorporated  Expected To Report Earnings On ... - UK Market News'
p2
aS'Research Frontiers Inc. MarketWatch - Dec 22, 2009 Research Frontiers Inc. NASDAQ: REFR. GO. Set Alerts &middot; Find a Broker &middot; Join TD Ameritrade &middot; Market Index &middot; Overview Profile News Charts Financials Historical Quotes Analyst Estimates Options SEC Filings Insiders.'
p3
aS'WestPark Capital Remains Bullish on Research Frontiers, Inc.  After ... StreetInsider.com - Dec 14, 2016 WestPark Capital reiterated an Outperform rating and $6.00 price target on Research Frontiers, Inc.  after meeting with company management.'
p4
aS'Research Frontiers to Host Fourth Quarter 2016 Conference Call Yahoo Finance - Mar 9, 2017 WOODBURY, NY-- - Research Frontiers Inc.  announced today that it will release its fourth quarter 2016 financial results on Monday, March 13, 2017.'
p5
aS'Research Frontiers, Inc.  Downgraded by Zacks Investment Research to Sell Sports Perspectives - 11 hours ago Research Frontiers, Inc. logo Zacks Investment Research lowered shares of Research Frontiers, Inc.  from a hold rating to a sell rating in a report issued on Friday.'
p6
aS'Focusing on the Charts for Research Frontiers Inc  Providence Standard - 10 hours ago Taking a peek at some moving average levels on shares of Research Frontiers Inc , the 200-day is at 2.5, the 50-day is 1.77, and the 7-day is sitting at 1.49.'
p7
aS"Insider Trade: Research Frontiers, Inc. 's director Alexander Kaganowicz ... Wolcott Daily - 10 hours ago Investment totalling $4,448 U.S. Dollars was made public in a legal form submitted to the Washington-based SEC on 20/03/2017. According to which, Alexander Kaganowicz, the director of Research Frontiers Inc also an insider of the stock exchange listed&nbsp;..."
p8
aS'Research Frontiers, Inc.  PT Lowered to $4.00 at Westpark Capital Chaffey Breeze - Mar 14, 2017 Research Frontiers logo Research Frontiers, Inc.  had its target price cut by Westpark Capital to $4.00 in a research note issued on Tuesday.Research Frontiers, Inc.  Announces Earnings Results - Sports PerspectivesResearch Frontiers, Inc.  Reaches New 52-Week Low on Disappointing Earnings - The Cerbat Gem'
p9
aS'The Future Of Research Frontiers: Interview With CEO Joseph Harary Seeking Alpha - Sep 24, 2013 Back in June, I covered Research Frontiers  in an article titled Research Frontiers: SmartGlass Technology Has Major Potential.'
p10
a.