(lp0
S'Just the Facts on Regions Financial Corporation  StockNewsJournal - 10 hours ago Regions Financial Corporation  is an interesting player in the Financial space, with a focus on Regional - Southeast Banks.What Analysts are Predicting For Regions Financial Corporation , Snap Inc ... - The USA Commerce'
p1
aS'Regions Financial Corporation  Ex-Dividend Date Scheduled for March 08, 2017 Nasdaq - Mar 7, 2017 Regions Financial Corporation  will begin trading ex-dividend on March 08, 2017. A cash dividend payment of $0.065 per share is scheduled to be paid on March 31, 2017.'
p2
aS'Regions Financial  Up 10% Since Earnings Report: Can It Continue? Nasdaq - Feb 20, 2017 It has been about a month since the last earnings report for Regions Financial Corporation RF . Shares have added about 10% in that time frame, , outperforming the market.'
p3
aS'Regions Financial Corp  Receives Consensus Rating of Hold from Brokerages BNB Daily  - Mar 18, 2017 Regions Financial Corp logo Regions Financial Corp  has earned an average recommendation of Hold from the twenty-seven ratings firms that are presently covering the company.Regions Financial Corp  Forecasted to Post Q2 2017 Earnings of $0.25 Per Share - Chaffey BreezeBrokerages Set Regions Financial Corp  PT at $12.25 - The Cerbat Gem'
p4
aS'Analysts mean rating score stands at 2.70 while Regions Financial Corporation ... Hot Stocks Point - 12 hours ago Regions Financial Corporation  stock price ended its day with no change 0.00% and finalized at the price of $15.05. During its last trading session, Stock traded with the total exchanged volume of 34.59 million shares.'
p5
aS'Wedbush Reiterates Outperform Rating for Regions Financial Corp  BNB Daily  - Mar 13, 2017 Regions Financial Corp logo Wedbush reissued their outperform rating on shares of Regions Financial Corp  in a research report report published on Tuesday.'
p6
aS'Regions Financial Corporation  Moves Lower on Volume Spike for March 15 Equities.com - Mar 15, 2017 Regions Financial Corporation  traded on unusually high volume on Mar. 15, as the stock lost 0.6% to close at $15.00. On the day, Regions Financial Corporation saw 26.25 million shares trade hands on 76,561 trades. Considering that the stock&nbsp;...'
p7
aS'Regions Financial Scheduled to Participate in the RBC Capital Markets ... Yahoo Finance - Feb 28, 2017 Regions Financial Corporation  is scheduled to present at the RBC Capital Markets Financial Institutions Conference on Tuesday, March 7, in New York City.'
p8
aS"Reliable stocks in today's share market: Regions Financial Corporation  The News Journal - 3 hours ago The market cap of 18139.16 for Regions Financial Corporation in today's market indicated its current strength, making the company's shares a lucrative one."
p9
aS'Regions Financial Corporation Risk Points versus Financials CML News - Mar 1, 2017 This is a scatter plot analysis of the critical risk points from the option market for Regions Financial Corporation  compared to its own past and the Financials ETF.'
p10
a.