(lp0
S'RTI SURGICAL, INC.  Files An 8-K Departure of Directors or ... Market Exclusive - 10 hours ago RTI Surgical, Inc. is engaged in producing orthopedic and other surgical implants that repair and promote the natural healing of human bone and other human tissues.RTI Surgical, Inc.  loses confidence of 11 hedge fund managers - Post AnalystThe 7.6% Stake of RTI Surgical Inc  Held by Krensavage Asset Management, LLC - Petro Global News 24'
p1
aS"Here's Who Just Picked Up Rti Surgical Inc.  Shares Small Cap Exclusive  - Mar 17, 2017 For those not familiar with the company, RTI Surgical, Inc. is engaged in producing orthopedic and other surgical implants that repair and promote the natural healing of human bone and other human tissues.Stock Recent Trading Summary: RTI Surgical, Inc.  - Is storiesIn Volatile Markets Do Analysts Think You Should Buy RTI Surgical, Inc ... - The De Soto Edge"
p2
aS'RTI SURGICAL, INC.  Files An 8-K Entry into a Material Definitive ... Market Exclusive - Mar 15, 2017 RTI Surgical, Inc. is engaged in producing orthopedic and other surgical implants that repair and promote the natural healing of human bone and other human tissues.Price-to-Earnings-Growth Ratio Of RTI Surgical, Inc.  At 3.080 - Equities Focus'
p3
aS'RTI Surgical Inc: M&amp;A Target? Seeking Alpha - May 19, 2016 Krensavage Asset Management LLC, activist investor, and Water Street Healthcare Partners at the same time. This is an outstanding opportunity.'
p4
aS'RTI Surgical Inc.  Moves Higher on Volume Spike for March 17 Equities.com - Mar 17, 2017 RTI Surgical Inc.  traded on unusually high volume on Mar. 17, as the stock gained 2.67% to close at $3.85. On the day, RTI Surgical Inc. saw 352,428 shares trade hands on 1,100 trades. Considering that the stock averages only a daily volume of&nbsp;...RTI Surgical settles proxy war with Krensavage Partners - Mass DeviceNext Weeks Broker Price Targets For RTI Surgical, Inc.  - Fiscal Standard'
p5
aS'BRIEF-Michael Krensavage reports 7.2 pct stake in RTI Surgical Reuters - Feb 17, 2017 WASHINGTON, March 7 Wall Street dealmaking attorney Jay Clayton will appear before the U.S. Senate Banking Committee on March 23 for his confirmation hearing to become the next chairman of the Securities and Exchange Commission.'
p6
aS'Investor Update on Shares of RTI Surgical Inc  Davidson Register - 13 hours ago Technical traders have a large inventory of technical indicators they may use when doing technical stock analysis. After a recent look, the 14-day ATR for RTI Surgical Inc  is resting at 0.13. First developed by J. Welles Wilder, the ATR may help ...'
p7
aS'RTI Surgical Schedules 2016 Fourth Quarter, Year End Earnings and Conference ... Yahoo Finance - Feb 16, 2017 RTI Surgical Inc.  , a global surgical implant company, announced today that it plans to release financial results from the fourth quarter and year ended December 31, 2016 on Thursday, Feb. 23, 2017, prior to the market open.'
p8
aS'RTI Surgical Names Camille Farhat Chief Executive Officer Yahoo Finance - Jan 26, 2017 RTI Surgical Inc.  , a leading global surgical implant company, today announced that Camille Farhat has been named chief executive officer, effective March 15, 2017.'
p9
aS"Insider Trading Activity RTI Surgical, Inc.   Director Bought ... Market Exclusive - Mar 6, 2017 Jonathon M Singer , Director of RTI Surgical, Inc.  reportedly Bought 10,000 shares of the company's stock at an average price of 3.79 for a total transaction amount of $37,900.00 SEC Form.RTI Surgical Inc - Receive News &amp; Ratings Daily - BBNSThe RTI Surgical, Inc.  Posts Earnings Results, Beats Expectations By $0 ... - DailyQuint"
p10
a.