(lp0
S"Sonic Automotive Inc. Cl A  Moves Lower on Volume Spike for March 17 Equities.com - Mar 17, 2017 Sonic Automotive Inc. Cl A  traded on unusually high volume on Mar. 17, as the stock lost 0.72% to close at $20.80. On the day, Sonic Automotive Inc. Cl A saw 416,581 shares trade hands on 2,276 trades. Considering that the stock averages only a&nbsp;...Stock Returns: Group 1 Automotive Inc  is Beating Sonic Automotive ... - CML NewsLook closely Shares of Sonic Automotive, Inc.'s  stock price is now Worth ... - Hot Stocks Point"
p1
aS'Sonic Automotive  Offers Senior Notes Worth $250M Yahoo Finance - Mar 8, 2017 Sonic Automotive, Inc. SAH has announced a private offering of $250 million aggregate principal amount of Senior Subordinated Notes due 2027.'
p2
aS'Sonic Automotive, Inc. Schedules Release Of 2016 Fourth Quarter And Full Year ... PR Newswire  - Jan 20, 2017 CHARLOTTE, N.C., Jan. 20, 2017 /PRNewswire/ -- Sonic Automotive, Inc.  today announced it will release fiscal 2016 fourth quarter and full year financial results on Tuesday, February 21, 2017 at 7:30 A.M.'
p3
aS"Sonic Automotive executive collected $26.5 million last year Automotive News - Mar 10, 2016 NEW YORK  -- Car dealer Sonic Automotive Inc. has one executive it doesn't want driving off the lot. Jeff Dyke, the company's executive vice president of operations, was awarded $26.5 million in total compensation last year, bolstered by a&nbsp;..."
p4
aS'Sonic Automotive Rises Most Amid Gains for Car-Dealer Stocks Bloomberg - Sep 7, 2016 Sonic Automotive Inc. rose the most in almost two months as stocks of several U.S. auto-dealership companies climbed. Sonic gained 4 percent, its biggest increase since July 8, to $17.82.'
p5
aS"SONIC AUTOMOTIVE, INC.  Files An 8-K Entry into a Material ... Market Exclusive - Mar 14, 2017 Sonic Automotive, Inc. is an automotive retailer in the United States. The Company's operating segments include Franchised Dealerships and EchoPark."
p6
aS"Sonic Automotive: Steer Clear Seeking Alpha - Jan 26, 2017 Sonic Automotive's  latest results, released on November 1 st, were poor and confirmed that many of the auto sector headwinds from prior quarters are still at play.Zacks Investment Research Downgrades Sonic Automotive Inc.  to Sell - Sports Perspectives"
p7
aS'Sonic Automotive  Q4 Earnings, Revenues Top Estimates Nasdaq - Feb 22, 2017 Sonic Automotive expects new vehicle industry volumes in the range of 17 to 17.5 million units in 2017. The company expects earnings per share in 2017 in the band of $2.00 to $2.10.Sonic Automotive Inc. Cl A  Plunges 10.5% on February 23 - Equities.com'
p8
aS'Car Dealers Rise as Sonic Automotive Reports Record 2015 Sales Bloomberg - Feb 23, 2016 Sonic Automotive Inc. rose the most in four months after the U.S. dealership group reported record retail sales volume for 2015, capping a strong earnings season for auto retailers.'
p9
aS"Sonic Automotive  Q3 2016 Results - Earnings Call Transcript Seeking Alpha - Nov 1, 2016 Good morning and welcome to the Sonic Automotive Third Quarter 2016 Earnings Conference Call. This conference call is being recorded today, Tuesday, November 1, 2016.Sonic automotive misses earnings estimate, lowers guidance - Charlotte ObserverHouston auto sales downshift Sonic Automotive's quarterly performance - Chron.com"
p10
a.