(lp0
S'Salem Media Group, Inc.  Ex-Dividend Date Scheduled for March 16, 2017 Nasdaq - Mar 15, 2017 Salem Media Group, Inc.  will begin trading ex-dividend on March 16, 2017. A cash dividend payment of $0.065 per share is scheduled to be paid on March 31, 2017.Salem Media Group Inc  Upgraded at Zacks Investment Research - The Cerbat GemSalem Media Group, Inc.  to pay $0.07 on Mar 31, 2017, Alexander ... - Wolcott Daily'
p1
aS'Salem Media Group Is A Good Buy For 2017 Seeking Alpha - Jan 23, 2017 Salem Media Group is a California-based company specializing in radio broadcast, Internet service provision and book and magazine publishing.'
p2
aS'Salem Media Group Inc  Lifted to Buy at Zacks Investment Research Chaffey Breeze - 14 hours ago Salem Media Group Inc logo Zacks Investment Research upgraded shares of Salem Media Group Inc  from a hold rating to a buy rating in a research note published on Wednesday.Salem Communications Corporation  Broker Price Targets For The Coming Week - Fiscal Standard'
p3
aS"3 days left to Salem Media Group Inc 's ex-dividend date, should you buy? Simply Wall St - Mar 12, 2017 Dividend hunters beware, Salem Media Group  will pay its upcoming dividend of $0.07 on the Fri 31 Mar 2017 and will start trading ex-dividend on the Thu 16 Mar 2017."
p4
aS"Salem Media Group's  CEO Edward Atsinger on Q4 2016 Results - Earnings ... Seeking Alpha - Mar 10, 2017 Welcome to the Salem Media Group Fourth Quarter 2016 Earnings Release and Teleconference. [Operator Instructions]. As a reminder, this conference is being recorded.Salem Media Group, Inc. Announces Fourth Quarter 2016 Total Revenue of $70.7 ... - Business Wire "
p5
aS"Salem Media Group, Inc. Announces Third Quarter 2016 Total Revenue Of $71.3 ... PR Newswire  - Nov 7, 2016 To access the teleconference, please dial  241-1527, and then ask to be joined into the Salem Media Group call or listen via the investor relations portion of the company's website, located at investor.salemmedia.com. A replay of the ..."
p6
aS'Salem Media Group Inc Risk Points versus Consumer Discretionary CML News - Mar 13, 2017 This is a scatter plot analysis of the critical risk points from the option market for Salem Media Group Inc  compared to its own past and the Consumer Discretionary ETF.'
p7
aS'Salem Media Group Schedules Fourth Quarter 2016 Earnings Release and ... Yahoo Finance - Mar 1, 2017 Salem Media Group, Inc.  announced today that it plans to report its fourth quarter 2016 financial results after the market closes on March 9, 2017.Salem Media Group Inc.  Moves Higher on Volume Spike for March 01 - Equities.com'
p8
aS'Epperson Stuart W. is Buying Salem Media Group Inc.  Shares Small Cap Exclusive  - Feb 9, 2017 In a just published Form 13, filed with the US Securities and Exchange Commission , Salem Media Group Inc.  reported that Epperson Stuart W. has picked up 3,789,824 of common stock as of 2017-02-08.'
p9
aS'Salem Media Group Inc.  Moves Higher on Volume Spike for March 17 Equities.com - Mar 17, 2017 Salem Media Group Inc.  traded on unusually high volume on Mar. 17, as the stock gained 0.68% to close at $7.45. On the day, Salem Media Group Inc. saw 85,422 shares trade hands on 327 trades. Considering that the stock averages only a daily&nbsp;...Price Alert: Salem Media Group Inc  Stock Approaches Resistance ... - CML NewsZacks Investment Research Upgrades Salem Media Group Inc  to Buy - Sports Perspectives'
p10
a.