(lp0
S'SemGroup Corporation Announces New Board Member Yahoo Finance - 17 hours ago TULSA, Okla., March 20, 2017  -- SemGroup Corporation  announced today that W.J. Bill McAdam has been elected as the newest member of the SemGroup Board of Directors. Mr. McAdam is filling the vacancy on the Board&nbsp;...The Two Sigma Investments LP Lowers Position in SemGroup Corp  - Petro Global News 24Payout Of Semgroup Corporation  At $0.45 A Share - Equities Focus'
p1
aS'SemGroup Corp  Given Consensus Recommendation of Buy by Analysts Chaffey Breeze - 15 hours ago SemGroup Corp logo Shares of SemGroup Corp  have been assigned an average recommendation of Buy from the six analysts that are currently covering the stock.'
p2
aS'SemGroup Corp. announces proposed private offering of senior notes Tulsa World - Mar 8, 2017 SemGroup Corp. announced Wednesday morning that it intends to offer $325 million in aggregate principal amount of senior unsecured notes due 2025.SemGroup Corporation Announces Pricing of $325 Million Senior Notes - GlobeNewswire '
p3
aS"BRIEF-Semgroup Corp announces pricing of $325 mln senior notes Reuters - Mar 8, 2017 Reuters is the news and media division of Thomson Reuters. Thomson Reuters is the world's largest international multimedia news agency, providing investing news, world news, business news, technology news, headline news, small business news, news&nbsp;..."
p4
aS'SemGroup Corp. agrees to merger proposal with Rose Rock Midstream NewsOK.com - Jun 1, 2016 TULSA - SemGroup Corp. has agreed to buy back Rose Rock Midstream LP in a merger deal worth almost $390 million. Under terms of the proposed all-stock transaction, Rose Rock unit holders would receive 0.8136 shares of SemGroup stock for every&nbsp;...SemGroup Corporation Announces Agreement to Acquire Rose Rock Midstream - GlobeNewswire Robbins Arroyo LLP: Acquisition of Rose Rock Midstream LP  by SemGroup ... - Business Wire '
p5
aS'SemGroup Corporation Announces Expiration of Tender Offer for Any and All of ... GlobeNewswire  - Mar 14, 2017 TULSA, Okla., March 14, 2017  -- SemGroup Corporation   announced today that its previously announced cash tender offer to purchase any and all of its 7.50% senior notes due 2021 &nbsp;...'
p6
aS'Analyst Activity  Barclays PLC Initiates Coverage On SemGroup Corp (NASDAQ ... Market Exclusive - Feb 21, 2017 The current consensus rating on SemGroup Corp  is Hold  with a consensus target price of $38.33 per share, a potential 4.29% downside.'
p7
aS'Semgroup Corporation Class A  Moves Higher on Volume Spike for March 10 Equities.com - Mar 10, 2017 Semgroup Corporation Class A  traded on unusually high volume on Mar. 10, as the stock gained 1.19% to close at $33.90.SemGroup Corp  Upgraded at Zacks Investment Research - The Cerbat GemCarlin G. Conner Buys 7500 Shares of SemGroup Corp  Stock - Sports Perspectives'
p8
aS'SemGroup Corp  Lifted to Strong-Buy at Zacks Investment Research BNB Daily  - Mar 13, 2017 Zacks Investment Research upgraded shares of SemGroup Corp  from a hold rating to a strong-buy rating in a research note published on Tuesday.The Thrivent Financial for Lutherans Reduces Position in SemGroup Corp  - Petro Global News 24Russell Investments Group Ltd. Purchases New Position in SemGroup Corp  - The Cerbat Gem'
p9
aS'Semgroup Corporation  Ex-Dividend Date Scheduled for March 03, 2017 Nasdaq - Mar 2, 2017 Semgroup Corporation  will begin trading ex-dividend on March 03, 2017. A cash dividend payment of $0.45 per share is scheduled to be paid on March 17, 2017.SemGroup Corp  has been downgraded to Hold in a statement by ... - Breaking Finance News'
p10
a.