(lp0
S"Silicon Labs' 2016 Annual Report to Shareholders and Proxy Statement Available ... PR Newswire  - Mar 9, 2017 AUSTIN, Texas, March 9, 2017 /PRNewswire/ -- Silicon Labs , a leading provider of silicon, software and solutions for a smarter, more connected world, today posted its 2016 Annual Report to Shareholders and the Proxy Statement filed with&nbsp;..."
p1
aS'Silicon Labs Announces Proposed Private Offering of $350 Million of ... PR Newswire  - Feb 27, 2017 AUSTIN, Texas, Feb. 27, 2017 /PRNewswire/ -- Silicon Labs  today announced that it plans to offer, subject to market and other conditions, $350 million principal amount of its Convertible Senior Notes due 2022  through a ...BRIEF-Silicon Labs announces proposed private offering of $350 million of ... - Reuters'
p2
aS'Silicon Laboratories Reaches Analyst Target Price Nasdaq - Mar 13, 2017 In recent trading, shares of Silicon Laboratories Inc  have crossed above the average analyst 12-month target price of $70.75, changing hands for $70.90/share.'
p3
aS"Gecko Microcontrollers Get a Big Boost in Security, Memory and Peripherals PR Newswire  - Mar 14, 2017 Using Silicon Labs' new Jade and Pearl Gecko MCUs, developers can easily add touch-control interfaces, powerful security capabilities and multiple low-power sensors to IoT devices.Silicon Labs Beefs Up IoT SoCs - EE TimesEmbedded World 2017 - Silicon Labs enhances Gecko MCUs - New Electronics"
p4
aS'How Silicon Laboratories Gained 37% in 2016 Motley Fool - Jan 19, 2017 At this point, Silicon Labs is exploring price levels not seen in 17 years. The stock is trading at 24 times forward earnings, supported by strong bottom-line growth and the promise of plenty more IoT-driven business strength.'
p5
aS'Silicon Laboratories Delivers Another Quarterly Beat Motley Fool - Feb 1, 2017 Silicon Laboratories  released stronger-than-expected fourth-quarter 2016 results Wednesday morning, driven by sustained momentum from its Internet of Things segment.Silicon Laboratories Inc. Q4 Earnings Exceed Estimates - Nasdaq'
p6
aS'Silicon Labs to Host Analyst Day Event on March 6 PR Newswire  - Feb 17, 2017 AUSTIN, Texas, Feb. 17, 2017 /PRNewswire/ -- Silicon Labs , a leading provider of silicon, software and solutions for a smarter, more connected world, today announced that the company will host an Analyst Day event at the InterContinental&nbsp;...Silicon Laboratories : Strong Industry, Solid Earnings Estimate Revisions - Nasdaq'
p7
aS"Silicon Labs Stock Seen Valued at $80 Barron's - Feb 2, 2017 Silicon Labs  posted a strong quarter with record revenue of $182.6 million , above the high-end of the company's previous guidance and driven by a business mix shift to the faster-growing Infrastructure and ..."
p8
aS'Silicon Labs Announces Pricing of Private Offering of $350 Million of 1.375 ... PR Newswire  - Mar 1, 2017 28, 2017 /PRNewswire/ -- Silicon Labs  today announced the pricing of its offering of $350 million aggregate principal amount of 1.375% Convertible Senior Notes due 2022  in a private placement to qualified institutional ...'
p9
aS'Sengled Element LED Bulbs Connect to the IoT with Silicon Labs Zigbee Technology PR Newswire  - Feb 22, 2017 AUSTIN, Texas, Feb. 22, 2017 /PRNewswire/ -- Silicon Labs  is providing best-in-class zigbee technology for the award-winning Element connected light bulb from Sengled.'
p10
a.