(lp0
S"SM Energy Announces Sale Of Non-Operated Eagle Ford Assets For $800 Million PR Newswire  - Jan 3, 2017 DENVER, Jan. 3, 2017 /PRNewswire/ -- SM Energy Company  today announced that it has entered into a definitive agreement with a subsidiary of Venado Oil and Gas, LLC, an affiliate of KKR, for the sale of the Company's third party operated&nbsp;...SM Energy switches focus from the Eagle Ford to the Permian Basin - San Antonio Express-News SM Energy To Sell Some Eagle Ford Assets For $800M - Rigzone"
p1
aS'SM Energy Announces Plans To Further Core-Up Portfolio With The Sale Of Divide ... PR Newswire  - Jan 10, 2017 DENVER, Jan. 10, 2017 /PRNewswire/ -- SM Energy Company  today announced that it has engaged Tudor, Pickering, Holt &amp; Co.SM Energy Announces Plans to Divest Williston Basin Assets - Yahoo Finance'
p2
aS'SM Energy Company  Closed the Last Trading Session at $21.27 The Newburgh Press - 18 hours ago Analysts estimated $-0.41/share for the previous Quarter, where SM Energy Company  reported Actual EPS of $-0.31/share with the difference of 0.1 percent and a surprise of 24.4 percent.Stock in Focus: SM Energy Company  - TopChronicleInsider Trading at SM Energy Co? - BBNS'
p3
aS'SM Energy Completes Sale of Gassy Eagle Ford Assets Natural Gas Intelligence - Mar 14, 2017 SM Energy Co. has closed on the $800 million gross sale of its nonoperated assets in the Eagle Ford Shale, including an ownership interest in associated midstream infrastructure, to a unit of Venado Oil and Gas LLC, which is an affiliate of KKR.Stocks Trend Analysis H &amp; R Block Inc , SM Energy Co  - Daily News Journal'
p4
aS'SM Energy Company  Common Share Dividend Payout Ratio Energy Index - Mar 15, 2017 SM Energy Company published its most recent dividend on September 26, 2016 with payable dividend per common share of $0.05.'
p5
aS'SM Energy Closes Eagle Ford Sale Oil and Gas Investor  - Mar 15, 2017 SM Energy Co.  completed its divestiture of non-operated Eagle Ford shale assets, including its ownership interest in related midstream assets, to Venado EF LP, an affiliate of KKR, on March 14.'
p6
aS'SM Energy Co  &amp; UDR, Inc.  News Recap Daily News Journal - 16 hours ago On Friday, Shares of SM Energy Co  lost -1.21% to $21.27. The share price is trading in a range of $21.10 - 21.91.'
p7
aS"SM Energy 'Shrinking to Grow' This Year Natural Gas Intelligence - Feb 23, 2017 On Thursday, Jay Ottoson, CEO of Denver-based SM Energy Co., said that following a transformative 2016, the independent producer will shrink to grow this year."
p8
aS'Form 4 SM Energy Co For: Mar 08 Filed by: LEIKER LOREN M StreetInsider.com - Mar 10, 2017 Check this box if no longer subject to Section 16. Form 4 or Form 5 obligations may continue. See Instruction 1. 1. Name and Address of Reporting Person *. LEIKER LOREN M. , , . 1775 SHERMAN STREET. SUITE 1200. &nbsp;...'
p9
aS'Sm Energy Co  Files Form 4 Insider Buying : Herbert S Vogel Buys 2000 Shares Energy Index - Mar 13, 2017 Sm Energy Co : Herbert S Vogel , EVP - Operations of Sm Energy Co purchased 2,000 shares on Mar 8, 2017. The Insider buying transaction was reported by the company on Mar 10, 2017 to the Securities and Exchange Commission.SM Energy Co  Director Rose M. Robeson Purchases 1000 Shares - Chaffey BreezeThe SM Energy Co  Shares Down 9.4% After Analyst Downgrade - Petro Global News 24'
p10
a.