(lp0
S'Supermicro Shows Enterprise IT Building Blocks and Turnkey Solutions at CeBIT 2017 PR Newswire  - 22 hours ago HANNOVER, Germany, March 20, 2017 /PRNewswire/ -- Super Micro Computer, Inc. , a global leader in compute, storage and networking technologies including green computing, announces participation in the annual CeBIT exhibition&nbsp;...'
p1
aS"Top Analyst: Super Micro Computer, Inc.  Appears Back On Growth Trajectory Smarter Analyst - Jan 27, 2017 Roth Capital's top analyst Brian Alger is out this morning with a new research note on Super Micro Computer, Inc. , after the high-end server maker posted a strong December quarter with revenues above the high end of the guidance range.Super Micro Computer, Inc. | $SMCI Stock | Shares Shoot Up On Better Than ... - TickerTV News Super Micro Computer's  CEO Charles Liang on Q2 2017 Results - Earnings ... - Seeking Alpha"
p2
aS"Super Micro Computer, Inc. Tumbles After Report That Apple Inc. Severed Ties ValueWalk - Feb 24, 2017 Apple reportedly ended its relationship with Super Micro Computer, which triggered a massive drop in the latter's shares in late trading on Thursday.Super Micro plummets after report Apple cut ties on security fears - MarketWatchSuper Micro Computer Inc.  Moves Lower on Volume Spike for February 24 - Equities.com"
p3
aS'Supermicro Showcases Expanded Product Portfolio at Embedded World 2017 PR Newswire  - Mar 14, 2017 NUREMBERG, Germany, March 14, 2017 /PRNewswire/ -- Super Micro Computer, Inc. , a global leader in compute, storage, networking technologies and green computing is demonstrating a broad range of advanced Embedded/IoT Server&nbsp;...Supermicro Showcases Product Portfolio at Embedded World 2017 - HPCwire'
p4
aS'Super Micro Computer Inc.  Moves Higher on Volume Spike for March 17 Equities.com - Mar 17, 2017 Super Micro Computer Inc.  traded on unusually high volume on Mar. 17, as the stock gained 0.4% to close at $25.30. On the day, Super Micro Computer Inc. saw 484,479 shares trade hands on 2,055 trades. Considering that the stock averages only a&nbsp;...EPS Projection Of Super Micro Computer, Inc.  At $0.55 - Enterprise LeaderHighest Sales Estimate Of Super Micro Computer, Inc.  At $2901.85 - Investor Newswire'
p5
aS'Why Super Micro Computer, Inc. Stock Plummeted Today Motley Fool - Jul 19, 2016 So what: More specifically, for its fiscal fourth quarter ended June 30, 2016, Super Micro Computer anticipates quarterly net sales in the range of $520 million to $524 million, significantly below its previous guidance for $580 million to $640 million ...Super Micro Computer  Cuts Q4 EPS Guidance, Announces $100M Buyback - StreetInsider.comSuper Micro Computer shares drop after outlook slashed - MarketWatch'
p6
aS"Why Super Micro Computer, Inc. Stock Plunged Today Motley Fool - Apr 15, 2016 So what: Super Micro Computer now expects quarterly net sales in the range of $530 million to $533 million, or near the low end of previous guidance for revenue of $530 million to $580 million.Super Micro Computer Stock Dives, Breakout Fails After Profit Warning - Investor's Business Daily"
p7
aS'Super Micro Computer Inc.  Plunges 5.08% on March 03 Equities.com - Mar 3, 2017 Super Micro Computer Inc.  had a rough trading day for Friday March 03 as shares tumbled 5.08%, or a loss of $-1.35 per share, to close at $25.25.Super Micro Computer, Inc.  Files Form 4 Insider Selling : Howard ... - Energy IndexSuper Micro Computer, Inc.  VP Sells $52780.00 in Stock - Chaffey Breeze'
p8
aS'SUPER MICRO COMPUTER, INC.  Files An 8-K Submission of Matters to ... Market Exclusive - Mar 2, 2017 Super Micro Computer, Inc. is engaged in developing and providing end-to-end green computing solutions to the cloud computing, data center, enterprise information technology , big data, high performance computing  and Internet of Things&nbsp;...'
p9
aS'Super Micro Computer, Inc.  Bearish Target At $40 Stock Observer - 12 hours ago Zacks Research ABR on Super Micro Computer, Inc.  is 1.83. Average brokerage rating notes the stock ratings of research groups in the industry.'
p10
a.