(lp0
S"Standard Motor Products, Inc. Announces Increase in Quarterly Dividend PR Newswire  - Feb 1, 2017 NEW YORK, Feb. 1, 2017 /PRNewswire/ -- Standard Motor Products, Inc. , an automotive replacement parts manufacturer and distributor, announced today that its Board of Directors has approved an increase in its quarterly common stock&nbsp;...Standard Motor Products, Inc.  Downgraded by Zacks Investment Research to ... - The Cerbat GemEquities Analysts Issue Forecasts for Standard Motor Products, Inc.'s FY2016 ... - Sports Perspectives"
p1
aS'Standard Motor Products, Inc. Releases SMP Parts App 2.0 PR Newswire  - Dec 1, 2016 NEW YORK, Dec. 1, 2016 /PRNewswire/ -- Standard Motor Products, Inc.  announces the release of the SMP Parts App 2.0, available for download on the App Store and Google Play Store. Building off the success of the award-winning SMP Parts App&nbsp;...'
p2
aS'Risk Malaise Alert in Option Market: Standard Motor Products Inc Implied Price ... CML News - Mar 19, 2017 Before we dive into any analysis we simply note that Standard Motor Products Inc  risk is actually priced pretty low by the option market as of right now.'
p3
aS'Standard Motor Products, Inc. Announces Fourth Quarter and Year End 2016 ... PR Newswire  - Feb 6, 2017 NEW YORK, Feb. 15, 2017 /PRNewswire/ -- Standard Motor Products, Inc. , an automotive replacement parts manufacturer and distributor, is scheduled to report its earnings for the three months and for the year ended December 31, 2016 on&nbsp;...Standard Motor Products Inc  Stock Technicals at Critical Inflection ... - CML News'
p4
aS"Standard Motor Products, Inc. Announces Supply Agreement with PurePower ... PR Newswire  - Oct 25, 2016 NEW YORK, Oct. 25, 2016 /PRNewswire/ -- Standard Motor Products, Inc. , an automotive replacement parts manufacturer and distributor, announces a new supply agreement with PurePower Technologies. The agreement will leverage SMP's&nbsp;...Standard Motor Products  Inks New Supply Agreement with PurePower ... - StreetInsider.com"
p5
aS'Standard Motor Products, Inc. Announces &quot;Work Smarter, Not Harder&quot; Giveaway PR Newswire  - May 16, 2016 NEW YORK, May 16, 2016 /PRNewswire/ -- Standard Motor Products, Inc.  announced the start of its Standard Pro Training &quot;Work Smarter, Not Harder&quot; Giveaway.'
p6
aS'Standard Motor Products, Inc. Announces Fourth Quarter and 2016 Year End Results PR Newswire  - Feb 16, 2017 16, 2017 /PRNewswire/ -- Standard Motor Products, Inc. , an automotive replacement parts manufacturer and distributor, reported today its consolidated financial results for the three months and for the year ended December 31, 2016.Standard Motor Products Inc.  Moves Lower on Volume Spike for February 17 - Equities.comStandard Motor Products, Inc. Announces Appointment of New Director - Yahoo Finance'
p7
aS'Standard Motor Products Introduces Variable Valve Timing Line for Standard ... PR Newswire  - Nov 17, 2016 NEW YORK, Nov. 17, 2016 /PRNewswire/ -- Standard Motor Products, Inc.  introduces a line of variable valve timing  solenoids and sprockets to its Standard and Intermotor lines. The new offering features more than 200 part numbers,&nbsp;...'
p8
aS'Standard Motor Products Inc.  Moves Higher on Volume Spike for March 17 Equities.com - Mar 17, 2017 Standard Motor Products Inc.  traded on unusually high volume on Mar. 17, as the stock gained 1.83% to close at $49.06.GSA Capital Partners LLP Invests $524000 in Standard Motor Products, Inc.  - Community Financial NewsStandard Motor Products, Inc.  Stock Price Forecast At $56 - Investor Newswire'
p9
aS"Standard Motor Products, Inc. Announces Acquisition of Automotive Ignition ... PR Newswire  - May 23, 2016 NEW YORK, May 23, 2016 /PRNewswire/ -- Standard Motor Products, Inc. , an automotive replacement parts manufacturer and distributor, announced today that it has signed a definitive agreement to acquire General Cable Corporation's&nbsp;...Standard Motor Products To Acquire General Cable's Automotive Ignition Wire ... - AftermarketNews.com Cincinnati public company plans $71M sale - Cincinnati Business Courier"
p10
a.