(lp0
S'SpartanNash Co. SPTN  Wall Street Journal - Feb 11, 2011 News SpartanNash Co.SPTN. Significant News Only. 03/06/17; Press Release. SpartanNash Promotes Pat Weslow to Senior Vice President, Distribution Sales.'
p1
aS'Vident Investment Advisory LLC Has $1612000 Stake in SpartanNash Co  The Cerbat Gem - 14 hours ago SpartanNash logo Vident Investment Advisory LLC cut its position in SpartanNash Co  by 0.6% during the fourth quarter, according to its most recent 13F filing with the SEC.'
p2
aS'Spartannash Co  Files Form 4 Insider Selling : Dennis Eidson Sells 20116 ... Energy Index - Mar 14, 2017 Spartannash Co : Dennis Eidson , CEO and Chairman of Spartannash Co sold 20,116 shares on Mar 8, 2017. The Insider selling transaction was reported by the company on Mar 14, 2017 to the Securities and Exchange Commission.SpartanNash Co  Raised to Hold at Zacks Investment Research - BNB Daily SpartanNash Co  Shares Sold by Credit Agricole SA - Chaffey Breeze'
p3
aS"SpartanNash to pilot e-commerce service, unveil 'click-and-collect' at 25 ... MiBiz - Feb 27, 2017 BYRON CENTER - Grocery retailer and distributor SpartanNash Co. plans to unveil a new e-commerce service that will allow customers to order products online and pick them up at a store."
p4
aS'SpartanNash to acquire Indiana food distribution and processing firm for $217 ... MiBiz - Nov 4, 2016 BYRON CENTER - SpartanNash Co. is expanding its capacity in produce distribution and fresh-prepared foods with the acquisition of an Indianapolis firm.SpartanNash to acquire Caito Foods Service assets - HollandSentinel.comIndy-based produce distributor Caito Foods selling for $217M - Indianapolis Business Journal'
p5
aS'The ART Advisors LLC Acquires 1700 Shares of SpartanNash Co  Petro Global News 24 - Mar 17, 2017 A.R.T. Advisors LLC raised its position in shares of SpartanNash Co  by 19.3% during the fourth quarter, according to its most recent filing with the Securities and Exchange Commission.SpartanNash Co  Stake Maintained by State Board of Administration of ... - The Cerbat GemSpartanNash Co  Receives $31.50 Average Price Target from Brokerages - Sports Perspectives'
p6
aS'SpartanNash  Shares Cross Below 200 DMA Nasdaq - Mar 7, 2017 In trading on Tuesday, shares of SpartanNash Co.  crossed below their 200 day moving average of $32.96, changing hands as low as $32.92 per share.Federated Investors Inc. PA Has $2615000 Stake in SpartanNash Co  - The Cerbat GemSpartanNash Co  Stake Boosted by Comerica Bank - Sports Perspectives'
p7
aS"David M. Staples Sells 24621 Shares of SpartanNash Co  Stock Chaffey Breeze - Mar 10, 2017 SpartanNash logo SpartanNash Co  insider David M. Staples sold 24,621 shares of the company's stock in a transaction dated Tuesday, March 7th.SpartanNash Co  Given Consensus Recommendation of Hold by Brokerages - The Cerbat GemSpartannash Co  Files Form 4 Insider Selling : Kathleen M Mahoney Sells ... - Energy Index"
p8
aS'SpartanNash could begin search for additional M&amp;A opportunities by June MiBiz - Mar 16, 2015 As Byron Center-based SpartanNash Co. continues to focus on integrating the two food distribution and grocery retail operations that it merged 15 months ago, executives say they could be ready to consider additional acquisitions after another three months.'
p9
aS'SpartanNash execs say consumers split in ability to recover from the recession MiBiz - Dec 22, 2014 With its headquarters in Byron Center and with more than 90 stores spread throughout Michigan, SpartanNash Co.  has long been a major employer and a key retail anchor in communities across the state.'
p10
a.