(lp0
S'SPX Corporation  Moves Higher on Volume Spike for March 17 Equities.com - Mar 17, 2017 SPX Corporation  traded on unusually high volume on Mar. 17, as the stock gained 1.06% to close at $24.73. On the day, SPX Corporation saw 491,723 shares trade hands on 1,876 trades. Considering that the stock averages only a daily volume of&nbsp;...Average Price Target Of 16.67 Issued For SPX  - Fiscal StandardSPX  Receives An Update From Brokers - The De Soto Edge'
p1
aS'Traders Take Note: SPX Corporation  Stock Drops, Weakness in ... CML News - 15 hours ago Take Note: SPX Corporation  has hit some technical weakness in its momentum, and while it has not broken down all the way through support -- watch the key levels that we discuss below and further, watch the stochastics and technical&nbsp;...'
p2
aS"William Blair On SPX Corporation  Smrt Stck Nws - Feb 27, 2017 Key takeaways from SPX Corporation's  fourth quarter 2016 results include: Operational execution below expectations due to weaker sales partly offset by stronger margins; Stronger-than-expected EPS due to more favorable below-the-line&nbsp;...SPX Co.  Issues FY17 Earnings Guidance - Chaffey BreezeSPX Co.  Trading 10.8% Higher on Earnings Beat - Sports Perspectives"
p3
aS'SPX Corporation  Breaks into New 52-Week High on February 24 Session Equities.com - Feb 24, 2017 Shares of SPX Corporation  broke into a new 52-week high yesterday, hitting a peak of $27.14. Shares closed at $26.92 after opening at $24.30 for a move of 10.78%.'
p4
aS"More power divestitures possible at SPX Charlotte Business Journal - Dec 1, 2016 Even with last week's agreement to sell its European power businesses for nominal cash at closing, SPX Corp. may not be quite done with divestitures in its Power Generation segment."
p5
aS'SPX Corp. completes sale of dry cooling business Charlotte Observer - Mar 31, 2016 Charlotte-based SPX Corp. has completed the sale of its dry cooling business to India-based Paharpur Cooling Towers Limited for $48 million.SPX Corp. closes sale of a power-related business; more sales expected - Charlotte Business Journal '
p6
aS'SPX CORPORATION  Files An 8-K Entry into a Material Definitive ... Market Exclusive - Nov 23, 2016 SPX Corporation is a diversified, global supplier of infrastructure equipment. The Company operates through three segments: heating, ventilation and air conditioning ; Detection and Measurement, and Power.'
p7
aS'SPX Corp. looks to sell, restructure underperforming power business lines Charlotte Business Journal - Aug 5, 2016 SPX Corp. plans to sell its European power-generation operations as weak segments of its power business continue to undermine strong performance in its other business divisions.'
p8
aS"SPX Corporation's  CEO Gene Lowe on Q1 2016 Results - Earnings Call ... Seeking Alpha - May 8, 2016 Good day, ladies and gentlemen, and welcome to the SPX Corporation Q1 2016 Earnings Conference Call. At this time all participants in a listen-only mode, later we will conduct a question-and-answer session and instructions will follow at that time ..."
p9
aS'Stock Returns: SPX Corporation  is Beating Proto Labs Inc  CML News - Mar 19, 2017 This is a snapshot to compare the stock returns for Proto Labs Inc  versus SPX Corporation  . The stock return points we compare look at the last three-months, six-months and twelve-months.'
p10
a.