(lp0
S'Insider Selling: EW Scripps Co  Major Shareholder Sells $3685681.00 in Stock BNB Daily  - 21 hours ago E. W. Scripps logo E. W. Scripps Co  major shareholder William H. Scripps sold 163,300 shares of the stock in a transaction that occurred on Tuesday, March 14th.Next Weeks Broker Price Targets For EW Scripps Company   - Fiscal StandardThe EW Scripps  CEO &amp; COO adopt stock trading plans - Benchmark Monitor'
p1
aS'Scripps CEO Rich Boehne to retire in 2017 WCPO - Nov 9, 2016 The E.W. Scripps Co. announced a leadership change Wednesday. CEO Rich Boehne named Chief Digital Officer Adam Symson as his successor.'
p2
aS'EW Scripps Co.  Tops Q4 EPS by 4c StreetInsider.com - Feb 24, 2017 E.W. Scripps Co.  reported Q4 EPS of $0.46, $0.04 better than the analyst estimate of $0.42. Revenue for the quarter came in at $273 million versus the consensus estimate of $269.93 million.'
p3
aS'McCracken takes the EW Scripps Company Down New Digital Paths WOUB - Oct 26, 2016 Rob McCracken is the director of the Digital Solutions Groups for the E.W. Scripps media company. He heads a team that is cutting-edge in research and design.'
p4
aS'Insider Trading Activity EW Scripps Company    Director Sold ... Market Exclusive - Mar 2, 2017 The E. W. Scripps Company is a media enterprise with interests in television and radio broadcasting, as well as local and national digital media brands.EW Scripps Company   Moves Higher on Volume Spike for March 01 - Equities.comQ1 2017 EPS Estimates for EW Scripps Company  Reduced by Analyst  - BNB Daily '
p5
aS'Insider Trading Activity EW Scripps Co   Chairman Sold 100000 ... Market Exclusive - Mar 6, 2017 The E. W. Scripps Company is a media enterprise with interests in television and radio broadcasting, as well as local and national digital media brands.Rating Change on EW Scripps Company   - Energy IndexEW Scripps Co  SVP Sells $465800.00 in Stock - Chaffey Breeze'
p6
aS'Insider Trading Activity EW Scripps Co   Major Shareholder Sold ... Market Exclusive - Mar 6, 2017 On 8/9/2012 Mark L Koors, VP, sold 4,131 with an average share price of $9.93 per share and the total transaction amounting to $41,020.83.'
p7
aS'EW Scripps Company   Breaks into New 52-Week High on February 09 Session Equities.com - Feb 9, 2017 Shares of E.W. Scripps Company   broke into a new 52-week high yesterday, hitting a peak of $20.82. Shares closed at $20.65 after opening at $20.25 for a move of 2.89%.The EW Scripps Company  Upside Stock Technicals at Extreme Strength - CML NewsThe EW Scripps Company  added about 53.9 percent in value since last ... - The Independent Republic'
p8
aS'EW Scripps Company   Breaks into New 52-Week High on February 13 Session Equities.com - Feb 13, 2017 Shares of E.W. Scripps Company   broke into a new 52-week high yesterday, hitting a peak of $20.86. Shares closed at $20.86 after opening at $20.79 for a move of 0.82%.'
p9
aS'EW Scripps Company   Breaks into New 52-Week High on February 27 Session Equities.com - Feb 27, 2017 Shares of E.W. Scripps Company   broke into a new 52-week high yesterday, hitting a peak of $22.84. Shares closed at $22.53 after opening at $21.18 for a move of 5.68%.EW Scripps Company   Releases Earnings Results, Beats Estimates By ... - Chaffey BreezeEW Scripps Company   Trading 5.7% Higher on Earnings Beat - The Cerbat Gem'
p10
a.