(lp0
S"Sterling Bancorp Buy to Double Bank Size Barron's - Mar 9, 2017 At our new price target, Sterling's  2018 estimated price/earnings multiple would be 18.1 times, versus 18.6 times for closest peer, Texas Capital Bancshares TCBI -0.05747126436781609% Texas Capital Bancshares Inc. U.S.Sterling Bancorp's New York State of Mind - BloombergSterling Bancorp to buy NY-based Astoria Financial for $2.2bn - Financial Times"
p1
aS'Insider Trading Activity Sterling Bancorp   Director Sold 2000 ... Market Exclusive - Mar 14, 2017 On 11/1/2013 Daniel Rothstein, EVP, sold 16,667 with an average share price of $11.76 per share and the total transaction amounting to $196,003.92.Sterling Bancorp  Moves Higher on Volume Spike for March 17 - Equities.com'
p2
aS'Stock Returns: Sterling Bancorp  is Beating FNB Corporation  CML News - 10 hours ago This is a snapshot to compare the stock returns for F.N.B. Corporation  versus Sterling Bancorp  . The stock return points we compare look at the last three-months, six-months and twelve-months.The Metropolitan Life Insurance Co. NY Decreases Position in Sterling Bancorp ... - Petro Global News 24Active Volume Stock: Sterling Bancorp.  - HugoPress'
p3
aS"Technicals in Focus for Sterling Bancorp  The USA Commerce - 12 hours ago We have gathered the technical data on Sterling Bancorp , and see some interesting trends in the stock's behavior of late."
p4
aS'Sterling Bancorp  And Its Technical Chart Creates A Compelling Picture NY Stock News - 13 hours ago Sterling Bancorp  has created a compelling message for traders in the most recent trading. That message has grown stronger as the technical chart setup has developed into a more composite picture for the stock.'
p5
aS'Breaking: Sterling Bancorp  Stock Through Resistance -- Technicals ... CML News - Mar 19, 2017 Breaking: Sterling Bancorp  has hit maximum technical strength -- watch the technical oscillators for momentum gaps.'
p6
aS'Sterling Bancorp  Moves Higher on Volume Spike for March 08 Equities.com - Mar 8, 2017 Sterling Bancorp  traded on unusually high volume on Mar. 08, as the stock gained 3.56% to close at $24.70. On the day, Sterling Bancorp saw 5.65 million shares trade hands on 37,829 trades. Considering that the stock averages only a daily volume ...'
p7
aS'Sterling Bancorp  Moves Lower on Volume Spike for March 10 Equities.com - Mar 10, 2017 Sterling Bancorp  traded on unusually high volume on Mar. 10, as the stock lost 0.8% to close at $24.70. On the day, Sterling Bancorp saw 3.89 million shares trade hands on 25,520 trades. Considering that the stock averages only a daily volume of ...Sterling Bancorp  Files An 8-K Entry into a Material Definitive ... - Market ExclusiveSterling Bancorp  PT Raised to $30.00 - The Cerbat Gem'
p8
aS"Momentum Stocks: Eli Lilly and Company , Sterling Bancorp.  TRA - 13 hours ago Eli Lilly and Company  ended its previous trading session at $83.96 with the Loss of -1.21%. The company's market cap is $92.85 Billion, and the average volume is $4.14 Million."
p9
aS'Sterling Bancorp  Moves Higher on Volume Spike for February 20 Equities.com - Feb 20, 2017 Sterling Bancorp  traded on unusually high volume on Feb. 20, as the stock gained 0.2% to close at $25.10. On the day, Sterling Bancorp saw 1.4 million shares trade hands on 5,268 trades. Considering that the stock averages only a daily volume of&nbsp;...Sterling Bancorp  Director Sells $132000.00 in Stock - The Cerbat GemSterling Bancorp  Position Increased by Tudor Investment Corp Et Al - Community Financial News'
p10
a.