(lp0
S'Southwest Gas Holdings, Inc. to Present at Williams Capital Group - West Coast ... PR Newswire  - Mar 16, 2017 LAS VEGAS, March 16, 2017 /PRNewswire/ -- Southwest Gas Holdings, Inc.  management will present to energy equity analysts and investors at the Williams Capital Group - West Coast Seminar in Las Vegas, Nevada, on Wednesday, March 22,&nbsp;...Southwest Gas Corporation  Moves Higher on Volume Spike for March 15 - Equities.comCommon Share Dividend Yield of Southwest Gas Corporation  - Energy Index'
p1
aS'Southwest Gas Holdings, Inc. Announces Conference Call PR Newswire  - Feb 22, 2017 LAS VEGAS, Feb. 22, 2017 /PRNewswire/ -- Senior management of Southwest Gas Holdings, Inc.  is holding a conference call to discuss the Southwest 2016 fourth quarter and twelve-months results on Wednesday, March 1, 2017.SOUTHWEST GAS HOLDINGS, INC.  Files An 8-K Other Events - Market Exclusive'
p2
aS'Southwest Gas Corporation Announces Holding Company Structure PR Newswire  - Dec 28, 2016 LAS VEGAS, Dec. 28, 2016 /PRNewswire/ -- Southwest Gas Corporation  announced approval by its Board of Directors to implement the previously proposed holding company structure, effective January 1, 2017. The holding company will be&nbsp;...'
p3
aS'Southwest Gas Holdings, Inc. Announces 2016 Earnings PR Newswire  - Feb 27, 2017 LAS VEGAS, Feb. 27, 2017 /PRNewswire/ -- Southwest Gas Holdings, Inc. , which on January 1, 2017 became the parent company of Southwest Gas Corporation and its subsidiaries, announced record consolidated earnings of $3.20 per basic&nbsp;...SOUTHWEST GAS HOLDINGS, INC.  Files An 8-K Results of Operations and ... - Market Exclusive'
p4
aS'SOUTHWEST GAS HOLDINGS, INC.  Files An 8-K Departure of Directors or ... Market Exclusive - Mar 9, 2017  On March 8, 2017, Terrence L. Wright tendered his resignation from the Board of Directors  of Southwest Gas Holdings, Inc. , and all related Board committees, to be effective at the close of business the day prior to the&nbsp;...'
p5
aS'Southwest Gas Holdings, Inc.  Ex-Dividend Date Scheduled for February 13 ... Nasdaq - Feb 10, 2017 Southwest Gas Holdings, Inc.  will begin trading ex-dividend on February 13, 2017. A cash dividend payment of $0.45 per share is scheduled to be paid on March 01, 2017.'
p6
aS'Southwest Gas Holdings Inc  Rating Lowered to Sell at Zacks Investment ... BNB Daily  - 18 hours ago Southwest Gas Holdings Inc  was downgraded by Zacks Investment Research from a hold rating to a sell rating in a research report issued on Thursday.The Southwest Gas Holdings Inc  Shares Sold by State Board of ... - Petro Global News 24'
p7
aS'Ex-Dividend Reminder: Southwest Gas Holdings, American States Water and ... Nasdaq - Feb 9, 2017 Looking at the universe of stocks we cover at Dividend Channel , on 2/13/17, Southwest Gas Holdings Inc , American States Water Co , and Consolidated Edison Inc  will all trade ex-dividend for their respective&nbsp;...'
p8
aS"Southwest Gas Corp. board OKs holding company structure Las Vegas Review-Journal - Jan 3, 2017 In a statement, the utility, which serves more than 1.9 million customers Nevada, Arizona and California, said the holding company will be called Southwest Gas Holdings Inc. The company's ticker symbol  and exchange &nbsp;..."
p9
aS'Southwest Gas Holdings Inc  Upside Stock Technicals at Extreme Strength CML News - Jan 23, 2017 This is a technical analysis stock rating for Southwest Gas Holdings Inc  . The company has a five bull technical rating which indicates extreme strength.'
p10
a.