(lp0
S"SYKES Enterprises, Incorporated Issues Notice of Release of Fourth-Quarter and ... Nasdaq - Feb 27, 2017 TAMPA, Fla., Feb. 27, 2017  -- Sykes Enterprises, Incorporated  , a global business process outsourcing  leader in providing comprehensive inbound customer engagement services to&nbsp;...A look at Sykes Enterprises, Incorporated 's track record of earnings - Post Analyst"
p1
aS'Stock Returns: NeuStar Inc  is Beating Sykes Enterprises ... CML News - 12 hours ago This is a snapshot to compare the stock returns for NeuStar Inc  versus Sykes Enterprises, Incorporated  .Sykes Enterprises Incorporated  Moves Higher on Volume Spike for March 17 - Equities.comSykes Enterprises, Incorporated  Mean Price Target At $34.00 - Equities Focus'
p2
aS'Risk Malaise Alert in Option Market: Sykes Enterprises, Incorporated Implied ... CML News - 9 hours ago Before we dive into any analysis we simply note that Sykes Enterprises, Incorporated  risk is actually priced pretty low by the option market as of right now.'
p3
aS'Sykes Enterprises, Incorporated Completes Acquisition of Tech-Enabled Demand ... Marketwired  - Apr 1, 2016 TAMPA, FL-- - Sykes Enterprises, Incorporated  , a global business process outsourcing  leader in providing comprehensive inbound customer engagement services to Global&nbsp;...'
p4
aS"Market Focus: Checking Up on Shares of Sykes Enterprises, Incorporated (NASDAQ ... The Herald - 5 hours ago After a recent check, Sykes Enterprises, Incorporated's ROIC is 0.247369. The ROIC 5 year average is 0.222098 and the ROIC Quality ratio is at 7.391798."
p5
aS"Convergys Corporation versus Sykes Enterprises, Incorporated Head to Head Compare CML News - Sep 5, 2016 These companies have the same star rating so the head-to-head compare will rely on a deep dive into specific metric comparisons. The CML Star Rating is an objective, quantifiable measure of a company's operating and financial condition."
p6
aS"Sykes Enterprises'  CEO Chuck Sykes on Q3 2016 Results - Earnings Call ... Seeking Alpha - Nov 1, 2016 Good morning and welcome to the Sykes Enterprises' Third Quarter 2016 Earnings Conference Call. All participants will be in listen-only mode."
p7
aS"Sykes Enterprises, Incorporated  Raised to Hold at Zacks Investment ... BNB Daily  - Mar 8, 2017 According to Zacks, Sykes Enterprises, Inc. is a leader in providing vertically integrated technology-based solutions through an integrated strategy combining its information technology services with an emerging e-commerce platform.Renaissance Technologies LLC Cuts Stake in Sykes Enterprises, Incorporated  - Sports PerspectivesCraig Hallum Weighs in on Sykes Enterprises, Incorporated's Q1 2017 Earnings ... - The Cerbat Gem"
p8
aS"Sykes Enterprises'  CEO Chuck Sykes on Q2 2016 Results - Earnings Call ... Seeking Alpha - Aug 2, 2016 Good morning and welcome to the Sykes Enterprises, Incorporated Second Quarter 2016 Earnings Conference Call and Webcast."
p9
aS'Comerica Bank Has $2492000 Position in Sykes Enterprises, Incorporated  The Cerbat Gem - Mar 11, 2017 Sykes Enterprises, logo Comerica Bank boosted its position in shares of Sykes Enterprises, Incorporated  by 61.3% during the fourth quarter, according to its most recent 13F filing with the SEC.The Sykes Enterprises, Incorporated  Stock Rating Lowered by Zacks ... - DailyQuint'
p10
a.