(lp0
S"Thor Industries Inc. Stock Dives After Failing to Meet High Expectations Motley Fool - Mar 12, 2017 In this segment from Market Foolery, Chris Hill and Bill Barker discuss the latest quarterly results from RV industry leader, Thor Industries . The company's shares have gained over 60% in the past year, benefiting from broad strength in the ...About: Thor Industries,  - Seeking Alpha"
p1
aS'Why Is Thor Industries Imploding? Seeking Alpha - Mar 7, 2017 Thor Industries Inc.  continues to be a rather thinly covered name here at Seeking Alpha, with just a few articles on the name, several of them are my own.Thor Industries Inc.  Is Weakening Despite Q2 Results - RTT NewsThor Industries  Earnings Miss, Revenues Beat in Q2 - Yahoo Finance'
p2
aS'Why Thor Industries, Inc. Stock Popped Today Motley Fool - Nov 29, 2016 Shares of Thor Industries Inc.  were up 13.3% as of 2:50 p.m. EST Tuesday after the recreational vehicle manufacturer announced stronger-than-expected fiscal first-quarter 2017 results.Thor Earnings: The Economy Is No Friend - Seeking AlphaThor Industries results boosted by acquisition - MarketWatch'
p3
aS'An Interview With Bob Martin, President And CEO Of Thor Industries, Inc. Forbes - Oct 31, 2016 bobmartin-casual-axis-285 Bob Martin is the President and CEO of Thor Industries, Inc. The Elkhart, Indiana-based company builds motorized and towable recreational vehicles under 17 different brand names, including Airstream, Thor Motor Coach ...'
p4
aS'Thor Industries, Inc.  Files An 8-K Regulation FD Disclosure Market Exclusive - Mar 17, 2017 Thor Industries, Inc. manufactures a range of recreational vehicles  in the United States and sells those vehicles primarily in the United States and Canada.The Thor Industries, Inc.  Rating Lowered to Hold at Zacks Investment ... - Petro Global News 24The Top Three Holders Of Thor Industries, Inc.  - Post Analyst'
p5
aS'Why You Should Add Thor To Your Watch List Seeking Alpha - Feb 15, 2017 Thor Industries , the parent company of Airstream, has been able to fully capitalize on this trend. With 2016 sales near double of what they were in 2011, THO is at an all-time high, which has made investors of the company to quote Airstream&nbsp;...'
p6
aS'Thor Industries: A Compelling Long-Term Play Seeking Alpha - Oct 5, 2016 Thor Industries  is one of the few undervalued equities in this low-growth, low-interest rate environment. The recent acquisition of Jayco Inc. should drive revenue and market share growth in the coming years. Although it operates in an ...'
p7
aS'Thor Industries: My Top Auto Stock For 2017 Seeking Alpha - Dec 22, 2016 In this series of articles, I will be reviewing individual industry sectors and selecting my favorite stock picks for 2017.'
p8
aS'Stock Watch: Examining the Levels on Shares of Thor Industries, Inc.  Sherwood Daily - 13 hours ago Tracking shares of Thor Industries, Inc. , the company has a current EV  of 5491053. Enterprise Value measures the total value of a specific company.'
p9
aS"Option Market: Thor Industries Inc Risk Hits A Depressed Level CML News - Mar 8, 2017 We're going to look at a proprietary risk rating for the next 30-days built by Capital Market Laboratories  based on a large number of interactions of data points, many of which come directly from the option market for Thor Industries Inc (NYSE ..."
p10
a.