(lp0
S"Innoviva Issues Press Statement Business Wire  - Mar 13, 2017 BRISBANE, Calif.----Innoviva, Inc.   today issued the following statement.Sarissa Capital Responds To Innoviva's Preemptive Launch Of Proxy Contest - PR Newswire "
p1
aS'Form DFAN14A Innoviva, Inc. Filed by: Sarissa Capital Management LP StreetInsider.com - 15 hours ago ... election to the seven-member Board of Directors of Innoviva, Inc.   at the 2017 Annual Meeting of Stockholders and has filed a Preliminary Proxy Statement with the Securities and Exchange Commission in connection therewith.Stocks Alert -Amkor Technology, Inc. , Innoviva Inc  - Daily News Journal'
p2
aS'Innoviva, Inc.  held by 20 SEC 13F Filers Post Analyst - 15 hours ago Innoviva, Inc.  reached 49.37% versus a 1-year low price of $8.67. The stock was last seen 2.45% higher, reaching at $12.95 on Mar. 17, 2017.The Innoviva Inc  Given Neutral Rating at Robert W. Baird - Petro Global News 24How Technical Charts Showing Right Now for Innoviva, Inc.  - TWN'
p3
aS'Innoviva: Strong Upside As Fears Subside Seeking Alpha - Feb 11, 2017 While at first sight disappointing, the new debt repayment plan actually is pretty bullish for the stock. With generic Advair finally close to hit the market, Innoviva has probably little to be afraid of. Both Breo and Anoro are doing well and forward ...'
p4
aS"Hedge fund Sarissa seeks to replace majority of Innoviva's board Reuters - Mar 7, 2017 Innoviva Inc said activist investor Sarissa Capital Management LP had nominated four directors to replace a majority of the drug company's board."
p5
aS'Innoviva: Finally Starting To Gain Some Trust Seeking Alpha - Jul 29, 2016 After inventory fluctuations had led to a disappointing Q1, GSK reported respiratory sales for the first half that matched my expectations.'
p6
aS'Innoviva Files Preliminary Proxy Materials for 2017 Annual Meeting Business Wire  - Mar 7, 2017 BRISBANE, Calif.----Innoviva, Inc.   today announced it is filing a preliminary proxy statement  with the U.S.Innoviva Inc.  Moves Higher on Volume Spike for March 07 - Equities.comINNOVIVA,INC.  Files An 8-K Other Events - Market Exclusive'
p7
aS'Stock Returns: Innoviva Inc  versus Aratana Therapeutics Inc ... CML News - Mar 13, 2017 This is a snapshot to compare the stock returns for Innoviva Inc  versus Aratana Therapeutics Inc  .'
p8
aS'Innoviva Inc.  Moves Lower on Volume Spike for March 03 Equities.com - Mar 3, 2017 Innoviva Inc.  traded on unusually high volume on Mar. 03, as the stock lost 0.52% to close at $11.55. On the day, Innoviva Inc. saw 1.36 million shares trade hands on 6,316 trades. Considering that the stock averages only a daily volume of 792 ...Innoviva Inc  Sees Significant Decline in Short Interest - Chaffey Breeze'
p9
aS'Innoviva Inc.  Moves Higher on Volume Spike for March 13 Equities.com - Mar 13, 2017 Innoviva Inc.  traded on unusually high volume on Mar. 13, as the stock gained 0.95% to close at $12.79. On the day, Innoviva Inc. saw 2.5 million shares trade hands on 14,319 trades. Considering that the stock averages only a daily volume of 1 ...'
p10
a.