(lp0
S'Why TeamHealth Holdings Inc. Is Soaring Today Motley Fool - Feb 25, 2016 What: Shares of TeamHealth Holdings , a company that provides staffing and administrative services to hospitals and other healthcare providers, jumped more than 17% as of 3:45 p.m.TeamHealth Issues Statement - PR Newswire Jana Takes 8% Stake in Team Health, Moves to Add Three Directors - Wall Street Journal'
p1
aS'Team Health Holdings, Inc. Announces $1015 Million Senior Notes Offering by ... PR Newswire  - Jan 9, 2017 KNOXVILLE, Tenn., Jan. 9, 2017 /PRNewswire/ -- Team Health Holdings, Inc.   today announced that Tennessee Merger Sub, Inc. , an affiliate of The Blackstone Group L.P.'
p2
aS"Why TeamHealth Holdings Inc's Shares Popped 16% Today Motley Fool - Oct 31, 2016 Shares of healthcare staffing company TeamHealth Holdings Inc.  jumped as much as 16.4% on Monday after the company received a buyout offer from funds affiliated with Blackstone .TeamHealth to be Acquired by Blackstone - PR Newswire Blackstone to Acquire Team Health for About $3.2 Billion - Wall Street Journal"
p3
aS'Team Health Exploring a Possible Sale Wall Street Journal - Oct 4, 2016 Team Health Holdings Inc. is exploring a sale to a private-equity firm, according to people familiar with the matter, a year after the healthcare-services firm rejected a takeover offer from a rival.Team Health spikes 16% after report of possible sale - CNBCSerial Acquirer TeamHealth Holdings Inc  May Sell Itself - Scibility Media'
p4
aS'Team Health Holdings, Inc. Completes Repricing of Term Loan B PR Newswire  - Jun 2, 2016 KNOXVILLE, Tenn., June 2, 2016 /PRNewswire/ -- Team Health Holdings, Inc.  , a leading physician services organization, today announced that its wholly owned subsidiary, Team Health, Inc., completed a&nbsp;...'
p5
aS'Team Health Holdings, Inc. Announces Private Offer of $545 Million of Senior ... PR Newswire  - Nov 9, 2015 KNOXVILLE, Tenn., Nov. 9, 2015 /PRNewswire/ -- Team Health Holdings, Inc.   today announced that its indirect wholly owned subsidiary, Team Health, Inc.  intends to offer $545 million aggregate principal amount ...'
p6
aS"Why Envision Healthcare Holdings Inc, Team Health Holdings Inc, and Community ... Motley Fool - Jan 13, 2016 What: Shares of Envision Healthcare Holdings Inc , Team Health Holdings  and Community Health Systems , were all selling off hard today as each company's stock was down by more than 10% as of 3:30 PM EST."
p7
aS"Team Health eases 1% on DOJ inquiry Seeking Alpha - Nov 7, 2016 Team Health Holdings  bucks the market's up move on a 4x surge in volume in response to a Bloomberg report that the company recently received a formal notice from the U.S."
p8
aS'Why Does Jana Partners Like Team Health? Seeking Alpha - Mar 11, 2016 Jana Partners established an 8% position  in Team Health  with an average cost per share of $39.10 per share worth $231 million.'
p9
aS"TeamHealth Announces Agreement With JANA Partners PR Newswire  - Mar 23, 2016 KNOXVILLE, Tenn., March 23, 2016 /PRNewswire/ -- Team Health Holdings, Inc.  , a leading physician services organization, today announced that it has entered into an agreement with JANA Partners LLC&nbsp;...TeamHealth appoints Jana Partners' nominees as directors - ReutersTeamHealth Holdings , JANA Partners Enter Agreement; New Board Mambers ... - StreetInsider.com"
p10
a.