(lp0
S"Let's Get Complex With Telenav, Inc.  Post Analyst - 17 hours ago Telenav, Inc.  traded at an unexpectedly high level on 03/17/2017 when the stock experienced a -4.47% loss to a closing price of $8.55.Zacks: Analysts Set $12.00 Price Target for Telenav Inc  - BBNSMean Rating Of TeleNav, Inc.  At $1.4 - RealistInvestor.com"
p1
aS'Telenav Inc.  Moves Lower on Volume Spike for March 17 Equities.com - Mar 17, 2017 Telenav Inc.  traded on unusually high volume on Mar. 17, as the stock lost 4.47% to close at $8.55. On the day, Telenav Inc. saw 230,137 shares trade hands on 906 trades. Considering that the stock averages only a daily volume of 137,955 shares ...Which insiders are trading Telenav, Inc. ? - Post AnalystBrokers Issue New Targets On TeleNav, Inc.  - Fiscal Standard'
p2
aS'TeleNav Inc. TNAV  Wall Street Journal - Feb 11, 2011 News TeleNav Inc.TNAV. Significant News Only. 01/31/17; Press Release. Telenav Reports Second Quarter Fiscal 2017 Financial Results.'
p3
aS'Investor Update on Shares of Telenav Inc  Davidson Register - 13 hours ago Technical traders have a large inventory of technical indicators they may use when doing technical stock analysis. After a recent look, the 14-day ATR for Telenav Inc  is resting at 0.34. First developed by J. Welles Wilder, the ATR may help ...'
p4
aS'Telenav Inc.  Moves Higher on Volume Spike for March 16 Equities.com - Mar 16, 2017 Telenav Inc.  traded on unusually high volume on Mar. 16, as the stock gained 4.07% to close at $8.95. On the day, Telenav Inc. saw 272,247 shares trade hands on 1,403 trades. Considering that the stock averages only a daily volume of 167,908&nbsp;...'
p5
aS'Telenav Inc.  Soars 5.42% on March 13 Equities.com - Mar 13, 2017 Telenav Inc.  had a good day on the market for Monday March 13 as shares jumped 5.42% to close at $8.75. About 122,237 shares traded hands on 646 trades for the day, compared with an average daily volume of 162,723 shares out of a total float of&nbsp;...'
p6
aS'Telenav joins the select group of companies granted California Autonomous ... GlobeNewswire  - Oct 25, 2016 SANTA CLARA, Calif., Oct. 25, 2016  -- Telenav, Inc. , a leader in connected car and location-based services, today announced that it was granted an Autonomous Vehicle Testing Permit by the California Department of&nbsp;...'
p7
aS"Telenav's Scout GPS Link and Xevo Engine Link chosen for select 2018 Toyota ... GlobeNewswire  - Jan 5, 2017 SANTA CLARA, Calif., Jan. 05, 2017  -- Telenav, Inc.  and Xevo Inc. announced today that Scout GPS Link by Telenav and Xevo Engine Link were chosen for select 2018 Toyota vehicles equipped with Entune 3.0."
p8
aS'Telenav Inc.  Rises on Lawsuit Settlement StockNewsUnion - Jan 13, 2017 Telenav, Inc. announced that it has settled a lawsuit accusing the firm of patent infringement brought by Vehicle IP, LLC.'
p9
aS"Telenav Inc  Position Decreased by Oxford Asset Management BNB Daily  - Mar 4, 2017 Telenav logo Oxford Asset Management reduced its position in shares of Telenav Inc  by 31.6% during the fourth quarter, Holdings Channel reports.In Volatile Markets Do Analysts Think You Should Buy TeleNav, Inc. ? - The De Soto EdgeToday Analysts' Weekly Ratings Changes for Telenav  - DailyQuint"
p10
a.