(lp0
S"Toll Brothers Named World's Most Admired Home Building Company for 3rd ... GlobeNewswire  - Feb 20, 2017 HORSHAM, Pa., Feb. 20, 2017  -- For the third consecutive year, Toll Brothers, Inc.  (www.Toll Brothers Makes More Moves To Reward Shareholders - Seeking AlphaToll Brothers Inc : What are the future prospects? - Simply Wall St"
p1
aS"Toll Brothers' March 6, 2017 Presentation at Raymond James' 38th Annual ... GlobeNewswire  - Feb 27, 2017 HORSHAM, Pa., Feb. 27, 2017  -- Toll Brothers, Inc.  , the nation's leading builder of luxury homes, will present to the investment community via live audio webcast at Raymond James' 38th Annual&nbsp;..."
p2
aS'Toll Brothers, Inc.  Files An 8-K Entry into a Material Definitive ... Market Exclusive - Mar 9, 2017 Toll Brothers, Inc. designs, builds, markets and arranges financing for detached and attached homes in luxury residential communities.Toll Brothers Inc.  Moves Lower on Volume Spike for March 09 - Equities.comBarclays PLC Reiterates Equal Weight Rating for Toll Brothers Inc  - Chaffey Breeze'
p3
aS'Can Toll Brothers  Be a Top Choice for Value Investors? Yahoo Finance - Mar 16, 2017 Though Toll Brothers might be a good choice for value investors, there are plenty of other factors to consider before investing in this name.'
p4
aS"Toll Brothers: Homebuilding Business Strong, City Living Down Yahoo Finance - Feb 28, 2017 Limited competition in the luxury housing market also proves to be advantageous for the company. Moreover, Toll Brothers has initiated a quarterly dividend of 8 cents per share, reflecting the company's strength and a positive expectation for earnings.Insider Trading Activity Toll Brothers Inc.   CEO Sold 8000 shares ... - Market ExclusiveRBC Capital Markets Boosts Toll Brothers Inc.  Price Target to $37.00 - Chaffey Breeze"
p5
aS'Analysts Near-Term outlook: Toll Brothers, Inc. , Medical Properties ... The USA Commerce - Mar 17, 2017 Presently Toll Brothers, Inc.  stock have an ABR of 1.67. This is built on a simplified 1 to 5 scale where 1 represents a Strong Buy and 5 a Strong Sell.'
p6
aS'Insider Trading Activity Toll Brothers Inc   Insider Sold 1900 ... Market Exclusive - Mar 13, 2017 On 9/5/2012 Robert S Blank, Director, sold 16,000 with an average share price of $32.55 per share and the total transaction amounting to $520,800.00.'
p7
aS'Stock Watch: Examining the Levels on Shares of Toll Brothers, Inc.  Sherwood Daily - 15 hours ago Tracking shares of Toll Brothers, Inc. , the company has a current EV  of 9227551. Enterprise Value measures the total value of a specific company.'
p8
aS'Price Alert: Toll Brothers Inc  Stock Nears Resistance -- Technicals ... CML News - Mar 19, 2017 Price Alert: Toll Brothers Inc  has now crossed into technical strength -- watch the technical oscillators for momentum gaps.'
p9
aS'Earnings Reaction History: Toll Brothers Inc., 54.5% Follow-Through Indicator ... Nasdaq - Feb 22, 2017 Toll Brothers Inc.  is due to issue its quarterly earnings report in the upcoming extended-hours session. Given its history, traders can expect light trading in the issue immediately following its quarterly earnings announcement.'
p10
a.