(lp0
S"Is It Time to go for RSP Permian, Inc. , Trimble Inc. ? StockNewsJournal - 15 hours ago Trimble Inc. , maintained return on investment for the last twelve months at 4.40, higher than what Reuters data shows regarding industry's average."
p1
aS'Trimble and Caterpillar to Deliver Connected On-Highway Telematics Solutions ... PR Newswire  - Mar 8, 2017 LAS VEGAS, March 8, 2017 /PRNewswire/ -- Trimble  and Caterpillar Inc.  announced today that they are partnering to bring on-highway telematics to construction operations.Rating Change on Trimble Inc.  - Energy IndexThe Franklin Resources Inc. Cuts Position in Trimble Inc  - DailyQuint'
p2
aS"BRIEF-TRIMBLE ACQUIRES BEENA VISION SYSTEMS INC Reuters - Feb 8, 2017 MEXICO CITY, March 16 Mexican cement maker Cemex sees potential growth in its U.S. operations from the construction of the Trump administration's proposed border wall as well as expected infrastructure spending, the company said in an investor&nbsp;..."
p3
aS"Steady Movements People's United Financial, Inc. , Trimble Inc ... Daily News Journal - 13 hours ago On Friday, People's United Financial, Inc.  stock opened its trade at $18.92 and after floating in a range of $18.68 to $19.10, settled at $18.82."
p4
aS'Stock Price of Trimble Inc.  Increases 0.76% Highland Mirror - 18 hours ago Trimble Inc. stock performance trend indicates that the stock price has rallied 4.27% in the past 12 Weeks , but analyzing the 6 month charts for the stock , the price continues to stay positive and keep the rally at 11.06% .200-day MA Of Trimble Navigation Limited  At $29.23 - Equities FocusWhich Analysts Are Watching Trimble Navigation Limited ? - Fiscal Standard'
p5
aS'Form 4 TRIMBLE INC. For: Mar 06 Filed by: KIRKLAND JAMES A StreetInsider.com - Mar 8, 2017 Check this box if no longer subject to Section 16. Form 4 or Form 5 obligations may continue. See Instruction 1. 1. Name and Address of Reporting Person *. KIRKLAND JAMES A. , , . C/O TRIMBLE INC. 935 STEWART DRIVE. &nbsp;...'
p6
aS"Trimble  Q4 2016 Results - Earnings Call Transcript Seeking Alpha - Feb 9, 2017 Trimble's actual results may differ materially from those currently anticipated due to a number of factors detailed in the company's Form 10-K and 10-Qs or other documents filed with the Securities and Exchange Commission.Trimble  Buys Privately-Held Beena Vision Systems - StreetInsider.comTrimble Navigation Ltd.  Issues Quarterly Earnings Results - Sports Perspectives"
p7
aS"Trimble's Twin Buyouts to Boost Connected Forest Solutions Zacks.com - Mar 6, 2017 Technology solutions provider Trimble Inc.'s  share price appreciated 25.7% over the last one year compared with the Zacks Electronics - Miscellaneous Products industry's gain of 22%."
p8
aS'An End-of-Day Technical Review: Kennametal Inc. , Trimble Inc.  Post Analyst - Mar 16, 2017 Kennametal Inc.  has made its way to a 12-month gain of 72.78%. Turning to Trimble Inc. , its shares were trading at $31.51 a retreat of $-0.07, on the trading floor.'
p9
aS'Trimble Inc.  Files Form 4 Insider Selling : James A Kirkland Sells ... Energy Index - Mar 10, 2017 Trimble Inc. : James A Kirkland , Vice President of Trimble Inc. sold 15,315 shares on Mar 6, 2017. The Insider selling transaction was reported by the company on Mar 8, 2017 to the Securities and Exchange Commission.Trimble Inc  VP Sells $475650.00 in Stock - Chaffey BreezeThe Trimble Inc  VP Julie A. Shepard Sells 3826 Shares - Petro Global News 24'
p10
a.