(lp0
S'Concur Acquires TRX, Inc. PR Newswire  - Jul 16, 2013 BELLEVUE, Wash., July 16, 2013 /PRNewswire/ -- Concur , the global leader in integrated travel and expense management, today announced it acquired TRX, Inc., a leader in travel data and Travel Management Company  mid-office&nbsp;...'
p1
aS'TRX Names David Cathcart President And Chief Executive Officer To Succeed ... PR Newswire  - Dec 11, 2012 ATLANTA, Dec. 11, 2012 /PRNewswire/ -- TRX, Inc.  , a global leader in travel data and technology, today named Chief Financial Officer David D. Cathcart as President and Chief Executive Officer.'
p2
aS'TRX Launches Web Reporting 7.0 for TRAVELTRAX at the 2013 Global Business ... PR Newswire  - Aug 6, 2013 ATLANTA, Aug. 6, 2013 /PRNewswire/ -- TRX, Inc. , a Concur Company and global leader in travel data and technology, today announced the release of Web Reporting 7.0 for its data intelligence solution TRAVELTRAX at the 2013 Global&nbsp;...'
p3
aS'TRX Europe to develop Leicester support base Travel Weekly UK - Aug 10, 2015 TRX supplies automated fulfilment services for on-line booking systems, including the issuing and despatching of tickets, customer service support, quality control and travel policy checking.'
p4
aS'Morningstar, Inc. to Acquire tRx Investment Portfolio Rebalancing Platform for ... PR Newswire  - Oct 8, 2015 CHICAGO, Oct. 8, 2015 /PRNewswire/ -- Morningstar, Inc. , a leading provider of independent investment research, has entered into a definitive agreement to acquire Total Rebalance Expert , an automated, tax-efficient investment&nbsp;...'
p5
aS"Amazon Sues Pair Of Sellers In Counterfeit Goods Crackdown Law360  - Nov 16, 2016 Law360, Los Angeles  -- Amazon.com Inc. filed two lawsuits in Washington state court on Monday against retailers selling an allegedly fake Forearm Forklift and imitation TRX workout products, marking the website's first&nbsp;...Amazon Sues Merchants Over Selling Counterfeit Items - FortuneAmazon Files Lawsuits to Keep Counterfeit Goods Off Website - Bloomberg"
p6
aS'MoF Inc Not Taking Over 1MDB Debts - Johari malaysiandigest.com - Mar 16, 2017 He said there was a clear distinction between 1MDB debts, which would not be taken over by MoF Inc., and the Bandar Malaysia Sdn Bhd  and TRX City Sdn Bhd  project company operating debts. The BMSB and TRCX project company&nbsp;...Some facts for Tony Pua - Malaysiakini MoF will not take over 1MDB debts, says Johari - The Star Online'
p7
aS'1MDB to be a run-off company New Straits Times Online - Jul 16, 2016 Johari said for assets like Bandar Malaysia and TRX, the plan was to team up with the private sector to develop the land. We have signed agreements with Iskandar Waterfront Holdings Bhd and China Railway Engineering Corp for Bandar Malaysia and can&nbsp;...'
p8
aS'PCTEL and TRX Systems Automate Indoor Mapping of Cellular Networks Business Wire  - Feb 22, 2017 BLOOMINGDALE, Ill. &amp; BARCELONA, Spain----PCTEL, Inc. , a leader in Performance Critical TELecom solutions, and TRX Systems Inc., provider of NEON Location Solutions, announced today the first scanning&nbsp;...'
p9
aS'Miners to watch: Tanzanian Royalty Exploration Corp , Northern ... Scibility Media - Apr 26, 2016 Tanzanian Royalty Exploration Corp , which recently logged a loss of $3.6 million in its F2Q2016, is complaining over the invasion of its mines in Tanzania by well-equipped and funded miners posing as artisanal miners.'
p10
a.