(lp0
S'Xperi Corp.  Subsidiary Invensas Corp. Wins Two German Patent ... StreetInsider.com - 17 hours ago Xperi Corporation  subsidiary, Invensas Corporation, announced today that it has prevailed in two German patent infringement actions against Broadcom Ltd.'
p1
aS'Xperi Corp Enters Oversold Territory Nasdaq - Feb 24, 2017 In trading on Friday, shares of Xperi Corp  entered into oversold territory, hitting an RSI reading of 26.9, after changing hands as low as $38.45 per share.'
p2
aS'Xperi Corp. XPER  Wall Street Journal  - Feb 23, 2017 News Xperi Corp.XPER. Significant News Only. 1 hour ago; Press Release. Invensas Wins German Patent Infringement Cases Against Broadcom.'
p3
aS'Xperi Breaks Above 200-Day Moving Average - Bullish for XPER Nasdaq - 9 hours ago In trading on Monday, shares of Xperi Corp  crossed above their 200 day moving average of $37.34, changing hands as high as $38.60 per share.'
p4
aS'Tessera Holding Corporation Announces Name Change to Xperi Corporation Business Wire  - Feb 22, 2017 SAN JOSE, Calif.----Tessera Holding Corporation   is proud to announce it will change its name to Xperi Corporation  and its Nasdaq ticker symbol to XPER, effective tomorrow, February&nbsp;...Tessera Holding Becomes Xperi - Radio WorldTessera Technologies  Misses on Q4 Earnings, Revenues - Zacks.com'
p5
aS'BUZZ-US STOCKS ON THE MOVE-Apple, Whole Foods, DryShips, Dominion Diamond Nasdaq - 13 hours ago N&gt;: down 0.7 pct at $79.37 Phillips 66 delays restart of crude units at New Jersey refinery- source [nFWN1GX0N1] ** Xperi Corp &lt;XPER.O&gt;: up 6.7 pct at $38.20BUZZ-Xperi Corp: Biggest intraday pct gain in more than 10 months [nL3N1GX3WV] ** AXT Inc&nbsp;...US STOCKS ON THE MOVE-Apple, Whole Foods, DryShips, Dominion Diamond - Times of India'
p6
aS"What Investors Should Know About Xperi Corporation's  Financial Strength? Simply Wall St - Mar 3, 2017 While small-cap stocks, such as Xperi Corporation  with its market cap of USD $1,736 Million, are popular for their explosive growth, investors should also pay heed to their balance sheet to judge whether the company can survive a downturn&nbsp;...Thomas A. Lacey Sells 39776 Shares of Xperi Co.  Stock - Sports PerspectivesInsider Trading at Xperi Co.? - BBNS"
p7
aS'Invensas Wins IPR Proceeding Against Broadcom Business Wire  - Mar 16, 2017 SAN JOSE, Calif.----Xperi Corporation   announced today that the U.S.'
p8
aS'Xperi Corporation denied a petition for IPR filed by Broadcom Limited (NASDAQ ... Benchmark Monitor - 17 hours ago Broadcom Limited  said that, Xperi Corporation , the U.S. Patent Office Patent Trial and Appeal Board  denied a petition for Inter Partes Review  of U.S.'
p9
aS'Weekly Summary Corporate dividends, name changes, new listings Sacramento Bee - Feb 24, 2017 Columbia Pipeline Partners. Yanzhou Coal Mining Company. NASDAQ GLOBAL AND GLOBAL SELECT MARKETS. Icahn Enterprises LP rights. CORPORATE NAME CHANGES.'
p10
a.