(lp0
S'Insider Trading Activity Toro Co   Director Bought 20000 shares of ... Market Exclusive - Mar 15, 2017 The Toro Company  is engaged in the designing, manufacturing, and marketing of professional turf maintenance equipment and services, turf irrigation systems, landscaping equipment and lighting products, snow and ice management products,&nbsp;...'
p1
aS'Toro Co. beats forecasts on pro segment sales Minneapolis / St. Paul Business Journal - Feb 23, 2017 New riding mower and ice management products are boosting first quarter sales for Toro Co., with fiscal first-quarter profits exceeding Wall Street predictions.'
p2
aS'The Toro Co. aides in final Ryder Cup course preparations Minneapolis Star Tribune - Sep 27, 2016 The Toro Co. is no stranger to helping golf course superintendents prepare their courses for major golf events. The Bloomington-based company is a market leader is golf maintenance and irrigation equipment and their equipment has been on hand at&nbsp;...'
p3
aS'Toro Co Reports 15% Increase In Q1 Bottom Line Nasdaq - Feb 23, 2017  - Toro Co  reported earnings for its first quarter that advanced compared to the same period last year.Toro Co Reports 15% Rise In Q1 Profit - RTT News'
p4
aS'The Toro Co. sets fiscal 2017 first quarter conference call Rental Pulse - Feb 19, 2017 The Toro Co., Bloomington, Minn., will release its fiscal 2017 first quarter results on Feb. 23, 2017, at 7:30 a.m. Central time.'
p5
aS'The Toro Company Renews Partnership with ARI to Provide Toro-branded Websites ... Marketwired  - Jan 24, 2017 MILWAUKEE, WI-- - ARI Network Services, Inc.  announced today that The Toro Company , a global leader in the outdoor power equipment industry, has renewed its partnership with ARI to act&nbsp;...'
p6
aS'Professional landscapers help Toro post record results Minneapolis Star Tribune - Feb 23, 2017 Increased spending by landscape contractors who invested in new turf and snow and ice management equipment helped the Toro Co. report record results for its first quarter of fiscal 2017. The company earned $45 million, or 41 cents per share, on revenue&nbsp;...'
p7
aS'The Toro Co. reports first quarter net earnings and sales increase Rental Pulse - Mar 5, 2017 The Toro Co., Bloomington, Minn., reported net earnings of $45.0 million in the first quarter of 2016, compared to $39.3 million earned in the first quarter of 2016.'
p8
aS'The Toro Co  Receives Consensus Recommendation of Hold from Analysts Petro Global News 24 - Mar 17, 2017 Toro Co  has been given an average recommendation of Hold by the six brokerages that are currently covering the company.Brokerages Set Toro Co  PT at $55.25 - Sports PerspectivesNext Weeks Broker Price Targets For Toro Company   - Fiscal Standard'
p9
aS'Toro Co  Receives Consensus Recommendation of Hold from Analysts Chaffey Breeze - Mar 16, 2017 Toro logo Shares of Toro Co  have been given an average recommendation of Hold by the six analysts that are covering the stock.Toro Company   Valuation According To Analysts - UK Market News'
p10
a.