(lp0
S'Risk Malaise Alert in Option Market: TeleTech Holdings Inc Implied Price Swing ... CML News - 8 hours ago Before we dive into any analysis we simply note that TeleTech Holdings Inc  risk is actually priced pretty low by the option market as of right now.'
p1
aS"SunTrust Banks Weighs in on TeleTech Holdings, Inc.'s Q3 2017 Earnings  BNB Daily  - 21 hours ago TeleTech Holdings logo TeleTech Holdings, Inc.  - SunTrust Banks raised their Q3 2017 earnings per share estimates for TeleTech Holdings in a note issued to investors on Wednesday.TeleTech To Open New Customer Experience Center in Las Vegas, NV - PR Newswire TeleTech Holdings Inc.  Moves Higher on Volume Spike for March 17 - Equities.com"
p2
aS'TeleTech Holdings Inc Risk Points versus Technology CML News - Mar 13, 2017 This is a scatter plot analysis of the critical risk points from the option market for TeleTech Holdings Inc  compared to its own past and the Technology ETF.'
p3
aS'TeleTech Awarded General Services Administration  Information Technology ... PR Newswire  - Feb 28, 2017 DENVER, Feb. 28, 2017 /PRNewswire/ -- TeleTech Holdings, Inc. , a leading global provider of customer experience, engagement and growth solutions, received a General Services Administration  Information Technology &nbsp;...'
p4
aS'Stock Returns: TeleTech Holdings Inc  is Beating Travelport ... CML News - Mar 19, 2017 This is a snapshot to compare the stock returns for TeleTech Holdings Inc  versus Travelport Worldwide Limited  .'
p5
aS"TeleTech Technology Offers Turnkey Complimentary Trial of CafX's Real-Time ... PR Newswire  - Jan 4, 2017 4, 2017 /PRNewswire/ -- TeleTech Technology today announced the launch of a free sixty-day trial of Supervisor Assist, the award-winning solution from CafX Communications for remote live coaching and training of contact center agents over the web ..."
p6
aS'TeleTech Named Gold Winner by Best in Biz Awards PR Newswire  - Mar 16, 2017 DENVER, March 16, 2017 /PRNewswire/ -- TeleTech Holdings, Inc. , a leading global provider of customer experience, engagement and growth solutions, has recently been named a Gold winner in the Best New Product Feature of the Year&nbsp;...'
p7
aS'TeleTech announces a strategic partnership with Welltok Seeking Alpha - Jan 19, 2017 TeleTech Holdings  announced a strategic partnership with Welltok to help population health managers guide consumers to optimal health with a more personal touch.Zacks Investment Research Upgrades TeleTech Holdings Inc.  to Hold - Sports Perspectives'
p8
aS'TeleTech Hosts Grand Opening of Weber City, VA Customer Experience Center PR Newswire  - Oct 4, 2016 DENVER, Oct. 4, 2016 /PRNewswire/ -- TeleTech Holdings, Inc. , a leading provider of customer experience, engagement and growth solutions, today will host a Grand Opening of its new customer experience center in Weber City, Virginia.Teletech celebrates grand opening in Weber City; hiring 300, plans to hold job ... - WJHL'
p9
aS'TeleTech Launches Open Enrollment Resource Center to Help Health Insurers ... PR Newswire  - Feb 25, 2016 DENVER, Feb. 25, 2016 /PRNewswire/ -- TeleTech Holdings, Inc. , a leading global provider of customer experience, engagement and growth solutions, has introduced a new resource center to provide healthcare companies with the tools&nbsp;...'
p10
a.