(lp0
S'CVR Partners LP  is Upgraded by Goldman to  Buy Highland Mirror - Feb 16, 2017 CVR Partners LP  was Upgraded by Goldman to  Buy. Earlier the firm had a rating of Neutral  on the company shares.'
p1
aS'CVR Partners: A Structural Mispricing Seeking Alpha - Oct 26, 2016 CVR Partners, LP  is the owner/operator of two nitrogen fertilizer facilities in Coffeyville, KS, and East Dubuque, IL.CVR Energy, Inc.  Files An 8-K Reports 2016 Third Quarter Results ... - Market Exclusive'
p2
aS'An End-of-Day Technical Review: CVR Partners, LP , Eros International Plc ... Post Analyst - 18 hours ago Over the last five days, shares have faced -1.1% losses and now is down -26.73% since hitting its 200-day moving average of $5.45.CVR Partners LP  Upgraded at Goldman Sachs Group Inc - The Cerbat GemEPS Predicted Of CVR Partners, LP  At $0.01 - Transcript Daily'
p3
aS'Does This Scary Designation Make CVR Partners, LP a Risky Stock? Motley Fool - Jun 2, 2016 Nitrogen fertilizer manufacturing company CVR Partners  recently completed a game-changing acquisition, which significantly boosted its size and scale.'
p4
aS'Rentech Nitrogen Partners, LP Announces Closing of Merger with CVR Partners, LP Business Wire  - Apr 1, 2016 LOS ANGELES----Rentech Nitrogen Partners, L.P.  announced today the completion of its merger with CVR Partners, LP. Rentech Nitrogen and CVR Partners entered into a definitive merger agreement on August 9, 2015&nbsp;...CVR Partners Completes Acquisition of Rentech Nitrogen Partners, LP - PR Newswire '
p5
aS'Blackstone Holdings Picked Up Cvr Partners Lp  Shares Small Cap Exclusive  - Mar 4, 2017 For those not familiar with the company, CVR Partners, LP owns and operates nitrogen fertilizer business. The Company produces and distributes nitrogen fertilizer products.The Blackstone Holdings I LP Maintains Stake in CVR Partners, LP  - DailyQuintCVR Partners, LP  Position Held by Barings LLC - Sports Perspectives'
p6
aS'CVR PARTNERS, LP  Files An 8-K Departure of Directors or Certain ... Market Exclusive - Mar 9, 2017 Item 5.02. Departure of Directors or Certain Officers; Election of Directors; Appointment of Certain Officers; Compensatory Arrangements of Certain Officers.'
p7
aS'CVR Partners Files Form 10-K Annual Report For Fiscal Year Ended Dec. 31, 2016 PR Newswire  - Feb 21, 2017 SUGAR LAND, Texas, Feb. 21, 2017 /PRNewswire/ -- CVR Partners, LP , a manufacturer of ammonia and urea ammonium nitrate  solution fertilizer products, today announced that it has filed its annual report on Form 10-K for the fiscal&nbsp;...Q1 2017 EPS Estimates for CVR Partners, LP Decreased by Feltl &amp; Co.  - Chaffey Breeze'
p8
aS'Form 8-K CVR PARTNERS, LP For: Feb 16 StreetInsider.com - Feb 16, 2017 On February 16, 2017, CVR Partners, LP  posted a presentation to its website at www.cvrpartners.CVR Partners Reports 2016 Fourth Quarter and Full Year Results - PR Newswire CVR Partners  Posts Loss in Q4, Sales Beat February 16, 2017 - Zacks.com'
p9
aS'CVR Partners, LP Announces Commencement of Tender Offer, Consent Solicitation ... PR Newswire  - Apr 29, 2016 SUGAR LAND, Texas, April 29, 2016 /PRNewswire/ -- CVR Partners, LP   today announced that its subsidiary, East Dubuque Nitrogen Partners, L.P.'
p10
a.