(lp0
S'United Fire Group, Inc  Ex-Dividend Date Scheduled for February 27, 2017 Nasdaq - Feb 24, 2017 United Fire Group, Inc  will begin trading ex-dividend on February 27, 2017. A cash dividend payment of $0.25 per share is scheduled to be paid on March 15, 2017.Dimensional Fund Advisors LP Reduces Stake in United Fire Group, Inc.  - The Cerbat GemDawn M. Jaffray Acquires 500 Shares of United Fire Group, Inc.  Stock - Sports Perspectives'
p1
aS'United Fire Group Inc  Moves Higher on Volume Spike for March 17 Equities.com - Mar 17, 2017 United Fire Group Inc  traded on unusually high volume on Mar. 17, as the stock gained 0.67% to close at $43.55. On the day, United Fire Group Inc saw 212,677 shares trade hands on 992 trades. Considering that the stock averages only a daily&nbsp;...'
p2
aS'United Fire Group, Inc. Announces the Appointment of Dawn M. Jaffray, Chief ... GlobeNewswire  - Apr 6, 2015 CEDAR RAPIDS, Iowa, April 6, 2015  -- Today, United Fire Group, Inc.   announced the appointment of Dawn M. Jaffray, age 48, as Chief Financial Officer, effective April 27, 2015.'
p3
aS'RSI Alert: United Fire Group Now Oversold Nasdaq - Feb 17, 2017 In the case of United Fire Group, Inc., the RSI reading has hit 25.5 - by comparison, the universe of dividend stocks covered by Dividend Channel currently has an average RSI of 55.7.'
p4
aS'BRIEF-United Fire Group Q4 EPS $0.46 including items Reuters - Apr 20, 2015 BELLEVILLE, Ill., Feb 16 Illinois state workers will continue to be paid even though a state budget is not in place after a judge on Thursday refused to rescind his previous order requiring payments.'
p5
aS'United Fire Group Inc  Moves Lower on Volume Spike for February 20 Equities.com - Feb 20, 2017 United Fire Group Inc  traded on unusually high volume on Feb. 20, as the stock lost 3.1% to close at $41.32. On the day, United Fire Group Inc saw 306,907 shares trade hands on 2,048 trades. Considering that the stock averages only a daily ...United Fire Group, Inc  Reviewed By Analysts - The De Soto Edge'
p6
aS"United Fire Group's  CEO Randy Ramlo on Q4 2016 Results - Earnings Call ... Seeking Alpha - Feb 16, 2017 Welcome to the United Fire Group, Inc. 2016 Fourth Quarter and Year End Earnings Conference Call. [Operator Instructions]."
p7
aS"Is United Fire Group Inc  Really As Financially Strong As Its Balance ... Simply Wall St - Feb 16, 2017 In any company, including United Fire Group Inc  which has zero-debt on its balance sheet, there are well known benefits of including debt in the capital structure, primarily a lower cost of capital - due to debtholders' higher claim on ..."
p8
aS'The New York State Teachers Retirement System Has $2643000 Stake in United ... Petro Global News 24 - 19 hours ago New York State Teachers Retirement System reduced its stake in United Fire Group, Inc.  by 7.7% during the fourth quarter, according to its most recent 13F filing with the Securities and Exchange Commission .'
p9
aS'United Fire Group  Appoints Chief Technology Officer GlobeNewswire  - Dec 7, 2015 CEDAR RAPIDS, Iowa, Dec. 07, 2015  -- United Fire Group, Inc.   announced the appointment of Brian Frese as chief technology officer, effective November 23, 2015.'
p10
a.