(lp0
S"Union Bankshares Inc.  Moves Lower on Volume Spike for March 20 Equities.com - 9 hours ago Union Bankshares Inc.  traded on unusually high volume on Mar. 20, as the stock lost 3.18% to close at $44.10. On the day, Union Bankshares Inc. saw 8,087 shares trade hands on 96 trades. Considering that the stock averages only a daily volume of&nbsp;...Top Positive Mover of Friday: Union Bankshares, Inc.'s  stock price ... - WsNews 4investors"
p1
aS'Union Bankshares Inc.  Moves Higher on Volume Spike for March 17 Equities.com - Mar 17, 2017 Union Bankshares Inc.  traded on unusually high volume on Mar. 17, as the stock gained 8.45% to close at $45.55. On the day, Union Bankshares Inc. saw 48,673 shares trade hands on 400 trades. Considering that the stock averages only a daily&nbsp;...'
p2
aS'Union Bankshares Inc.  Moves Lower on Volume Spike for March 13 Equities.com - Mar 13, 2017 Union Bankshares Inc.  traded on unusually high volume on Mar. 13, as the stock lost 0.62% to close at $40.30. On the day, Union Bankshares Inc. saw 5,303 shares trade hands on 105 trades. Considering that the stock averages only a daily volume of&nbsp;...'
p3
aS'Stock Returns: Old Second Bancorp Inc  versus Union Bankshares ... CML News - Mar 19, 2017 This is a snapshot to compare the stock returns for Old Second Bancorp Inc  versus Union Bankshares Inc  .'
p4
aS'Union Bankshares Inc  Stock Technicals Hit Weakness CML News - Feb 17, 2017 This is a technical analysis stock rating for Union Bankshares Inc  . The company has a two bull technical rating which indicates some weakness.'
p5
aS'Stock Returns: Union Bankshares Corporation  is Beating ... CML News - Mar 7, 2017 This is a snapshot to compare the stock returns for Union Bankshares Corporation  versus WashingtonFirst Bankshares Inc  . The stock return points we compare look at the last three-months, six-months and twelve-months.Baird Financial Group Inc. Reduces Stake in Union Bankshares Corp  - BNB Daily Union Bankshares Corp - Receive News &amp; Ratings Daily - BBNS'
p6
aS"Form 4 UNION BANKSHARES INC For: Dec 31 Filed by: Silverman David Scott StreetInsider.com - Mar 16, 2017 Find out which companies are about to raise their dividend well before the news hits the Street with StreetInsider.com's Dividend Insider Elite."
p7
aS'Stock Returns: Investors Bancorp Inc  versus Union Bankshares ... CML News - 13 hours ago This is a snapshot to compare the stock returns for Investors Bancorp Inc  versus Union Bankshares Corporation  .Union Bankshares Corp  Position Maintained by State Board of ... - Sports Perspectives11.42% to Target, Barclays Capital Reiterates Overweight Rating for PayPal ... - HuronReport'
p8
aS'Stock Returns: Union Bankshares Corporation  is Beating United ... CML News - Mar 1, 2017 This is a snapshot to compare the stock returns for Union Bankshares Corporation  versus United Bankshares Inc  . The stock return points we compare look at the last three-months, six-months and twelve-months. At the end&nbsp;...'
p9
aS'Traders Take Note: Union Bankshares Inc  Stock Has Droppped ... CML News - Mar 16, 2017 Take Note: Union Bankshares Inc  has hit some technical weakness in its momentum, and while it has not broken down all the way through support -- watch the key levels that we discuss below and further, watch the stochastics and technical&nbsp;...'
p10
a.