(lp0
S'Ultratech Inc.  Breaks into New 52-Week High on March 20 Session Equities.com - 7 hours ago Shares of Ultratech Inc.  broke into a new 52-week high yesterday, hitting a peak of $29.60. Shares closed at $29.47 after opening at $29.45 for a move of -0.03%.'
p1
aS'Stock Returns: Ultra Clean Holdings Inc  is Beating Ultratech Inc ... CML News - 10 hours ago This is a snapshot to compare the stock returns for Ultra Clean Holdings Inc  versus Ultratech Inc  .'
p2
aS'Ultratech Inc.  Breaks into New 52-Week High on March 06 Session Equities.com - Mar 6, 2017 Shares of Ultratech Inc.  broke into a new 52-week high yesterday, hitting a peak of $29.51. Shares closed at $29.23 after opening at $29.06 for a move of 0.27%.Ultratech Inc  Files Form 4 Insider Selling : Arthur W Zafiropoulo Sells ... - Energy Index18800 Shares in Ultratech, Inc.  Acquired by Spark Investment Management LLC - Petro Global News 24'
p3
aS'Ultratech Inc  Pushes Higher Into Potential Pullback Range Business Review - Mar 19, 2017 Checking on current RSI levels on shares of Ultratech Inc , the 14-day RSI is currently standing at 71.75, pushing the stock into overbought territory.'
p4
aS'BRIEF-Veeco Instruments enters into agreement to acquire Ultratech Inc Reuters - Feb 2, 2017 WASHINGTON, March 17 President Donald Trump welcomes German Chancellor Angela Merkel on Friday for a White House meeting that could help determine the future of the transatlantic alliance and shape the working relationship between two of the&nbsp;...'
p5
aS'Ultratech Inc.  Moves Lower on Volume Spike for February 20 Equities.com - Feb 20, 2017 Ultratech Inc.  traded on unusually high volume on Feb. 20, as the stock lost 0.31% to close at $28.76. On the day, Ultratech Inc. saw 701,970 shares trade hands on 4,861 trades. Considering that the stock averages only a daily volume of 415,034&nbsp;...'
p6
aS'Russell Investments Group Ltd. Takes Position in Ultratech, Inc.  The Cerbat Gem - Mar 19, 2017 Ultratech logo Russell Investments Group Ltd. purchased a new stake in shares of Ultratech, Inc.  during the fourth quarter, according to its most recent filing with the Securities and Exchange Commission .Ultratech, Inc.  Reviewed By Analysts - The De Soto EdgeUltratech, Inc.  Broker Price Targets For The Coming Week - Fiscal Standard'
p7
aS'Ultratech Inc.  Jumped To A New High After Bought By Veeco Instruments RTT News - Feb 3, 2017 Ultratech Inc.  announced Thursday morning that it has agreed to be acquired by Veeco Instruments Inc.  for approximately $815 million.Veeco gets $26.5M if Ultratech deal falls through, filing says - Newsday'
p8
aS'Stock Returns: Ultratech Inc  versus Veeco Instruments Inc ... CML News - Feb 5, 2017 This is a snapshot to compare the stock returns for Ultratech Inc  versus Veeco Instruments Inc  .'
p9
aS'Ultratech Inc.  Moves Higher on Volume Spike for February 23 Equities.com - Feb 23, 2017 Ultratech Inc.  traded on unusually high volume on Feb. 23, as the stock gained 0.17% to close at $29.11. On the day, Ultratech Inc. saw 671,423 shares trade hands on 4,446 trades. Considering that the stock averages only a daily volume of 442 ...To Buy Or Sell Ultratech, Inc.  On Latest Analyst Consensus - Fiscal Standard'
p10
a.