(lp0
S'Viacom Inc. to Report Quarterly Financial Results on May 4, 2017 Yahoo Finance - Mar 16, 2017 Viacom Inc.  announced today that on Thursday, May 4, 2017, it will issue financial results for the quarter ending March 31, 2017.Which insiders are selling Viacom, Inc. ? - Post AnalystLarge Buying Action and Inflow of Money Witnessed in Viacom Inc.  - Highland Mirror'
p1
aS'Viacom Inc.  Ex-Dividend Date Scheduled for March 13, 2017 Nasdaq - Mar 10, 2017 Viacom Inc.  will begin trading ex-dividend on March 13, 2017. A cash dividend payment of $0.2 per share is scheduled to be paid on April 03, 2017.'
p2
aS"Why Analysts put forward these two stocks: Viacom, Inc. , Franklin ... The USA Commerce - 15 hours ago Shares of Viacom, Inc.  dropped -1.45% to $43.40. During the trading on 03/17/2017, Company's stock ranged from $43.34 to $44.12.How has Viacom, Inc. performed recently? - The Daily LeicesterTraders Recap: Viacom Inc.  , WESCO International, Inc.  - NYSE Journal "
p3
aS"A+E Is In, Viacom Out in Hulu's New Live Online TV Service Bloomberg - Mar 10, 2017 Hulu LLC, the video-streaming service, will carry six cable channels from A+E Networks including the History network in its upcoming live TV package, and has decided not to offer networks from Viacom Inc. The accord gives Los Angeles-based Hulu a ...Hulu live TV will feature A&amp;E, but not Viacom networks - Seeking Alpha"
p4
aS"Viacom names Schireson to new chief data officer post Seeking Alpha - Mar 13, 2017 That means expanding the reach of Viacom Vantage, the company's data-based advertising platform. Schireson had been executive VP of Data Strategy and Consumer Intelligence, so he's had a key role in Vantage's creation.Viacom Names Kern Schireson Chief Data Officer - Yahoo Finance"
p5
aS"Option Trading: Viacom Inc  Winning Long Put Spreads Can ... CML News - 16 hours ago We're going to look at a wonderful result using long put spreads for Viacom Inc by pinpointing earnings risk, and then navigating around it."
p6
aS"Sell-Side Analyst's Predictions: Viacom, Inc. , BB&amp;T Corporation  The USA Commerce - Mar 14, 2017 Shares of Viacom, Inc.  dropped -1.33% to $43.15. During the trading on 03/13/2017, Company's stock ranged from $43.10 to $43.89.2 Stocks Grabbing Analyst Attention: Viacom, Inc. , BB&amp;T ... - The Voice Registrar"
p7
aS"Viacom paying two years' salary to departing general counsel Seeking Alpha - Mar 3, 2017 Viacom  notes in an 8-K filing that even though General Counsel Michael Fricklas is leaving the company, it will pay his salary for another two years."
p8
aS'Turner, Fox, Viacom to offer advertisers way to laser focus on audience The Star Online - Mar 17, 2017 Turner, Viacom and Fox say this type of media buying does not work if each company uses its own set of data on its own system.Turner, Viacom and Fox Join Forces for Data-Driven TV Ad Buying - Wall Street Journal '
p9
aS"Equity Perception: Analyst's Indicator Review for Duke Energy Corporation (DUK ... The USA Commerce - Mar 16, 2017 Shares of Duke Energy Corporation  surged 1.40% to $82.00. During the trading on 03/15/2017, Company's stock ranged from $80.84 to $82.36."
p10
a.