(lp0
S'Why Verint Systems Inc. Shares Are on the Decline Today Motley Fool - Dec 8, 2016 Shares of Verint Systems Inc.  fell as much as 12% as of 11:30 a.m EST today after the company reported earnings on Wednesday for the third quarter ended Oct. 31.'
p1
aS"Why Verint Systems, Inc. Stock Plunged Today Motley Fool - Mar 30, 2016 What: Shares of Verint Systems  fell as much as 15.3% early Wednesday after the business intelligence software specialist released weaker-than-expected fiscal fourth-quarter results.Verint Systems Inc.  Stock | Shares Plummet On Poor Earnings Numbers - TickerTV News Nice Gouges Verint Systems Share On Emerging Market Shake-Up - Investor's Business Daily"
p2
aS'Verint Systems Inc.  Breaks into New 52-Week High on March 16 Session Equities.com - Mar 16, 2017 Shares of Verint Systems Inc.  broke into a new 52-week high yesterday, hitting a peak of $41.15. Shares closed at $41.00 after opening at $40.20 for a move of 2.24%.'
p3
aS"Verint Systems Inc.  Moves Lower on Volume Spike for March 17 Equities.com - Mar 17, 2017 Verint Systems Inc.  traded on unusually high volume on Mar. 17, as the stock lost 1.22% to close at $40.50. On the day, Verint Systems Inc. saw 1.15 million shares trade hands on 4,127 trades. Considering that the stock averages only a daily ...Oppenheimer Holdings Inc. Reiterates Outperform Rating for Verint Systems Inc ... - Chaffey BreezeVerint Systems'  Outperform Rating Reiterated at Oppenheimer Holdings Inc. - BNB Daily "
p4
aS"Verint Systems Inc. posts loss as revenue falls nearly 9% Newsday - Dec 7, 2016 Verint Systems Inc., whose software is used by business call centers and government intelligence agencies, Wednesday posted a net loss and lower revenue for the quarter ended Oct. 31 as margins declined.Verint Systems'  CEO Dan Bodner on Q3 2017 Results - Earnings Call ... - Seeking Alpha"
p5
aS"Stock Returns: Verint Systems Inc  is Beating Manhattan ... CML News - 11 hours ago This is a snapshot to compare the stock returns for Manhattan Associates Inc  versus Verint Systems Inc  .The Verint Systems'  Outperform Rating Reaffirmed at Oppenheimer ... - Petro Global News 24Heavy Volume Tech Stocks: Mercury Systems, Inc. , Verint Systems Inc.  - TWN"
p6
aS'The Customer Relations Side Of Verint Solutions - Finding Back Office Solutions Benzinga - Mar 12, 2016 The back office, where much of the actual work gets done, has a huge impact on customer relations and actionable intelligence global leader, Verint Solutions, helps companies resolve their back office issues.'
p7
aS"Verint Systems  Acquires OpinionLab StreetInsider.com - Nov 16, 2016 Verint Systems Inc.  announced that it has extended its Customer Engagement Optimization portfolio through its acquisition of OpinionLab, a leader in continuous voice of the customer listening solutions that drive smarter, real-time&nbsp;...Publicly Traded Firm Acquires OpinionLab - Greater Wilmington Business JournalSoftware company OpinionLab is sold - Crain's Chicago Business "
p8
aS'Verint Systems to sell cyberintelligence unit, report says Newsday - Feb 22, 2017 Verint Systems Inc., a maker of analytic software, plans to sell its cyberintelligence unit, according to a report published Wednesday.Oppenheimer Maintains Outperform Rating on Verint Systems  Following ... - StreetInsider.comVerint Systems Inc.  PEG Ratio At 1.55 - Equities Focus'
p9
aS'Risk Malaise Alert in Option Market: Verint Systems Inc Implied Price Swing ... CML News - Mar 19, 2017 Before we dive into any analysis we simply note that Verint Systems Inc  risk is actually priced pretty low by the option market as of right now.'
p10
a.