(lp0
S"Virtus Investment Partners'  CEO George Aylward on Q4 2016 Results ... Seeking Alpha - Jan 25, 2017 Good morning. My name is Michelle, and I will be your conference operator today. I would like to welcome everyone to the Virtus Investment Partners Quarterly Conference Call. The slide presentation for this call is available in the Investor Relations ..."
p1
aS"Best Kept Contrarian Play: Virtus Investment Partners? Barron's  - Feb 13, 2017 Recent 13G filings show that Vanguard Group and Victory Capital Management amassed an above 5% stake in Virtus Investment Partners . A year ago, shares of the Hartford, Conn.-based asset manager plunged after its star mutual fund manager&nbsp;...Virtus Investment Partners, Inc.  Market Cap At $639.44M - Equities FocusVirtus Investment Partners, Inc.  Bearish Target AT $110 - Markets Daily"
p2
aS'Virtus Investment Partners Announces Self-Tender Offer For Up To $75.0 Million ... PR Newswire  - May 9, 2016 HARTFORD, Conn., May 9, 2016 /PRNewswire/ -- Virtus Investment Partners, Inc. , which operates a multi-manager asset management business, today announced that it expects to commence a &quot;modified Dutch auction&quot; tender offer for up to&nbsp;...Virtus Investment Partners  Announces $75M Common Stock Tender Offer - StreetInsider.com'
p3
aS'Virtus Investment Partners Inc.  Moves Higher on Volume Spike for March 15 Equities.com - Mar 15, 2017 Virtus Investment Partners Inc.  traded on unusually high volume on Mar. 15, as the stock gained 3.69% to close at $109.50.Stock Returns: Ellington Financial LLC  versus Virtus Investment ... - CML NewsVirtus Investment Partners, Inc.  200-day MA At $107.99 - Equities Focus'
p4
aS'Virtus Investment Partners priced public offerings of common stock and ... Seeking Alpha - Jan 27, 2017 Virtus Investment Partners  -1.7% priced its concurrent underwritten public offerings of 910,000 shares at $110/share and 1M convertible preferred shares @ 7.25% at a liquidation preference of $100/share.'
p5
aS'Virtus Investment Partners, Inc.  Valuation in Focus Business Review - Mar 18, 2017 Virtus Investment Partners, Inc.  has an ERP5 rank of 8122. The ERP5 Rank is an investment tool that analysts use to discover undervalued companies.'
p6
aS'Virtus Investment Partners, Inc.  Stock ABR At 3.5 Markets Daily - 12 hours ago Market experts outlook on Virtus Investment Partners, Inc.  equity is positive. As of 2017-03-19, the stock ABR is 3.5 in 1-5 range.Broker Outlook For The Week Ahead Virtus Investment Partners, Inc.  - Fiscal Standard'
p7
aS'Traders Take Note: Virtus Investment Partners Inc  Stock Has ... CML News - Mar 17, 2017 Take Note: Virtus Investment Partners Inc  has hit some technical weakness in its momentum, and while it has not broken down all the way through support -- watch the key levels that we discuss below and further, watch the stochastics and&nbsp;...'
p8
aS"Lightyear Capital LLC Announces Sale of RidgeWorth Investments to Virtus ... Business Wire  - Dec 16, 2016 NEW YORK----Investment funds affiliated with Lightyear Capital LLC , a New York-based private equity firm focused on financial services investing, today announced a definitive agreement to sell RidgeWorth Holdings LLC, the&nbsp;...Atlanta's RidgeWorth Investments being bought for $472 million - Atlanta Business Chronicle"
p9
aS"Newfleet Asset Management Launches New Actively Managed ETF PR Newswire  - Dec 14, 2016 About Newfleet Asset Management Newfleet Asset Management, an affiliated manager of Virtus Investment Partners, provides comprehensive fixed income portfolio management, including multi-sector, enhanced core, and core strategies, in addition to&nbsp;...Virtus Launches New Active Bond ETF Under Newfleet Banner - Barron's "
p10
a.