(lp0
S'VSB Bancorp, Inc. Announces 38th Consecutive Cash Dividend Yahoo Finance - 8 hours ago STATEN ISLAND, NY-- - VSB Bancorp, Inc. , the holding company for Victory State Bank, announced today that its Board of Directors has declared a quarterly cash dividend of $0.08 per share payable on April 3,&nbsp;...'
p1
aS"Staten Island-based VSB Bancorp gets top billing in Bank Director magazine SILive.com - Mar 15, 2012 VSB Bancorp, Inc., the one-bank holding company for Victory State Bank, was 28th on the industry publication's &quot;Nifty 50&quot; list."
p2
aS'The stunning payday of Staten Island bank directors Staten Island Advance - SILive.com - Jul 13, 2008 Island builder Bruno Savo, for example, took home $15,900 in fees for his role on the board of VSB Bancorp, Inc., the holding company for Victory State Bank.'
p3
aS"Staten Island's last community bank, Victory State Bank, determined to thrive ... SILive.com - Dec 23, 2013 One such action took place Sunday when VSB Bancorp Inc., delisted its stock from the NASDAQ global market. The bank will instead use OTCQB Marketplace, a listing service specifically for banks with revenues and assets of $1 billion or less, said Branca."
p4
aS"Largest shareholder faults Staten Island's Victory State Bank; executives ... SILive.com - May 2, 2013 Corn owns a 9 percent stake in VSB Bancorp Inc., which is the holding company for the largest bank by market capitalization on the NASDAQ stock exchange."
p5
aS'OTC Markets Group Announces the 2016 OTCQX Best 50 PR Newswire  - Feb 17, 2016 NEW YORK, Feb. 17, 2016 /PRNewswire/ -- OTC Markets Group Inc. , operator of financial markets for 10,000 U.S.'
p6
aS'Are Yadkin Bank and VantageSouth Bank talking merger? Charlotte Business Journal  - Nov 6, 2013 Two North Carolina banks are considering a deal to create the largest community bank in the state, according to multiple sources with knowledge of the talks.'
p7
aS"Consumer Payments Country Snapshot: Sweden 2016 satPRnews  - Jan 12, 2017 Sweden has the potential to become the world's first cashless society. The use of cash is declining quickly in Sweden and over half of all bank branches no longer deal with cash-based transactions."
p8
aS'Turquoise Hill to announce fourth quarter and full year 2016 financial results ... MilTech - Mar 30, 2015 Post navigation. Previous PostPrevious UPDATE: Hunter Family Trust Early Warning Report - betterU Education Corp. Next PostNext VSB Bancorp, Inc. Announces 38th Consecutive Cash Dividend&nbsp;...'
p9
aS"Toned In Ten Review - Can Erin Nielsen Help Women Slim Down and Look Younger? StreetInsider.com - May 19, 2016 You May Also Be Interested In. Shepherd's Diet System Review - Recent Report on Kristina Wilds Program Released &middot; VSB Bancorp, Inc. Announces 38th Consecutive Cash Dividend &middot; Eighty-Seven Organizations Call on Congress to Protect Medicaid."
p10
a.