(lp0
S'Workday, Inc. Ends the Fiscal Year Strong Motley Fool - Feb 28, 2017 Workday Inc.  released solid fiscal fourth-quarter 2017 results Monday after the market closed, punctuated by accelerated subscription revenue growth and record overall sales.Hot Stock to watch today: Workday Inc  - FX Daily ReportTaking a Look at the Data Behind Workday, Inc.  - StockNewsJournal'
p1
aS'Workday Inc Risk Points versus Technology CML News - 3 hours ago This is a scatter plot analysis of the critical risk points from the option market for Workday Inc  compared to its own past and the Technology ETF.'
p2
aS'Insider Trading Activity Workday Inc   insider Sold 37500 shares ... Market Exclusive - Mar 17, 2017 On 4/10/2013 Scott D Sandell, Director, sold 10,396 with an average share price of $58.27 per share and the total transaction amounting to $605,774.92.'
p3
aS"George J. Still, Jr. Sells 20000 Shares of Workday Inc  Stock Chaffey Breeze - Mar 18, 2017 Workday logo Workday Inc  Director George J. Still, Jr. sold 20,000 shares of the business's stock in a transaction dated Tuesday, March 14th.How has Workday, Inc. performed recently? - The Daily LeicesterWorkday Inc  is Initiated by BofA/Merrill to Buy - Highland Mirror"
p4
aS'Workday Inc  Insider James Bozzini Sells 37500 Shares Chaffey Breeze - Mar 17, 2017 Workday logo Workday Inc  insider James Bozzini sold 37,500 shares of the stock in a transaction that occurred on Wednesday, March 15th.Workday, Inc.  Recent Ownership Changes - Post AnalystWorkday Inc  Receives $88.16 Consensus Price Target from Analysts - BNB Daily '
p5
aS'Top Analyst Upgrades and Downgrades: AMD, FireEye, Netflix, Shake Shack, Snap ... 24/7 Wall St. - 17 hours ago Workday Inc.  was started with a Buy rating and assigned a $96 price target  at Merrill Lynch.'
p6
aS'Workday, Inc.  Valuation By The Numbers Business Review - Mar 18, 2017 Workday, Inc.  has an ERP5 rank of 15991. The ERP5 Rank is an investment tool that analysts use to discover undervalued companies.'
p7
aS'Workday Inc  Heffx Trading Outlook Live Trading News - Feb 28, 2017 During the past 10 bars, there have been 7 white candles and 3 black candles for a net of 4 white candles. During the past 50 bars, there have been 29 white candles and 21 black candles for a net of 8 white candles.'
p8
aS"Workday Inc  Receives $88.16 Average Price Target from Brokerages Chaffey Breeze - Mar 13, 2017 Workday logo Workday Inc  has been assigned a consensus rating of Hold from the thirty-eight research firms that are presently covering the company.Workday, Inc.  loses confidence of 52 hedge fund managers - Post AnalystEarnings Clues on Workday, Inc. , Biogen Inc.  Analyst's Predictions - StockNewsJournal"
p9
aS'Form 4 Workday, Inc. For: Mar 15 Filed by: PEEK MARK S StreetInsider.com - Mar 18, 2017 The Reporting Person undertakes to provide to Workday, Inc., any security holder of Workday, Inc., or the staff of the Securities and Exchange Commission, upon request, full information regarding the number of shares sold at each separate price within ...'
p10
a.