(lp0
S"Why Shares of WisdomTree Investments Are Down 10% Today Motley Fool - Feb 3, 2017 Shares of WisdomTree Investments, Inc.  are down about 10% as of 2:30 p.m. EST as investors show their disappointment with the company's fourth-quarter earnings and outlook for 2017.WisdomTree Investments  Releases Earnings Results, Misses Expectations ... - Highland Mirror"
p1
aS"The WisdomTree Investments, Inc.  CEO Buys $895454.94 in Stock Petro Global News 24 - 5 hours ago WisdomTree Investments, Inc.  CEO Jonathan L. Steinberg purchased 97,971 shares of the firm's stock in a transaction that occurred on Thursday, March 16th.Goldman Sachs Group Inc Boosts WisdomTree Investments, Inc.  Price ... - BNB Daily Jonathan L. Steinberg Buys 97971 Shares of WisdomTree Investments, Inc. (WETF ... - The Cerbat Gem"
p2
aS'Investor Review: Focusing in on Shares of WisdomTree Investments Inc  Davidson Register - 7 hours ago Active traders have a wide variety of technical indicators at their disposal for completing technical stock analysis. Presently, the 14-day ATR for WisdomTree Investments Inc  is spotted at 0.31. First developed by J. Welles Wilder, the ATR may ...'
p3
aS'WisdomTree Investments, Inc.  Downgraded to Sell at Zacks Investment ... Chaffey Breeze - Mar 16, 2017 Zacks Investment Research lowered shares of WisdomTree Investments, Inc.  from a hold rating to a sell rating in a report issued on Wednesday.WisdomTree Investments, Inc.  Given New $8.00 Price Target at Goldman ... - The Cerbat GemThe WisdomTree Investments, Inc.  PT Raised to $8.00 at Goldman Sachs ... - Petro Global News 24'
p4
aS'Stocks Trending Alert SunTrust Banks, Inc. , WisdomTree Investments ... Daily News Journal - 14 hours ago On Friday, SunTrust Banks, Inc.  stock opened its trade at $58.41 and after floating in a range of $57.62 to $58.57, settled at $57.71.'
p5
aS'Analysts Near-Term outlook: WisdomTree Investments, Inc. , NeoPhotonics ... The USA Commerce - Mar 17, 2017 Presently WisdomTree Investments, Inc.  stock have an ABR of 2.88. This is built on a simplified 1 to 5 scale where 1 represents a Strong Buy and 5 a Strong Sell.'
p6
aS"WisdomTree brings zero ETF commissions to Japan Seeking Alpha - Feb 27, 2017 WisdomTree Japan  is partnering with Monex Securities to offer its U.S. ETFs through Japan's first commission-free program, Overseas ETFs with Zero Commissions on Transactions."
p7
aS'WisdomTree Investments, Inc.  ERP5  A Look at Valuation Business Review - Mar 17, 2017 WisdomTree Investments, Inc.  has an ERP5 rank of 9122. The ERP5 Rank is an investment tool that analysts use to discover undervalued companies.'
p8
aS'WisdomTree Investments, Inc.  Sees Large Growth in Short Interest Chaffey Breeze - Mar 8, 2017 WisdomTree Investments logo WisdomTree Investments, Inc.  saw a significant growth in short interest in the month of February.Active Volume Stock: WisdomTree Investments, Inc.  - HugoPressWhich analysts are covering WisdomTree Investments, Inc. ? - Post Analyst'
p9
aS"Buy, Sell or Hold? Analysts Approach: WisdomTree Investments, Inc. (WETF ... The USA Commerce - Mar 15, 2017 Shares of WisdomTree Investments, Inc.  surged 0.78% to $9.09. During the trading on 03/14/2017, Company's stock ranged from $8.88 to $9.11."
p10
a.