(lp0
S'Anthem Sought Changes to Obamacare Replacement in Trump Meeting Bloomberg - Mar 15, 2017 Health insurer Anthem Inc. sought changes to the Republican replacement plan for the Affordable Care Act when its chief executive officer talked with President Donald Trump on Tuesday.'
p1
aS'Anthem, Inc.  Ex-Dividend Date Scheduled for March 08, 2017 Nasdaq - Mar 7, 2017 Anthem, Inc.  will begin trading ex-dividend on March 08, 2017. A cash dividend payment of $0.65 per share is scheduled to be paid on March 24, 2017.'
p2
aS"Trump tells Anthem, other health insurers to expect 'something special' Indianapolis Business Journal - Feb 27, 2017 CEOs from firms including Indianapolis-based Anthem Inc., UnitedHealth Group Inc., Aetna Inc., Cigna Corp., Humana Inc., Independence Blue Cross, Kaiser Permanente and BlueCross BlueShield of North Carolina were listed as attending Monday's White&nbsp;...Trump seeks help of insurers to smooth Obamacare transition - eNCATrump Promises 'Something Special' on Health Care Before Speech - Bloomberg"
p3
aS'Anthem and Blue Crosses loom large in Obamacare talks Reuters - Feb 27, 2017 N), and Aetna Inc  pulled out of most of the government subsidized health insurance market. But now that the new Trump administration and Republican lawmakers control the future of healthcare, the industry is getting a new hearing.Health Insurers Said To Meet With Trump on Obamacare Replacement - BloombergHealth Insurers, Including Aetna And Cigna, To Meet With Trump On Obamacare Plans - Hartford Courant'
p4
aS'Insider Trading Activity Anthem Inc   SVP Sold 729 shares of Stock Market Exclusive - Mar 8, 2017 On 2/25/2013 George A Schaefer Jr, Director, sold 7,542 with an average share price of $62.12 per share and the total transaction amounting to $468,509.04.'
p5
aS'Insider Trading Activity Anthem Inc   EVP Sold 22936 shares of Stock Market Exclusive - Mar 4, 2017 Anthem, Inc. is a health benefit company. The Company offers a range of network-based managed care plans to large and small employer, individual, Medicaid and Medicare markets.'
p6
aS'The Vident Investment Advisory LLC Has $2690000 Stake in Anthem Inc  Petro Global News 24 - Mar 19, 2017 Vident Investment Advisory LLC increased its stake in Anthem Inc  by 8.1% during the fourth quarter, Holdings Channel reports.Projected EPS Of Anthem, Inc.  At $3.63 - Stock ObserverWhat Analysts Report Indicates About Anthem, Inc. ? - Transcript Daily'
p7
aS'Earnings According to Analysts for Anthem, Inc. ? Aiken Advocate - 11 hours ago Anthem, Inc.  has a current consensus EPS estimate for the quarter of $3.63 based on Street analyst predictions.'
p8
aS"Hospitals group to appeals court: Stop Anthem-Cigna merger BenefitsPro - 15 hours ago Anthem appealed the ruling on the merger, which would have created the largest insurer nationwide. In January, a different federal judge blocked Aetna Inc.'s proposed $37 billion merger with Humana, Inc. For their part, Anthem and Cigna, like other ..."
p9
aS"Reliable stocks in today's share market: Anthem, Inc.  The News Journal - 4 hours ago The market cap of 44487.22 for Anthem, Inc. in today's market indicated its current strength, making the company's shares a lucrative one."
p10
a.