(lp0
S'DASAN Zhone Solutions Inc  Stock Gaining Upward Momentum Business Review - 14 hours ago DASAN Zhone Solutions Inc  shares are showing positive momentum over the past week as the stock has clocked in consecutive positive sessions over that time.'
p1
aS'Crunching the Numbers for DASAN Zhone Solutions Inc  Davidson Register - 10 hours ago Investors and Traders using technical analysis to study stocks may be looking at the ATR or Average True Range. Presently, DASAN Zhone Solutions Inc  has a 14-day ATR of 0.26. The Average True Range is an investor tool used to gauge stock&nbsp;...'
p2
aS"DASAN Zhone Solutions Reports Fourth Quarter 2016 Financial Results Yahoo Finance - Feb 21, 2017 Oakland, CA - February 21, 2017 - DASAN Zhone Solutions, Inc. , a global leader in fiber access transformation for enterprise and service provider networks, today reported its financial results for the quarter ended December&nbsp;...DASAN ZHONE SOLUTIONS, INC.  Files An 8-K Results of Operations ... - Market ExclusiveDASAN Zhone Solutions'  CEO Yung Kim on Q4 2016 Results - Earnings Call ... - Seeking Alpha"
p3
aS"Zhone Technologies, DASAN Network Solutions complete merger to form DASAN ... LightWave Online - Sep 12, 2016 Zhone Technologies has completed its merger with DASAN Network Solutions, Inc. to create DASAN Zhone Solutions, Inc. .S. Korea's Dasan Networks acquires Nasdaq-listed Zhone Technologies - pulse"
p4
aS"DASAN Zhone Common Stock to Begin Trading on Adjusted Basis on March 1 ... Nasdaq - Feb 28, 2017 Oakland, Calif. - Feb. 28, 2017- DASAN Zhone Solutions, Inc. , a global leader in fiber access transformation for enterprise and service provider networks, today announced that the previously announced reverse stock split of the company's&nbsp;...DASAN Zhone Solutions Inc - Receive News &amp; Ratings Daily - Chaffey BreezeRevenue Update on DASAN Zhone Solutions, Inc.  Common Stock - Energy Index"
p5
aS'Zhone Technologies Merges With DASAN Network Solutions To Become A Significant ... Seeking Alpha - Sep 13, 2016 The new company was named DASAN Zhone Solutions Inc. It started trading on September 12, 2016 under the symbol DZSI. DASAN Zhone expects to become a leading global provider of broadband access, ethernet switching, mobile backhaul, passive&nbsp;...'
p6
aS'Zhone Technologies Completes Acquisition of DASAN Network Solutions to Create ... Yahoo Finance - Sep 9, 2016 Oakland, Calif., Sept. 9, 2016 - DASAN Zhone Solutions, Inc.  , a global leader in fiber access transformation for enterprise and service provider networks, announced that its acquisition of ...'
p7
aS'Zhone Technologies, DASAN Network Solutions to merge LightWave Online - Apr 12, 2016 Zhone Technologies, Inc.  will merge with fellow access and enterprise systems supplier DASAN Network Solutions, Inc., a wholly owned subsidiary of DASAN Networks, Inc. The stock-based transaction will result in DASAN Networks&nbsp;...Zhone Tech  Enters Agreement to Acquire Dasan Network Solutions - StreetInsider.com'
p8
aS'DASAN Network Solutions to Merge with US-based Network Equipment Provider BusinessKorea - Apr 27, 2016 At a recent press conference in Yeouido, Seoul, DASAN Network Solutions Inc., a wholly owned subsidiary of DASAN Networks Inc. said that it has decided on a merger and acquisition  involving the Nasdaq-listed Zhone Technologies Inc. The M&amp;A&nbsp;...'
p9
aS"The Equities Analysts Offer Predictions for DASAN Zhone Solutions Inc's Q1 ... Petro Global News 24 - Mar 14, 2017 DASAN Zhone Solutions Inc  - Research analysts at L.A. Davis and Associates issued their Q1 2017 earnings per share  estimates for DASAN Zhone Solutions in a research report issued on Tuesday."
p10
a.