(lp0
S"Zimmer Biomet Showcases New Product Innovation, Novel Digital Health Offering ... PR Newswire  - Mar 14, 2017 WARSAW, Ind., March 14, 2017 /PRNewswire/ -- Zimmer Biomet Holdings, Inc. , a global leader in musculoskeletal healthcare, today announced plans to highlight its latest commercial offerings and preview its next generation of&nbsp;...Analyst's Proposition on Automatic Data Processing, Inc. , Zimmer Biomet ... - The USA Commerce"
p1
aS'Zimmer Biomet Holdings to Present at the Cowen and Company 37th Annual Health ... PR Newswire  - Feb 24, 2017 WARSAW, Ind., Feb. 24, 2017 /PRNewswire/ -- Zimmer Biomet Holdings, Inc. , a global leader in musculoskeletal healthcare, will present at the Cowen and Company 37th Annual Health Care Conference at the Boston Marriott Copley&nbsp;...Large Buying Action and Inflow of Money Witnessed in Zimmer Biomet Holdings ... - Energy IndexWhat Analysts are Predicting For Zimmer Biomet Holdings, Inc. , Dover ... - The USA Commerce'
p2
aS'Stock Technicals in Spotlight: Zimmer Biomet Holdings, Inc.  Rives Journal - 10 hours ago Zimmer Biomet Holdings, Inc.  currently has an FCF quality score of 2.761892. The free quality score helps gauge the stability of free cash flow.'
p3
aS"Analytical Guide for AmerisourceBergen Corporation , Zimmer Biomet ... The USA Commerce - 18 hours ago Shares of AmerisourceBergen Corporation  dropped -0.53% to $87.53. During the trading on 03/17/2017, Company's stock ranged from $86.88 to $88.33.Stock Price of Zimmer Biomet Holdings, Inc.  Increases 1.32% - Highland MirrorSuccessful Earnings Option Trading: Zimmer Biomet Holdings Inc  - CML News"
p4
aS"Zimmer Biomet Awarded IAIR Regional Company of the Year for Leadership Yahoo Finance - Mar 11, 2017 SINGAPORE, March 11, 2017 /PRNewswire/ -- Zimmer Biomet Holdings, Inc. , a global leader in musculoskeletal healthcare, today announced that the Company's Asia Pacific region was awarded the prestigious IAIR Regional Company&nbsp;...Wilbanks Smith &amp; Thomas Asset Management LLC Sells shares of Zimmer Biomet ... - Petro Global News 24The Zimmer Biomet Holdings, Inc.  Shares Sold by Jarislowsky Fraser Ltd - DailyQuint"
p5
aS'UnitedHealth Group Inc  &amp; Zimmer Biomet Holdings Inc (NYSE:ZBH ... Daily News Journal - 17 hours ago On Friday, Shares of UnitedHealth Group Inc  lost -0.93% to $169.70. The share price is trading in a range of $169.59 - 171.54.'
p6
aS"Sell-Side Analyst's Predictions: AmerisourceBergen Corporation , Zimmer ... The USA Commerce - Mar 10, 2017 Shares of AmerisourceBergen Corporation  dropped -0.53% to $88.61. During the trading on 03/09/2017, Company's stock ranged from $88.08 to $89.40."
p7
aS'Hot Stocks Among Investors: Illinois Tool Works Inc. , Zimmer Biomet ... Post Analyst - Mar 16, 2017 Turning to Zimmer Biomet Holdings, Inc. , its shares were trading at $119.65 a gain of $0.97, on the trading floor.'
p8
aS"Royal Bank of Canada Reiterates Buy Rating for Zimmer Biomet Holdings Inc  BNB Daily  - Mar 16, 2017 Zimmer Biomet Holdings logo Zimmer Biomet Holdings Inc 's stock had its buy rating reiterated by analysts at Royal Bank of Canada in a research report issued to clients and investors on Tuesday."
p9
aS'Norges Bank Invests $234271000 in Zimmer Biomet Holdings, Inc.  The Cerbat Gem - Mar 7, 2017 Zimmer Biomet Holdings logo Norges Bank acquired a new stake in shares of Zimmer Biomet Holdings, Inc.  during the fourth quarter, according to its most recent filing with the Securities and Exchange Commission.What the Sell-side Suggesting for Zimmer Biomet Holdings Inc , Zions ... - Rives JournalLarge Outflow of Money Witnessed in Zimmer Biomet Holdings, Inc. - Highland Mirror'
p10
a.