(lp0
S'The Worst Mistakes Abiomed, Inc. Investors Can Make Right Now Motley Fool - Apr 5, 2016 Lately, Abiomed  investors have seen their shares bounce around like a kid on a trampoline, mainly because the company is at an unpredictable crossroads.'
p1
aS"How Big Is the St. Jude Medical Threat to Abiomed, Inc. Stock? Motley Fool - Apr 13, 2016 During Abiomed's third quarter, which ended Dec. 31, U.S. patient utilization of Abiomed's tiny heart pumps soared 45% over the same period the previous year."
p2
aS'Read This Before You Sell Abiomed, Inc. Stock Motley Fool - Mar 30, 2016 Over the past five years, Abiomed  shareholders watched with glee as their investment grew more than 600%, as of last summer.'
p3
aS"Insider Trading Activity ABIOMED, Inc.   VP Sold 10000 shares of ... Market Exclusive - Mar 22, 2017 Andrew J Greenfield , VP of ABIOMED, Inc.  reportedly Sold 10,000 shares of the company's stock at an average price of 124 for a total transaction amount of $1,240,000.00 SEC Form.Insider Trading at ABIOMED Inc.? - BBNSABIOMED, Inc.  Reports Consolidated EPS Of $0.3553 - Equities Focus"
p4
aS"Abiomed: Clear Path To Growth, Shares Remain Substantially Undervalued Seeking Alpha - Jun 2, 2016 ABIOMED's shares are up heavily in the past two years, but two issues have weighed on the stock recently. SHIELD II study puts the company's devices head-to-head against St. Jude Medical, a larger entity."
p5
aS'Abiomed: Excellent Recent Results, But Stay Cautious Seeking Alpha - Oct 3, 2016 Abiomed  has had a rather successful run since my initial coverage back in early June, with shares up 25% over the past four months.'
p6
aS"First-Ever Presentation on Abiomed's Impella Quality  Assurance Program ... GlobeNewswire  - Mar 19, 2017 First-Ever Presentation on Abiomed's Impella Quality  Assurance Program and Importance of Treatment Protocols to Improve Patient Survival and Heart Recovery at the 2017 American College of Cardiology Scientific Session .... Based in Danvers ..."
p7
aS'ABIOMED, Inc.  VP Sells $1240000.00 in Stock Petro Global News 24 - Mar 21, 2017 ABIOMED, Inc.  VP Andrew J. Greenfield sold 10,000 shares of the stock in a transaction dated Friday, March 17th.ABIOMED, Inc.  VP Andrew J. Greenfield Sells 10000 Shares - Sports PerspectivesIs ABIOMED, Inc.  a Long Term Growth Play? - Aiken Advocate'
p8
aS'Abiomed - Great Business, Great Patient Outcomes, Great Investment Opportunity? Seeking Alpha - Dec 29, 2016 Abiomed has developed a great solution for heart products, making a real change for patients and long term investors. While the future looks bright, it can be questioned if too much good news is priced in after shares have risen a factor of 5 times in ...'
p9
aS"Why Abiomed Is Falling 10.2% Today Motley Fool - Oct 27, 2016 Overall, Abiomed has been one of healthcare's top performing stocks, so an argument could be made that it was priced for perfection."
p10
a.