(lp0
S'Acorn Energy Inc. MarketWatch - Dec 22, 2009 Check out the returns on our 8 Lazy Portfolios that are made up of low-cost buy-and-hold index funds.  How to create your own Lazy Portfolio.'
p1
aS'Acorn Energy Slimming Down Puts Company In The Right Direction Seeking Alpha - Feb 6, 2017 Recently partnership with Rafael Advanced Defense Systems for the DSIT subsidiary frees up major Capital for Acorn Energy. GridSense subsidiary was sold to Franklin Fueling System for $1 million.'
p2
aS'Acorn Energy Completes Sale of Its GridSense Subsidiary Assets to Franklin ... Marketwired  - Jul 12, 2016 WILMINGTON, DE-- - Acorn Energy, Inc.  today announced it has completed the sale of the assets of its GridSense subsidiary to Franklin Electric Co.'
p3
aS'Acorn Energy Suspends Operations at US Seismic Systems PR Newswire  - Mar 18, 2015 WILMINGTON, Del., March 18, 2015 /PRNewswire/ -- Acorn Energy , an energy technology holding company today announced that it has stopped funding its majority-owned US Seismic Systems  subsidiary and that USSI has&nbsp;...'
p4
aS'Checking on Shares of Acorn Energy, Inc.  Searcy News - 5 hours ago Studying the immense amount of data regarding public companies can be a tough job. Many sharp investors will approach the equity markets from multiple angles.'
p5
aS'Acorn Energy Common Stock to Begin Trading on OTCQB PR Newswire  - Jul 21, 2015 WILMINGTON, Del., July 21, 2015 /PRNewswire/ -- Acorn Energy, Inc. , an energy technology holding company, today announced that it expects its common stock will begin trading on the OTCQB trading platform operated by OTC Markets&nbsp;...'
p6
aS'GridSense, an Acorn Energy Company, Announces the sale of the BushingIQ ... PR Newswire  - Dec 19, 2013 SACRAMENTO, Calif. and ST. JOHNSBURY, Vt., Dec. 19, 2013 /PRNewswire/ -- GridSense Inc., an Acorn Energy company , announced today the completion of the sale of its BushingIQ product line to WEIDMANN Diagnostic Solutions Inc.'
p7
aS'Sell-Side is Saying Buy These Stocks: Acorn Energy, Inc.  Kindred ... Rives Journal - Mar 21, 2017 Sell-side analysts are offering a consensus Buy rating on shares of Acorn Energy, Inc. . Using the following ratings scale: 1.0 Strong Buy, 2.0 Buy, 3.0 Hold, 4.0 Sell and 5.0 Strong Sell, analysts have an average recommendation of 2.00.'
p8
aS'Acorn Energy Partners Its DSIT Sonar Solutions Business With Leading Israeli ... Marketwired  - Apr 21, 2016 WILMINGTON, DE-- - Acorn Energy, Inc.  announced today that it has completed the previously announced sale of nearly 50% of its 79% fully diluted interest in its DSIT Solutions, Ltd.'
p9
aS'Why Acorn Energy  Stock Is Soaring Today TheStreet.com - Jun 3, 2014 &quot;We rate ACORN ENERGY INC  a SELL. This is driven by multiple weaknesses, which we believe should have a greater impact than any strengths, and could make it more difficult for investors to achieve positive results compared to most of the stocks&nbsp;...'
p10
a.