(lp0
S"Checking the Overall Picture for Archer-Daniels-Midland Company  StockNewsJournal - 14 hours ago Archer-Daniels-Midland Company  is an interesting player in the Consumer Goods space, with a focus on Farm Products.Archer-Daniels-Midland Company  Technicals Are Painting A Bleak Picture - USA Commerce DailyAnalyst's Proposition on Archer-Daniels-Midland Company , Analog Devices ... - The USA Commerce"
p1
aS"The Must-Know Technicals As They Stand For Archer-Daniels-Midland Company  NY Stock News - 19 hours ago Archer-Daniels-Midland Company  has presented a rich pool of technical data in recent sessions. These are the trends we've been tracking and how we feel they should be played in the current environment."
p2
aS"Archer Daniels Focuses on Strategic Growth: Should You Add? Nasdaq - Mar 16, 2017 Shares of Archer-Daniels-Midland Company ADM have outperformed both the Zacks categorized Agricultural Operations industry and the broader sector in the past one year.ADM China Expansion Targets Fish Food Demand  - InvestopediaArcher Daniels  Expands in China's Animal Feed Market - Yahoo Finance"
p3
aS"Analyst's Indicator Review for Zoetis Inc. , Archer-Daniels-Midland ... The USA Commerce - Mar 16, 2017 Shares of Zoetis Inc.  surged 1.61% to $54.28. During the trading on 03/15/2017, Company's stock ranged from $53.39 to $54.39."
p4
aS'Research Reports on Farm Products Equities -- Archer-Daniels-Midland, Bunge ... PR Newswire  - Mar 7, 2017 These products include fertilizers, sod, grains, and fruit and vegetable transplants. Pre-market, Stock-Callers.com shifts focus on these four stocks: Archer-Daniels-Midland Co. , Bunge Ltd , Adecoagro S.A. , and ...'
p5
aS'The Technicals For Archer-Daniels-Midland Company , An Important Analysis NY Stock News - Mar 21, 2017 The technicals for Archer-Daniels-Midland Company  have taken shape, and with them a comprehensive picture has emerged.'
p6
aS'Between The Numbers: Parsley Energy, Inc. , Archer-Daniels-Midland Company ... USA Commerce Daily - 20 hours ago Shares of Parsley Energy, Inc.  are making a strong comeback as they have jumped 50.45% since bottoming out at $21.01 on Mar. 24, 2016.'
p7
aS"Option Market: Archer-Daniels-Midland Company Risk Hits A Tumbling Low CML News - Feb 24, 2017 We're going to look at a proprietary risk rating for the next 30-days built by Capital Market Laboratories  based on a large number of interactions of data points, many of which come directly from the option market for Archer-Daniels-Midland ...Taking a Fresh Look at Archer-Daniels-Midland Company  - StockNewsJournalADM brokerage arm shifts more trades onto computer screens - Reuters"
p8
aS"ARCHER-DANIELS-MIDLAND COMPANY  Files An 8-K Departure of Directors ... Market Exclusive - Feb 24, 2017  Annual grants of equity awards approved by the Compensation Committee  of the Board of Directors of Archer-Daniels-Midland Company  under the terms of the Company's 2009 Incentive Compensation Plan &nbsp;..."
p9
aS"Buy, Sell or Hold? Analysts Approach: Archer-Daniels-Midland Company (ADM ... The USA Commerce - Mar 6, 2017 Shares of Archer-Daniels-Midland Company  dropped -0.62% to $45.20. During the trading on 03/03/2017, Company's stock ranged from $45.04 to $45.72.Lookout for Price Target? United Parcel Service, Inc. , Archer-Daniels ... - StockNewsJournalThe Top Three Holders Of Archer-Daniels-Midland Company  - Post Analyst"
p10
a.