(lp0
S'Addus HomeCare Appoints Brad Bickham to Post of Executive Vice President ... PR Newswire  - Jan 4, 2017 DOWNERS GROVE, Ill., Jan. 4, 2017 /PRNewswire/ -- Addus HomeCare Corporation , a comprehensive provider of personal care services provided in the home, today announced the hiring of W. Bradley Bickham as Executive Vice&nbsp;...'
p1
aS'Addus HomeCare Corporation  Plunges 5.16% on March 21 Equities.com - Mar 21, 2017 Addus HomeCare Corporation  had a rough trading day for Tuesday March 21 as shares tumbled 5.16%, or a loss of $-1.65 per share, to close at $30.30.Addus HomeCare Corporation  Stock ABR At 2 - Markets DailyInsider Selling: Addus Homecare Co.  EVP Sells $22177.75 in Stock - Chaffey Breeze'
p2
aS'Addus Homecare Announces Fourth Quarter and Year-End 2016 Earnings Release and ... GlobeNewswire  - Feb 13, 2017 Downers Grove, Ill., Feb. 13, 2017  -- Addus HomeCare Corporation , a provider of comprehensive home care services, announced today that it will release earnings for the fourth quarter and year ended December 31,&nbsp;...'
p3
aS'Addus HomeCare To Participate In Oppenheimer 27th Annual Healthcare Conference PR Newswire  - Mar 14, 2017 DOWNERS GROVE, Ill., March 14, 2017 /PRNewswire/ -- Addus HomeCare Corporation , a provider of comprehensive home care services, today announced that Dirk Allison, President and Chief Executive Officer, and Brian Poff, Executive&nbsp;...Addus Homecare Co.  EVP Darby Anderson Sells 8000 Shares - Chaffey Breeze'
p4
aS'Risk Malaise Alert in Option Market: Addus HomeCare Corporation Implied Price ... CML News - Mar 19, 2017 Before we dive into any analysis we simply note that Addus HomeCare Corporation  risk is actually priced pretty low by the option market as of right now.'
p5
aS"Addus HomeCare  to Sell 3 Illinois Centers Serving 350+ Adults to Active Day StreetInsider.com - Mar 8, 2017 Addus HomeCare Corporation  agrees to sell three centers in Illinois to Active Day . The centers are located in Homewood, Moline and Marion, IL and are each the leading and longest established centers in their respective communities&nbsp;...Addus HomeCare Corporation  Moves Lower on Volume Spike for March 06 - Equities.comAddus HomeCare's  CEO Dirk Allison on Q4 2016 Results - Earnings Call ... - Seeking Alpha"
p6
aS'Sell-side Analyst PT &amp; Stock Updates on Addus HomeCare Corporation (NASDAQ ... Sherwood Daily - 15 hours ago Addus HomeCare Corporation  shares have been labeled a top pick by Beta Research as it meets the A+ criteria outlined by the firm.'
p7
aS'Addus HomeCare Completes Acquisition Of South Shore Home Health Services In ... PR Newswire  - Feb 8, 2016 8, 2016 /PRNewswire/ -- Addus HomeCare Corporation , a comprehensive provider of home and community-based services, today announced that it has closed the previously announced acquisition of South Shore Home Health Services,&nbsp;...'
p8
aS'Addus HomeCare Hires Zeke Zoccoli As Chief Information Officer PR Newswire  - Feb 18, 2016 18, 2016 /PRNewswire/ -- Addus HomeCare Corporation , a comprehensive provider of home and community-based services, today announced the hiring of James &quot;Zeke&quot; Zoccoli as Chief Information Officer, effective February 25, 2016.'
p9
aS'Addus HomeCare Hires Brian Poff As Executive Vice President - Chief Financial ... PR Newswire  - May 9, 2016 DOWNERS GROVE, Ill., May 9, 2016 /PRNewswire/ -- Addus HomeCare Corporation , a provider of comprehensive home and community based personal care services, today announced that Brian W. Poff has been hired as Executive Vice&nbsp;...Addus Names New CFO in Latest Executive Shakeup - Home Health Care News'
p10
a.