(lp0
S"Agilysys, Inc.  Appoints Ramesh Srinivasan as CEO StreetInsider.com - Dec 12, 2016 Agilysys, Inc.  today announced the appointment of Ramesh Srinivasan as the Company's new President and Chief Executive Officer, effective January 3, 2017.Agilysys Appoints Ramesh Srinivasan President and CEO - Business Wire "
p1
aS'Agilysys to Showcase Its Industry-Leading Product Portfolio at HITEC Amsterdam Hospitality Net - Mar 21, 2017 LONDON -- Agilysys, Inc. , a global provider of next-generation hospitality software solutions and services, today announced that the company will showcase its product portfolio at HITEC Amsterdam, demonstrating its leadership position in&nbsp;...'
p2
aS"Agilysys, Inc.  Plans CEO Search; CFO Seebeck Resigns StreetInsider.com - Oct 26, 2016 Agilysys, Inc.  announced that it has initiated a search process to identify a successor CEO to lead the next stage of the Company's growth."
p3
aS'Agilysys Inc.  Moves Higher on Volume Spike for February 21 Equities.com - Feb 21, 2017 Agilysys Inc.  traded on unusually high volume on Feb. 21, as the stock gained 1.25% to close at $9.70. On the day, Agilysys Inc. saw 82,558 shares trade hands on 843 trades. Considering that the stock averages only a daily volume of 52,142 ...Insider Buying: Agilysys, Inc.  CEO Acquires $577200.00 in Stock - Community Financial News'
p4
aS"Agilysys, Inc. : How technical indicators have come out? Post Analyst - Mar 20, 2017 Agilysys, Inc.  traded at an unexpectedly high level on 03/17/2017 when the stock experienced a 5.76% gain to a closing price of $9.73.Fundamentals in Focus for Agilysys, Inc.  - The Finance RegistrarTop Positive Mover of Friday: Agilysys, Inc.'s  stock price finalizes at ... - WsNews 4investors"
p5
aS'Ameranth Files Lawsuit against Agilysys Inc. for Willfully Infringing its 21st ... PR Newswire  - May 15, 2012 SAN DIEGO, May 15, 2012 /PRNewswire/ -- Ameranth, Inc. announced today that it has filed a patent infringement lawsuit in the United States District Court for the Southern District of California in San Diego against defendant Agilysys Inc. Agilysys now ...'
p6
aS'Agilysys Visual One Hosted PMS Delivers Predictable IT Costs, Accelerated ROI ... Hospitality Net - Feb 8, 2017 February 8, 2017 - Agilysys, Inc. , a leading global provider of next-generation hospitality software solutions and services, today announced that Visual One PMS, its award-winning comprehensive property management system, has&nbsp;...'
p7
aS'The Agilysys, Inc.  Stake Maintained by Discovery Group I, LLC Petro Global News 24 - Mar 20, 2017 disclosed that they own a 7.8% stake in Agilysys, Inc.  in a Form 13D/A disclosure that was filed with the SEC on Monday, March 20th.'
p8
aS'Agilysys, Inc.  Upgraded to Buy by Sidoti BNB Daily  - Feb 13, 2017 Agilysys, Inc. logo Sidoti upgraded shares of Agilysys, Inc.  from a neutral rating to a buy rating in a research report report published on Monday.Agilysys, Inc.  Upgraded to Buy at Sidoti - The Cerbat GemSidoti issued a report on Agilysys, Inc. , stepping up its target ... - Breaking Finance News'
p9
aS'New Release of Agilysys Visual One PMS Delivers EMV Readiness, Enhanced ... Hospitality Net - Dec 28, 2016 Agilysys, Inc. , a leading global provider of next-generation hospitality software solutions and services, today announced general availability of Visual One PMS v8.7.'
p10
a.