(lp0
S'Investor Focus on Shares of Allied Healthcare Products Inc  Midway Monitor - 8 hours ago Traders are taking a second look at how shares of Allied Healthcare Products Inc  have been performing lately. A favorite tool among technical stock analysts is the moving average.Investor Notebook: Focusing in on Shares of Allied Healthcare Products Inc  - Rives Journal'
p1
aS'ALLIED HEALTHCARE PRODUCTS, INC.  Files An 8-K Material ... Market Exclusive - Dec 6, 2016 Allied Healthcare Products, Inc. manufactures a range of respiratory products used in the healthcare industry in a range of hospital and alternate site settings, including sub-acute care facilities, home healthcare and emergency medical care.'
p2
aS'Medical firm to undertake reverse stock split St. Louis Business Journal - Dec 6, 2016 Allied Healthcare stock closed at $1.28 a share Dec. 5. The company, which makes and sells respiratory products for use in the health care industry, posted a loss of $817,000 on sales of $8.5 million for the quarter ended Sept. 30. For its fiscal year ...'
p3
aS"Allied Healthcare Products gets Nasdaq warning St. Louis Business Journal - Oct 1, 2015 If Allied neither transfers its securities to the Nasdaq Capital Market nor regains compliance with the Nasdaq market value rule by March 28, 2016, Nasdaq will issue notice that Allied's shares are subject to delisting. The company then can appeal the ..."
p4
aS'Allied Healthcare gets another Nasdaq warning St. Louis Business Journal - Mar 1, 2016 St. Louis-based Allied Healthcare Products , led by President and CEO Earl Refsland, makes and markets respiratory products, including respiratory care products, medical gas equipment and emergency medical products.'
p5
aS'New York Appellate Court Rules Against Allied Healthcare Products in ... PR Newswire  - Apr 4, 2016 ST. LOUIS, April 4, 2016 /PRNewswire/ -- On March 31, 2016, the New York Supreme Court, Appellate Division, ruled against Allied Healthcare Products, Inc.   in ongoing litigation regarding covenants which Allied asserts entitle ...'
p6
aS'Checking on Shares of Allied Healthcare Products, Inc.  Searcy News - Mar 21, 2017 Allied Healthcare Products, Inc.  has a Value Composite Score of 51. Based on a scale from 0 to 100, a score closer to zero would signal an undervalued company and a higher score would represent an expensive or overvalued company.'
p7
aS"Allied Healthcare proposes stock split St. Louis Business Journal - Sep 28, 2016 Allied Healthcare Products Inc.'s board has proposed a reverse stock split in an effort to keep the company's stock trading on the Nasdaq market."
p8
aS"Most Volatile Mover of Friday: Allied Healthcare Products, Inc.'s  stock ... WsNews 4investors - Feb 13, 2017 Allied Healthcare Products, Inc.'s  stock price escalated 1.87% to finalize at $2.18 throughout previous buying and selling session."
p9
aS'Basic Consolidated EPS Of Allied Healthcare Products, Inc.  At ... Equities Focus - Mar 19, 2017 From the parent firm, Allied Healthcare Products, Inc.  received diluted EPS of $-0.5743 for the annual period settled 2016-06-30.'
p10
a.