(lp0
S'Align Technology Inc Risk Points versus Health Care CML News - 11 hours ago This is a scatter plot analysis of the critical risk points from the option market for Align Technology Inc  compared to its own past and the Health Care ETF.'
p1
aS'Align Technology Inc. Beats Q3 Expectations With Record Invisalign Volume Motley Fool - Nov 7, 2016 Align Technology appeared to execute well in the third quarter. Revenue and earnings increased even more than investors expected.Align Technology  Q3 2016 Results - Earnings Call Transcript - Seeking AlphaAlign Technology Inc : What does the future look like? - Simply Wall St'
p2
aS"Align Technology Reaches Major Milestone for the iTero Element Scanner With ... Yahoo Finance - Mar 21, 2017 SAN JOSE, CA and COLOGNE, GERMANY-- - Align Technology, Inc.  today announced that over one million scans have been submitted using the iTero Element scanner since it was introduced in 2015 at the world's&nbsp;...Align Technology Announces Seamless New Connection Between iTero Intraoral ... - Marketwired "
p3
aS'Align Technology Hits a 52-Week High on Solid Prospects Yahoo Finance - Mar 16, 2017 Share price of San Jose, CA-based Align Technology, Inc. ALGN reached a new 52-week high of $110.87 on Mar 15, eventually closing a bit lower at $110.31.'
p4
aS"International Sales Help Align Technology, Inc. in Q2 Motley Fool - Jul 29, 2016 Align Technology  shareholders had to smile at the company's first-quarter results. Driven in part by the solid numbers posted, Align's shares have been on a roll.Align Technology's  Joe Hogan on Q2 2016 Results - Earnings Call Transcript - Seeking AlphaAlign Technology to Supply Non-Invisalign Clear Aligners to SmileDirectClub in ... - Marketwired "
p5
aS"Align Technology Inc. Reports Record Revenue in Q4 Motley Fool - Jan 31, 2017 Align Technology  shareholders had plenty of reasons to be happy in 2016. The orthodontic-device maker's stock soared nearly 50% last year.Align Technology Announces Fourth Quarter and Year Ended 2016 Results - Yahoo FinanceAlign Technology Files Patent Infringement Lawsuit Against ClearCorrect and ... - Marketwired "
p6
aS"Revenue Approximations Analysis: Align Technology, Inc. , Caesars ... StockNewsJournal - 19 hours ago Investors who are keeping close eye on the stock of Align Technology, Inc.  established that the company was able to keep return on investment at 19.84 in the trailing twelve month while Reuters data showed that industry's average stands ..."
p7
aS"What are Analyst's Indicators for Vanda Pharmaceuticals Inc. , Align ... The USA Commerce - 19 hours ago Latest closing price was -1.95% below its 50-day moving average and -2.49% below its 200-day moving average. On 03/21/2017 close, Align Technology, Inc.  plummeted -1.92% to $111.06. The stock currently has a Market Cap of $8.92B."
p8
aS"Align Technology Partners with exocad Ten Links - 19 hours ago logo-aligntech SAN JOSE, CA and COLOGNE, Germany, Mar 22, 2017 - Align Technology, Inc. and exocad GmbH today announced a collaboration to seamlessly connect the iTero intraoral scanners and exocad Chairside CAD software.Align's iTero Hits 1 Billion Mark, Boosts Scanner Business - Zacks.com"
p9
aS"Align Technology, Inc.  Expected to Post FY2018 Earnings of $3.53 Per Share Chaffey Breeze - 12 hours ago Align Technology logo Align Technology, Inc.  - Stock analysts at Roth Capital issued their FY2018 EPS estimates for shares of Align Technology in a research note issued to investors on Tuesday.Healthcare Shares Need To Consider: United Therapeutics Corporation (UTHR ... - TWNInvestors Alert: Align Technology, Inc.'s  stock price is now Worth at ... - Hot Stocks Point"
p10
a.