(lp0
S'Why Is Applied Materials  Up 11% Since the Last Earnings Report? Yahoo Finance - Mar 21, 2017 A month has gone by since the last earnings report for Applied Materials, Inc. AMAT. Shares have added about 11% in that time frame, outperforming the market.Applied Materials, Inc. Posted losses of -2.5% in the Last Trade - Free ObserverApplied Materials Inc.  Dips 2.5% for March 21 - Equities.com'
p1
aS'Surging Earnings Estimates Signal Good News for Applied Materials  Yahoo Finance - Mar 17, 2017 Applied Materials, Inc. AMAT develops, manufactures, markets and services semiconductor wafer fabrication equipment that could be an interesting play for investors.Applied Materials, Inc.  Given Consensus Recommendation of Buy by Analysts - Chaffey Breeze'
p2
aS'Applied Materials, Inc.  Files An 8-K Submission of Matters to a ... Market Exclusive - Mar 10, 2017 ... chemical mechanical planarization, metrology and inspection, wafer packaging, and ion implantation; Applied Global Services, which provides integrated solutions to optimize equipment and fab performance and productivity; Display and Adjacent ...Applied Materials Announces Cash Dividend - GlobeNewswire 5 Things You Need to Know About Applied Materials - Motley Fool'
p3
aS'Applied Materials: My Favorite Cheap Stock Seeking Alpha - Mar 1, 2017 If you dig deeper, there are still some superior growth stocks that are trading at a reasonable price. The phrase &quot;cheap stock&quot; means different things to different people.'
p4
aS"Applied Materials  Hits 52-Week High on Strong Q1 Yahoo Finance - Mar 2, 2017 Shares of Applied Materials, Inc. AMAT hit a new 52-week high of $36.93 on Mar 2, eventually closing at $36.85. The stock returned 89.5% in the last one-year period and has added approximately 14.2% year to date.What are Analyst's Indicators for Best Buy Co., Inc. , Applied Materials ... - The USA Commerce"
p5
aS"New Technologies Are Eroding Applied Materials' NAND And Display Revenues Seeking Alpha - Feb 23, 2017 Applied Materials is facing a two-pronged attack on its entrenched PECVD thin film deposition technology in OLED displays and memory devices from Atomic Layer Deposition  technology."
p6
aS"Equity Focus: Looking at Shares of Applied Materials, Inc.  Sherwood Daily - 13 hours ago Applied Materials, Inc.  presently has a Piotroski F-Score of 8. Piotroski's F-Score uses nine tests based on company financial statements."
p7
aS"Analyst's Indicator Review for AbbVie Inc. , Applied Materials, Inc.  The USA Commerce - Mar 20, 2017 Shares of AbbVie Inc.  dropped -0.32% to $65.69. During the trading on 03/17/2017, Company's stock ranged from $65.50 to $66.09."
p8
aS'What Applied Materials, Inc.  Is Telling Investors Via Its Technical Chart NY Stock News - 11 hours ago Applied Materials, Inc.  has created a compelling message for traders in the most recent trading. That message has grown stronger as the technical chart setup has developed into a more composite picture for the stock.'
p9
aS"Form 4 APPLIED MATERIALS INC For: Mar 09 Filed by: POWELL DENNIS D StreetInsider.com - Mar 14, 2017 Find out which companies are about to raise their dividend well before the news hits the Street with StreetInsider.com's Dividend Insider Elite."
p10
a.