(lp0
S"AMERISAFE Announces Date of Annual Meeting of Shareholders and Record Date GlobeNewswire  - Mar 16, 2017 DERIDDER, La., March 16, 2017  -- AMERISAFE, Inc. , a specialty provider of hazardous workers' compensation insurance, today announced that the Company has set the date of the Company's 2017 annual meeting of&nbsp;...AQR Capital Management LLC Reduces Stake in Amerisafe, Inc.  - Chaffey Breeze"
p1
aS'Amerisafe: Undervalued Insurance Play Seeking Alpha - Oct 12, 2016 Since 2011, Amerisafe has grown after-tax profit  by 36% compounded annually to $73 million in 2015 and to $85 million over the last twelve months.'
p2
aS'Amerisafe, Inc.  Upgraded to Hold at Zacks Investment Research Chaffey Breeze - 10 hours ago Amerisafe logo Amerisafe, Inc.  was upgraded by Zacks Investment Research from a sell rating to a hold rating in a research note issued to investors on Wednesday.36056 Shares in Amerisafe, Inc.  Acquired by Russell Investments Group Ltd. - The Cerbat Gem'
p3
aS'Traders Take Note: Amerisafe Inc  Stock Drops, Weakness in ... CML News - 17 hours ago Take Note: Amerisafe Inc  has hit some technical weakness in its momentum, and while it has not broken down all the way through support -- watch the key levels that we discuss below and further, watch the stochastics and technical&nbsp;...'
p4
aS'Amerisafe Inc  Showing Positive Momentum Business Review - Mar 20, 2017 Amerisafe Inc  has ended in the black for consecutive sessions, indicating strong upward momentum. In taking a look at recent performance, we can see that shares have moved 3.59% over the past week, 2.63% over the past 4-weeks, 14.73% over the&nbsp;...'
p5
aS"AMERISAFE Announces Executive Promotions GlobeNewswire  - Feb 24, 2016 DERIDDER, La., Feb. 24, 2016  -- AMERISAFE, Inc. , a specialty provider of hazardous workers' compensation insurance, today announced that Kathryn H. Shirley has been promoted to Executive Vice President, General&nbsp;..."
p6
aS'Amerisafe  Q4 Earnings Meet, Revenues Miss Estimates Yahoo Finance - Feb 23, 2017 Amerisafe Inc. AMSF reported fourth-quarter 2016 operating earnings per share of $1.04, in line with the Zacks Consensus Estimate.AMERISAFE, INC.  Files An 8-K Results of Operations and Financial ... - Market Exclusive'
p7
aS"AMERISAFE Appoints Chief Financial Officer GlobeNewswire  - Aug 31, 2015 DERIDDER,La., Aug. 31, 2015  -- AMERISAFE, Inc.  a specialty provider of hazardous workers' compensation insurance, today announced that Neal Fuller will become Chief Financial Officer effective September 15, 2015&nbsp;..."
p8
aS"Insider Trading Activity Amerisafe, Inc.   CEO Sold 823 shares ... Market Exclusive - Mar 9, 2017 G. Janelle Frost , CEO of Amerisafe, Inc.  reportedly Sold 823 shares of the company's stock at an average price of 64.1 for a total transaction amount of $52,754.30 SEC Form.The Bayesian Capital Management LP Takes Position in Amerisafe, Inc.  - DailyQuint"
p9
aS"Janelle Frost Appointed Chief Executive Officer of AMERISAFE GlobeNewswire  - Mar 4, 2015 DERIDDER, La., March 4, 2015  -- AMERISAFE, Inc.  a specialty provider of hazardous workers' compensation insurance, today announced that G. Janelle Frost, the Company's President and Chief Operating Officer, has&nbsp;..."
p10
a.