(lp0
S"Traders Secrets on Halozyme Therapeutics, Inc. , Envision Healthcare ... StockNewsJournal - 16 hours ago Envision Healthcare Corporation , maintained return on investment for the last twelve months at 2.04, higher than what Reuters data shows regarding industry's average.Stock Returns: DaVita Inc  is Beating Envision Healthcare ... - CML NewsA Look at 2 Trending Stocks: Dillard's, Inc. , Envision Healthcare ... - Post Analyst"
p1
aS'Nashville health care company buys California firm Nashville Business Journal - Mar 7, 2017 Envision Healthcare Corp., the company that was formed late last year by the merger of Nashville-based AmSurg Corp. and Colorado-based Envision Healthcare Holdings Inc., has announced a deal to buy a California firm.Envision Healthcare Enters Definitive Agreement to Acquire Imaging Advantage - Yahoo FinanceEnvision Healthcare to Present at the Barclays Global Healthcare Conference on ... - Business Wire '
p2
aS'Envision Healthcare to Present at Oppenheimer 27 Business Wire  - Feb 22, 2017 NASHVILLE, Tenn. &amp; GREENWOOD VILLAGE, Colo.----Envision Healthcare Corporation  today announced that its management will present at the Oppenheimer 27th Annual Healthcare Conference on Tuesday, March 21,&nbsp;...'
p3
aS"Envision Healthcare  Q4 2016 Results - Earnings Call Transcript Seeking Alpha - Mar 1, 2017 Good day, everyone, and welcome to Envision Healthcare Corporation Fourth Quarter Conference Call. Today's call is being recorded and a replay will be available starting today through March 10, 2017.Envision Healthcare Reports 2016 Fourth Quarter and Full Year Financial Results - Yahoo Finance"
p4
aS'Simon Property Group  Reaches $164.25 52 Week Low, Envision Healthcare ... Herald KS - 15 hours ago The stock of Envision Healthcare Corp  earned Neutral rating by Mizuho on Wednesday, November 9. The stock of Envision Healthcare Corp  earned Overweight rating by Stephens on Monday, December 14. The firm&nbsp;...'
p5
aS"What are Analyst's Indicators for Envision Healthcare , Fidelity ... The USA Commerce - 16 hours ago Presently Envision Healthcare Corporation  stock have an ABR of 1.20. This is built on a simplified 1 to 5 scale where 1 represents a Strong Buy and 5 a Strong Sell."
p6
aS'Envision Healthcare to pick up Imaging Advantage FierceBiotech - Mar 8, 2017 Envision Healthcare has inked a deal to acquire Imaging Advantage, a move that will boost its presence in radiology physician services.'
p7
aS"Traders Secrets on Envision Healthcare Corporation , Chimera Investment ... StockNewsJournal - Mar 14, 2017 Investors who are keeping close eye on the stock of Envision Healthcare Corporation  established that the company was able to keep return on investment at 2.04 in the trailing twelve month while Reuters data showed that industry's average&nbsp;...Which insiders are selling Envision Healthcare Corporation ? - Post AnalystLarge Buying Action and Inflow of Money Witnessed in Envision Healthcare ... - Highland Mirror"
p8
aS"Trading Indicator Check on Envision Healthcare Corp  BVN - 6 hours ago Envision Healthcare Corp 's current 14-day RSI is 32.21, the 7-day is at 19.56, and the 3-day is resting at 4.46."
p9
aS"Breaking Down: Envision Healthcare Corporation  Stock Drop Below ... CML News - Mar 20, 2017 Envision Healthcare Corporation has a one bull  technical rating because it's trading below the 10 day, 50 day and 200 day simple moving averages while the 10-day moving average is below the 50-day moving average and the 50-day&nbsp;..."
p10
a.