(lp0
S'Anworth Mortgage Asset Corporation  Breaks into New 52-Week High on March ... Equities.com - Mar 20, 2017 Shares of Anworth Mortgage Asset Corporation  broke into a new 52-week high yesterday, hitting a peak of $5.56. Shares closed at $5.54 after opening at $5.55 for a move of 0%.'
p1
aS"Anworth Mortgage Asset Corporation's  stock price is Worth at $5.47 while ... Hot Stocks Point - 19 hours ago Anworth Mortgage Asset Corporation  ended its day with loss -1.26% and finalized at the price of $5.47. During its last trading session, Stock traded with the total exchanged volume of 0.64 million shares.The Raymond James Financial Services Advisors Inc. Continues to Hold Stake in ... - Petro Global News 24"
p2
aS'Anworth Mortgage Asset Corporation  Moves Higher on Volume Spike for ... Equities.com - Feb 23, 2017 Anworth Mortgage Asset Corporation  traded on unusually high volume on Feb. 23, as the stock gained 0.93% to close at $5.40.Stocks inside Traders Spotlight: Anworth Mortgage Asset Corporation (NYSE:ANH ... - TRA'
p3
aS'Anworth Mortgage Asset Corporation  Breaks into New 52-Week High on ... Equities.com - Feb 24, 2017 Shares of Anworth Mortgage Asset Corporation  broke into a new 52-week high yesterday, hitting a peak of $5.46. Shares closed at $5.41 after opening at $5.42 for a move of 0.19%.'
p4
aS"Anworth Goes On A Tear. You're Welcome. Seeking Alpha - Nov 23, 2016 ANH finally went on the tear I've been predicting for the last few months. This puts my position in a substantial unrealized gain and appears to reflect investors realizing that ANH's portfolio is similar to the portfolios of other mREITs that went ..."
p5
aS'VANGUARD GROUP INC is the biggest holder of Anworth Mortgage Asset Corporation ... Post Analyst - Mar 8, 2017 Anworth Mortgage Asset Corporation  reached 32.29% versus a 1-year low price of $4.47. The stock was last seen 0.55% higher, reaching at $5.46 on Mar. 7, 2017.Recent Trading Updates: Anworth Mortgage Asset Corporation  - Is storiesForward Earnings Estimate on Anworth Mortgage Asset Corporation - Times Money'
p6
aS'Anworth Mortgage Asset Corporation: Anworth Reports Fourth Quarter 2016 ... The Wall Street Transcript - Feb 15, 2017 We seek to generate income for distribution to our shareholders primarily based on the difference between the yield on our mortgage assets and the cost of our borrowings. We are managed by Anworth Management LLC, or the Manager, pursuant a&nbsp;...Anworth Mortgage Asset Corporation  Releases Earnings Results, Misses ... - Highland Mirror'
p7
aS'Anworth Mortgage Asset Corporation  Breaks into New 52-Week High on ... Equities.com - Feb 27, 2017 Shares of Anworth Mortgage Asset Corporation  broke into a new 52-week high yesterday, hitting a peak of $5.47. Shares closed at $5.43 after opening at $5.44 for a move of 0.37%.Stock within Assessment: Anworth Mortgage Asset Corporation  - StandardOracleForward Dividend Yield of Anworth Mortgage Asset Corporation  - Highland Mirror'
p8
aS"Investors Focused Mover: Anworth Mortgage Asset Corporation  Is stories - Mar 13, 2017 Anworth Mortgage Asset Corporation's  witnessed a gain of 1.31% in recent trading period with closing price of $ 5.42.ART Advisors LLC Invests $474000 in Anworth Mortgage Asset Co.  - BNB Daily The Renaissance Technologies LLC Has $17108000 Stake in Anworth Mortgage Asset ... - Petro Global News 24"
p9
aS'TheStreet Lowers Anworth Mortgage Asset Corporation  to D+ Chaffey Breeze - Feb 21, 2017 TheStreet lowered shares of Anworth Mortgage Asset Corporation  from a c rating to a d+ rating in a research report sent to investors on Thursday.'
p10
a.