(lp0
S'Alpha and Omega Semiconductor to Present at the Sidoti &amp; Company Spring 2017 ... Nasdaq - 18 hours ago SUNNYVALE, Calif., March 22, 2017  -- Alpha and Omega Semiconductor Limited   today announced that Mr. Yifan Liang, chief financial officer will be presenting at the Sidoti &amp; Company Spring 2017 Conference&nbsp;...Alpha and Omega Semiconductor Ltd  Stock Rating Lowered by Zacks ... - Community Financial News'
p1
aS'Alpha and Omega Semiconductor Limited  Seeking Alpha - Feb 8, 2017 On February 8, 2017, Alpha and Omega Semiconductor Limited  issued a press release regarding its financial results for the fiscal second quarter of 2017 ended December 31, 2016.Alpha and Omega Semiconductor Limited  likely to see 6% move on its ... - Post Analyst'
p2
aS'Alpha &amp; Omega Semiconductor Inc. AOSL  Wall Street Journal - Feb 11, 2011 Alpha &amp; Omega Semiconductor Inc. AOSL . search. View All companies. AT CLOSE 4:00 PM EST 03/10/17. $17.70 USD; 0.12 0.68%. Volume 137,852. AFTER HOURS 4:49 PM EST 03/10/17. $17.7035 0.0035 0.02%. AFTER HOURS Vol 1,176.'
p3
aS"BRIEF-Alpha and Omega Semiconductor Qtrly non gaap EPS $0.18 Reuters - Feb 8, 2017 Feb 9 Britain's FTSE 100 index is seen opening 1 to 8 points higher, or as much as 0.1 percent, on Thursday, according to financial bookmakers, with futures up 0.1 percent ahead of the cash market open."
p4
aS"Alpha and Omega Semiconductor Limited  Moves Higher on Volume Spike for ... Equities.com - Mar 7, 2017 Alpha and Omega Semiconductor Limited  traded on unusually high volume on Mar. 07, as the stock gained 1.86% to close at $17.55.Top Decliner Stock of Monday: Alpha and Omega Semiconductor Limited's (AOSL ... - WsNews 4investors"
p5
aS'Alpha and Omega Semiconductor Limited  Plunges 5.8% on March 06 Equities.com - Mar 6, 2017 Alpha and Omega Semiconductor Limited  had a rough trading day for Monday March 06 as shares tumbled 5.8%, or a loss of $-1.06 per share, to close at $17.23.'
p6
aS'Alpha and Omega Semiconductor Introduces a High Efficiency DrMOS Power Modules ... GlobeNewswire  - Jul 28, 2016 SUNNYVALE, Calif., July 29, 2016  -- Alpha and Omega Semiconductor Limited  , a designer, developer and global supplier of a broad range of power semiconductors, today announced the release of the&nbsp;...'
p7
aS'Alpha and Omega Semiconductor Limited  Moves Lower on Volume Spike for ... Equities.com - Feb 28, 2017 Alpha and Omega Semiconductor Limited  traded on unusually high volume on Feb. 28, as the stock lost 6.55% to close at $19.26.'
p8
aS"Kindred Biosciences  Reaches $7.25 52-Week High, Alpha and Omega ... Herald KS - Mar 21, 2017 The stock of Kindred Biosciences Inc  hit a new 52-week high and has $7.61 target or 5.00% above today's $7.25 share price.Zacks Investment Research Lowers Alpha and Omega Semiconductor Ltd  to Hold - The Cerbat Gem"
p9
aS"BRIEF-Alpha and Omega Semiconductor announces joint venture contract with ... Reuters - Mar 29, 2016 March 11 Puerto Rico's governor said on Saturday he has delivered a revised fiscal turnaround plan to the U.S. territory's financial oversight board that includes $262 million in additional revenue and changes to healthcare funding."
p10
a.