(lp0
S"Revenue Approximations Analysis: Gulfport Energy Corporation , VEREIT ... StockNewsJournal - Mar 20, 2017 VEREIT, Inc. , maintained return on investment for the last twelve months at -1.25, higher than what Reuters data shows regarding industry's average."
p1
aS'VEREIT, Inc. closed with a change of -0.24% in the Previous Trading Session Free Observer - 19 hours ago The stock subtracted in the prior trading session by -0.24%, closing at the stock price of $8.46. Currently, the market capitalization of VEREIT, Inc.  is 8.44 Billion. VER has a 1-year high price of $11.09 and 1-year low price of $7.99. The ...VEREIT, Inc.  hit its 52 Week low of $7.99 on Dec 1, 2016 - The Newburgh PressTraders Watch list: VEREIT, Inc.  - TopChronicle'
p2
aS'First Week of May 19th Options Trading For VEREIT  Nasdaq - Mar 21, 2017 Investors in VEREIT Inc  saw new options begin trading this week, for the May 19th expiration. At Stock Options Channel , our YieldBoost formula has looked up and down the VER options chain for the new May 19th contracts and identified the&nbsp;...'
p3
aS'VEREIT, Inc.  And The Naked Truth Exposed In Its Technicals NY Stock News - 13 hours ago VEREIT, Inc.  has created a compelling message for traders in the most recent trading. That message has grown stronger as the technical chart setup has developed into a more composite picture for the stock.'
p4
aS"What are Analyst's Indicators for Tenet Healthcare Corp. , VEREIT, Inc.  The USA Commerce - Mar 21, 2017 While trading at volume below than average, VEREIT, Inc.  previous 52-week high was $10.91 and moved up 2.92% over the same period, trading at a volume of 3.07 million.Sales Growth Analysis: Tenet Healthcare Corp. , VEREIT, Inc.  - USA Commerce Daily"
p5
aS"Featured Stock to See: VEREIT, Inc.  HugoPress - Mar 21, 2017 JMP Securities Upgrades VEREIT, Inc. 's stock to Market Outperform with no specific Price Target. This rating was issued on 1/09/17.VEREIT, Inc.  Closed the Last Trading Session with decrease of -0.35% - The Newburgh Press"
p6
aS"Why Vereit's CEO Is A Blessing For Investors Seeking Alpha - Feb 22, 2017 In VEREIT's  case, the situation is a pending lawsuit as a result of previous misrepresentation of financial statements."
p7
aS'Net dispositions come to an end at Vereit Seeking Alpha - Feb 23, 2017 Q4 adjusted FFO of $170.6M or $0.17 per share vs. $183.2M and $0.20 one year ago. Full-year AFFO per share of $0.78 vs. $0.84 in 2015.VEREIT Announces Fourth Quarter and Full Year 2016 Operating Results - Yahoo Finance'
p8
aS'Long Term Growth Stock in Review: VEREIT, Inc.  Aiken Advocate - 10 hours ago VEREIT, Inc.  has been recommended as a long term growth stock according to analysts at Beta Research. With their stock price currently trading around $8.44, the firm has proven a solid track record of growth over the past few years ...'
p9
aS'Stock Alert: VEREIT Inc Realized Volatility Hits A Deteriorated Level CML News - Mar 19, 2017 Before we cover the full analysis we make a quick alert here that VEREIT Inc  has seen its stock price move at a deteriorated level.'
p10
a.