(lp0
S"Artesian Resources Corporation  Daily Sentiment At 0 Markets Daily - 8 hours ago Artesian Resources Corporation  has been given a 0 daily sentiment score. This dataset comprises average sentiment and impact scores figured on all articles linked to Artesian Resources Corporation , published in&nbsp;...Artesian Resources 's Insider Dian Taylor Unloaded 6750 Shares of the ... - HuronReportWindstream Holdings, Inc.  Reaches $6.03 52 Week Low; Artesian Resources ... - MoneyMakingArticles"
p1
aS'Artesian Resources Corporation Class A Non-Voting  Moves Higher on ... Equities.com - Mar 1, 2017 Artesian Resources Corporation Class A Non-Voting  traded on unusually high volume on Mar. 01, as the stock gained 2.43% to close at $33.75.'
p2
aS"Is Water Utility Artesian Resources A Buy? Seeking Alpha  - Jan 23, 2015 We had briefly touched on Artesian Resources Corp  on our website recently and wanted to revisit it with a bit more 'meat on the bone."
p3
aS'Artesian Resources Corporation Class A Non-Voting  Moves Higher on ... Equities.com - Mar 15, 2017 Artesian Resources Corporation Class A Non-Voting  traded on unusually high volume on Mar. 15, as the stock gained 4.24% to close at $33.91.Artesian Resources Corporation  expected to move 1% in response to its ... - Post AnalystArtesian Resources Corporation  Upside Stock Technicals at ... - CML News'
p4
aS'Artesian Resources: Small Company, Big Dividends Seeking Alpha - Dec 15, 2014 Water is essential and companies that provide it often enjoy stable revenues and earnings. Artesian Resources  is one such provider of water and water-related services.'
p5
aS"Artesian Resources' net income jumped 14.6% in 2014 The News Journal - Mar 17, 2015 Improved water sales revenue and a decline in legal fees helped Artesian Resources Corporation boost its net income by nearly 15 percent in 2014."
p6
aS'Stock Focus: Watching the Levels for Artesian Resources Corporation (NASDAQ ... SKV News - 6 hours ago Checking the Value Composite score for Artesian Resources Corporation , we see that the company has a rank of 40.'
p7
aS'Artesian Resources posts 4Q profit Yahoo Finance - Mar 9, 2017  _ Artesian Resources Corp.  on Wednesday reported fourth-quarter earnings of $2.7 million. The Newark, Delaware-based company said it had profit of 30 cents per share.'
p8
aS'Bessemer Group Inc. Has $521000 Stake in Artesian Resources Corporation  BNB Daily  - Feb 26, 2017 Artesian Resources Corporation logo Bessemer Group Inc. increased its position in Artesian Resources Corporation  by 15.6% during the fourth quarter, according to its most recent 13F filing with the SEC.Artesian Resources Corporation  Stock Technicals Hit Strength - CML News'
p9
aS'Artesian Water Company, Inc. Enters Into Agreement to purchase water assets of ... GlobeNewswire  - Feb 28, 2017 NEWARK, Del., Feb. 28, 2017  -- Artesian Resources Corporation , a leading provider of water, wastewater services and related services on the Delmarva Peninsula, today announced that it has entered into an&nbsp;...'
p10
a.