(lp0
S"Art's Way Manufacturing Announces Appointment Of David White To The Board Of ... PR Newswire  - Nov 30, 2016 30, 2016 /PRNewswire/ -- Art's Way Manufacturing Co., Inc. , a diversified, international manufacturer and distributor of equipment serving agricultural, research, and steel cutting needs, announces that David A. White has been elected to ..."
p1
aS"Checking on Shares of Art's-Way Manufacturing Co., Inc.  Searcy News - 4 hours ago Art's-Way Manufacturing Co., Inc.  has a Value Composite Score of 42. Based on a scale from 0 to 100, a score closer to zero would signal an undervalued company and a higher score would represent an expensive or overvalued company."
p2
aS"Art's Way Manufacturing Announces Chairman Succession Plan PR Newswire  - Mar 2, 2015 ARMSTRONG, Iowa, March 2, 2015 /PRNewswire/ -- Art's Way Manufacturing Co., Inc. , a diversified, international manufacturer and distributor of equipment serving agricultural, research, water treatment and steel cutting needs, announced&nbsp;..."
p3
aS"Art's Way Manufacturing Closes Acquisition Of Ohio Metal Working Products Company PR Newswire  - Oct 3, 2013 ARMSTRONG, Iowa, Oct. 3, 2013 /PRNewswire/ -- Art's Way Manufacturing Co., Inc. , a diversified international manufacturer of equipment serving agricultural, research and water treatment needs, is pleased to announced they have closed&nbsp;..."
p4
aS"Basic Consolidated EPS Of Art's-Way Manufacturing Co., Inc.  At ... Equities Focus - Mar 18, 2017 From the parent firm, Art's-Way Manufacturing Co., Inc.  received diluted EPS of $-0.2004 for the annual period settled 2016-11-30."
p5
aS"Art's Way Manufacturing Introduces the 6140 Grinder Mixer - a Perfect ... PR Newswire  - Mar 16, 2015 ARMSTRONG, Iowa, March 16, 2015 /PRNewswire/ -- Art's Way Manufacturing Co., Inc. , a diversified, international manufacturer and distributor of equipment serving agricultural, research, water treatment and steel cutting needs, continued&nbsp;..."
p6
aS"Art's-Way Manufacturing Co., Inc.  Posts Basic Consolidated EPS ... Equities Focus - Mar 12, 2017 Art's-Way Manufacturing Co., Inc. managed to report annual basic consolidated EPS of $-0.2004, which was for the year ended2016-11-30."
p7
aS"Accounts Payable Of Art's-Way Manufacturing Co., Inc.  At $0.4695 ... RealistInvestor.com - Mar 13, 2017 Art's-Way Manufacturing Co., Inc.  reported accounts payable of $0.4695 millions for the year ended 2016-11-30."
p8
aS"Art's-Way Manufacturing Co., Inc.  Deferred Tax Assets At $1.0667 ... RealistInvestor.com - Feb 21, 2017 Art's-Way Manufacturing Co., Inc.  reported accounts payable of $0.4695 millions for the year ended 2016-11-30."
p9
aS"Art's-Way Manufacturing Co., Inc.  Registers a Net Consolidated ... Equities Focus - Feb 26, 2017 Art's-Way Manufacturing Co., Inc.  received diluted EPS of from the parent company amounting to $-0.2004 for the year ended on 2016-11-30."
p10
a.