(lp0
S'Read this before buying AvalonBay Communities Inc  for its upcoming $1.42 ... Simply Wall St - 7 hours ago Dividend hunters beware, AvalonBay Communities  will pay its upcoming dividend of $1.42 on the Mon 17 Apr 2017 and will start trading ex-dividend on the Wed 29 Mar 2017.How has AvalonBay Communities, Inc. performed recently? - The Daily Leicester'
p1
aS'AvalonBay Communities, Inc. Provides First Quarter 2017 Operating Update Yahoo Finance - Mar 6, 2017 AVALONBAY COMMUNITIES, INC.   announced today that it expects total rental revenue for Established Communities for the three months ending March 31, 2017 to increase between 3.1% and 3.2% over the prior year period.Insider Trading Activity AvalonBay Communities Inc   insider Sold ... - Market ExclusiveAvalonBay Communities Inc - Receive News &amp; Ratings Daily - Chaffey Breeze'
p2
aS"Moody's upgrades AvalonBay to A3, outlook stable Moodys.com   - Oct 7, 2016 New York, October 06, 2016 -- Moody's Investors Service  upgraded all ratings of AvalonBay  Communities, Inc. with a stable rating outlook. The upgrade reflects AVB's position as one of the largest apartment REITs in the U.S ..."
p3
aS"AvalonBay Communities  Q4 2016 Results - Earnings Call Transcript Seeking Alpha - Feb 3, 2017 Please standby, we're about to begin. Good morning, ladies and gentlemen, and welcome to AvalonBay Communities' Fourth Quarter 2016 Earnings Conference Call."
p4
aS"AvalonBay Communities, Inc.  recently sold by insider O'Shea Kevin P. Post Analyst - Mar 21, 2017 AvalonBay Communities, Inc.  reached 17.65% versus a 1-year low price of $158.32. The stock was last seen -0.55% lower, reaching at $184.84 on Mar. 20, 2017.A look at a High Market Cap Stock: AvalonBay Communities, Inc., AVB - The Daily LeicesterNoteworthy movements of Stock: AvalonBay Communities, Inc.'s  share price ... - Street Updates"
p5
aS'Insider Trading Activity AvalonBay Communities Inc   CFO Sold 3560 ... Market Exclusive - Mar 10, 2017 On 1/30/2013 AvalonBay Communities Inc announced a quarterly dividend of $1.07 3.3% with an ex dividend date of 3/26/2013 which will be payable on 4/15/2013.'
p6
aS'AvalonBay Communities Ranked #1 Multifamily Public REIT for Online Reputation Yahoo Finance - Mar 8, 2017 AvalonBay Communities, Inc.  - a trusted name in multifamily housing, was recognized for its superior reputation with customers, ranking No.Avalonbay Communities Inc  Files Form 4 Insider Selling : William M ... - Energy IndexAvalonBay Communities Inc  Downgraded by Evercore ISI - Chaffey Breeze'
p7
aS"AvalonBay Communities  Q3 2016 Results - Earnings Call Transcript Seeking Alpha - Oct 25, 2016 Good morning, ladies and gentlemen, and welcome to AvalonBay Communities' Third Quarter 2016 Earnings Conference Call. Today's call is being recorded.AvalonBay Communities, Inc. Announces Third Quarter 2016 Operating Results - Business Wire "
p8
aS'Stock Returns: American Homes 4 Rent  is Beating AvalonBay ... CML News - 17 hours ago This is a snapshot to compare the stock returns for American Homes 4 Rent  versus AvalonBay Communities Inc  .'
p9
aS'AvalonBay Communities Inc.  Rises 2.76% for March 15 Equities.com - Mar 15, 2017 Among the biggest risers on the S&amp;P 500 on Wednesday March 15 was AvalonBay Communities Inc. , popping some 2.76% to a price of $183.57 a share with some 1.01 million shares trading hands.'
p10
a.