(lp0
S'American Express Plans Live Audio Webcasts of the First Quarter 2017 Earnings ... Business Wire  - 15 hours ago NEW YORK----American Express Company  plans to host a live audio webcast of its earnings conference call at 5:00 p.m.American Express Company  Closes 0.18% Up on the Day for March 22 - Equities.comAmerican Express Company subtracted -1.67% in its Stock Price in the Previous ... - Free Observer'
p1
aS"American Express Lifts Chenault's Pay 19% to $22 Million for '16 Bloomberg - Mar 20, 2017 American Express Co., the biggest credit-card issuer by customer spending, paid Chief Executive Officer Ken Chenault $22 million for his work in 2016, a 19 percent increase from a year earlier.American Express lifts CEO Chenault's pay 19pc to US$22m for 2016 - Malay Mail Online"
p2
aS'EOD Risers: American Express Company, Apple Inc., Exxon Mobil Corporation ... DirectorsTalk Interviews - Mar 17, 2017 Shares of American Express Company found using EPIC:  a services company, stepped up 0.68% or 0.54 points by the close of business yesterday.'
p3
aS'Buffett Stocks In Focus: American Express Company  ValueWalk - Mar 10, 2017 These loans were disproportionately large given the economics of the underlying business. Eventually, the company defaulted, and AXP suffered losses as one of its creditors.Stocks Buffett Hinted Are Undervalued Based On Buybacks - ForbesIn Your 40s? 2 Stocks You Should Consider Buying - Motley Fool'
p4
aS"EOD Risers: American Express Company, Cisco Systems, Inc., Intel Corporation ... DirectorsTalk Interviews - Mar 15, 2017 Shares in American Express Company ticker code:  a services company, rose 0.61% or 0.48 points during the course of yesterday's session."
p5
aS'American Express escalates high-fee card competition Reuters - Mar 2, 2017 NEW YORK American Express Co  will begin to offer this month $200 a year in Uber rides, plus other new perks, on its Platinum charge cards as it fights to protect its high-end market from JPMorgan Chase &amp; Co (JPM.AmEx boosting benefits on Platinum card; fee too - Seeking AlphaAmEx Offers Uber Rides After Chase Makes a Splash With Sapphire - Bloomberg'
p6
aS"EOD Risers: 3M Co, American Express Company, Apple Inc., Caterpillar Inc. DirectorsTalk Interviews - Mar 13, 2017 Shares of American Express Company with ticker code:  a services company, moved up 0.1% or 0.08 points in Friday's trading session."
p7
aS'Analyst Activity  Instinet Reiterates Reduce on American Express Company ... Market Exclusive - Mar 11, 2017 Today, Instinet reiterated its Reduce rating on American Express Company  with a price target of $63.00. There are 6 sell ratings, 13 hold ratings, 8 buy ratings on the stock.American Express Company  Closes 0.33% Up on the Day for March 09 - Equities.comBuy or Sell? What Analysts Recommends: American Express Company , The ... - StockNewsJournal'
p8
aS'American Express Clamps Down On Points Churners  Skift Business Traveler Skift - Mar 13, 2017 American Express Will Weed Out Points-Chasing Credit-Card Churners: American Express Co. is looking to weed out customers who jump from credit card to credit card just for the sign-on bonus.'
p9
aS"EOD Risers: 3M Co, American Express Company, Apple Inc., Boeing Co DirectorsTalk Interviews - Mar 8, 2017 The share price for American Express Company ticker code:  a services company, stepped up 0.1% or 0.08 points throughout yesterday's trading day."
p10
a.