(lp0
S"Booz Allen Hamilton Holding Corporation: Booz Allen Hamilton Wins $59M ... The Wall Street Transcript - 17 hours ago Booz Allen Hamilton Holding Corporation: Booz Allen Hamilton Wins $59M Contract to Provide Acquisition, Program, Contracts, Installation, and Business Management Support Services to the U.S.Analyst's Proposition on Harley-Davidson, Inc. , Booz Allen Hamilton ... - The USA CommerceBooz Allen Hamilton Holding Co.  Earns Buy Rating from Vertical Group - Chaffey Breeze"
p1
aS'Traders Secrets on M&amp;T Bank Corporation , Booz Allen Hamilton Holding ... StockNewsJournal - 16 hours ago Booz Allen Hamilton Holding Corporation , at its latest closing price of $36.58, it has a price-to-book ratio of 9.83, compared to an industry average at 2.81.'
p2
aS'Booz Allen Hamilton Holding  Q3 2017 Results - Earnings Call Transcript Seeking Alpha - Jan 30, 2017 Horacio D. Rozanski - Booz Allen Hamilton Holding Corp. Thank you, Curt. Good morning, everyone. Happy Monday. Thank you for joining us.Booz Allen Revenue Rises; Dividend Raised - Wall Street JournalKeep an Eye on These 7 Stocks for January 30, 2017 - Benzinga'
p3
aS"Booz Allen Hamilton Holding  Q2 2017 Results - Earnings Call Transcript Seeking Alpha - Nov 2, 2016 Horacio D. Rozanski - Booz Allen Hamilton Holding Corp. Thank you, Curt. Good morning, everyone. Thanks for joining us. Today, we're very pleased to report that in the quarter ended September 30, the people of Booz Allen turned in another solid&nbsp;...Booz Allen profit up 12% as revenue jumps - MarketWatch"
p4
aS'Booz Allen Hamilton Holding Corporation  Security Scandal Sparks Options ... Schaeffers Research  - Oct 5, 2016 Booz Allen Hamilton Holding Corporation  is under fire this afternoon, after the New York Times reported that another BAH employee was caught stealing classified information .'
p5
aS"Booz Allen Hamilton Profit, Sales Climb as Backlog Reaches Record Wall Street Journal - May 18, 2016 Booz Allen Hamilton Holding Corp.'s profit rose and revenue grew in its latest quarter on increased client demand, as the government consulting firm said its backlog reached a record high for the end of its fiscal year."
p6
aS'Booz Allen Hamilton acquires Aquilent Seeking Alpha - Nov 29, 2016 Booz Allen Hamilton  announces that it acquired digital services firm eGov Holdings, Inc. for $250M. Also known as Aquilent, eGov is the digital and cloud architect of .Blog Coverage Booz Allen Hamilton Expands Government Business with Acquisition ... - Yahoo FinanceBooz Allen Hamilton Agrees to Acquire Digital Service Business Aquilent - Business Wire '
p7
aS"At Booz Allen, a Vast US Spy Operation, Run for Private Profit New York Times - Oct 7, 2016 Booz Allen Hamilton, with its headquarters located in McLean, Va., has made billions from its contracting business with the American intelligence community.Booz Allen Hamilton Holding Corporation  Stock Falls on NSA Contractor's ... - Investorplace.comAnalysts Speculate on Booz Allen Hamilton Holding Corporation  - Post Registrar"
p8
aS'Carlyle to Sell Remaining Stake in Booz Allen Hamilton Wall Street Journal - Dec 1, 2016 Private-equity firm Carlyle Group LP plans to sell its remaining stake in defense contractor Booz Allen Hamilton Holding Corp, a company it had bought and made public. Carlyle Group acquired a majority stake in McLean, Va.-based Booz Allen in 2008 for&nbsp;...Booz Allen Hamilton Sinks on Secondary Offering - 24/7 Wall St.'
p9
aS"Booz Allen Hamilton Holding Corporation a Defense Contractor On the Move  Investorplace.com - Jan 26, 2017 In yesterday's edition of StreetAuthority Daily, I made the case that investors should look to increased military spending by the new Trump administration and Republican-controlled congress as a strong catalyst for investing in the sector.Earnings Whispers: Booz Allen Hamilton Holding Corporation  &amp; Affiliated ... - TCCBooz Allen Completes Aquilent Purchase to Expand Digital Footprint - GovConWire"
p10
a.