(lp0
S'Briggs &amp; Stratton Corporation  Ex-Dividend Date Scheduled for March 14, 2017 Nasdaq - Mar 13, 2017 Briggs &amp; Stratton Corporation  will begin trading ex-dividend on March 14, 2017. A cash dividend payment of $0.14 per share is scheduled to be paid on April 03, 2017.Briggs &amp; Stratton  to pay $0.14 on Apr 3, 2017; CBL &amp; Associates ... - HuronReportBriggs &amp; Stratton Corporation  Receives An Update From Brokers - The De Soto Edge'
p1
aS'Briggs &amp; Stratton Unveils New Products &amp; Technology At The 61st Annual Rental Show PR Newswire  - Mar 9, 2017 MILWAUKEE, March 9, 2017 /PRNewswire/ -- Briggs &amp; Stratton Corporation showcased new products and technology at the 61st annual Rental Show under its Allmand, Billy Goat and Vanguard brands as part of its continued focus on the rental and&nbsp;...Watch List: Briggs &amp; Stratton Corporation  , Wabco Holdings Inc ... - NYSE Journal Would You Buy Briggs &amp; Stratton Corporation  On These Analyst Ratings? - Fiscal Standard'
p2
aS'Briggs &amp; Stratton Brings First Bluetooth Portable Generator To Market PR Newswire  - Jan 13, 2017 MILWAUKEE, Jan. 13, 2017 /PRNewswire/ -- Briggs &amp; Stratton Corporation has brought to market the first Bluetooth-enabled portable generator available for purchase.'
p3
aS'Briggs &amp; Stratton Expands Standby Generator Line With 80kW - 200kW Units PR Newswire  - Dec 13, 2016 MILWAUKEE, Dec. 13, 2016 /PRNewswire/ -- Briggs &amp; Stratton Corporation is expanding its line of standby generators to support the light commercial and large residential markets by offering a line of high-quality, durable and reliable units ranging in ...Briggs &amp; Stratton expands commercial generator offerings - BizTimes.com '
p4
aS'Briggs &amp; Stratton Corporation Acquires Billy Goat Industries, Inc. PR Newswire  - May 20, 2015 MILWAUKEE, May 20, 2015 /PRNewswire/ -- Briggs &amp; Stratton Corporation  announced today that it has acquired U.S.'
p5
aS'Briggs &amp; Stratton Highlights New Products at Rental Show Yahoo Finance - Mar 10, 2017 Brady Corporation has a positive average earnings surprise of 20.84% for the last four quarters. Casella Waste generated a remarkable positive average earnings surprise of 165.21% over the trailing four quarters.Pacad Investment Ltd. Invests $116000 in Briggs &amp; Stratton Co.  - Community Financial News'
p6
aS"Briggs &amp; Stratton Expands Just Check &amp; Add Technology PR Newswire  - Feb 15, 2017 MILWAUKEE, Feb. 15, 2017 /PRNewswire/ -- In early 2017, homeowners will find Briggs &amp; Stratton Corporation's Just Check &amp; Add technology available on more walk mowers across more brands as the company brings the innovation to its popular 625ex&nbsp;..."
p7
aS"Briggs &amp; Stratton Launches Fortress Line Of Standby Generator Systems PR Newswire  - Jun 8, 2016 MILWAUKEE, June 8, 2016 /PRNewswire/ -- Briggs &amp; Stratton Corporation  introduces Briggs &amp; Stratton Fortress standby generator systems, the company's new line of premium standby generators designed to give families the highest-quality&nbsp;..."
p8
aS'New Briggs &amp; Stratton Lawn Mower Engine First To Eliminate Messy Oil Changes PR Newswire  - Feb 23, 2015 MILWAUKEE, Feb. 23, 2015 /PRNewswire/ -- Homeowners can thank the engine experts at Briggs &amp; Stratton Corporation  for making yearly oil changes on lawn mowers a thing of the past.'
p9
aS'Briggs &amp; Stratton Corporation Awards Higher Horizons Scholarships PR Newswire  - Jul 25, 2016 MILWAUKEE, July 25, 2016 /PRNewswire/ -- To reinforce the importance of education and recognize determination to succeed, Briggs &amp; Stratton Corporation  will be presenting three local students with its Higher Horizons scholarship on July 27,&nbsp;...'
p10
a.