(lp0
S"Green Brick Partners, Inc. Reports Fourth Quarter and Full Year 2016 Results Yahoo Finance - Mar 13, 2017 Basic net income attributable to Green Brick per common share  for the three months ended December 31, 2016 was $0.16, compared to $0.10 for the three months ended December 31, 2015.Green Brick Partners'  CEO Jim Brickman on Q4 2016 Results - Earnings ... - Seeking Alpha"
p1
aS'Green Brick Partners Announces Two New Townhome Developments Near Downtown Dallas Marketwired  - May 18, 2016 PLANO, TX-- - Green Brick Partners, Inc.  recently acquired land at 3200 Ross Avenue near Downtown Dallas for development of 19 townhomes.'
p2
aS"Green Brick Partners Continues To Shine Seeking Alpha - Aug 15, 2016 Green Brick Partners has beaten EPS and revenue estimates in all of the last three quarters. In Q2, GRBK's revenue grew at 37% YoY, homes delivered grew 30% YoY, and avg sale price grew 18% YoY."
p3
aS'Green Brick Partners, Inc. Announces Hiring Of New Vice President Of Finance PR Newswire  - Jan 22, 2015 PLANO, Texas, Jan. 22, 2015 /PRNewswire/ -- GREEN BRICK PARTNERS, INC.   announced today that Mr. Richard A. Costello has joined Green Brick as Vice President of Finance.'
p4
aS"Green Brick Partners: An Overlooked David Einhorn Deal Seeking Alpha - Dec 31, 2014 Green Brick Partners  has been flying under the radar for several months now. However, it's an interesting story with both Greenlight Capital and Third Point as major shareholders."
p5
aS"Richard Arthur Costello Sells 6000 Shares of Green Brick Partners Inc  Stock The Cerbat Gem - 12 hours ago Green Brick Partners logo Green Brick Partners Inc  CFO Richard Arthur Costello sold 6,000 shares of the firm's stock in a transaction on Friday, March 17th.Green Brick Partners Inc  CFO Richard Arthur Costello Sells 6000 Shares ... - Petro Global News 24"
p6
aS'Green Brick Partners, Inc. Reports Fourth Quarter And Full Year 2014 Results ... PR Newswire  - Mar 30, 2015 PLANO, Texas, March 30, 2015 /PRNewswire/ -- Green Brick Partners, Inc.  , today reported results for its fourth quarter and full year ended December 31, 2014.'
p7
aS'Green Brick Partners Inc.  Moves Lower on Volume Spike for March 17 Equities.com - Mar 17, 2017 Green Brick Partners Inc.  traded on unusually high volume on Mar. 17, as the stock lost 1.55% to close at $9.55. On the day, Green Brick Partners Inc. saw 147,160 shares trade hands on 648 trades. Considering that the stock averages only a daily&nbsp;...'
p8
aS'Green Brick Partners, Inc. Announces Pricing Of Common Stock Offering PR Newswire  - Jun 26, 2015 PLANO, Texas, June 25, 2015 /PRNewswire/ -- Green Brick Partners, Inc.   today announced the pricing of a registered underwritten public offering of 17 million shares of its common stock at a price to the public of $10.00 ...'
p9
aS'Should You Follow The Green Brick Partners Road? Seeking Alpha - Jul 6, 2015 Green Brick Partners  is a residential real estate company that develops residential communities and holds interests in several different homebuilders.'
p10
a.