(lp0
S"Why Barnes &amp; Noble Inc. Stock Rose Today Motley Fool - Mar 16, 2017 More specifically, Barnes &amp; Noble's board has opted to hold steady its quarterly cash dividend at $0.15 per share, payable on April 28, 2017, to shareholders of record as of the close of business on April 7, 2017.Barnes &amp; Noble announces new stock repurchase program of up to $50 million of ... - EPR Retail News "
p1
aS"In-House Counsel Profile: Barnes &amp; Noble Inc.'s Brad Feuer The National Law Journal  - Mar 19, 2017 Barnes &amp; Noble Inc. is a Fortune 500 bookseller based in New York with more than 630 stores across the U.S. Between its sales online and in its physical stores, B&amp;N sells approximately 190 million physical books per year, according to its website."
p2
aS"Barnes &amp; Noble, Inc. Reduces Guidance After a Tough Holiday Quarter Motley Fool - Mar 3, 2017 Barnes &amp; Noble  released weaker-than-expected results for the fiscal third quarter 2017 ended January 28, 2017, punctuated by declining profitability, lower traffic, and the continued slide of the company's NOOK business during the crucial&nbsp;...Barnes &amp; Noble dividend on the line? - Seeking Alpha"
p3
aS'Earnings Reaction History: Barnes &amp; Noble, Inc., 40.0% Follow-Through ... Nasdaq - Mar 2, 2017 Barnes &amp; Noble, Inc.  is due to issue its quarterly earnings report in the upcoming extended-hours session.'
p4
aS'Shares in Focus: Barnes &amp; Noble Inc  Baxter Review - 14 hours ago Investors and Traders using technical analysis to study stocks may be looking at the ATR or Average True Range. Presently, Barnes &amp; Noble Inc  has a 14-day ATR of 0.43. The Average True Range is an investor tool used to gauge stock volatility.'
p5
aS'Barnes &amp; Noble, Inc.  Ducks Under The Trend Line Midway Monitor - 9 hours ago Barnes &amp; Noble, Inc.  shares have experienced a recent steady downtrend, causing some concern for shareholders.The Barnes &amp; Noble Education Inc  Shares Sold by Dimensional Fund ... - Petro Global News 24Barnes &amp; Noble Education Inc  Shares Sold by Dimensional Fund Advisors LP - The Cerbat Gem'
p6
aS"Barnes &amp; Noble to host in-store building event to conclude three-month-long ... EPR Retail News  - Mar 7, 2017 New York, New York, 2017-Mar-07 - /EPR Retail News/ - Barnes &amp; Noble, Inc. , the nation's largest retail bookseller and a leading retailer of content, digital media and educational products, today  announced, in partnership ...Barnes &amp; Noble Concludes Three-Month-Long Celebration of The LEGO Batman ... - Military Technologies"
p7
aS'Barnes &amp; Noble, Inc.  held by 36 SEC 13F Filers Post Analyst - Mar 20, 2017 Barnes &amp; Noble, Inc.  reached 11.24% versus a 1-year low price of $8.45. The stock was last seen 2.73% higher, reaching at $9.4 on Mar. 17, 2017.Barnes &amp; Noble, Inc.  Broker Price Targets For The Coming Week - Normangee StarStock Returns: Barnes &amp; Noble Inc  is Beating GNC Holdings Inc (NYSE ... - CML News'
p8
aS'Barnes &amp; Noble Inc.  Plunges 5.56% on March 09 Equities.com - Mar 9, 2017 Barnes &amp; Noble Inc.  had a rough trading day for Thursday March 09 as shares tumbled 5.56%, or a loss of $-0.5 per share, to close at $8.50.Option Market: Barnes &amp; Noble Inc Risk Hits An Inflection Point - CML NewsBarnes &amp; Noble, Inc.  to Post Q3 2018 Earnings of $0.98 Per Share, Craig ... - Chaffey Breeze'
p9
aS"Barnes &amp; Noble Education Acquires MBS for $174.2 Million Yahoo Finance - Feb 28, 2017 Barnes &amp; Noble Education, Inc.  , one of America's largest contract operators of bookstores on college and university campuses and a leading provider of digital education services, today announced that it has&nbsp;...Barnes &amp; Noble Education sales slip - MarketWatchBarnes &amp; Noble, Inc.  Stock Rating Lowered by Zacks Investment Research - The Cerbat Gem"
p10
a.