(lp0
S'Ball Corporation, Employees Give More Than $4 Million to Local Communities in 2016 PR Newswire  - Mar 21, 2017 BROOMFIELD, Colo., March 21, 2017 /PRNewswire/ -- The Ball Foundation, Ball Corporation  and its employees donated more than $4 million to charitable organizations in the communities where the company operates in 2016.Ball Corporation  Analyst Opinion And Outlook - Post AnalystHow has Ball Corporation performed recently? - The Daily Leicester'
p1
aS'Ball Corporation to cease production at German can plant FoodBev.com - Mar 2, 2017 Ball Corporation will cease production at its facility in Recklinghausen, western Germany at the end of July. The packager will consolidate its European business amid harsh trading conditions, and will share the workload out between its other ...'
p2
aS'Ball Corporation Risk Points versus Industrials CML News - Mar 21, 2017 This is a scatter plot analysis of the critical risk points from the option market for Ball Corporation  compared to its own past and the Industrials ETF.'
p3
aS'Buy, Sell or Hold? Analysts Approach: Rex Energy Corporation , Ball ... The USA Commerce - 16 hours ago While trading at volume above than average, Ball Corporation  previous 52-week high was $81.96 and moved up 6.59% over the same period, trading at a volume of 1.39 million.'
p4
aS'Ball Corporation  Ex-Dividend Date Scheduled for February 27, 2017 Nasdaq - Feb 24, 2017 Ball Corporation  will begin trading ex-dividend on February 27, 2017. A cash dividend payment of $0.13 per share is scheduled to be paid on March 15, 2017.'
p5
aS'Ball Corp.  Files to Delay 10-K StreetInsider.com - Mar 2, 2017 As disclosed by Ball Corporation  in its Current Report on Form 8-K filed with the Securities and Exchange Commission on July 6, 2016 , on June 30, 2016, the company completed its previously announced acquisition of all ...'
p6
aS"Ball Corp. in Saratoga Springs The Daily Gazette - Mar 7, 2017 Here's a look at the work Ball Corp. does at its sprawling manufacturing plant in the W.J. Grande Industrial Park in Saratoga Springs."
p7
aS'Stock Alert: Ball Corporation Price Volatility Hits A Rock Bottom Low CML News - Mar 19, 2017 Before we cover the full analysis we make a quick alert here that Ball Corporation  has seen its stock price move at a collapsing low level.'
p8
aS'Analyst Activity  Goldman Sachs Group Inc Initiates Coverage On Ball ... Market Exclusive - Mar 2, 2017 Today, Goldman Sachs Group Inc initiated coverage on Ball Corporation  with a Neutral with a price target of $80.00.'
p9
aS"Ball Corporation Takes Alumi-Tek Bottle to New Heights With SKIWATER Packaging Europe - Mar 15, 2017 Arjen van Zurk, Marketing Manager at Ball comments: We're delighted to be presenting our Alumi-tek bottles at this years Internorga Trade Fair in collaboration with SKIWATER."
p10
a.