(lp0
S'News BlueLinx Holdings Inc.BXC Wall Street Journal - Feb 12, 2011 BlueLinx Holdings Inc. BXC . search. View All companies. AT CLOSE 4:05 PM EST 03/09/17. $7.21 USD; 0.21 3.00%.'
p1
aS'Price Alert: Bluelinx Holdings Inc  Stock Nears Resistance ... CML News - 18 hours ago Price Alert: Bluelinx Holdings Inc  has now crossed into technical strength -- watch the technical oscillators for momentum gaps.'
p2
aS'Form 8-K BlueLinx Holdings Inc. For: Mar 02 StreetInsider.com - Mar 2, 2017 On March 2, 2017, BlueLinx Holdings Inc.  issued a press release announcing its financial results for the fiscal fourth quarter and fiscal year ended December 31, 2016.BlueLinx Holdings Inc.: BlueLinx Announces Fourth-Quarter and Full-Year Results - The Wall Street Transcript'
p3
aS'Why Could Bluelinx Holdings Inc  Not Be As Efficient As Its Industry In ... Simply Wall St - Mar 2, 2017 Bluelinx Holdings Inc , with a ROE of 0.8% over the past twelve months, appeared relatively inefficient compared to the broader industry, which averaged 34.33% ROE.BLUELINX HOLDINGS INC.  Files An 8-K Results of Operations and ... - Market ExclusiveBlueLinx posts 4Q profit - Yahoo Finance'
p4
aS'Investor Review: Focusing in on Shares of BlueLinx Holdings Inc  Baxter Review - 17 hours ago Active traders have a wide variety of technical indicators at their disposal for completing technical stock analysis. Presently, the 14-day ATR for BlueLinx Holdings Inc  is spotted at 0.36. First developed by J. Welles Wilder, the ATR may assist ...'
p5
aS'BlueLinx Holdings Inc. Announces Three-Year Real Estate Loan Deal GlobeNewswire  - Feb 1, 2016 ATLANTA, Feb. 01, 2016  -- BlueLinx Holdings Inc.   today announced that it has entered into a term sheet with its existing real estate lenders, pursuant to which the term of its outstanding&nbsp;...'
p6
aS'BlueLinx Holdings Inc.: BlueLinx to Announce Fourth Quarter and Full Year ... The Wall Street Transcript - Feb 14, 2017 14, 2017  -- BlueLinx Holdings Inc. , a leading distributor of building and industrial products in the United States will release fourth quarter and full year financial results on Thursday, March 2, with a conference call at ...'
p7
aS"Overview of Price Move: BlueLinx Holdings Inc.  Is stories - 18 hours ago Bluelinx Holdings Inc.'s  witnessed a gain of 1.24% in recent trading period with closing price of $ 8.14. The company's last traded volume of 0.11 million shares as compared to it's an average volume of 0.02 million shares."
p8
aS'BlueLinx to Pay $265K to Settle Whistle-Blower Violation Bloomberg BNA - Aug 11, 2016 10 - Atlanta-based building products distributor BlueLinx Holdings Inc. agreed to pay $265,000 to settle Securities and Exchange Commission allegations that its severance agreements violated whistle-blower protection rules ( In re BlueLinx Holdings ...BlueLinx to pay SEC fine for violating whistleblower protection rule - Atlanta Business ChronicleBlueLinx to pay $265000 to resolve allegations of violating SEC whistleblower laws - Legal News Line'
p9
aS"Form 3 BlueLinx Holdings Inc. For: Mar 08 Filed by: Tisera John M StreetInsider.com - Mar 10, 2017 Get the Pulse of the Market with StreetInsider.com's Pulse Picks. Get your Free Trial here. FORM 3, UNITED STATES SECURITIES AND EXCHANGE COMMISSION Washington, D.C."
p10
a.