(lp0
S'Looking at the Levels for CACI International Inc  Rives Journal - 16 hours ago Looking at shares of CACI International Inc , the company has an EV  of 4345802. Enterprise Value is a measure of the total value of a specific company.'
p1
aS'CACI International Inc  Files An 8-K Amendments to Articles of ... Market Exclusive - Mar 21, 2017 CACI International Inc is a simulation technology company. The Company provides information solutions and services. The Company operates through two segments: domestic operations and international operations.'
p2
aS'CACI International Shows Promise for Long-Term Growth Yahoo Finance - Mar 14, 2017 A leader in IT outsourcing for the U.S. federal government, CACI International has ample exposure to the rapidly growing Department of Defense and Department of Homeland Security budgets.'
p3
aS'We Can So You Can Foundation, CACI International, Join To Fund Camp Healing ... Go Blue Ridge - 17 hours ago The Boone-based We Can So You Can Foundation has entered a partnership with CACI International, Inc, who will provide funding and vision planning for Camp Healing Waters.'
p4
aS'SHAREHOLDER ALERT: Purcell Julie &amp; Lefkowitz LLP Is Investigating CACI ... PR Newswire  - Dec 20, 2016 20, 2016 /PRNewswire/ -- Purcell Julie &amp; Lefkowitz LLP, a class action law firm dedicated to representing shareholders nationwide, is investigating a potential breach of fiduciary duty claim involving the board of directors of CACI International Inc ...'
p5
aS'Buzzer within Traders Radar: CACI International, Inc.  Is stories - Mar 20, 2017 CACI has received different ratings from analysts, according to FactSet. 1 Month Ago, the stock has been recommended as Buy from 5 and 0 suggested Sell for the stock.'
p6
aS'Norges Bank Purchases Shares of 370801 CACI International Inc  Chaffey Breeze - 14 hours ago CACI International logo Norges Bank purchased a new position in shares of CACI International Inc  during the fourth quarter, according to its most recent filing with the Securities and Exchange Commission.The CACI International Inc  Given Consensus Recommendation of Buy by ... - Petro Global News 24CACI International Inc  Now Covered by Analysts at Vertical Research - Community Financial News'
p7
aS'CACI International Inc  loses confidence of 18 hedge fund managers Post Analyst - Mar 20, 2017 CACI International Inc  reached 45.63% versus a 1-year low price of $87.31. The stock was last seen 2.33% higher, reaching at $127.15 on Mar. 17, 2017.CACI International Inc  Research Coverage Started at Vertical Research - The Cerbat GemThe CACI International Inc  Coverage Initiated at Vertical Research - Petro Global News 24'
p8
aS"CACI's shares are soaring, but it won't make acquisitions with them Washington Business Journal - Dec 6, 2016 In just over a year, shares of Arlington-based CACI International Inc.  are up nearly 80 percent in an ascent that was further helped along by a presidential election that promises to be a boon for federal contractors."
p9
aS'Mitra Capital LLC Buys Zumiez, Symantec, CACI International, Sells Rexford ... Nasdaq - Feb 17, 2017 Mitra Capital LLC initiated holdings in Zumiez Inc. The purchase prices were between $18.07 and $25.95, with an estimated average price of $23.17.'
p10
a.