(lp0
S'Colony Bankcorp, Inc. Declares First Quarter Dividend GlobeNewswire  - Feb 14, 2017 FITZGERALD, Ga., Feb. 14, 2017  -- Colony Bankcorp, Inc.  announced today that its Board of Directors declared a quarterly cash dividend of $0.025 per share payable March 31, 2017 to shareholders of record on March&nbsp;...'
p1
aS'Colony Bankcorp, Inc.  Ex-Dividend Date Scheduled for February 27, 2017 Nasdaq - Feb 24, 2017 Colony Bankcorp, Inc.  will begin trading ex-dividend on February 27, 2017. A cash dividend payment of $0.025 per share is scheduled to be paid on March 31, 2017.'
p2
aS'Colony Bankcorp, Inc. Announces Partial Redemption of Preferred Stock GlobeNewswire  - Sep 7, 2016 FITZGERALD, Ga., Sept. 07, 2016  -- Colony Bankcorp, Inc.  today announced redemption of 3,661 shares of its Cumulative Perpetual Preferred Stock .'
p3
aS'COLONY BANKCORP, INC.  Files An 8-K Departure of Directors or ... Market Exclusive - Feb 23, 2017 About COLONY BANKCORP, INC.  Colony Bankcorp, Inc.  is a bank holding company. The Company operates through its subsidiary, Colony Bank .'
p4
aS'Colony Bankcorp, Inc., Chairman Gene Waldron and Board of Directors Announces ... GlobeNewsWire  - Jan 31, 2012 FITZGERALD, Ga., Jan. 31, 2012  -- Chairman Gene Waldron and the Board of Directors of Colony Bankcorp, Inc. , announced today the election of three new members to the Colony Bankcorp Board, Michael Frederick&nbsp;...'
p5
aS"Insider Trading Activity Colony Bankcorp Inc   VP Bought 1000 ... Market Exclusive - Mar 13, 2017 J. Stan Cook , VP of Colony Bankcorp Inc  reportedly Bought 1,000 shares of the company's stock at an average price of 13.99 for a total transaction amount of $13,990.00 SEC Form.Insider Trading at Colony Bankcorp Inc? - BBNSWhy Stan Cook Buys 1000 Shares of Colony Bankcorp ?, Prospect Capital ... - HuronReport"
p6
aS"The Insider Buying: Colony Bankcorp Inc  VP Acquires $13990.00 in Stock Petro Global News 24 - Mar 16, 2017 Colony Bankcorp Inc  VP J. Stan Cook purchased 1,000 shares of the company's stock in a transaction on Friday, March 10th."
p7
aS'The J. Stan Cook Acquires 1000 Shares of Colony Bankcorp Inc  Stock Petro Global News 24 - Mar 15, 2017 Colony Bankcorp Inc  VP J. Stan Cook purchased 1,000 shares of Colony Bankcorp stock in a transaction that occurred on Friday, March 10th.'
p8
aS'Colony Bankcorp Inc  VP J. Stan Cook Acquires 1000 Shares Sports Perspectives - Mar 14, 2017 Colony Bankcorp logo Colony Bankcorp Inc  VP J. Stan Cook acquired 1,000 shares of Colony Bankcorp stock in a transaction on Friday, March 10th.'
p9
aS'Faces and places The Telegraph - Jun 17, 2016 The board of directors of Colony Bankcorp Inc. announced the promotion of Stan Cook to executive vice president and chief operating.'
p10
a.