(lp0
S'Cincinnati Bell Inc.  Moves Lower on Volume Spike for March 22 Equities.com - 9 hours ago Cincinnati Bell Inc.  traded on unusually high volume on Mar. 22, as the stock lost 0.54% to close at $18.50. On the day, Cincinnati Bell Inc. saw 465,384 shares trade hands on 3,764 trades. Considering that the stock averages only a daily volume ...Cincinnati Bell Inc.  Invests in Call Centers, Fiber to the Home - FinancialsTrendFY2021 Earnings Estimate for Cincinnati Bell Inc. Issued By Gabelli  - The Cerbat Gem'
p1
aS"Cincinnati Bell Invests in Call Centers, Fiber to the Home Zacks.com - Mar 20, 2017 We also appreciate Cincinnati Bell's recent decision to start offering eero inc's whole-home Wi-Fi system at eight of its retail stores across Greater Cincinnati.Cincinnati Bell  Down 6.3% Since Earnings Report: Can It Rebound? - NasdaqStock Returns: Cincinnati Bell Inc  is Beating IDT Corporation (NYSE ... - CML News"
p2
aS'Ted Torbeck to Retire, Leigh Fox Named CEO at Cincinnati Bell Inc. GlobeNewswire  - Mar 2, 2017 CINCINNATI, March 02, 2017  -- Cincinnati Bell Inc.  today announced that Leigh R. Fox has been named president and chief executive officer, effective May 31, 2017.Cincinnati Bell names new CEO - Cincinnati.comThe Cincinnati Bell Inc  Scheduled to Post Earnings on Wednesday - DailyQuint'
p3
aS'Cincinnati Bell Announces Management Changes GlobeNewswire  - Sep 1, 2016 CINCINNATI, Sept. 01, 2016  -- Cincinnati Bell Inc.  today announced that Leigh R. Fox has been named president and chief operating officer and Andrew R. Kaiser has been named chief financial officer.Cincinnati Bell names new president, COO - Cincinnati Business Courier'
p4
aS"Cincinnati Bell to offer Big Ten Network to Fioptics subscribers GlobeNewswire  - Aug 15, 2016 CINCINNATI, Aug. 15, 2016  -- Cincinnati Bell Inc., the region's leading provider of communications services for homes and businesses, is pleased to announce it will offer the Big Ten Network  to Fioptics television customers&nbsp;..."
p5
aS'Cincinnati Bell Inc. Q4 Earnings Decline 74% Nasdaq - Feb 15, 2017  - Cincinnati Bell Inc.  released a profit for fourth quarter that dropped from last year. The company said its bottom line came in at $0.5 million, or $0.01 per share.Is Cincinnati Bell Inc  As Financially Strong As Zero-Debt On Its Balance ... - Simply Wall St'
p6
aS"Insider Trading Activity Cincinnati Bell Inc.   CFO Bought 1000 ... Market Exclusive - Mar 17, 2017 Andrew R Kaiser , CFO of Cincinnati Bell Inc.  reportedly Bought 1,000 shares of the company's stock at an average price of 19.1 for a total transaction amount of $19,100.00 SEC Form."
p7
aS'Cincinnati Bell Inc. Announces Expiration of Tender Offer GlobeNewswire  - Sep 20, 2016 CINCINNATI, Sept. 20, 2016  -- Cincinnati Bell Inc.   today announced the expiration of its previously announced offer to purchase for cash  any and all of its outstanding 8.375% Senior Notes due&nbsp;...'
p8
aS"Cincinnati Bell, Acquisition Target Barron's - Jun 16, 2016 Cincinnati Bell continues to look for opportunities to sell additional services to enterprise and public sector customers both in Cincinnati and in other markets (already present in Louisville, Indianapolis, Columbus; evaluating additional new market ..."
p9
aS'Cincinnati Bell pushes Michigan expansion with SunTel purchase Seeking Alpha - Feb 21, 2017 A unit of Cincinnati Bell  is acquiring Troy, Michigan-based SunTel Services, providing for greater expansion into the Michigan market.'
p10
a.