(lp0
S'Cabot Corp  Receives Consensus Rating of Hold from Analysts The Cerbat Gem - 12 hours ago Cabot Corp logo Shares of Cabot Corp  have received an average recommendation of Hold from the six analysts that are presently covering the company.The Cabot Corp  Upgraded to Buy by Zacks Investment Research - Petro Global News 24Zacks Investment Research Lowers Cabot Corp  to Hold - BNB Daily '
p1
aS'Cabot Corp. swings to profit in quarter Longview News-Journal - Feb 2, 2017 Cabot Corp., which has operations in Marshall, said Wednesday that it swung to a fiscal first-quarter profit of $54 million after reporting a loss in the same period a year earlier.'
p2
aS'Insider Trading Activity Cabot Corp   Director Sold 61363 shares of ... Market Exclusive - Mar 4, 2017 On 9/23/2013 Brian Berube, SVP Sell, 23,000 $42.07 with an average share price of $967,610.00 View SEC Filing 9/20/2013 per share and the total transaction amounting to Patrick Prevost.Patrick M. Prevost Sells 61363 Shares of Cabot Corp  Stock - Community Financial NewsCabot Corporation  Broker Price Targets For The Coming Week - Fiscal Standard'
p3
aS"Cabot Corporation to Increase Investment in Elastomer Composites Yahoo Finance - Mar 1, 2017 Cabot Corporation  announces a strategic investment to expand its manufacturing capabilities for elastomer composites at Cabot's plant in Port Dickson, Malaysia, and to create a dedicated elastomer composites team.BRIEF-Cabot expands manufacturing capabilities for Elastomer composites at ... - Reuters"
p4
aS'Cabot Corporation  Ex-Dividend Date Scheduled for February 22, 2017 Nasdaq - Feb 21, 2017 Cabot Corporation  will begin trading ex-dividend on February 22, 2017. A cash dividend payment of $0.3 per share is scheduled to be paid on March 10, 2017.Cabot Corp Declares Dividend of $0.3000. - Money Flow Index & Trends'
p5
aS'Cabot Corporation advancing graphenes towards commercial applications Printed Electronics World - Mar 13, 2017 Cabot Corporation has a long history in carbon materials, and has been in the business of producing carbon black for more than 135 years.'
p6
aS'Cabot Corp  Rating Increased to Buy at Zacks Investment Research Chaffey Breeze - Mar 17, 2017 Cabot Corp logo Cabot Corp  was upgraded by Zacks Investment Research from a hold rating to a buy rating in a research note issued on Wednesday.Cabot Corp  Upgraded to Buy at Zacks Investment Research - The Cerbat GemThe Cabot Corp  Stake Lowered by Janus Capital Management LLC - Petro Global News 24'
p7
aS"Stock in Review: Cabot Corp  BVN - 8 hours ago Cabot Corp 's 14-day RSI is presently resting at 50.66, the 7-day is 42.97, and the 3-day is currently at 25.23. The Relative Strength Index  is a momentum oscillator that measures the speed and change of stock price movements."
p8
aS'Cabot Corp  Downgraded by Zacks Investment Research to Hold Chaffey Breeze - Mar 8, 2017 Cabot Corp logo Zacks Investment Research cut shares of Cabot Corp  from a buy rating to a hold rating in a research note published on Tuesday.Cabot Corp  Cut to Hold at Zacks Investment Research - Sports PerspectivesA statement released earlier today by Zacks Investment Research about Cabot ... - Breaking Finance News'
p9
aS'The Cabot Corp  Upgraded to Buy at Zacks Investment Research Petro Global News 24 - Mar 16, 2017 Zacks Investment Research upgraded shares of Cabot Corp  from a hold rating to a buy rating in a research note published on Wednesday morning.'
p10
a.