(lp0
S'CDI Corp. To Explore Strategic Alternatives To Maximize Stockholder Value ... PR Newswire  - Mar 20, 2017 PHILADELPHIA, March 20, 2017 /PRNewswire/ -- CDI Corp.  , a leading provider of engineering and information technology talent, project and managed services, today announced that it has initiated a process to identify and&nbsp;...Blog Coverage CDI Corp. Ropes in the Services of Investment Bank - Houlihan ... - Yahoo FinanceCDI to explore strategic alternatives, including possible sale - Staffing Industry Analysts'
p1
aS"CDI Corp.  Q4 2016 Results - Earnings Call Transcript Seeking Alpha - Mar 9, 2017 Greetings and welcome to CDI Corporation's Fourth Quarter and Full Year 2016 Conference Call. At this time, all participants are in a listen-only mode."
p2
aS'CDI Corp. Reports Fourth Quarter and Full Year 2016 Results Yahoo Finance - Mar 8, 2017 PHILADELPHIA, March 8, 2017 /PRNewswire/ -- CDI Corp. ,  today reported results for the fourth quarter and full year ended December 31, 2016.'
p3
aS'CDI Corp. Announces Sale of AndersElite UK Subsidiary PR Newswire  - Sep 19, 2016 PHILADELPHIA, Sept. 19, 2016 /PRNewswire/ -- CDI Corp.   today announced it has sold its UK-based subsidiary, CDI AndersElite Ltd.'
p4
aS'Bradley Radoff And Joshua Schechter Issue Open Letter To CDI Corp Chair Of ... PR Newswire  - Dec 20, 2016 HOUSTON, Dec. 20, 2016 /PRNewswire/ -- Bradley Radoff and his affiliates and Joshua Schechter, who together are the beneficial owners of approximately 7.9% of the outstanding shares of CDI Corp. , announced today that they have issued an&nbsp;...'
p5
aS'CDI Corp. Reports Third Quarter 2016 Results PR Newswire  - Nov 2, 2016 CDI Corp.  seeks to create extraordinary outcomes with our clients by delivering solutions based on highly skilled and professional talent.'
p6
aS'CDI Corp. Board of Directors Accepts Resignation of Scott Freidheim, CEO PR Newswire  - Sep 16, 2016 PHILADELPHIA, Sept. 16, 2016 /PRNewswire/ -- CDI Corp.   today announced that the Board of Directors has accepted the resignation of CEO and President, Scott Freidheim.CEO of engineering staffing company CDI resigns - Philly.comCDI president and CEO resigns - Staffing Industry Analysts'
p7
aS'CDI Corp. Reports Second Quarter 2016 Results PR Newswire  - Aug 3, 2016 1Adjusted EBITDA excludes from net income  attributable to CDI, interest, income taxes, depreciation and amortization expense, restructuring and other related costs, share-based compensation expense, leadership transition costs, loss on ...'
p8
aS'CDI Corp. Posts Revenue Losses Hunt Scanlon Media  - Mar 10, 2017 March 10, 2017 - CDI Corp. /  posted 2016 revenues of $864.4 million, a decline of 8.7 percent from revenues of $985.5 million the previous year.'
p9
aS'CDI Corp.  Files An 8-K Amendments to Articles of Incorporation or ... Market Exclusive - Mar 20, 2017 CDI Corp. provides engineering, information technology and staffing solutions. The Company operates in three segments: Global Engineering and Technology Solutions , Professional Staffing Services  and Management Recruiters International&nbsp;...'
p10
a.