(lp0
S'Cedar Realty Trust Inc.  Settles Into New 52-Week Low on March 22 Session Equities.com - 10 hours ago Shares of Cedar Realty Trust Inc.  sank into a new 52-week low yesterday, and could be a company to watch at the open.'
p1
aS'Cedar Realty Trust Inc Risk Points versus Real Estate CML News - Mar 21, 2017 This is a scatter plot analysis of the critical risk points from the option market for Cedar Realty Trust Inc  compared to its own past and the Real Estate ETF.'
p2
aS'Cedar Realty Trust to Report First Quarter 2017 Financial Results Yahoo Finance - Mar 9, 2017 PORT WASHINGTON, N.Y., March 9, 2017 /PRNewswire/ -- Cedar Realty Trust, Inc.  announced today that it will release financial results for the three-month period ended March 31, 2017 after the market closes on Thursday,&nbsp;...Cedar Realty - Will Slow And Steady Win The Race? - Seeking AlphaRecent Price Move of Shares: Cedar Realty Trust, Inc.  - Is stories'
p3
aS'Cedar Realty Trust Inc.  Moves Higher on Volume Spike for February 17 Equities.com - Feb 17, 2017 Cedar Realty Trust Inc.  traded on unusually high volume on Feb. 17, as the stock gained 0.33% to close at $6.06. On the day, Cedar Realty Trust Inc. saw 878,327 shares trade hands on 2,153 trades. Considering that the stock averages only a daily&nbsp;...'
p4
aS'Cedar Realty Trust Announces Appointment Of New Chief Operating Officer PR Newswire  - Mar 21, 2016 PORT WASHINGTON, N.Y., March 21, 2016 /PRNewswire/ -- Cedar Realty Trust, Inc.  announced today that Robin McBride Zeigler will join the Company as Chief Operating Officer, effective March 31, 2016.CEDAR REALTY TRUST, INC. - StreetInsider.com'
p5
aS'Cedar Realty Trust Reports Fourth Quarter and Full Year 2016 Results Yahoo Finance - Feb 23, 2017 23, 2017 /PRNewswire/ -- Cedar Realty Trust, Inc.  today reported results for the fourth quarter and full year 2016.'
p6
aS'Cedar Realty Trust Inc.  Settles Into New 52-Week Low on March 10 Session Equities.com - Mar 10, 2017 Shares of Cedar Realty Trust Inc.  sank into a new 52-week low yesterday, and could be a company to watch at the open.The Cedar Realty Trust Inc  Director Acquires $19966.00 in Stock - Petro Global News 24Cedar Realty Trust, Inc.  Receives An Update From Brokers - The De Soto Edge'
p7
aS'Cedar Realty Trust Acquires Glenwood Village In Bloomfield, NJ PR Newswire  - May 5, 2016 PORT WASHINGTON, N.Y., May 5, 2016 /PRNewswire/ -- Cedar Realty Trust, Inc.  announced today that it closed on the acquisition of Glenwood Village in Bloomfield, NJ.'
p8
aS'Cedar Realty Trust, Inc. Announces Pricing Of Common Stock Offering PR Newswire  - Jul 26, 2016 PORT WASHINGTON, N.Y., July 26, 2016 /PRNewswire/ -- Cedar Realty Trust, Inc.  announced today the pricing of its underwritten public offering of 5.0 million shares of its common stock on a forward basis in connection with&nbsp;...'
p9
aS"Cedar Realty Trust, Inc.  Shares Dip Under Moving Averages Midway Monitor - 10 hours ago Cedar Realty Trust, Inc.'s RSI is 27.64. Based on the stock's volatility for the week, which is a statistical measure of the dispersion of returns for a given stock and represents average daily high/low percentage range of 3.12% and month of 3.18 ...Cedar Realty Trust  Reaches $4.93 52 Week Low; Clover Partners LP Has ... - Herald KSNew York State Teachers Retirement System Holds Position in Cedar Realty Trust ... - The Cerbat Gem"
p10
a.