(lp0
S"Wednesday's Market Insights: Clean Diesel Technologies, Inc. , Seagate ... Smarter Analyst - Jan 25, 2017 With too many press releases to keep track of, here's a running tab of the updates which we find most relevant. Most important so far today are Clean Diesel Technologies, Inc. , Seagate Technology PLC , and Cree, Inc.DENSO Partners With CDTi On New Line Of PowerEdge Heavy-Duty OE Replacement ... - AftermarketNews.com "
p1
aS'Stock Concentration on Shares of Clean Diesel Technologies Inc  Midway Monitor - 9 hours ago Investors are paying close attention to shares of Clean Diesel Technologies Inc . A popular tool among technical stock analysts is the moving average.'
p2
aS"Clean Diesel Technologies , DENSO Announce Pact to Provide CDTi's ... StreetInsider.com - Jan 24, 2017 Clean Diesel Technologies, Inc.  , a leader in advanced emission control technology, has partnered with DENSO Products and Services Americas Inc., an affiliate of leading global automotive supplier DENSO Corp.Replacement DPFs coming from Denso, Clean Diesel Technology - Fleet OwnerDenso adding after treatment to PowerEdge lineup, publishes first digital ... - Commercial Carrier Journal"
p3
aS'Clean Diesel Technologies Inc.: CDTi Announces Timing of Fourth Quarter and ... The Wall Street Transcript - Mar 9, 2017 OXNARD, Calif., March 09, 2017  -- Clean Diesel Technologies, Inc.  , a leader in advanced emission control technology, announced it will report its fourth quarter and year-end 2016 financial&nbsp;...'
p4
aS"Clean Diesel Technologies, Inc.  EPS Projection At $-0.12 RealistInvestor.com - Mar 21, 2017 Clean Diesel Technologies, Inc.  is likely to account earnings of $-0.12 for prior quarter, which can come on 2017-03-30.Clean Diesel Technologies, Inc.'s  is value at $2.70 per share, reports ... - Street Updates"
p5
aS"Clean Diesel Technologies  to Provide Technology to Honda for Newly ... StreetInsider.com - Jul 12, 2016 Clean Diesel Technologies, Inc.  announced it is providing catalysts featuring CDTi's high-performance Mixed Phase Catalyst  technology to Honda for its newly designed 2017 Accord Hybrid model."
p6
aS'CDTi Appoints Peter J. Chase Chief Operating Officer GlobeNewswire  - Jan 30, 2017 OXNARD, Calif., Jan. 30, 2017  -- Clean Diesel Technologies, Inc.  , a leader in advanced emission control technology, appointed Peter J. Chase as Chief Operating Officer effective today,&nbsp;...BRIEF-CDTi appoints Peter J. Chase chief operating officer - Reuters'
p7
aS"Company Update : Clean Diesel Technologies, Inc.'s CEO Comments ... Smarter Analyst - Sep 24, 2015 Clean Diesel Technologies, Inc. , a leader in advanced emission control technology, released the following statement in response to numerous questions from industry analysts and investors regarding recent emissions compliance issues&nbsp;..."
p8
aS'CDTi Announces Changes to its Sales and Marketing Organization GlobeNewswire  - Oct 5, 2016 OXNARD, Calif., Oct. 05, 2016  -- Clean Diesel Technologies, Inc.  announced changes to its sales team and promoted Jason Soika to Vice President, Sales and Marketing, North America effective&nbsp;...'
p9
aS'Clean Diesel Technologies  Will Close Markham, Ontario, Facility StreetInsider.com - Dec 11, 2015 Clean Diesel Technologies, Inc.  announced it is closing its manufacturing facility located in Markham, Ontario to align its operating footprint in support of its advanced materials strategy.'
p10
a.