(lp0
S'Chemung Financial Corp  Ex-Dividend Date Scheduled for March 16, 2017 Nasdaq - Mar 15, 2017 Chemung Financial Corp  will begin trading ex-dividend on March 16, 2017. A cash dividend payment of $0.26 per share is scheduled to be paid on April 03, 2017.Chemung Financial  to pay $0.26 on Apr 3, 2017; Cal-Maine Foods (CALM ... - Herald KSChemung Financial Corp  Broker Price Targets For The Coming Week - Fiscal Standard'
p1
aS'Chemung Financial Corporation appoints new CEO Elmira Star-Gazette - Dec 29, 2016 Chemung Financial Corp. announced that its Board of Directors has appointed Anders Tomson as the president and chief executive of the corporation and its banking subsidiary, Chemung Canal Trust Co.Chemung Canal Trust Company, Capital Bank names new CEO - Albany Business Review'
p2
aS"Interested in Chemung Financial Corporation 's upcoming $0.26 dividend ... Simply Wall St - Mar 13, 2017 If you are interested in cashing in on Chemung Financial's  upcoming dividend of $0.26 you have only 3 days before the so called ex-dividend date on the Thu 16 Mar 2017.Chemung Financial Corp  Moves Lower on Volume Spike for March 13 - Equities.comThe Chemung Financial Corp. Plans Quarterly Dividend of $0.26  - Petro Global News 24"
p3
aS"CHEMUNG FINANCIAL CORPORATION  Files An 8-K Departure of ... Market Exclusive - Feb 24, 2017 On February 17, 2017, Chemung Financial Corporation's bank subsidiary, Chemung Canal Trust Company , determined that Louis DiFabio, Executive Vice President - Business Client Services and Thomas Wirth, Executive Vice President&nbsp;...Chemung Financial Corp  Receives An Update From Brokers - The De Soto Edge"
p4
aS'Stock Returns: Chemung Financial Corporation  versus Codorus ... CML News - 17 hours ago This is a snapshot to compare the stock returns for Chemung Financial Corporation  versus Codorus Valley Bancorp Inc  .'
p5
aS'Chemung Canal to Relocate Downtown Auburn Branch GlobeNewswire  - Mar 17, 2017 Chemung Financial Corporation is a $1.7 billion financial services holding company headquartered in Elmira, New York and operates 33 retail offices through its principal subsidiary, Chemung Canal Trust Company, a full-service community bank with full ...'
p6
aS'Chemung Financial Stock Rejoins Russell 2000 Index GlobeNewswire  - Jul 5, 2016 Chemung Financial stock was last included in the index from July 2013 through June 2014. At March 31, 2016 Chemung Financial Corporation reported total assets of $1.6 billion and total equity of $141 million. Chemung Financial Corporation is the ...'
p7
aS'Chemung Financial Corp  Breaks into New 52-Week High on March 10 Session Equities.com - Mar 10, 2017 Shares of Chemung Financial Corp  broke into a new 52-week high yesterday, hitting a peak of $39.50. Shares closed at $38.17 after opening at $39.48 for a move of -3.34%.Chemung Financial Corp. Plans Quarterly Dividend of $0.26  - Chaffey BreezeThe G. Thomas Jr. Tranter Purchases 605 Shares of Chemung Financial Corp ... - Petro Global News 24'
p8
aS'Chemung Financial Corp  Moves Higher on Volume Spike for March 07 Equities.com - Mar 7, 2017 Chemung Financial Corp  traded on unusually high volume on Mar. 07, as the stock gained 1.7% to close at $37.05. On the day, Chemung Financial Corp saw 22,166 shares trade hands on 142 trades. Considering that the stock averages only a daily&nbsp;...Chemung Financial Corp.  Director G. Thomas Jr. Tranter Purchases 395 ... - Chaffey BreezeIn Volatile Markets Do Analysts Think You Should Buy Chemung Financial Corp ... - The De Soto Edge'
p9
aS"Insider Trading Activity Chemung Financial Corp.   Director ... Market Exclusive - Mar 7, 2017 G. Thomas Jr. Tranter , Director of Chemung Financial Corp.  reportedly Bought 605 shares of the company's stock at an average price of 36 for a total transaction amount of $21,780.00 SEC Form."
p10
a.