(lp0
S"Chuy's Holdings, Inc. Reports Q4'16 - No Place To Hide Seeking Alpha - Mar 3, 2017 Chuy's Holdings, Inc. reported earnings for Q4'16 two days ago, missing Street estimates of revenues, earnings, and earnings per share.Chuy's Holdings Inc  to Post Q2 2017 Earnings of $0.38 Per Share ... - BNB Daily Chuy's Holdings Inc - Receive News &amp; Ratings Daily - BBNS"
p1
aS"Stock Returns: Fogo de Chao Inc  is Beating Chuy's Holdings Inc ... CML News - 16 hours ago This is a snapshot to compare the stock returns for Chuy's Holdings Inc  versus Fogo de Chao Inc  .The Brokerages Set Chuy's Holdings Inc  PT at $30.60 - Petro Global News 24Analysts Release Average Price Target Of 30.75 On Chuy's Holdings  - UK Market News"
p2
aS"69 Brilliant Ways Chuy's Holdings Inc Is Investing in the Future Motley Fool - Sep 10, 2016 Based in Austin, Texas, Chuy's is a growing chain of full-service Tex-Mex restaurants with national aspirations. Its irreverent brand, upbeat atmosphere, and commitment to freshly prepared food made from scratch attract diners in droves."
p3
aS"Why I Own Chuy's Holdings Inc Stock Motley Fool - Oct 21, 2016 Lately, though, Chuy's shares have looked anything but spicy. In late July, the stock was trading near $38. That was just before Stifel Nicolaus issued a bearish call on the entire restaurant sector , sending Chuy's shares plummeting. Almost three ..."
p4
aS"Chuy's Holdings  Q3 2016 Results - Earnings Call Transcript Seeking Alpha - Nov 1, 2016 Good day, everyone, and welcome to the Chuy's Third Quarter 2016 Earnings Conference Call. As a reminder, today's conference is being recorded."
p5
aS"Why Chuy's Holdings Inc. Jumped on Wednesday Motley Fool - Aug 5, 2015 What: Shares of Chuy's Holdings  roared to a 22% gain on Wednesday, following the release of spicy second-quarter results with a side of bullish analyst actions."
p6
aS"Stock Returns: Chuy's Holdings Inc  versus Jamba Inc  CML News - Mar 19, 2017 This is a snapshot to compare the stock returns for Chuy's Holdings Inc  versus Jamba Inc  . The stock return points we compare look at the last three-months, six-months and twelve-months.Brokerages Set Chuy's Holdings Inc  Price Target at $30.60 - Sports Perspectives"
p7
aS"Chuy's Holdings, Inc. Announces Fourth Quarter and Fiscal Year 2016 Financial ... Yahoo Finance - Feb 28, 2017 Steve Hislop, President and Chief Executive Officer of Chuy's Holdings, Inc. commented, We grew our revenue over 15% during 2016, drove positive comparable store sales for the seventh year in a row and produced adjusted net income growth of 17%.Chuy's Holdings, Inc.  Earns Hold Rating from BMO Capital Markets - BNB Daily KeyCorp Comments on Chuy's Holdings, Inc.'s Q1 2017 Earnings  - Chaffey Breeze"
p8
aS"Does Chuy's Holdings Inc Stock Still Have Room to Run? Motley Fool - Oct 14, 2015 Chuy's Holdings  prides itself on being a successful business with a highly acclaimed menu of made-from-scratch, authentic Tex-Mex dishes."
p9
aS"Pulling the Curtain Back on Chuy's Holdings, Inc.  Earnings ... Melville Review - 14 hours ago Wall Street is predicting that Chuy's Holdings, Inc. 's earnings per share  will be $0.27 when the firm is expected to announce earnings around 2017-05-02."
p10
a.