(lp0
S'Citizens Holding Company Announces Cash Dividend Yahoo Finance - Mar 7, 2017 Citizens Holding Company  announced today that its Board of Directors declared a cash dividend of $0.24 per share payable March 31, 2017, to shareholders of record as of March 17, 2017.'
p1
aS'Citizens Holding Company  Ex-Dividend Date Scheduled for March 15, 2017 Nasdaq - Feb 14, 2017 Citizens Holding Company  will begin trading ex-dividend on March 15, 2017. A cash dividend payment of $0.24 per share is scheduled to be paid on March 31, 2017.'
p2
aS'Citizens Holding Company Plans Quarterly Dividend of $0.24  Chaffey Breeze - Mar 9, 2017 Citizens Holding Company logo Citizens Holding Company  declared a quarterly dividend on Wednesday, March 8th.'
p3
aS'Citizens Holding Co fourth-quarter earnings drop by 27.94 percent on a YOY basis Myiris.com - Mar 20, 2017 Citizens Holding Company  has reported a 27.94 percent fall in profit for the quarter ended Dec. 31, 2016. The company has earned $1.68 million, or $0.34 a share in the quarter, compared with $2.33 million, or $0.48 a share for the same period ...'
p4
aS'Investar Holding Corporation Announces Agreement to Acquire Citizens ... GlobeNewswire  - Mar 8, 2017 BATON ROUGE, La., March 08, 2017  -- Investar Holding Corporation  , the holding company for Investar Bank, today announced that it has entered into a definitive agreement  to acquire&nbsp;...Investar reaches $45.8 million deal to buy Ville Platte bank - The Advocate'
p5
aS'Stock Returns: Citizens Inc  versus Independence Holding Company ... CML News - Feb 22, 2017 This is a snapshot to compare the stock returns for Citizens Inc  versus Independence Holding Company  .'
p6
aS'Citizens Financial Group Inc.  Dips 5.16% for March 21 Equities.com - Mar 21, 2017 Citizens Financial Group Inc. hit a high of $39.75 and a low of $18.34 over the last year. Citizens Financial Group Inc is a bank holding company. The company through its subsidiaries, provides retail and commercial banking products and services.The Citizens Financial Group Inc  Given Consensus Rating of Hold by ... - Petro Global News 24Share Price of Citizens Financial Group, Inc.  Decreases -2.71% - Energy Index'
p7
aS'CVB Financial Corp. Announces 110th Consecutive Cash Dividend Yahoo Finance - 5 hours ago  is the holding company for Citizens Business Bank. CVBF is the ninth largest bank holding company headquartered in California with assets of approximately $8.5 billion. Citizens Business Bank is consistently recognized as one of the top ...CVB Financial Corp.  Upgraded to Buy at Zacks Investment Research - Petro Global News 24CVB Financial Corp.  Director Sells $70440.00 in Stock - Sports Perspectives'
p8
aS"How First Citizens' execs were compensated in 2016 Triangle Business Journal - Mar 14, 2017 Bristow came to the company out of First Citizens' purchase of a South Carolina bank with a similar name: First Citizens Bank and Trust. Bristow had served as executive vice president and chief operating officer of that bank, and is Holding's brother ..."
p9
aS"Citizens Community Bancorp Inc.  Reaches $13.35 High on Mar, 20, Iao Kun ... Wolcott Daily - Mar 20, 2017 Iao Kun Group Holding Company Limited Ord  had an increase of 76.92% in short interest. IKGH's SI was 9,200 shares in March as released by FINRA."
p10
a.