(lp0
S'Form 3 CKX LANDS, INC. For: Jan 31 Filed by: Minvielle IV Eugene T StreetInsider.com - 11 hours ago News and research before you hear about it on CNBC and others. Claim your 2-week free trial to StreetInsider Premium here. FORM 3, UNITED STATES SECURITIES AND EXCHANGE COMMISSION Washington, D.C.'
p1
aS'Market Scope: Taking a Look at CKX Lands, Inc.  Searcy News - 4 hours ago Checking in on shares of CKX Lands, Inc. , the stock currently has a Value Composite Score of 62. Using a scale from 0 to 100, a score near zero would indicate an undervalued company and a higher score would signal an expensive or&nbsp;...'
p2
aS"Analysts See $0.32 EPS for Horizon Technology Finance ; Ckx Lands ... HuronReport - Mar 13, 2017 The SI to Ckx Lands Incorporated's float is 0.11%. The stock increased 12.50% or $1.5 on March 10, reaching $13.5. About shares traded."
p3
aS"News New Concept Energy Inc.GBR Wall Street Journal - Feb 11, 2011 P/E Ratio : The Price to Earnings  ratio, a key valuation measure, is calculated by dividing the stock's most recent closing price by the sum of the diluted earnings per share from continuing operations for the trailing 12 month period ..."
p4
aS'1.09 MarketWatch - Jul 16, 2010 . Competitors. Name, Chg %, Market Cap. CKX Lands Inc. -0.92%, $22.9M. ECA Marcellus Trust I, 2.44%, $36.97M.'
p5
aS"Nick's Micro-Cap Fund: An Introduction To A Model Portfolio Seeking Alpha - Aug 14, 2016 The portfolio is based upon value investing methodologies, with a high emphasis on margin of safety. The portfolio will be an active fund, giving me the ability to buy and sell when opportunities arise."
p6
aS"'American Idol' Owner CKX Sells To Financial Firm, Ending Robert FX Sillerman ... Deadline.com - May 10, 2011 At one point he even hoped to land rights to The Beatles. CKX caught everyone's attention in 2005 when Sillerman bought Idol creator Simon Fuller's 19 Entertainment."
p7
aS'WP Carey Inc. Dividend.com  - Oct 1, 2012 BXMT - Blackstone Mortgage Trust Inc. $30.69. -$0.11. -0.4%. CBSO - CBS Outdoor Americas Inc. $27.51. +$0.58. +2.2%. CIGI - Colliers International Group Inc. +. CKX - CKX Lands Inc. $11.90. +$0.25. +2.1%. DFT - Dupont Fabros Technology. $48.08.'
p8
aS'Tracking Tweedy Browne Portfolio - Q2 2016 Update Seeking Alpha - Aug 11, 2016 The largest five individual stock positions are Johnson &amp; Johnson, Cisco Systems, Berkshire Hathaway, Wells Fargo, and Halliburton and they account for ~44% of the US long portfolio.'
p9
aS"Showtime for Robert Sillerman with $260m IPO of SFX Entertainment Financial Times - Oct 9, 2013 In the years that followed his CKX group - the CK stood for Content is King - bought the rights to the hit show American Idol, through his 2005 acquisition of Simon Fuller's 19 Entertainment."
p10
a.