(lp0
S'Cliffs Proxy Statement And Large Owner Exit Seeking Alpha - 21 hours ago Cliffs Natural Resources  closed at $8.35 on March 21, 2017. The stock price ... In September 2016, Cliffs hired Mr. Celso Goncalves, the son of our Chairman, President and CEO, as our Assistant Treasurer.Are Options Traders Betting on a Big Move in Cliffs Natural Resources  Stock? - Yahoo FinanceCliffs Natural Resources Inc  Plunges 10.13% on March 21 - Equities.com'
p1
aS"About: Cliffs Natural  Seeking Alpha - Mar 15, 2017 Cliffs' upside depends on several things. First, the company should be able to operate at full capacity. As evident from the previous quarterly report, demand is already there.Why IAMGOLD, NeoPhotonics, and Cliffs Natural Resources Jumped Today - Motley Fool"
p2
aS'Cliffs Natural Resources Inc. Announces Increase in Maximum Payment Amount ... PR Newswire  - Mar 10, 2017 CLEVELAND, March 10, 2017 /PRNewswire/ -- Cliffs Natural Resources Inc.  is pleased to announce that its previously announced tender offers to purchase  for cash certain ...'
p3
aS"Why Cliffs Natural Resources Shares Exploded 21.5% Higher in February Motley Fool - Mar 6, 2017 Shares of miner Cliffs Natural Resources  advanced an impressive 21.5% in February. That adds to the 430%-plus gain the company's stock notched in 2016. Interestingly, however, the February advance only took shape after the 9th of the month&nbsp;...Cliffs Natural Resources: How US Steel Demand Is Progressing - Market RealistThe Technical Case for and Against Cliffs Natural Resources Inc.  - The USA Commerce"
p4
aS'BRIEF-Cliffs Natural Resources increases maximum payment amount for tender ... Reuters - Mar 10, 2017 March 10 Cliffs Natural Resources Inc: * Cliffs Natural Resources Inc. Announces increase in maximum payment amount with respect to tender offers for certain of its unsecured notes.'
p5
aS'Cliffs Natural Resources: Still Juice Left In This One? Seeking Alpha - Feb 27, 2017 Cliffs Natural Resources  still remains a good pick despite the stellar gains in the last six months. ... Based on my calculations, I expected the company to report full year adjusted EBITDA of $300-310 million (explained in the article ...'
p6
aS'Cliffs Natural Resources Inc. Announces Closing of 5.75% Senior Notes Offering PR Newswire  - Feb 27, 2017 CLEVELAND, Feb. 27, 2017 /PRNewswire/ -- Cliffs Natural Resources Inc.  announced today that it has issued $500 million aggregate principal amount of 5.75% Senior Notes due 2025.'
p7
aS"5 Incredibly Revealing Quotes From Cliffs Natural Resources' Management Motley Fool - Mar 1, 2017 After posting fourth quarter results that were well received by Wall Street, management at Cliffs Natural Resources  had some sharp words for the industry, as has been the case ever since new management took over a couple years ago."
p8
aS'A New Kind of Stock Chart: Cliffs Natural Resources Inc  Critical ... CML News - Mar 21, 2017 This is a real time view of the critical technical pivot points for Cliffs Natural Resources Inc  . The technical pivot points we look at all surround the stock price movement from the last 10-trading days through the last year.'
p9
aS'Trading Focus: Checking ATR Levels for Cliffs Natural Resources Inc  Baxter Review - 13 hours ago Traders may be narrowing in on the ATR or Average True Range indicator when reviewing technicals. At the time of writing, Cliffs Natural Resources Inc  has a 14-day ATR of 0.62. The average true range indicator was created by J. Welles Wilder in&nbsp;...'
p10
a.