(lp0
S"Comcast Corporation Announces Leadership Transition at Comcast Cable Yahoo Finance - Mar 20, 2017 Comcast Corporation announced today that Dave Watson will become President and CEO of Comcast Cable as Neil Smit moves into a new role as a Vice Chairman, Comcast Corporation, effective April 1. For the next few months, Smit will work closely with&nbsp;...Comcast's Watson taking over cable business - Seeking AlphaMajor Leadership Change at Comcast Corporation  - Smrt Stck Nws"
p1
aS'Better Buy: Comcast Corporation vs. Charter Communications Motley Fool - Mar 13, 2017 And two of its largest players, Comcast   and Charter Communications  each have an opportunity to profit from the coming shifts.'
p2
aS"Comcast Corporation  Files An 8-K Departure of Directors or ... Market Exclusive - Mar 20, 2017 Comcast Corporation is a media and technology company. The Company's primary businesses include Comcast Cable and NBCUniversal."
p3
aS"Comcast Corporation declined in the Previous Trading Session with the Change ... Free Observer - 18 hours ago If you look at the company's income statement over the past years, you will see that the company is constantly posting gross profit: In 2014, CMCSA earned gross profit of 47.86 Billion, in 2015 51.96 Billion gross profit, while in 2016 Comcast ..."
p4
aS"Comcast Corporation : Comcast to Participate in Deutsche Bank Investor Conference The Wall Street Transcript - Feb 21, 2017 PHILADELPHIA---- On Monday, March 6, 2017, Neil Smit, President and Chief Executive Officer of Comcast Cable and Senior Executive Vice President of Comcast Corporation , will participate in Deutsche Bank's 25&nbsp;...Courier Capital LLC Has $1761000 Stake in Comcast Corporation  - BNB Daily Large Outflow of Money Witnessed in Comcast Corporation - Money Flow Index & Trends"
p5
aS'Crius Energy and Comcast Corporation Expand Relationship to Accelerate ... Canada NewsWire  - Mar 6, 2017 Comcast Corporation  is a global media and technology company with two primary businesses, Comcast Cable and NBCUniversal.'
p6
aS'Comcast Corporation  Unveils LIFT Labs In A Move To Expand Its ... Traders350 - Mar 9, 2017 Comcast Corporation  is currently stepping into the startup accelerator game and it is pulling in with a program by the name LIFT whose initials stand for Leveraging Innovation For Tomorrow.Comcast Corporation , Morgan Stanley  Stock Eyes Ahead of Earnings - The USA Commerce'
p7
aS'Comcast Corporation  Commits To Helping Military Veterans In 120 ... Traders350 - Mar 3, 2017 Comcast Corporation  a Nasdaq Stock has just made a commitment to make 120 hires in military related positions on the Twin Cities before the end of year 2017.Steady Activities: Comcast Corporation  - TopChronicleAverage Brokerage Rating Of Comcast Corporation , Best Buy Co., Inc.  - The USA Commerce'
p8
aS'Comcast Promotes Kathy Zachem to Executive Vice President Yahoo Finance - Mar 15, 2017 Comcast Corporation announced today it has promoted Kathy Zachem to Executive Vice President, Regulatory and State Legislative Affairs.'
p9
aS'Analysts Review: Comcast Corporation  Post Registrar - 17 hours ago Comcast Corporation  share price plunged -1.09% or -0.41 points to reach at $37.07 during previous trading session.Analytical Guide for Comcast Corporation , Citigroup Inc.  Stakeholders - The USA CommerceComcast Corporation  plans to launch its fifth annual Watchathon - Benchmark Monitor'
p10
a.