(lp0
S"Comtech Telecommunications Corp. Announces $3.4 Million Order for Managed ... Yahoo Finance - Mar 21, 2017 March 21, 2017-- Comtech Telecommunications Corp.  announced today that its Command &amp; Control Technologies group, which is part of its Government Solutions segment, received a $3.4 million order from a prime contractor to the Department of&nbsp;...The Comtech Telecomm. Corp.'s  Buy Rating Reaffirmed at Noble Financial - Petro Global News 24"
p1
aS"CORRECTING and REPLACING Comtech Telecommunications Corp. Announces $4.0 ... Yahoo Finance - Mar 13, 2017 Comtech Telecommunications Corp.  announced today that during its third quarter of fiscal 2017, Comtech's Command and Control Technologies group, which is part of its Government Solutions segment, received approximately $4.0 million of orders&nbsp;..."
p2
aS'Comtech Telecommunications Corp. Announces Col. Michael Atcheson as President ... Yahoo Finance - Mar 7, 2017 Atcheson to the Company, said Fred Kornberg, President and Chief Executive Officer of Comtech Telecommunications Corp. In addition to his demonstrated leadership throughout his military and civilian careers, Col.Comtech Telecommunications Corp.  Reviewed By Analysts - The De Soto EdgeComtech Telecommunications Corp.  Given Average Recommendation of Buy ... - Petro Global News 24'
p3
aS"Comtech Telecommunications Corp. Announces Contract Renewal for Location ... Yahoo Finance - Mar 15, 2017 March 15, 2017-- Comtech Telecommunications Corp.  announced today that the Company's Commercial Solutions segment has received a two-year renewal agreement worth $7.3 million with a tier-one North American telecommunications company&nbsp;...Most Active Stock Update: Comtech Telecommunications Corp.  - HugoPressCommon Share Dividend Yield of Comtech Telecommunications Corp.  - Energy Index"
p4
aS'Comtech Telecommunications Corp.  Is Sharply Higher After Q2 Profit Nasdaq - Mar 9, 2017  - Comtech Telecommunications Corp.  reported second quarter EPS of $0.28 after the close Wednesday, up from $0.15 a year ago.Comtech Telecommunications Corp. Announces Results for the Second Quarter of ... - Yahoo Finance'
p5
aS"Comtech Telecommunications Corp. Awarded $5.5 Million Follow-on Contract for ... Yahoo Finance - Feb 14, 2017 February 14, 2017 -- Comtech Telecommunications Corp.  announced today that during its second quarter of fiscal 2017, its Santa Clara, California-based subsidiary, Comtech Xicom Technology Inc., which is part of Comtech's Commercial Solutions&nbsp;...Comtech Telecommunications Corp.  Raised to Buy at Zacks Investment Research - Sports Perspectives"
p6
aS"Comtech Telecommunications Corp. Announces Ground Breaking Heights Dynamic ... Yahoo Finance - Mar 6, 2017 March 6, 2017-- Comtech Telecommunications Corp.'s Tempe, AZ subsidiary, Comtech EF Data Corp., announced today the revolutionary Heights Dynamic Network Access  technology at the SATELLITE 2017 exhibition in Washington, D.C.Comtech Telecommunications Corp. - Receive News &amp; Ratings Daily - BBNS"
p7
aS'Analyst Activity  Noble Financial Reiterates Buy on Comtech Telecomm. Corp ... Market Exclusive - Mar 13, 2017 On 3/8/2017 Comtech Telecomm. Corp. announced a quarterly dividend of $0.10 2.9% with an ex dividend date of 4/17/2017 which will be payable on 5/19/2017.Comtech Telecomm. Corp.  Given Buy Rating at Noble Financial - Chaffey BreezeTwo Sigma Investments LP Has $2677000 Stake in Comtech Telecomm. Corp.  - BNB Daily '
p8
aS'Comtech Telecommunications Corp.  to Ring The Nasdaq Stock ... Yahoo Finance - Feb 17, 2017 Comtech Telecommunications Corp. , a leader in designing, developing, producing and marketing innovative products, systems and services for advanced communications solutions, will visit the Nasdaq MarketSite in Times Square in celebration of its&nbsp;...'
p9
aS"-2 High-Performance LDPC and Version 1.5 for the CDM-570A/L-IP Satellite Modems Business Wire  - Feb 8, 2017 TEMPE, Ariz.----February 8, 2017--Comtech Telecommunications Corp.'s Tempe, AZ subsidiary, Comtech EF Data Corp."
p10
a.