(lp0
S'Cinemark Holdings Inc Inc.  Moves Lower on Volume Spike for March 22 Equities.com - 9 hours ago Cinemark Holdings Inc Inc.  traded on unusually high volume on Mar. 22, as the stock lost 1.97% to close at $43.26. On the day, Cinemark Holdings Inc Inc. saw 1.6 million shares trade hands on 9,907 trades. Considering that the stock averages only ...Insider Trading Activity Cinemark Holdings, Inc.   EVP Sold 20609 ... - Market ExclusiveThe Cinemark Holdings, Inc.  EVP Michael Cavalier Sells 20609 Shares - Petro Global News 24'
p1
aS'Cinemark Holdings Inc  Ex-Dividend Date Scheduled for March 06, 2017 Nasdaq - Mar 3, 2017 Cinemark Holdings Inc  will begin trading ex-dividend on March 06, 2017. A cash dividend payment of $0.29 per share is scheduled to be paid on March 20, 2017.Is buying Cinemark Holdings Inc  for its upcoming $0.29 dividend a good ... - Simply Wall StCinemark Holdings Inc Inc.  Moves Higher on Volume Spike for March 01 - Equities.com'
p2
aS'Cinemark Holdings, Inc. Reports Record Results for 2016 and Announces a 7.4 ... Yahoo Finance - Feb 23, 2017 Cinemark Holdings, Inc. , one of the largest motion picture exhibitors in the world, today reported results for the three months and year ended December 31, 2016 and announced that its Board of Directors has increased its cash dividend by 7.4% to&nbsp;...Cinemark Holdings  Q4 2016 Results - Earnings Call Transcript - Seeking Alpha'
p3
aS'Stock Watch: Examining the Levels on Shares of Cinemark Holdings, Inc.  Rives Journal - 13 hours ago Tracking shares of Cinemark Holdings, Inc. , the company has a current EV  of 7183032. Enterprise Value measures the total value of a specific company.'
p4
aS'Stock Returns: Cinemark Holdings Inc  versus Live Nation ... CML News - 17 hours ago This is a snapshot to compare the stock returns for Cinemark Holdings Inc  versus Live Nation Entertainment Inc  .'
p5
aS'Stock Alert: Cinemark Holdings Inc Stock Volatility Hits A Collapsing Low CML News - Mar 20, 2017 Before we cover the full analysis we make a quick alert here that Cinemark Holdings Inc  has seen its stock price move at a collapsing low level.'
p6
aS'Why Cinemark Should Be Aggressively Bought At These Levels Benzinga - Oct 3, 2016 Loop Capital believes Cinemark Holdings, Inc.  should be bought aggressively at these levels given strong Q3 box office performance.'
p7
aS'Earnings Clues on Ralph Lauren Corporation , Cinemark Holdings, Inc. (CNK ... StockNewsJournal - Mar 20, 2017 Cinemark Holdings, Inc. , at its latest closing price of $44.44, it has a price-to-book ratio of 4.06, compared to an industry average at 3.26.'
p8
aS'Cinemark Holdings Inc Inc.  Moves Higher on Volume Spike for March 17 Equities.com - Mar 17, 2017 Cinemark Holdings Inc Inc.  traded on unusually high volume on Mar. 17, as the stock gained 0.98% to close at $44.44. On the day, Cinemark Holdings Inc Inc. saw 1.54 million shares trade hands on 6,868 trades. Considering that the stock averages&nbsp;...Cinemark Holdings, Inc.  EVP Michael Cavalier Sells 13055 Shares of Stock - The Cerbat GemNext Weeks Broker Price Targets For Cinemark Holdings Inc  - Fiscal Standard'
p9
aS'Cinemark Holdings Inc  Stock Gaining Upward Momentum Business Review - Mar 21, 2017 Cinemark Holdings Inc  shares are showing positive signals short-term as the stock has finished higher for 7 consecutive bars.'
p10
a.