(lp0
S"Consolidated Communications Holdings'  CEO Bob Udell on Q4 2016 Results ... Seeking Alpha - Feb 23, 2017 Good day, ladies and gentlemen, and welcome to the Consolidated Communications Holdings Inc. Fourth Quarter 2016 Results Conference Call.Consolidated Communications Holdings Inc.  Moves Lower on Volume Spike ... - Equities.comConsolidated Communications Holdings Inc.  PT Lowered to $24 at Jefferies - StreetInsider.com"
p1
aS'Consolidated Communications Holdings Becomes Oversold Nasdaq - Feb 24, 2017 But making Consolidated Communications Holdings Inc an even more interesting and timely stock to look at, is the fact that in trading on Friday, shares of CNSL entered into oversold territory, changing hands as low as $23.43 per share.'
p2
aS'Consolidated Communications Holdings, Inc.  Ex-Dividend Date Scheduled ... Nasdaq - Jan 10, 2017 Consolidated Communications Holdings, Inc.  will begin trading ex-dividend on January 11, 2017. A cash dividend payment of $0.387 per share is scheduled to be paid on February 01, 2017.'
p3
aS'Raymond James Upgrades Consolidated Communications Holdings Inc.  to ... StreetInsider.com - Mar 10, 2017 Raymond James upgraded Consolidated Communications Holdings Inc.  from Market Perform to Outperform with a price target of $26.00.Analyst Upgrades  Consolidated Communications Holdings  Stock ... - Market ExclusiveIs Consolidated Communications Holdings, Inc.  Preparing For A Breakout ... - Post Analyst'
p4
aS'New York State Teachers Retirement System Has $1746000 Position in ... Chaffey Breeze - 15 hours ago Consolidated Communications Holdings logo New York State Teachers Retirement System continued to hold its stake in shares of Consolidated Communications Holdings Inc  during the fourth quarter, according to its most recent 13F filing&nbsp;...Consolidated Communications Holdings Inc  Position Increased by Comerica ... - The Cerbat Gem'
p5
aS"Consolidated Communications'  Definitive Agreement to Acquire FairPoint ... Seeking Alpha - Dec 6, 2016 We appreciate you taking the time to join our call today to discuss Consolidated Communications' acquisition of FairPoint Communications announced earlier this morning."
p6
aS'Consolidated Communications: Just Buy A Junk Bond Instead Seeking Alpha - Aug 30, 2016 Consolidated Communications Holdings, Inc. recently unveiled hyper-fast internet services in California that could put downward pressure on its average consumer revenues.'
p7
aS'Consolidated Communications to Acquire Illinois-based Champaign Telephone Company GlobeNewswire  - Apr 18, 2016 MATTOON, Ill., April 18, 2016  -- Consolidated Communications Holdings, Inc.  announced today it has entered into a definitive agreement to acquire Champaign Telephone Company  and its sister company, Big&nbsp;...'
p8
aS'Consolidated Communications Holdings Inc.  Moves Higher on Volume Spike ... Equities.com - Feb 21, 2017 Consolidated Communications Holdings Inc.  traded on unusually high volume on Feb. 21, as the stock gained 2.63% to close at $26.57.CNSL Breaks Above 6% Yield Territory - Nasdaq'
p9
aS'FairPoint sold to Consolidated Communications Brattleboro Reformer - Dec 7, 2016 An Illinois-based communications company announced Monday that it has entered into an agreement to purchase FairPoint Communications Inc. Consolidated Communications Holdings Inc. will buy FairPoint for $1.5 billion. Consolidated Communications&nbsp;...Consolidated Communications to buy FairPoint in $1.5b deal - The Union Leader'
p10
a.