(lp0
S'CONSOL Energy to Participate at the Scotia Howard Weil 45th Annual Energy ... PR Newswire  - Mar 17, 2017 PITTSBURGH, March 17, 2017 /PRNewswire/ -- CONSOL Energy Inc.  announced today that it will participate in the Scotia Howard Weil 45th Annual Energy Conference in New Orleans on Monday and Tuesday, March 27-28, 2017.Hot Stock Overview: CONSOL Energy Inc.  - HugoPressBrokerages Set CONSOL Energy Inc.  PT at $22.47 - The Cerbat Gem'
p1
aS'Why CONSOL Energy Inc.  Could Be a Potential Winner March 03, 2017 Zacks.com - Mar 3, 2017 One such company that looks well positioned for a solid gain, but has been overlooked by investors lately, is CONSOL Energy Inc.  . This Coal stock has actually seen estimates rise over the past month for the current fiscal year by ...'
p2
aS'Market Conditions Make CONSOL Energy A Bad Investment Candidate Seeking Alpha - Feb 21, 2017 However, the company has suffered losses for the past two years due to the fall in natural gas prices. Natural gas oversupply has led to a drastic decrease in price and unusually warm winters have decreased demand for the product.'
p3
aS"Trading Options During Earnings in CONSOL Energy Inc  CML News - Mar 21, 2017 We're going to examine buying and selling out of the money strangles in CONSOL Energy Inc and find out once and for all what the winning trades have been during earnings releases."
p4
aS"Active Volume Stock: CONSOL Energy Inc.  HugoPress - 17 hours ago SunTrust Robinson Humphrey Downgrades CONSOL Energy Inc. 's stock to Hold with no specific Price Target. This rating was issued on 1/30/17."
p5
aS"Drilling Down Into the Charts for CONSOL Energy Inc.  The USA Commerce - Mar 20, 2017 We have gathered the technical data on CONSOL Energy Inc. , and see some interesting trends in the stock's behavior of late."
p6
aS'CONSOL Energy  Down 5.1% Since Earnings Report: Can It Rebound? Yahoo Finance - Mar 3, 2017 A month has gone by since the last earnings report for CONSOL Energy Inc. CNX. Shares have lost about 5.1% in that time frame, underperforming the market.'
p7
aS'CONSOL Energy Inc.  Downgraded to Hold at Zacks Investment Research The Cerbat Gem - Mar 21, 2017 CONSOL Energy Inc. logo Zacks Investment Research lowered shares of CONSOL Energy Inc.  from a buy rating to a hold rating in a research note released on Tuesday.Buckling Under the Trendline, Can This Stock Reverse Course: CONSOL Energy Inc ... - Midway MonitorCONSOL Energy Inc.  hit its 52 Week low of $9.66 - The Newburgh Press'
p8
aS'Investors Spotlight: Internap Corporation , CONSOL Energy Inc.  TRA - 14 hours ago Internap Corporation  posted earnings of $-0.11/Share in the previous quarter, as compared to earnings of $-0.13/share estimated by analysts.'
p9
aS"Taking a Look at the Chart for CONSOL Energy Inc.  The USA Commerce - Mar 16, 2017 We have gathered the technical data on CONSOL Energy Inc. , and see some interesting trends in the stock's behavior of late."
p10
a.