(lp0
S"Cabot Oil &amp; Gas  Q4 2016 Results - Earnings Call Transcript Seeking Alpha - Feb 24, 2017 Good morning and welcome to the Cabot Oil &amp; Gas Corporation's 2016 year-end and fourth quarter earnings conference call.Cabot Oil &amp; Gas  Q4 Earnings In Line, Revenues Miss - Yahoo Finance"
p1
aS"Cabot Oil &amp; Gas Corporation performed Poor with a change of -0.35% in the Last ... Free Observer - 16 hours ago If you look at the company's income statement over the past years, you will see that the company is constantly posting gross profit: In 2014, COG earned gross profit of 1.65 Billion, in 2015 776.16 Million gross profit, while in 2016 Cabot Oil &amp; Gas ..."
p2
aS"Drilling Down Into the Charts for Cabot Oil &amp; Gas Corporation  The USA Commerce - Mar 17, 2017 We have gathered the technical data on Cabot Oil &amp; Gas Corporation , and see some interesting trends in the stock's behavior of late."
p3
aS"Sell-Side Analyst's Predictions: Visa Inc. , Cabot Oil &amp; Gas Corporation  The USA Commerce - Mar 16, 2017 Shares of Visa Inc.  surged 0.41% to $89.92. During the trading on 03/15/2017, Company's stock ranged from $89.41 to $90.10.Impact of Brokerage Rating on Cabot Oil &amp; Gas Corporation  - Normangee Star"
p4
aS'Cabot Oil &amp; Gas Q4 Earnings in Line with Estimates, Sales Lag Yahoo Finance - Feb 24, 2017 Domestic energy explorer Cabot Oil &amp; Gas Corp. COG reported fourth quarter earnings per share - adjusted for special items - of 1 cent, in line with the Zacks Consensus Estimate but compared favorably with the year-ago quarter adjusted loss of 2 cents.Cabot Oil &amp; Gas Increases 2017 Spending on Firmer Commodity Prices - Natural Gas Intelligence'
p5
aS'The Technicals For Cabot Oil &amp; Gas Corporation  Tell An Interesting Tale NY Stock News - 17 hours ago The technicals for Cabot Oil &amp; Gas Corporation  have taken shape, and with them a comprehensive picture has emerged.'
p6
aS"Cabot Oil &amp; Gas Corporation  : How Do the Technicals Stack Up? The USA Commerce - Mar 21, 2017 We have gathered the technical data on Cabot Oil &amp; Gas Corporation , and see some interesting trends in the stock's behavior of late."
p7
aS"BRIEF-Cabot Oil &amp; Gas CEO Dan Dinges' 2016 total compensation was $11.3 mln Reuters - Mar 21, 2017 ... risk on doubts over the economic agenda of U.S. President Donald Trump. Concerns that the U.S. would not push through corporate tax cuts as promised before last year's election pulled down stocks in Asia, with the negative sentiment spilling into ..."
p8
aS'The Cabot Oil &amp; Gas Co. Expected to Earn Q2 2017 Earnings of $0.15 Per Share  Petro Global News 24 - Mar 21, 2017 Bank of America Corp lowered Cabot Oil &amp; Gas Co. from a buy rating to an underperform rating and decreased their price objective for the stock from $27.00 to $21.00 in a research report on Wednesday, January 4th.Cabot Oil &amp; Gas Co.  to Post Q1 2018 Earnings of $0.21 Per Share, KeyCorp ... - Chaffey BreezeMarket Movers: Cabot Oil &amp; Gas Corporation , Range Resources Corporation ... - TRA'
p9
aS'Still A Value Trap?  Cabot Oil &amp; Gas Corporation , ConocoPhillips  USA Commerce Daily - 17 hours ago Shares of Cabot Oil &amp; Gas Corporation  observed rebound of 13.2% since bottoming out at $20.02 on Nov. 04, 2016.'
p10
a.