(lp0
S"Cott Corporation's Comeback Hits a Roadblock The Motley Fool Canada - Sep 29, 2016 Ever since Cott Corporation  announced its second-quarter earnings August 4, the news wires have gotten awfully quiet, and so has Cott's stock, which is down 7% over the past two months."
p1
aS'Cott Announces Closing of $750 Million 5.50% Senior Notes Offering, Results to ... Canada NewsWire  - 14 hours ago TORONTO and TAMPA, FL, March 22, 2017 /CNW/ - Cott Corporation    announced today that its wholly owned subsidiary, Cott Holdings Inc. , has closed its private placement of $750 million in aggregate ... The ...'
p2
aS"BRIEF-Cott Corp says CEO Jerry Fowden's total compensation for 2016 $9.2 mln Reuters - 16 hours ago Reuters is the news and media division of Thomson Reuters. Thomson Reuters is the world's largest international multimedia news agency, providing investing news, world news, business news, technology news, headline news, small business news, news&nbsp;..."
p3
aS"Stock's Buzzers Abraxas Petroleum Corp. , Cott Corporation (USA ... Daily News Journal - Mar 21, 2017 On Monday, Abraxas Petroleum Corp.  stock opened its trade at $1.92 and after floating in a range of $1.88 to $2.17, settled at $2.10."
p4
aS'After Falling 36%, Is It Time To Start Sipping On Cott Corporation? Seeking Alpha - Dec 19, 2016 Cott was one of the best performers of 2015 and the first half of 2016 due to being an unloved, easy-to-understand business turning around through acquisitions.'
p5
aS"Cott Corporation  Ex-Dividend Date Scheduled for March 10, 2017 Nasdaq - Mar 9, 2017 Cott Corporation  will begin trading ex-dividend on March 10, 2017. A cash dividend payment of $0.105 per share is scheduled to be paid on March 29, 2017.Cott Corporation  Rises 5.38% for March 08 - Equities.comAnalysts' Recommendations Stocks News Review: PPL Corp  &amp; Cott ... - Daily News Journal "
p6
aS'Cott Corporation expanding Tampa headquarters, adding jobs Florida Trend - Jan 13, 2017 That makes this region increasingly attractive to us. With over 12,000 employees, Cott maintains operations in 20 countries worldwide.Tampa beverage company Cott Corp. expanding headquarters by 60 jobs, investing ... - Tampabay.comNC staffing firm BlueLine Associates moves headquarters to Tampa, Cott Corp ... - TBO.com'
p7
aS'Cott Corporation to offer $650M of senior notes Seeking Alpha - Mar 6, 2017 Cott Holdings Inc., a wholly owned subsidiary of Cott Corporation  announced its intention to offer $650M aggregate principal amount of senior notes due 2025 in a private offering.'
p8
aS"Cott Corporation   Releases Earnings Results, Beats Expectations By ... Highland Mirror - Feb 23, 2017 Cott Corporation   announced its most recent quarterly financial results on Thursday, Feb-23-2017. COT said it had a profit of $0.01 Earnings per Share for the quarter.Cott Corp looks to future as purchases boost 2016 sales - results - just-drinks.com What does Cott Corporation's  balance sheet tells us abouts its future? - Simply Wall St"
p9
aS"Cott   At $12.14 Forms Bottom; HELLENIC TELEPHONE ADS (HLTOY ... Herald KS - Mar 20, 2017 Cott Corporation   formed multiple bottom with $11.53 target or 5.00% below today's $12.14 share price.What Type of Consensus Opinions Analysts hold about Cott Corporation's (COT ... - Hot Stocks Point"
p10
a.