(lp0
S'Community Shores Bank Corporation  Files An 8-K Termination of a ... Market Exclusive - 11 hours ago On March 16, 2017, the Federal Reserve Bank of Chicago publicly announced the termination of its Written Agreement with Community Shores Bank Corporation. The Written Agreement was entered into in December of 2010. A copy of the Written Agreement&nbsp;...'
p1
aS'Community Shores Bank seeks $6.4 million in stock offering MiBiz - Jun 28, 2015 Community Shores Bank Corp. will seek to raise $6.4 million in needed capital in a stock offering to existing shareholders that would go to pay off debt, maintain operations and improve its capital position.'
p2
aS"Muskegon's Community Shores Bank provides details of its Fifth Third loan default Michigan Business Review - MLive.com - Apr 2, 2011 Community Shores bank is in default on a $5 million loan to Fifth Third Bank and is unable to pay either the principal amount or $155,000 in unpaid interest, bank officers publicly report."
p3
aS'$500000 loan from city sought for six-story downtown building MLive.com - Mar 14, 2017 Other financing for the project includes $1.5 million committed by the Community Foundation for Muskegon County, $2.72 million from Community Shores Bank and a $1.5 million state grant the developers have applied for, according to information the&nbsp;...'
p4
aS'Value From Financial Sector Uncertain GuruFocus.com - Jan 12, 2017 Publicly traded banks such as Community Shores Bank , Northwest Bancorporation Inc. and Great American Bancorp Inc.  all trade at price-tangible book ratios of less than 0.7 although their small sizes may put many investors off.'
p5
aS"'We want to preserve what we've got here&quot;: Chilliwack community out in force ... Vancouver Sun - Mar 19, 2017 CHILLIWACK - Ross Aikenhead's pickup truck rumbles up the river bank and stops in front of a huge garbage bin. As rain falls in sheets from a grey sky that's almost indistinguishable from the Fraser River a few metres away, he lowers his tailgate to ..."
p6
aS'Bank branch robbed in Miami Shores on the weekend -- again Miami Herald - Sep 5, 2016 A masked armed duo hit the TD Bank Branch in Miami Shores Sunday for what the FBI believes might be the second time in 22 days.Robbers Hit TD Bank On Miami Shores - CBS Local'
p7
aS"Dancing with the Local Stars 2017 starts Thursday MLive.com - Feb 19, 2017 &quot;The stars and pros participating in this year's event have been giving it their all the past few months to make this the best event yet for the community,&quot; said Christina Fecher, co-chair of the DWTLS publicity committee. &quot;We've seen a lot of teamwork ..."
p8
aS'Dancing with the Local Stars tickets go on sale Jan. 2 MLive.com - Dec 28, 2016 Steve Dangel and Lisa Jirikovic entertain the crowd with a comedic Charleston complete with booze in a brown paper bag, a park bench and flapper dress.'
p9
aS'Norton Shores bank robber captured on camera WOODTV.com - Jun 7, 2016 NORTON SHORES, Mich.  - Norton Shores police are releasing surveillance photos in hopes of tracking down a bank robber. The crime happened on May 23 at the First Merit Bank located at 917 W. Norton Ave. Police say a man walked into the&nbsp;...'
p10
a.