(lp0
S"BRIEF-Cooper Tire &amp; Rubber Co says CEO Bradley Hughes' total compensation for ... Reuters - Mar 20, 2017 BRIEF-Cooper Tire &amp; Rubber Co says CEO Bradley Hughes' total compensation for 2016 was $4.2 mln. March 20 Cooper Tire &amp; Rubber Co. * CEO Bradley E. Hughes' total compensation for 2016 was $4.2 million - SEC Filing. * Former Chairman, CEO&nbsp;..."
p1
aS'Goodyear, Cooper Tire employees honored with STEP Ahead awards RubberNews.com - 10 hours ago AKRONThe Manufacturing Institute will honor five women who work for Goodyear and Cooper Tire &amp; Rubber Co. at its upcoming Women in Manufacturing STEP  Ahead Awards for leadership in their&nbsp;...JP Morgan Upgrades the shares of Cooper Tire &amp; Rubber Co.  to Overweight - HugoPressCooper Tire &amp; Rubber Co  Stock Is A Classic Mid-Cap Value - Investorplace.com'
p2
aS"The Manufacturing Institute Honors Three at Cooper Tire &amp; Rubber Company with ... Yahoo Finance - Mar 15, 2017 Christine Linder, Manufacturing Services Manager at Cooper Tire &amp; Rubber Company's tire manufacturing facility in Texarkana, Ark, has been honored by The Manufacturing Institute with a 2017 STEP Ahead Award."
p3
aS'Cooper Tire &amp; Rubber Company Names John Bollman Senior Vice President &amp; Chief ... Yahoo Finance - Mar 10, 2017 Cooper Tire &amp; Rubber Company  today announced that John Bollman will join the company as Senior Vice President &amp; Chief Human Resources Officer effective March 21.Cooper Tire names chief human resources officer - RubberNews.com'
p4
aS'Analyst Upgrades  Cooper Tire &amp; Rubber Co  Stock Gets Upgraded By ... Market Exclusive - Mar 14, 2017 Today, Cooper Tire &amp; Rubber Co  stock received an upgrade by JPMorgan Chase &amp; Co. from Neutral to Overweight with a price target of $51.00.Bollman joins Cooper Tire &amp; Rubber Company - Lima OhioCooper Tire &amp; Rubber Company Risk Points versus Consumer Discretionary - CML News'
p5
aS"Cooper Tire &amp; Rubber Company  Ex-Dividend Date Scheduled for February 28 ... Nasdaq - Feb 27, 2017 Cooper Tire &amp; Rubber Company  will begin trading ex-dividend on February 28, 2017. A cash dividend payment of $0.105 per share is scheduled to be paid on March 31, 2017.Cooper Tire 'Dream Team' Visits UM - HottyToddy.comTraders Secrets on Performance Food Group Company , Cooper Tire &amp; Rubber ... - StockNewsJournal"
p6
aS'Insider Trading Activity Cooper Tire &amp; Rubber Co   VP Sold 14041 ... Market Exclusive - Mar 2, 2017 On 8/10/2012 Harold C Miller Jr, VP Sell, 7,473 $19.51 with an average share price of $145,798.23 View SEC Filing 8/10/2012 per share and the total transaction amounting to Robert W Huber.'
p7
aS'Cooper Tire &amp; Rubber Co. Names John Bollman Senior Vice President And Chief ... AftermarketNews.com  - Mar 10, 2017 Cooper Tire &amp; Rubber Co. has announced that John Bollman will join the company as senior vice president and chief human resources officer, effective March 21.'
p8
aS'Ex-Dividend Reminder: Travelport Worldwide, Cooper Tire &amp; Rubber and ... Nasdaq - Feb 24, 2017 Looking at the universe of stocks we cover at Dividend Channel , on 2/28/17, Travelport Worldwide Ltd , Cooper Tire &amp; Rubber Co. , and Eversource Energy  will all trade ex-dividend for their respective upcoming&nbsp;...'
p9
aS'Scorching Stock in Action: Cooper Tire &amp; Rubber Co.  TopChronicle - Feb 21, 2017 Many Analysts provided their foresight on Revenue Estimates of Cooper Tire &amp; Rubber Co. where they believe that the company has the potential to earn average revenue of $671.78 Million for the current quarter.Cooper Tire &amp; Rubber Company  Moves Higher on Volume Spike for February 22 - Equities.com'
p10
a.