(lp0
S'Computer Task Group: Deathly Balance Sheet Sleeper Seeking Alpha - Feb 1, 2017 As a company, Computer Task Group  is another rust bucket IT services and staffing provider. CTG has been around for half a century, has clichd old school black and white pictures of their first IBM  mainframe on the company&nbsp;...'
p1
aS"News Computer Task Group Inc.CTG Wall Street Journal - Feb 15, 2011 P/E Ratio : The Price to Earnings  ratio, a key valuation measure, is calculated by dividing the stock's most recent closing price by the sum of the diluted earnings per share from continuing operations for the trailing 12 month period ..."
p2
aS"James R. Boldt, Computer Task Group CEO, dies unexpectedly Buffalo News - Oct 14, 2014 James R. Boldt, who guided Computer Task Group's push into the medical data field over the past 13 years, died unexpectedly Monday, the Buffalo-based information technology company said Tuesday. The company appointed Brendan M. Harrington, the&nbsp;..."
p3
aS"Computer Task Group's  CEO Bud Crumlish on Q3 2016 Results - Earnings ... Seeking Alpha - Oct 25, 2016 If you don't have a copy of the earnings results press release distributed early this morning, you can access it in the IR section of the company's website at ctg.com. Before we begin, I want to mention that statements during the course of this ...CTG Reports 2016 Third Quarter Results - GlobeNewswire "
p4
aS'IT Consulting Firm Computer Task Group Set To Ride The Healthcare Wave Seeking Alpha  - Sep 23, 2014 CTG is at a cheap price point near its 52-week low following flat sales over the past year. The company has a strong foothold in the healthcare IT consulting business that is set to grow with opportunities in the U.S.'
p5
aS'Computer Task Group Inc  Moves into Overbought Territory Business Review - Mar 18, 2017 Computer Task Group Inc  has a current 14-day RSI of 75.92, indicating that the shares have entered into overbought range.'
p6
aS"Relx NV   Reaches $18.11 After 6.00% Up Move; Computer Task Group ... Herald KS - Mar 21, 2017 Analysts await Computer Task Group, Inc.  to report earnings on April, 25. They expect $0.05 EPS, up 25.00% or $0.01 from last year's $0.04 per share."
p7
aS'Do Investors Think Computer Task Group  Stock is a Buy? Nasdaq - Aug 27, 2015 If you are looking for a stock in the IT Services industry, Computer Task Group Inc.  could be one to watch closely.'
p8
aS'Computer Task Group, Inc.  Reaches $5.89 After 3.00% Up Move; Nokota ... Herald KS - Mar 20, 2017 The stock of Computer Task Group, Inc.  is a huge mover today! About 64,260 shares traded or 23.80% up from the average.'
p9
aS"Form 4 COMPUTER TASK GROUP INC For: Mar 01 Filed by: CRUMLISH ARTHUR W StreetInsider.com - Feb 20, 2017 Find out which companies are about to raise their dividend well before the news hits the Street with StreetInsider.com's Dividend Insider Elite."
p10
a.