(lp0
S'Up Nearly 60% Since IPO, Camping World Holdings Inc Hits Its First Speed Bump Motley Fool - Mar 17, 2017 In this segment from Market Foolery, Chris Hill is joined by Bill Barker from Motley Fool Funds to discuss the latest quarterly results from recreational vehicle manufacturer Camping World Holdings . The stock has traded down slightly since&nbsp;...'
p1
aS'Camping World Holdings, Inc. Reports Fourth Quarter Results Yahoo Finance - Mar 8, 2017 This press release presents historical results, for the periods presented, of Camping World Holdings, Inc.  and its subsidiaries that are presented in accordance with accounting principles generally accepted in the United States , unless ...Camping World Continues Rapid Virgina Expansion with Acquisition of Safford RV - Marketwired Camping World Holdings, Inc.  likely to see 3% move on its earnings ... - Post Analyst'
p2
aS"Wall Street Goes Mild Over New IPO: Camping World Holdings Inc. Motley Fool - Nov 1, 2016 Camping World Holdings  is the stock's name, and recreational vehicles  are its game. This morning, no fewer than six Wall Street analysts announced new ratings for Camping World Holdings, splitting their ratings down the middle with&nbsp;...Analysts Pitch Tent Over Camping World - Benzinga"
p3
aS"Hot Stocks Among Investors: Camping World Holdings, Inc. , Zendesk, Inc ... Post Analyst - 17 hours ago Analysts have placed a $37.82 price target on Camping World Holdings, Inc., suggesting a 18.08% gain from recent close. It's currently trading about -12.08% below its 52-week high.The Camping World Holdings Inc  Cut to Hold at Forward View - Petro Global News 24Camping World Holdings Inc  Cut to Hold at Zacks Investment Research - Sports Perspectives"
p4
aS"Camping World Holdings, Inc. Announces Date of Fourth Quarter and Full Fiscal ... Yahoo Finance - Feb 22, 2017 Camping World Holdings Inc.  , the nation's largest network of RV-centric retail locations, today announced that its financial results for the fourth quarter and full fiscal 2016 will be released after market close on Wednesday ..."
p5
aS"Camping World Holdings rises 3% after IPO CNBC - Oct 6, 2016 Shares of Camping World Holdings rose more than 3 percent Friday, their first day of trading. The recreational vehicle dealership's stock traded at around $23 Friday on the New York Stock Exchange, opening at $23.75 after pricing at $22 a share, the ...What Investors Need to Know About the Camping World Holdings IPO - Motley FoolCamping World Holdings, Inc. Announces Pricing of Initial Public Offering - Business Wire "
p6
aS'IPO Preview: Camping World Holdings - Largest RV Retailer Seeking Alpha - Oct 6, 2016 Camping World Holdings, the largest RV retailer in the US, is set to IPO this Friday, Oct. 7. CWH plans to offer 11.4 million shares at a price range of $21-$23.'
p7
aS'Ron Baron Buys Camping World Holdings, Under Armour, SiteOne Landscape Supply ... Nasdaq - Feb 15, 2017 Ron Baron initiated holdings in Camping World Holdings Inc. The purchase prices were between $20.52 and $33.23, with an estimated average price of $25.72.'
p8
aS"Camping World to Host 4th Annual New Product Vendor Summit May 17-18, Bowling ... Yahoo Finance - 12 hours ago LINCOLNSHIRE, IL-- - Camping World Holdings, Inc.  , the nation's largest network of RV-centric retail locations, today announced its 4th annual New Product Vendor Summit. The Summit offers&nbsp;..."
p9
aS'Crestview Partners II GP, LP Buys Camping World Holdings GuruFocus.com - Feb 16, 2017 New York, NY, based Investment company Crestview Partners II GP, L.P. buys Camping World Holdings during the 3-months ended 2016-12-31, according to the most recent filings of the investment company, Crestview Partners II GP, L.P.. As of 2016-12-31,&nbsp;...'
p10
a.