(lp0
S'Donegal Group Inc. Announces First Quarter 2017 Webcast Yahoo Finance - Mar 21, 2017 MARIETTA, Pa., March 21, 2017  -- Donegal Group Inc.   announced that the Company plans to hold a live webcast on Wednesday, April 19, 2017, at 11:00AM Eastern Time, to discuss its results for the first quarter ended&nbsp;...'
p1
aS'Donegal Group Inc. Announces 2016 Fourth Quarter and Full Year Results GlobeNewswire  - Feb 17, 2017 Kevin G. Burke, President and Chief Executive Officer of Donegal Group Inc., stated, Donegal Group reported strong fourth quarter and full year of 2016 underwriting results, highlighted by increases in both net income and operating income, with annual&nbsp;...Donegal Group posts 179.9% surge in Q4 net profits - LancasterOnline'
p2
aS'Donegal Group Inc. Class A Common Stock  Moves Lower on Volume Spike ... Equities.com - Mar 20, 2017 Donegal Group Inc. Class A Common Stock  traded on unusually high volume on Mar. 20, as the stock lost 3.15% to close at $17.53.Donegal Group Inc. : How technical indicators have come out? - Post AnalystFundamentals in Focus for Donegal Group Inc.  - The Finance Registrar'
p3
aS'Donegal Group Inc  Surging Higher of Late Business Review - 13 hours ago Over the past five sessions, Donegal Group Inc  has pulled in nice gains, moving higher 5.49% over the past five sessions.'
p4
aS"Donegal Group Inc. and Donegal Mutual Insurance Company Purchase Shepard Shares GlobeNewswire  - Dec 22, 2015 MARIETTA, Pa., Dec. 22, 2015  -- Donegal Group Inc.    today reported that it, along with Donegal Mutual Insurance Company , the holder of majority voting control of DGI,&nbsp;...Donegal Group critic sells stake for $70M, agrees to let firm alone - LancasterOnlinePennsylvania's Donegal Buys Out Activist Investor's Shares for $70M - Insurance Journal"
p5
aS'Is Donegal Group Inc  Starting a Bull Run? Business Review - 13 hours ago Pushing higher over the last five sessions are shares of Donegal Group Inc . The stock has risen 6.25% over that span, yielding profits for savvy traders.'
p6
aS'Donegal Group Inc. Announces Kevin G. Burke Appointed President and Chief ... GlobeNewswire  - Jul 17, 2015 MARIETTA, Pa., July 17, 2015  -- Donegal Group Inc.    announced today that Donald H. Nikolaus, the Chairman of the Board, President and Chief Executive Officer of DGI, which was founded&nbsp;...Donegal Group appoints Kevin Burke president and CEO - LancasterOnline'
p7
aS'Donegal Group Inc. Class A Common Stock  Moves Lower on Volume Spike ... Equities.com - Feb 27, 2017 Donegal Group Inc. Class A Common Stock  traded on unusually high volume on Feb. 27, as the stock lost 0.3% to close at $16.85.Analysts Set $19.00 Price Target for Donegal Group, Inc.  - Community Financial NewsRevenue Update on Donegal Group - Money Flow Index & Trends'
p8
aS'Donegal Group Inc. Class A Common Stock  Moves Higher on Volume Spike ... Equities.com - Feb 24, 2017 Donegal Group Inc. Class A Common Stock  traded on unusually high volume on Feb. 24, as the stock gained 0.72% to close at $16.90.'
p9
aS"New Mexico's Mountain States Mutual to Merge with Donegal Mutual Insurance Journal - Dec 21, 2016 Donegal Mutual and the insurance subsidiaries of Donegal Group Inc. sell personal and commercial property/ casualty insurance in 21 Mid-Atlantic, Midwestern, New England and Southern states and had net premiums written of $738.7 million in 2015."
p10
a.