(lp0
S"How Discovery Communications Inc. Is Looking Abroad for New Growth Motley Fool - Feb 21, 2017 In this segment from Market Foolery, Chris Hill and Simon Erickson look at the international growth of Discovery Communications'  various channels. It may not be the biggest media name in the U.S., where its viewership has declined ..."
p1
aS'Discovery Communications Announces the Early Results of its Cash Tender Offer ... PR Newswire  - Mar 14, 2017 SILVER SPRING, Md., March 14, 2017 /PRNewswire/ -- Discovery Communications, Inc.   today announced that, pursuant to the previously-announced cash tender offer  by its wholly-owned&nbsp;...'
p2
aS'Discovery Communications Announces Debt Offering PR Newswire  - Feb 28, 2017 28, 2017 /PRNewswire/ -- Discovery Communications, Inc.   announced today that Discovery Communications, LLC  has commenced an underwritten public offering of a new series of&nbsp;...Successful Earnings Option Trading: Discovery Communications Inc  - CML NewsZacks Investment Research Upgrades Discovery Communications, Inc.  to Hold - The Cerbat Gem'
p3
aS'What Analysts are Predicting For Discovery Communications, Inc. (DISCK ... The USA Commerce - 16 hours ago Discovery Communications, Inc.  share price decreased in the last trading session with a previous 52-week high of $29.07.'
p4
aS"Discovery Communications, Inc.  Files An 8-K Other Events Market Exclusive - Mar 15, 2017 Discovery Communications, Inc.,  is a global media company. The Company provides content across multiple distribution platforms, including pay-television , free-to-air and broadcast television, Websites, digital distribution ...What are Analyst's Indicators for Discovery Communications, Inc. (DISCA ... - The USA CommerceDiscovery Communications, Inc.  loses confidence of 47 hedge fund managers - Post Analyst"
p5
aS'Discovery Communications Announces Cash Tender Offer for Up to $600 Million ... PR Newswire  - Feb 28, 2017 SILVER SPRING, Md., Feb. 28, 2017 /PRNewswire/ -- Discovery Communications, Inc.   today announced the commencement of a cash tender offer  by its wholly-owned subsidiary,&nbsp;...'
p6
aS"Why Discovery Communications Inc. Stock  Is Great Value Investors Investorplace.com - Mar 8, 2017 Value investing is easily one of the most popular ways to find great stocks in any market environment. After all, who wouldn't want to find stocks that are either flying under the radar and are compelling buys, or offer up tantalizing discounts when ...Is Discovery Communications  a Great Stock for Value Investors? March ... - Zacks.com"
p7
aS'Discovery Communications Announces the Pricing Terms of its Cash Tender Offer ... PR Newswire  - Mar 14, 2017 SILVER SPRING, Md., March 14, 2017 /PRNewswire/ -- Discovery Communications, Inc.   today announced the pricing terms of the previously-announced cash tender offer  by its&nbsp;...'
p8
aS"Buy, Sell or Hold? Analysts Approach: Discovery Communications, Inc. (DISCA ... The USA Commerce - Mar 20, 2017 Shares of Discovery Communications, Inc.  dropped -0.50% to $28.01. During the trading on 03/17/2017, Company's stock ranged from $27.83 to $28.25.The Thrivent Financial for Lutherans Boosts Stake in Discovery Communications ... - Petro Global News 24Stock Price of Discovery Communications, Inc.  Increases 1.16% - Highland Mirror"
p9
aS'Thrivent Financial for Lutherans Acquires New Stake in Discovery ... BNB Daily  - 17 hours ago Discovery Communications logo Thrivent Financial for Lutherans purchased a new position in shares of Discovery Communications Inc.  during the fourth quarter, according to its most recent filing with the Securities and Exchange&nbsp;...'
p10
a.