(lp0
S'Analyst Activity  Deutsche Bank AG Raises Its Price Target On Delphi ... Market Exclusive - 17 hours ago Today, Deutsche Bank AG raised its price target on Delphi Automotive PLC  to $99.00 per share. There are 2 sell ratings, 2 hold ratings, 13 buy ratings on the stock.Delphi Automotive plc  Moves Higher on Volume Spike for March 22 - Equities.comDelphi Automotive PLC  PT Raised to $99 at Deutsche Bank - StreetInsider.com'
p1
aS"Delphi One of World's Most Ethical Companies for Fifth Straight Year PR Newswire  - Mar 13, 2017 Delphi Automotive PLC is a high-technology company that integrates safer, greener and more connected solutions for automotive and transportation sectors."
p2
aS'De Vos Named Delphi Chief Technology Officer and Senior Vice President PR Newswire  - Jan 20, 2017 20, 2017 /PRNewswire/ -- Delphi Automotive PLC  announced today it has named Glen De Vos as chief technology officer  and senior vice president, effective March 1, 2017.Delphi Automotive PLC  Lifted to Hold at Zacks Investment Research - Sports PerspectivesKlingenstein Fields &amp; Co. LLC Takes Position in Delphi Automotive PLC  - The Cerbat Gem'
p3
aS'Delphi Automotive plc  Ex-Dividend Date Scheduled for February 02, 2017 Nasdaq - Feb 1, 2017 Delphi Automotive plc  will begin trading ex-dividend on February 02, 2017. A cash dividend payment of $0.29 per share is scheduled to be paid on February 15, 2017.Teacher Retirement System of Texas Sells 9375 Shares of Delphi Automotive PLC ... - Sports Perspectives'
p4
aS"Why Is Delphi Automotive  Up 5% Since the Last Earnings Report? Yahoo Finance - Mar 6, 2017 A month has gone by since the last earnings report for Delphi Automotive PLC DLPH. Shares have added nearly 5% in that time frame, outperforming the market.Today's Brokerage Rating: Delphi Automotive PLC , Centene Corporation  - StockNewsJournalComprehensive Stock Analysis of: Delphi Automotive PLC  - News Oracle"
p5
aS'Delphi Automotive PLC  ATR in Focus as it Trends Higher Business Review - Mar 21, 2017 Delphi Automotive PLC  shares have seen the Average True Range climb higher over the past 10 sessions, indicating strong momentum potential and increased volatility.'
p6
aS'Analyst Activity  Barclays PLC Raises Its Price Target On Delphi Automotive ... Market Exclusive - Mar 13, 2017 Today, Barclays PLC raised its price target on Delphi Automotive PLC  to per share. There are 2 sell ratings, 2 hold ratings, 13 buy ratings on the stock.Delphi Automotive plc  Moves Higher on Volume Spike for March 13 - Equities.comDelphi Automotive plc  Common Share Dividend Payout Ratio - Energy Index'
p7
aS'Form 4 Delphi Automotive PLC For: Feb 28 Filed by: Dorlack Jerome J. StreetInsider.com - Mar 2, 2017 Check this box if no longer subject to Section 16. Form 4 or Form 5 obligations may continue. See Instruction 1. 1. Name and Address of Reporting Person *. Dorlack Jerome J. , , . 5725 DELPHI DRIVE. . TROY, MI, 48098 ...'
p8
aS'Delphi Automotive plc  Rises 4.03% for March 13 Equities.com - Mar 13, 2017 Starting the day trading at $78.86, Delphi Automotive plc reached an intraday high of $80.44 and hit intraday lows of $78.57.'
p9
aS"Looking at the Levels for Delphi Automotive PLC  BVN - 12 hours ago Delphi Automotive PLC 's 14-day RSI is presently resting at 54.31, the 7-day is 45.2, and the 3-day is currently at 27.32."
p10
a.