(lp0
S'Meridian Bancorp, Inc.  Ex-Dividend Date Scheduled for March 17, 2017 Nasdaq - Mar 16, 2017 Meridian Bancorp, Inc.  will begin trading ex-dividend on March 17, 2017. A cash dividend payment of $0.04 per share is scheduled to be paid on April 04, 2017.The Zacks: Meridian Bancorp, Inc.  Given $20.00 Consensus Price Target ... - Petro Global News 24Meridian Bancorp, Inc.  To Go Ex-Dividend on March 17th - The Cerbat Gem'
p1
aS'Ex-Dividend Reminder: Caleres, Meridian Bancorp and Sabre Nasdaq - Mar 15, 2017 Looking at the universe of stocks we cover at Dividend Channel , on 3/17/17, Caleres Inc , Meridian Bancorp Inc , and Sabre Corp  will all trade ex-dividend for their respective upcoming dividends. Caleres Inc&nbsp;...'
p2
aS'Stock Returns: Walker &amp; Dunlop Inc  is Beating Meridian Bancorp Inc ... CML News - Mar 20, 2017 This is a snapshot to compare the stock returns for Meridian Bancorp Inc  versus Walker &amp; Dunlop Inc  .'
p3
aS'Meridian Bancorp, Inc. Announces 33% Increase in Quarterly Dividend Nasdaq - Mar 2, 2017 BOSTON, March 02, 2017  -- The Board of Directors of Meridian Bancorp, Inc.  , the holding company for East Boston Savings Bank, today declared a quarterly cash dividend of $0.04 per common share,&nbsp;...Gregory F. Natalucci Sells 4600 Shares of Meridian Bancorp, Inc.  Stock - The Cerbat Gem'
p4
aS'Stock Returns: Meridian Bancorp Inc  versus Hingham Institution ... CML News - Mar 15, 2017 This is a snapshot to compare the stock returns for Meridian Bancorp Inc  versus Hingham Institution for Savings  .Next Weeks Broker Price Targets For Meridian Interstate Bancorp, Inc. (NASDAQ ... - Fiscal Standard'
p5
aS'Decision Time: Meridian Bancorp Inc  Stock Technicals Have Hit an ... CML News - Mar 17, 2017 Decision Time: Meridian Bancorp Inc  now sits in the perhaps the most difficult technical position -- the stock has no urgency in its direction and that has left it at an inflection point.Meridian Bancorp fourth-quarter profit jumps 64.49 percent on a YOY basis - Myiris.comMeridian Interstate Bancorp, Inc.  Broker Price Targets For The ... - Fiscal Standard'
p6
aS'Stock Returns: Meridian Bancorp Inc  versus PennyMac Financial ... CML News - Mar 8, 2017 This is a snapshot to compare the stock returns for Meridian Bancorp Inc  versus PennyMac Financial Services Inc  .'
p7
aS"Notable Buzzer of Last Trading Day: Meridian Bancorp, Inc.  Is stories - Mar 20, 2017 Meridian Bancorp, Inc.'s  witnessed a gain of 0.81% in recent trading period with closing price of $ 18.70. The company's last traded volume of 0.29 million shares as compared to it's an average volume of 0.15 million shares.Meridian Interstate Bancorp, Inc.  Receives An Update From Brokers - The De Soto Edge"
p8
aS'Meridian Bancorp, Inc.  Stake Cut by Allianz Asset Management AG Chaffey Breeze - Mar 11, 2017 Meridian Bancorp logo Allianz Asset Management AG decreased its position in Meridian Bancorp, Inc.  by 11.7% during the fourth quarter, according to its most recent filing with the Securities and Exchange Commission.The Meridian Bancorp, Inc.  Receives Consensus Rating of Hold from ... - Petro Global News 24Meridian Bancorp, Inc.  Receives Consensus Rating of Hold from Analysts - The Cerbat Gem'
p9
aS'Stock Returns: Meta Financial Group Inc  versus Meridian Bancorp ... CML News - Feb 10, 2017 This is a snapshot to compare the stock returns for Meta Financial Group Inc  versus Meridian Bancorp Inc  .'
p10
a.