(lp0
S'eGain Corp. EGAN  Wall Street Journal - Feb 22, 2011 eGain Corp. EGAN . search. View All companies. AT CLOSE 4:00 PM EDT 03/15/17. $1.80 USD; -0.05 -2.70%.'
p1
aS'Stock Concentration on Shares of eGain Corp  Midway Monitor - 8 hours ago Investors may be looking to compare the current stock price of eGain Corp  to some of its moving averages. After a recent check, the 200-day MA is resting at 2.55, and the 50-day is 2.03.'
p2
aS'Stock Update: Technicals in View for eGain Corp  Rives Journal - Mar 17, 2017 eGain Corp  has a 14-day Commodity Channel Index  of -25.93. The CCI was designed to typically remain within the reading of -100 to +100.'
p3
aS"eGain Communications'  CEO Ashu Roy on Q4 2016 Results - Earnings Call ... Seeking Alpha - Sep 9, 2016 Thank you, operator, and good afternoon everyone, and thank you for joining us today for eGain's fiscal 2016 fourth quarter and full year financial results conference call."
p4
aS"BRIEF-Egain reports Q2 GAAP loss per share $0.04 Reuters - Jan 16, 2016 EDINBURGH, Feb 10 It is unrealistic for Britain to expect to negotiate its exit from the European Union and reach a free trade agreement in two years and both will probably need an implementation phase, the head of the European Commission's office in&nbsp;..."
p5
aS"eGain Communications'  CEO Ashu Roy on Q1 2017 Results - Earnings Call ... Seeking Alpha - Nov 10, 2016 eGain is making statements, as of today, November 9, 2016 and assumes no obligation to publicly update or revise any of the forward-looking information in this conference call."
p6
aS'eGAIN CORPORATION  Files An 8-K Departure of Directors or Certain ... Market Exclusive - Mar 1, 2017 eGain Corporation  provides cloud-based and on-site customer engagement software solutions. The Company optimizes service processes across the Web, social and phone channels.EGain Corporation  Reviewed By Analysts - The De Soto EdgeThe eGain Corporation  Raised to Hold at Zacks Investment Research - DailyQuint'
p7
aS"eGain Corporation  Announces Earnings Results BNB Daily  - Feb 10, 2017 eGain Corporation logo eGain Corporation  issued its quarterly earnings results on Thursday. The company reported  earnings per share  for the quarter, beating the Thomson Reuters' consensus estimate of  by $0.01.eGain Communications'  CEO Ashu Roy on F2Q 2017 Results - Earnings Call ... - Seeking Alpha"
p8
aS'Stock Returns: eGain Corporation  versus Marin Software ... CML News - Mar 7, 2017 This is a snapshot to compare the stock returns for eGain Corporation  versus Marin Software Incorporated  .'
p9
aS'The Benchmark Company Just Issued Hold Rating on eGain Corp  Highland Mirror - Feb 13, 2017 eGain Corp  was Reiterated by The Benchmark Company to Hold while Lowering the Price Target of the company shares to $ 2.50 from a previous price target of $3.50 .eGain Comm.  target bumped down to $2.50, issued a report today ... - Breaking Finance News'
p10
a.