(lp0
S"Bottomline Technologies' 2016 Think Green Award Presented to Greystone ... Bobsguide  - Feb 10, 2017 Bottomline Technologies , a leading provider of technology solutions to help businesses pay and get paid, today announced that it has awarded Greystone Healthcare Management the 2016 Think Green award, which recognizes&nbsp;..."
p1
aS'Bottomline Technologies Set to Power Real-time Credit Transfers for European Banks Bobsguide  - Feb 8, 2017 Bottomline Technologies , a leading provider of technology solutions to help businesses pay and get paid, has been named as a Front Runner Provider by EBA Clearing for the pan-European EBA SEPA Instant Credit Transfer Scheme.Bottomline Readies For SEPA Instant Credit Transfer - PYMNTS.com'
p2
aS"NCR and Bottomline Technologies Enable UK Financial Institutions to Connect to ... Bobsguide  - Feb 6, 2017 NCR Corporation , a global leader in omni-channel solutions, today announced that Bottomline Technologies  has integrated Authentic, NCR's intelligent transaction processing platform into its Direct Faster Payment Service&nbsp;...Bottomline Implements NCR's Faster Payments Network - PYMNTS.com"
p3
aS"Bottomline Technologies Faces Significant Competition, Overvalued Stock Price Forbes - Jan 27, 2017 There's no denying that the future of technology rests in the cloud. However, red flags appear when a firm sacrifices profitability to join the cloud and transitions to a business model with negative margins.Bottomline Technologies Poses Risks For Investors - Seeking Alpha"
p4
aS'Bottomline Technologies Inc.  Moves Lower on Volume Spike for March 21 Equities.com - Mar 21, 2017 Bottomline Technologies Inc.  traded on unusually high volume on Mar. 21, as the stock lost 3.47% to close at $23.64.Bottomline Technologies  Raised to Hold at Zacks Investment Research - Petro Global News 24Bottomline Technologies  Upgraded by Zacks Investment Research to Hold - The Cerbat Gem'
p5
aS'Bottomline Technologies Reaches Analyst Target Price Forbes - Feb 3, 2017 In recent trading, shares of Bottomline Technologies Inc  have crossed above the average analyst 12-month target price of $26.33, changing hands for $26.57/share.'
p6
aS'Bottomline Technologies to Announce Second Quarter Fiscal 2017 Financial ... GlobeNewswire  - Dec 20, 2016 Who: Bottomline Technologies  helps businesses pay and get paid. Businesses and banks rely on Bottomline for domestic and international payments, effective cash management tools, automated workflows for payment processing and bill&nbsp;...'
p7
aS'Ffrees, Wirecard, GPS and Bottomline Technologies team up for U Account Banking Technology - Nov 8, 2016 The account is supported by Wirecard, Global Processing Services  and payments software vendor Bottomline Technologies. For Wirecard and GPS, this is the first foray into agency banking, whereby cardholders can make use of additional payment&nbsp;...FFF Ltd Collaborates With Wirecard, GPS and Bottomline Technologies to Deliver ... - Yahoo Finance'
p8
aS"Bottomline Technologies posts 2Q loss Yahoo Finance - Feb 1, 2017 PORTSMOUTH, N.H.  _ Bottomline Technologies Inc.  on Wednesday reported a loss of $10.3 million in its fiscal second quarter.NCR and Bottomline joins forces for Faster Payments - FinextraBottomline Technologies'  CEO Rob Eberle on Q2 2017 Results - Earnings ... - Seeking Alpha"
p9
aS"Bottomline Technologies   Non-GAAP Metrics Mask Economic Reality ValueWalk - Jan 16, 2017 Since 2011, Bottomline Technologies' after-tax profit  has declined by 21% compounded annually to $3 million in 2016 and -$2 million over the last twelve months ."
p10
a.