(lp0
S"Express Inc.  Settles Into New 52-Week Low on March 22 Session Equities.com - 8 hours ago Shares of Express Inc.  sank into a new 52-week low yesterday, and could be a company to watch at the open. The company's stock fell to as low as $8.25 yesterday after opening at $8.50."
p1
aS"Express Inc.  Settles Into New 52-Week Low on March 21 Session Equities.com - Mar 21, 2017 Shares of Express Inc.  sank into a new 52-week low yesterday, and could be a company to watch at the open. The company's stock fell to as low as $8.43 yesterday after opening at $8.97."
p2
aS'Express Inc.  Moves Lower on Volume Spike for March 21 Equities.com - Mar 21, 2017 Express Inc.  traded on unusually high volume on Mar. 21, as the stock lost 4.27% to close at $8.52. On the day, Express Inc. saw 3.39 million shares trade hands on 17,369 trades. Considering that the stock averages only a daily volume of 1.89 ...Checking the Overall Picture for Express, Inc.  - StockNewsJournalExpress, Inc.  Shares Dip Under Moving Averages - Midway Monitor'
p3
aS"Express Inc.  Settles Into New 52-Week Low on March 20 Session Equities.com - Mar 20, 2017 Shares of Express Inc.  sank into a new 52-week low yesterday, and could be a company to watch at the open. The company's stock fell to as low as $8.90 yesterday after opening at $9.38."
p4
aS"Shares of Express, Inc. Drop 12% After Guidance Fails to Impress Motley Fool - Mar 8, 2017 Shares of Express Inc. , a specialty apparel and accessories retailer of women's and men's merchandise, are down nearly 13% by 11 a.m.Express Inc Announced Earnings for the Fourth Quarter and Guidance - Financialbuzz.comExpress Inc.  Plunges 10.87% on March 08 - Equities.com"
p5
aS'Express Inc.  Plunges 5.62% on March 20 Equities.com - Mar 20, 2017 Express Inc.  had a rough trading day for Monday March 20 as shares tumbled 5.62%, or a loss of $-0.53 per share, to close at $8.90.'
p6
aS'BRIEF-Express Inc Q4 EPS $0.29 Reuters UK - Mar 8, 2017 ... * Express, inc. Reports fourth quarter and full year 2016 results; introduces first quarter and full year 2017 outlook.'
p7
aS'Earnings Reaction History: Express, Inc., 30.0% Follow-Through Indicator, 10.2 ... Nasdaq - Mar 8, 2017 Express, Inc.  is due to issue its quarterly earnings report in the upcoming extended-hours session. Given its history, traders can expect light trading in the issue immediately following its quarterly earnings announcement.'
p8
aS'Zacks Provided 2.82 Rating to Express Inc.  The Newburgh Press - 17 hours ago The 1-year price target of the company is 10.73. Investors expected a price target of 0.13 for this quarter. Zacks Investment Research gave Express Inc.  a rating of 2.82 on a scale of 1 to 5. Here, 1 indicates a Strong Buy and 5 indicates a ...'
p9
aS"Express, Inc.  : How Do the Technicals Stack Up? The USA Commerce - 13 hours ago We have gathered the technical data on Express, Inc. , and see some interesting trends in the stock's behavior of late.Buy/Sell Signals for SM Energy Company  and Express, Inc.  - USA Commerce Daily"
p10
a.