(lp0
S'Narrowing in on the Numbers for Fresh Del Monte Produce Inc.  Rives Journal - 17 hours ago Fresh Del Monte Produce Inc.  has an EV  of 3167813. Enterprise Value measures the complete value of a specific company.Fresh Del Monte Produce Inc.  Shares Dip Under Moving Averages - Midway MonitorMohammad Abu-Ghazaleh Sells 50000 Shares of Fresh Del Monte Produce Inc (FDP ... - Petro Global News 24'
p1
aS'Fresh Del Monte Produce, Inc.  Ex-Dividend Date Scheduled for March 06, 2017 Nasdaq - Mar 3, 2017 Fresh Del Monte Produce, Inc.  will begin trading ex-dividend on March 06, 2017. A cash dividend payment of $0.15 per share is scheduled to be paid on March 31, 2017.Stock Returns: Darling Ingredients Inc  versus Fresh Del Monte ... - CML NewsFresh Del Monte Produce, Inc.  To Go Ex-Dividend on March 6th - Chaffey Breeze'
p2
aS"Why Fresh Del Monte Produce Inc.'s Shares Spiked 21% in May Motley Fool - Jun 2, 2016 What: Shares of produce giant Fresh Del Monte Produce Inc.  jumped 21% in May, according to data provided by S&amp;P Global Market Intelligence, after the company reported better-than-expected first-quarter results."
p3
aS'Fresh Del Monte Produce Inc. Announces Fourth Quarter and Full Year 2016 ... Yahoo Finance - Feb 21, 2017 Fresh Del Monte Produce Inc.  today reported financial results for the fourth quarter and year ended December 30, 2016.FRESH DEL MONTE PRODUCE INC.  Files An 8-K Results of Operations and ... - Market Exclusive'
p4
aS'Ex-Dividend Reminder: Fresh Del Monte Produce, Autoliv and Archer Daniels Midland Forbes - Nov 10, 2016 Looking at the universe of stocks we cover at Dividend Channel, on 11/14/16, Fresh Del Monte Produce Inc. , Autoliv Inc. , and Archer Daniels Midland Co.'
p5
aS'Insider Trading Activity Fresh Del Monte Produce Inc   Director ... Market Exclusive - Mar 14, 2017 On 4/29/2014 Hani El-Naffy, COO, sold 2,700 with an average share price of $29.91 per share and the total transaction amounting to $80,757.00.Fresh Del Monte Produce Inc  Director Ghazaleh Amir Abu Sells 10000 ... - Chaffey BreezeFresh Del Monte Produce Inc  Shares Bought by Vident Investment Advisory LLC - The Cerbat Gem'
p6
aS"Fresh Del Monte: An Ideal Buyout Candidate Seeking Alpha - Feb 26, 2016 Fresh Del Monte Produce Inc. is one of the world's leading vertically integrated producers, marketers and distributors of high-quality fresh and fresh-cut fruit and vegetables, as well as a leading producer and distributor of prepared food in Europe ...Fresh Del Monte Says Trademark Row Not Exceptional - Law360 "
p7
aS"Long Term Growth Stock in Review: Fresh Del Monte Produce Inc.  Aiken Advocate - 8 hours ago Shaers of Fresh Del Monte Produce Inc.  have been recommended as a long term growth pick. With the firm's stock price currently trading around $57.49, the firm has proven a solid track record of growth over the recent years."
p8
aS'Insider Trading Activity Fresh Del Monte Produce Inc   Director ... Market Exclusive - Mar 13, 2017 On 4/29/2014 Hani El-Naffy, COO, sold 2,700 with an average share price of $29.91 per share and the total transaction amounting to $80,757.00.Fresh Del Monte Produce Inc  Files Form 4 Insider Selling : Ghazaleh Amir ... - Energy IndexGhazaleh Amir Abu Sells 1100 Shares of Fresh Del Monte Produce Inc  Stock - The Cerbat Gem'
p9
aS'Fresh Del Monte Produce - Margin Expansion And Fresh Produce Products Growth ... Seeking Alpha - Sep 19, 2016 Higher prices per unit and lower transportation and volume costs for fresh products offset overall fresh produce volume declines.'
p10
a.