(lp0
S"Fabrinet  Tops Q2 EPS by 12c StreetInsider.com - Feb 6, 2017 Fabrinet  reported Q2 EPS of $0.91, $0.12 better than the analyst estimate of $0.79. Revenue for the quarter came in at $351.2 million versus the consensus estimate of $335.07 million.Fabrinet's  CEO Tom Mitchell on Q2 2017 Results - Earnings Call Transcript - Seeking Alpha"
p1
aS'Fabrinet Announces Acquisition of Exception Global CEM Solutions Ltd. Business Wire  - Sep 15, 2016 BANGKOK----Fabrinet , a leading provider of advanced optical packaging and precision optical, electro-mechanical and electronic manufacturing services to original equipment manufacturers of complex products, today&nbsp;...'
p2
aS'Fabrinet: What To Expect In The Weeks Ahead Seeking Alpha - Jan 24, 2017 Fabrinet  is slated to announce its Q2 2017 earnings results in early February in what I expect to be another solid report for the company.'
p3
aS'Fabrinet: Buying On Weakness Seeking Alpha - Jan 4, 2017 For Q1 2017, which was a week longer than Q1 2016, Fabrinet reported revenue of $332 million, up 53% year-over-year , and earnings per share of $0.80, which beat estimates by 9 cents and was a substantial increase over Q1 2016 and Q4 2016.'
p4
aS"Needham &amp; Company Upgrades Fabrinet  to Strong Buy; Sees 'Beat and Raise' StreetInsider.com - Jan 17, 2017 Analyst Alex Henderson commented, &quot;Fabrinet has corrected along with other optical names over the last month. We think year-end profit taking has run its course and these shares should benefit as investors focus back on company specific fundamentals."
p5
aS'A look at the intrinsic value of Fabrinet  Simply Wall St - Mar 3, 2017 Does the March share price for Fabrinet  reflect its intrinsic value? I am going to calculate it now using a method called discounted cash flow or DCF.'
p6
aS"Lumentum, Acacia, Finisar, Fabrinet Lead Fiber-Optics Stock Gains Investor's Business Daily - Feb 13, 2017 But the breakout Monday came from Fabrinet , which provides optical packaging and is in IBD's Electronics-Contract Manufacturing group."
p7
aS'Investor Focus: Watching Shares of Fabrinet  Baldwin Journal - 16 hours ago Many investors may be looking to track stock price momentum by looking at different historical information. Fabrinet  currently has a 6 month price index of 0.90742.'
p8
aS'Fabrinet  Moves Lower on Volume Spike for February 27 Equities.com - Feb 27, 2017 Fabrinet  traded on unusually high volume on Feb. 27, as the stock lost 4.6% to close at $43.16. On the day, Fabrinet saw 1.49 million shares trade hands on 9,189 trades. Considering that the stock averages only a daily volume of 971,485 shares a ...Financial Highlights of: Fabrinet  - StandardOracleThe Trexquant Investment LP Takes Position in Fabrinet  - DailyQuint'
p9
aS'Fabrinet  EPS Projection At $0.89 RealistInvestor.com - Mar 21, 2017 Fabrinet  is likely to account earnings of $0.89 for prior quarter, which can come on 2017-05-01. It should be documented that projections, as open by Zacks may blow from the calls of Thomson Reuters.'
p10
a.