(lp0
S'Twenty-First Century Fox, Inc.  Ex-Dividend Date Scheduled for March 13, 2017 Nasdaq - Mar 10, 2017 Twenty-First Century Fox, Inc.  will begin trading ex-dividend on March 13, 2017. A cash dividend payment of $0.18 per share is scheduled to be paid on April 19, 2017.What Analysts are Predicting For Twenty-First Century Fox, Inc. , Realty ... - The USA CommerceWhich insiders are buying Twenty-First Century Fox, Inc. ? - Post Analyst'
p1
aS"Twenty-First Century Fox, Inc. performed Poor with a change of -0.23% in the ... Free Observer - 17 hours ago If you look at the company's income statement over the past years, you will see that the company is constantly posting gross profit: In 2014, FOXA earned gross profit of 10.76 Billion, in 2015 10.43 Billion gross profit, while in 2016 Twenty-First ...The Dodge &amp; Cox Purchases New Stake in Twenty-First Century Fox Inc  - Petro Global News 24Twenty-First Century Fox, Inc. : What's the Story? - StockNewsJournal"
p2
aS"Why Analysts put forward these two stocks: Twenty-First Century Fox, Inc. (FOX ... The USA Commerce - Mar 20, 2017 Shares of Twenty-First Century Fox, Inc.  surged 0.23% to $30.27. During the trading on 03/17/2017, Company's stock ranged from $30.06 to $30.48."
p3
aS'Fox to thwart possible Tribune-Sinclair deal? Seeking Alpha - Mar 17, 2017 21st Century Fox , the media conglomerate controlled by Rupert Murdoch, is weighing options to help thwart a potential takeover of Tribune Media  by Sinclair Broadcast Group .'
p4
aS"Keeping Tabs on Levels for Twenty-First Century Fox, Inc.  Sherwood Daily - 15 hours ago Twenty-First Century Fox, Inc.  presently has a Piotroski F-Score of 8. Piotroski's F-Score uses nine tests based on company financial statements."
p5
aS'TWENTY-FIRST CENTURY FOX INVESTIGATION INITIATED by Former Louisiana Attorney ... Yahoo Finance - Mar 18, 2017 Former Attorney General of Louisiana, Charles C. Foti, Jr., Esq., a partner at the law firm of Kahn Swick &amp; Foti, LLC , announces that KSF has commenced an investigation into Twenty-First Century Fox, Inc. . Throughout 2016, a series of&nbsp;...'
p6
aS'Twenty-First Century Fox: The Trump Effect Seeking Alpha - Mar 6, 2017 It goes without saying that Donald Trump is an unorthodox individual. His unusual nature has followed him into life at the White House.'
p7
aS"21st Century Fox's Bid for Sky Referred to Regulators Wall Street Journal  - Mar 16, 2017 LONDONBritish authorities will intervene and thoroughly review 21st Century Fox Inc.'s $14.3 billion bid to buy the 61% of British pay-television giant Sky PLC it doesn't already own, a U.K.British regulator to investigate Sky takeover by Murdoch's Fox - Yahoo FinanceUK Media Regulator Told to Review Fox-Sky Deal - Bloomberg"
p8
aS"Range Watch on Technical Indicators for Twenty-First Century Fox Inc  The Standard - 14 hours ago Twenty-First Century Fox Inc 's current 14-day Willams %R value has been spotted at -11.32. Values can span from 0 to -100."
p9
aS'INVESTOR ALERT: Schubert Law Firm Announces Investigation of Twenty-First ... PR Newswire  - Mar 15, 2017 SAN FRANCISCO, March 15, 2017 /PRNewswire/ -- In the wake of new reports of a criminal investigation into Fox News, Schubert Jonckheer &amp; Kolbe LLP is investigating potential derivative claims on behalf of the shareholders of Twenty-First Century Fox,&nbsp;...'
p10
a.