(lp0
S'Republic First Bancorp Inc.  Moves Lower on Volume Spike for March 22 Equities.com - 9 hours ago Republic First Bancorp Inc.  traded on unusually high volume on Mar. 22, as the stock lost 2.53% to close at $7.70. On the day, Republic First Bancorp Inc. saw 405,588 shares trade hands on 1,795 trades. Considering that the stock averages only a&nbsp;...'
p1
aS"Republic First Bancorp, Inc. Adds Lisa R. Jacobs to Board of Directors PR Newswire  - Mar 6, 2017 PHILADELPHIA, March 6, 2017 /PRNewswire/ -- Republic First Bancorp, Inc. , the parent company of Republic Bank, today announced that Lisa R. Jacobs, has joined the company's Board of Directors."
p2
aS'Investor Review: Focusing in on Shares of Republic First Bancorp Inc  Baxter Review - 12 hours ago Active traders have a wide variety of technical indicators at their disposal for completing technical stock analysis. Presently, the 14-day ATR for Republic First Bancorp Inc  is spotted at 0.27. First developed by J. Welles Wilder, the ATR may ...'
p3
aS'Republic First Bancorp Inc.  Moves Higher on Volume Spike for March 17 Equities.com - Mar 17, 2017 Republic First Bancorp Inc.  traded on unusually high volume on Mar. 17, as the stock gained 1.22% to close at $8.30.'
p4
aS'REPUBLIC FIRST BANCORP, INC.  Files An 8-K Departure of Directors ... Market Exclusive - Mar 6, 2017  On February 28, 2017, Robert J. Coleman, a Class II director of Republic First Bancorp, Inc. , provided the Company notice of his resignation from the board of directors, effective immediately.'
p5
aS'Analyst Hints Surrounding Republic First Bancorp, Inc.  Post Analyst - 18 hours ago Republic First Bancorp, Inc.  traded at an unexpectedly high level on 03/21/2017 when the stock experienced a -4.24 loss to a closing price of $7.9.'
p6
aS'Republic Bank Announces Promotion of Two Vice Presidents to Newly Created Team ... PR Newswire  - Apr 5, 2016 PHILADELPHIA, April 5, 2016 /PRNewswire/ -- Republic First Bancorp, Inc. , the parent company of Republic Bank, today announced that two Vice Presidents of Commercial and Industrial Lending, Matt Skilton and Matt Moresco, have been&nbsp;...'
p7
aS'Republic First Bancorp Inc.  Moves Higher on Volume Spike for February 28 Equities.com - Feb 28, 2017 Republic First Bancorp Inc.  traded on unusually high volume on Feb. 28, as the stock gained 1.27% to close at $8.00.Stock Returns: Republic First Bancorp Inc  is Beating First ... - CML News'
p8
aS'Republic First Bancorp Inc.  Moves Higher on Volume Spike for March 15 Equities.com - Mar 15, 2017 Republic First Bancorp Inc.  traded on unusually high volume on Mar. 15, as the stock gained 0.61% to close at $8.25.Next Weeks Broker Price Targets For Republic First Bancorp, Inc.  - Fiscal Standard'
p9
aS"Insider Trading Activity Republic First Bancorp, Inc.   Director ... Market Exclusive - Feb 21, 2017 Barry Spevak , Director of Republic First Bancorp, Inc.  reportedly Sold 3,000 shares of the company's stock at an average price of 8.03 for a total transaction amount of $24,090.00 SEC Form."
p10
a.