(lp0
S"1108.Amended Summons Wells Fargo Bank vs. First Franklin Financial Corp Fergus Falls Daily Journal - Nov 4, 2016 1. YOU ARE BEING SUED. The Plaintiff has started a lawsuit against you. The Plaintiff's Complaint against you is attached to this summons."
p1
aS'Headwinds Are Mounting At Franklin Financial Services Corporation Seeking Alpha - Feb 8, 2017 Franklin Financial Services Corporation  is a small $1.1 billion asset bank with 25 branches in south central Pennsylvania.'
p2
aS'Franklin Financial Network: An Undervalued, High Quality Bank Seeking Alpha - Aug 31, 2016 The founding team, led by Chairman and CEO Richard Herrington, found their first bank Franklin Financial Corporation  in 1988 and sold it at five times tangible book value to Fifth Third Bancorp  in 2002.'
p3
aS'Franklin Financial Services Corp /pa/  Files Form 4 Insider Buying ... Energy Index - Mar 7, 2017 Franklin Financial Services Corp /pa/ : Donald H Mowery , director of Franklin Financial Services Corp /pa/ purchased 83 shares on Mar 1, 2017. The Insider buying transaction was reported by the company on Mar 3, 2017 to the Securities and&nbsp;...'
p4
aS'The Franklin Resources Inc. Continues to Hold Stake in Regions Financial Corp  Petro Global News 24 - Mar 15, 2017 Franklin Resources Inc. continued to hold its position in Regions Financial Corp  during the fourth quarter, Holdings Channel reports.'
p5
aS'Franklin Financial Network, Inc.  Receives Average Recommendation of ... Sports Perspectives - Feb 23, 2017 Franklin Financial Network logo Shares of Franklin Financial Network, Inc.  have been given an average recommendation of Hold by the six ratings firms that are covering the firm.'
p6
aS"The Analysts Set Franklin Financial Network, Inc.  PT at $42.17 DailyQuint - Feb 26, 2017 American Century Companies Inc. now owns 60,170 shares of the financial services provider's stock worth $1,887,000 after buying an additional 51,899 shares during the period."
p7
aS'Franklin Resources Inc. Continues to Hold Stake in Regions Financial Corp  The Cerbat Gem - Mar 13, 2017 Regions Financial Corp logo Franklin Resources Inc. held its position in Regions Financial Corp  during the fourth quarter, according to its most recent Form 13F filing with the Securities and Exchange Commission .'
p8
aS'Eye Catching Stocks Astoria Financial Corp , Franklin Resources, Inc ... Daily News Journal  - Mar 9, 2017 On Wednesday, Astoria Financial Corp  stock opened its trade at $20.75 and after floating in a range of $20.65 to $21.59, settled at $21.31.Strs Ohio Cuts Stake in Franklin Resources, Inc.  - Petro Global News 24'
p9
aS'Franklin Financial Services Corp.  | Franklin ... MilTech - Mar 20, 2017 CHAMBERSBURG, Pa., March 20, 2017 /CNW/ - Franklin Financial Services , today announced that the March 15 presentation from Tim Henry, President and CEO, and Mark Hollar, Chief Financial Officer and Treasurer, is now available for&nbsp;...'
p10
a.