(lp0
S'Analyst Activity  Royal Bank of Canada Reiterates Hold on TechnipFMC plc ... Market Exclusive - 17 hours ago Today, Royal Bank of Canada reiterated its Hold rating on TechnipFMC plc Ordinary Share  with a price target of $41.00.The Mark J. Scott Sells 32000 Shares of TechnipFMC plc Ordinary Share  Stock - Petro Global News 24Stocks in Review TechnipFMC plc Ordinary Share , NextEra Energy Inc ... - Daily News Journal'
p1
aS'Brokerages Set TechnipFMC plc Ordinary Share  PT at $34.95 Chaffey Breeze - Mar 21, 2017 TechnipFMC plc Ordinary Share logo TechnipFMC plc Ordinary Share  has earned a consensus rating of Hold from the twenty-one research firms that are currently covering the stock.The TechnipFMC plc Ordinary Share  Upgraded to Overweight by JPMorgan ... - Petro Global News 24Insider Trading at TechnipFMC plc Ordinary Share? - Sports Perspectives'
p2
aS"TechnipFMC plc Ordinary Share  Analysts See $0.31 EPS, Two Creeks Capital ... Herald KS - Mar 20, 2017 Analysts expect TechnipFMC plc Ordinary Share  to report $0.31 EPS on March, 21.They anticipate $0.15 EPS change or 32.61% from last quarter's $0.46 EPS."
p3
aS"2 Stocks Are Hot- TechnipFMC plc Ordinary Share , Skyline Medical ... Wall Street Times  - Mar 17, 2017 TechnipFMC plc Ordinary Share  traded at a yearly high level of $36.14 during the last trading session. The last session's volume of 700.00 shares was higher than its average volume of 3.85 million shares.TechnipFMC plc Ordinary Share  Position Boosted by Janus Capital ... - The Cerbat Gem"
p4
aS"Active Stock News  Sirius XM Holdings Inc. , TechnipFMC plc ... Wall Street Times  - Mar 16, 2017 Sirius XM Holdings Inc.  traded at a yearly high level of $5.53 during the last trading session. The last session's volume of 32.03 million shares was higher than its average volume of 24.11 million shares. The stock, after opening at $5 ..."
p5
aS'TechnipFMC plc Ordinary Share  Receives Average Recommendation of Hold ... Sports Perspectives - Mar 16, 2017 TechnipFMC plc Ordinary Share logo TechnipFMC plc Ordinary Share  has earned an average recommendation of Hold from the twenty-one brokerages that are presently covering the firm.The Norges Bank Buys New Position in TechnipFMC plc Ordinary Share  - Petro Global News 24TechnipFMC plc Ordinary Share - Receive News &amp; Ratings Daily - BBNS'
p6
aS"Big Movers in the Stock Market- TechnipFMC plc Ordinary Share (NYSE:FTI ... Wall Street Times  - Mar 20, 2017 TechnipFMC plc Ordinary Share  traded at a yearly high level of $31.75 during the last trading session. The last session's volume of 11.68 million shares was higher than its average volume of 4.09 million shares."
p7
aS"Market Movers- TechnipFMC plc Ordinary Share , Fortuna Silver Mines ... Wall Street Times  - Mar 13, 2017 TechnipFMC plc Ordinary Share  traded at a yearly high level of $36.14 during the last trading session. The last session's volume of 3.28 million shares was lower than its average volume of 3.97 million shares.The Commonwealth of Pennsylvania Public School Empls Retrmt SYS Increases ... - Petro Global News 24TechnipFMC plc  Is Dropping But Watch The Charts And Be Careful - USA Commerce Daily"
p8
aS"Stock Movers- TechnipFMC plc Ordinary Share , Matador Resources Co ... Wall Street Times  - Feb 27, 2017 TechnipFMC plc Ordinary Share  traded at a yearly high level of $36.14 during the last trading session. The last session's volume of 4.32 million shares was lower than its average volume of 6.49 million shares."
p9
aS"2 Stocks Are Hot  TechnipFMC plc Ordinary Share , TRI Pointe Group ... Wall Street Times  - Feb 24, 2017 TechnipFMC plc Ordinary Share  traded at a yearly high level of $36.14 during the last trading session. The last session's volume of 4.38 million shares was lower than its average volume of 6.65 million shares."
p10
a.