(lp0
S'Market View: Looking at the Technicals for The GEO Group, Inc.  Rives Journal - 9 hours ago Looking at shares of The GEO Group, Inc. , the company has an EV  of 6049859. Enterprise Value is a measure of the total value of a specific company.'
p1
aS'The Geo Group: A Victory Lap Is Well Deserved Seeking Alpha - Mar 8, 2017 Private prison company The Geo Group, Inc.  has doubled its valuation since August 2016 as investor sentiment turned 180 on the back of the election of Donald Trump as 45th president of the U.S.'
p2
aS'The GEO group acquires Community Education Centers Seeking Alpha - Feb 22, 2017 Community Education Centers is a private provider of rehabilitative services for offenders in reentry and in-prison treatment facilities.The GEO Group Inc  Updates FY17 Earnings Guidance - The Cerbat GemThe GEO Group, Inc. , Old Republic International Corporation  Stock ... - The USA Commerce'
p3
aS'The GEO Group, Inc. Announces Offering of Common Stock Yahoo Finance - Mar 7, 2017 The GEO Group, Inc.   announced today that it has commenced an underwritten public offering of 6,000,000 shares of its common stock .'
p4
aS'The GEO Group, Inc. Announces Full Exercise of Option to Purchase Additional ... Yahoo Finance - Mar 9, 2017 The GEO Group, Inc.   announced today that the underwriters for its recently announced public offering of 6,000,000 shares of its common stock have exercised in full their option to purchase up to 900,000 additional shares of common stock.'
p5
aS'The GEO Group Inc. Profit Rises 5% In Q4 Nasdaq - Feb 22, 2017  - The GEO Group Inc.  revealed earnings for its fourth quarter that climbed from last year. The company said its bottom line totaled $46.45 million, or $0.62 per share.'
p6
aS'Risk Malaise Alert in Option Market: The GEO Group Inc Implied Price Swing ... CML News - Mar 21, 2017 Before we dive into any analysis we simply note that The GEO Group Inc  risk is actually priced pretty low by the option market as of right now.'
p7
aS'The GEO Group, Inc. Announces Closing of Offering of Common Stock Business Wire  - Mar 13, 2017 BOCA RATON, Fla.----The GEO Group, Inc.   announced today that it has completed the sale of 6,900,000 shares of common stock in connection with its previously announced underwritten public offering, including&nbsp;...'
p8
aS'Analyst Upside Underscores Impressive Growth for The GEO Group, Inc.  Aiken Advocate - 7 hours ago Shaers of The GEO Group, Inc.  have been recommended as a long term growth pick according to Beta Research.'
p9
aS"The Geo Group Inc , Corecivic Inc  Up on Sessions Memo Investorplace.com - Feb 23, 2017 Private-prison stocks The Geo Group Inc  and Corecivic Inc  were up in after-hours trade amid a report that Attorney General Jeff Sessions has reversed course on an Obama administration plan to phase out federal use of private&nbsp;...Prison Stocks Spike After DoJ Reverses Obama's Decision On Private Prisions - BenzingaWorth Watching Stocks -Corecivic Inc , Entergy Corporation  - Daily News Journal "
p10
a.