(lp0
S'GigOptix to buy Magnum Semiconductor, change name to GigPeak Inc. LightWave Online - Apr 4, 2016 Communications semiconductor and technology supplier GigOptix, Inc.  says it has agreed to acquire privately held Magnum Semiconductor, Inc., a provider of silicon ICs, system on chips , software, and IP for the professional video&nbsp;...GigOptix, Inc. to Acquire Magnum Semiconductor, Inc. - Business Wire '
p1
aS'IDT Inc. to buy GigPeak Inc. for $250 million all-cash deal MarketWatch - Feb 13, 2017 IDT Inc. IDTI, +0.33% said late Monday it has agreed to buy GigPeak Inc. GIG, +0.00% for $3.08 a share, or about $250 million in cash.GIGPEAK, INC. SHAREHOLDER ALERT: Rigrodsky &amp; Long, PA Announces Investigation ... - Yahoo FinanceCompany Update : Integrated Device Technology Inc to Acquire ... - Smarter Analyst'
p2
aS'SHAREHOLDER ALERT: Monteverde &amp; Associates PC Announces an Investigation of ... PR Newswire  - Mar 5, 2017 NEW YORK, March 5, 2017 /PRNewswire/ -- Juan Monteverde, founder and managing partner at Monteverde &amp; Associates PC, a boutique securities firm headquartered at the Empire State Building in New York City, is investigating Board of Directors of&nbsp;...'
p3
aS'GigPeak Earnings Send A Message Seeking Alpha - Oct 25, 2016 GigPeak GIG Inc. designs and develops semiconductors. They also supply analog, mixed signal, and digital components to enable streaming information for data/telecom networks, and other consumer electronics.'
p4
aS'Harwood Feffer LLP Announces Investigation of GigPeak, Inc. PR Newswire  - Feb 15, 2017 NEW YORK, Feb. 15, 2017 /PRNewswire/ -- Harwood Feffer LLP  is investigating potential claims against the board of directors of GigPeak, Inc.   concerning the proposed acquisition of the Company&nbsp;...GIGPEAK, INC.  Files An 8-K Other Events - Market ExclusiveTrending Stock Alert: GigPeak, Inc.  - TopChronicle'
p5
aS'GigPeak Inc.  Moves Higher on Volume Spike for February 15 Equities.com - Feb 15, 2017 GigPeak Inc.  traded on unusually high volume on Feb. 15, as the stock gained 0.33% to close at $3.06. On the day, GigPeak Inc. saw 4.74 million shares trade hands on 13,104 trades. Considering that the stock averages only a daily volume of 1.8&nbsp;...'
p6
aS'GigPeak Announces 64Gbaud SMT Quad Linear Modulator Driver for Next-Generation ... Yahoo Finance - Mar 15, 2017 GigPeak, Inc. , a leading innovator of semiconductor ICs and software solutions for high-speed connectivity and high-quality video compression over the network and the cloud, today announced GX66471, a 64Gbaud quad-channel linear&nbsp;...'
p7
aS'GigPeak to Showcase Leadership in 100G PSM4, CWDM4, and LR4 for Datacom ... Business Wire  - Mar 20, 2017 SAN JOSE, Calif.----GigPeak, Inc. , a leading innovator of semiconductor ICs and software solutions for high-speed connectivity and high-quality video compression over the network and the cloud, today announced that it&nbsp;...'
p8
aS'GigPeak Announces Introduction of Complete 200Gbps Chipset Ethernet Product ... Yahoo Finance - Mar 21, 2017 GigPeak, Inc. , a leading innovator of semiconductor ICs and software solutions for high-speed connectivity and high-quality video compression over the network and the cloud, today announced the release of complete chipset portfolio for&nbsp;...'
p9
aS'Integrated Device Technology, Inc. Commences Previously Announced Cash Tender ... Business Wire  - Mar 7, 2017 SAN JOSE, Calif.----Integrated Device Technology, Inc.  announced today that its wholly-owned subsidiary, Glider Merger Sub, Inc. , is commencing a cash tender offer to purchase all outstanding shares&nbsp;...'
p10
a.