(lp0
S"GulfMark Offshore: Insolvency Ahead? Seeking Alpha - Mar 9, 2017 The company operates 71 vessels that provide support to offshore operations of the oil and gas industry, and fixed assets' carrying value has been impaired in the last months.The GulfMark Offshore, Inc.  to Release Earnings on Monday - DailyQuintGulfMark Offshore, Inc.  Receives An Update From Brokers - The De Soto Edge"
p1
aS'GULFMARK OFFSHORE, INC.  Files An 8-K Entry into a Material ... Market Exclusive - 8 hours ago GulfMark Offshore, Inc. provides offshore marine support and transportation services. The Company offers these services to companies engaged in the offshore exploration and production of oil and natural gas.20 institutional investors are raising stakes in Gulfmark Offshore, Inc. (NYSE ... - Post AnalystThe GulfMark Offshore, Inc.  Bonds Drop 2% During Trading - Petro Global News 24'
p2
aS"BRIEF-Gulfmark Offshore files for non timely 10-K Reuters - Mar 17, 2017 Reuters is the news and media division of Thomson Reuters. Thomson Reuters is the world's largest international multimedia news agency, providing investing news, world news, business news, technology news, headline news, small business news, news&nbsp;..."
p3
aS'Gulfmark Offshore: Hated, Misunderstood And Ultimately Undervalued Seeking Alpha - Jan 10, 2017 Since my first article on Gulfmark Offshore  two months ago, the stock is up about 25%  and up 10%  since my second article on GLF.'
p4
aS"Gulfmark Offshore: Huge Problems Ahead, But Shares Clearly Oversold Seeking Alpha - Oct 28, 2016 Gulfmark Offshore: Huge Problems Ahead, But Shares Clearly Oversold. Oct.28.16 | About: GulfMark ... GLF's vessels transport drilling materials and personnel to offshore facilities, and also moves and positions drilling structures. GLF's vessels ..."
p5
aS"Company finally retained bankruptcy advisors. Seeking Alpha - Mar 15, 2017 I have previously covered GulfMark Offshore , so investors should view this article as an update to my earlier articles on the company.Gulfmark Offshore  Hires Financial Advisors to Review Liquidity Needs - StreetInsider.comGulfmark Offshore's stock plummets after debt payment wasn't made when due - MarketWatch"
p6
aS"Gulfmark Offshore  Downgraded to Ca from Caa3 at Moody's; Approximately ... StreetInsider.com - Mar 21, 2017 Moody\\'s Investors Service downgraded GulfMark Offshore Inc.'s  Corporate Family Rating  to Ca from Caa3, Probability of Default Rating  to Ca-PD from Caa3-PD, and senior unsecured notes to C from Ca."
p7
aS'GulfMark Offshore Is A Falling Knife Seeking Alpha - Sep 7, 2016 GulfMark Offshore  engages in the provision of marine support and transportation services. It operates through three business segments: North Sea, Southeast Asia, and Americas.'
p8
aS'Why GulfMark Offshore, Inc.  Stock Got Smacked Down 15% Motley Fool - Apr 21, 2015 Now what: GulfMark provides transportation services for offshore oil and gas rig owners and operators, and this industry is deep in the midst of troubling times as oil prices have fallen 50% since June.'
p9
aS'GulfMark Offshore - A Strategic Play In The Oil Market Seeking Alpha - Apr 13, 2016 GulfMark Offshore, Inc.  offers marine transportation services to the energy industry through a fleet of offshore support vessels serving all the major offshore energy markets of the world.'
p10
a.