(lp0
S'Gladstone Commercial Corporation  Ex-Dividend Date Scheduled for March ... Nasdaq - Mar 17, 2017 Gladstone Commercial Corporation  will begin trading ex-dividend on March 20, 2017. A cash dividend payment of $0.125 per share is scheduled to be paid on March 31, 2017.Gladstone Commercial Corporation  Moves Higher on Volume Spike for March 17 - Equities.comGladstone Commercial Corp  Files Form 4 Insider Buying : Robert G Cutlip ... - Energy Index'
p1
aS'Gladstone Commercial Corporation Appoints CFO GlobeNewswire  - Oct 21, 2016 Bob Cutlip, President of Gladstone Commercial, remarked, We are excited that Mike has joined our team. His many years of REIT accounting and treasury leadership combined with his active engagement of the rating agencies, lenders and investors will be ...'
p2
aS'Gladstone Commercial Corporation  Ex-Dividend Date Scheduled for ... Nasdaq - Feb 13, 2017 Gladstone Commercial Corporation  will begin trading ex-dividend on February 14, 2017. A cash dividend payment of $0.125 per share is scheduled to be paid on February 28, 2017.'
p3
aS'Gladstone Commercial, Growing For The Future Seeking Alpha - Dec 18, 2016 Gladstone Commercial Corporation  has closed on another large deal. For $25.5 million, the REIT purchased 935 First Ave, in King of Prussia Pennsylvania.'
p4
aS'Risk Malaise Alert in Option Market: Gladstone Commercial Corporation Implied ... CML News - 16 hours ago Before we dive into any analysis we simply note that Gladstone Commercial Corporation  risk is actually priced pretty low by the option market as of right now.'
p5
aS"Gladstone Commercial Corporation: The Preferreds Are Worth A Look Seeking Alpha - May 17, 2016 GOOD announced a new series of preferred stock and conditional calls on the old stock. The market isn't fully up to speed and the relative pricing between the issues is not logical."
p6
aS'Gladstone Commercial Corporation Prices Public Offering of 7.0% Series D ... GlobeNewswire  - May 20, 2016 MCLEAN, Va., May 20, 2016  -- Gladstone Commercial Corporation   today announced the pricing of a registered direct placement of 1,043,725 shares of its 7.0% Series D Cumulative Redeemable&nbsp;...'
p7
aS'Stock Alert: Gladstone Commercial Corporation Realized Volatility Hits A ... CML News - Mar 17, 2017 Before we cover the full analysis we make a quick alert here that Gladstone Commercial Corporation  has seen its stock price move at a plunging low level.'
p8
aS"BRIEF-Gladstone Commercial Corp reports Q4 revenue of $22 mln Reuters - Feb 15, 2017 Reuters is the news and media division of Thomson Reuters. Thomson Reuters is the world's largest international multimedia news agency, providing investing news, world news, business news, technology news, headline news, small business news, news&nbsp;..."
p9
aS'Is Gladstone Commercial Corporation  A Good Stock To Buy? Insider Monkey  - Dec 12, 2016 When looking at the institutional investors followed by Insider Monkey, Renaissance Technologies, one of the largest hedge funds in the world, holds the number one position in Gladstone Commercial Corporation . Renaissance&nbsp;...'
p10
a.