(lp0
S'38.08 MarketWatch - Dec 21, 2009 Haynes International Inc. Watchlist CreateHAYNAlert. After Hours. Last Updated: Mar 20, 2017 5:38 p.m.. $ 38.08.'
p1
aS'Haynes International Inc.  Plunges 8.67% on March 21 Equities.com - Mar 21, 2017 Haynes International Inc.  had a rough trading day for Tuesday March 21 as shares tumbled 8.67%, or a loss of $-3.3 per share, to close at $34.78.Haynes International, Inc.  Now Covered by Analysts at Longbow Research - Chaffey BreezeThe Haynes International, Inc.  Now Covered by Longbow Research - Petro Global News 24'
p2
aS'Haynes International, Inc. Reports Third Quarter Fiscal 2016 Financial Results GlobeNewswire  - Aug 4, 2016 04, 2016  -- Haynes International, Inc.  , a leading developer, manufacturer and marketer of technologically advanced high-performance alloys, today reported financial results for the third quarter ended&nbsp;...'
p3
aS'Haynes International Inc. HAYN  Wall Street Journal - Feb 12, 2011 Haynes International Inc. HAYN . search. View All companies. REAL TIME 12:53 PM EDT 03/15/17. $37.27 USD; 0.11 0.30%.'
p4
aS'Haynes International, Inc. Announces Expansion of LaPorte, IN Operations GlobeNewswire  - May 2, 2016 KOKOMO, Ind., May 02, 2016  -- Haynes International, Inc.   announced today its decision to expand and streamline its distribution footprint by investing in new plant and equipment at its processing facility&nbsp;...'
p5
aS'Haynes International, Inc.  Ex-Dividend Date Scheduled for February 27, 2017 Nasdaq - Sep 30, 2016 Haynes International, Inc.  will begin trading ex-dividend on February 27, 2017. A cash dividend payment of $0.22 per share is scheduled to be paid on March 15, 2017.'
p6
aS"Haynes International: Time To Sell Seeking Alpha - Nov 3, 2016 Haynes International is one of the world's largest producers of highperformance nickel and cobaltbased alloys in flat product form such as sheet, coil and plate forms."
p7
aS'Option Market Alert: Haynes International Inc Implied Price Swing Hits An ... CML News - 17 hours ago No Risk Alert Here: Before we dive into any analysis we simply note that Haynes International Inc  risk is neither elevated nor depressed.'
p8
aS'Haynes International, Inc. Agrees to Purchase Assets and Operations of ... GlobeNewswire  - Oct 21, 2014 KOKOMO, Ind., Oct. 21, 2014  -- Haynes International, Inc. , a leading developer, manufacturer and marketer of technologically advanced high-performance alloys , reported today that it had entered into a&nbsp;...'
p9
aS'Haynes International Inc.  Moves Higher on Volume Spike for March 17 Equities.com - Mar 17, 2017 Haynes International Inc.  traded on unusually high volume on Mar. 17, as the stock gained 1.66% to close at $38.63. On the day, Haynes International Inc. saw 208,466 shares trade hands on 1,113 trades. Considering that the stock averages only a&nbsp;...Two Sigma Investments LP Acquires 4241 Shares of Haynes International, Inc.  - BNB Daily '
p10
a.