(lp0
S'BRIEF-Harvard Bioscience Inc files for non-timely 10-K Reuters - Mar 17, 2017 BRIEF-Camping World Holdings unit entered into first amendment to credit agreement, dated as of Nov. 8, 2016. * Camping World Holdings Inc - unit entered into a first amendment to credit agreement, dated as of November 8, 2016&nbsp;...'
p1
aS'Company Watch: Viewing Levels for Harvard Bioscience Inc  Rives Journal - Mar 21, 2017 Tracking stock levels, Harvard Bioscience Inc  has a 14-day Commodity Channel Index  of -69.15. Even though the name contains the word commodity, CCI can be used on other investment tools such as stocks.'
p2
aS"Harvard Bioscience's Recent Acquisitions Make A Difference, Initiate With Buy ... Seeking Alpha - Dec 13, 2016 Recent acquisitions have made HBIO a leader in the electrophysiology segment of the scientific equipment market. In addition, cost savings and site consolidations should help fuel high double-digit adjusted EPS growth in FY:16."
p3
aS"Harvard Bioscience's  CEO Jeffrey Duchemin on Q4 2016 Results - Earnings ... Seeking Alpha - Mar 10, 2017 Welcome to the Q4 2016 Harvard Bioscience Inc. Earnings Conference Call. My name is Ally and I will be your operator for today's call.Earnings Reaction History: Harvard Bioscience, Inc.  Post Earnings Price ... - Post Analyst"
p4
aS'Harvard Bioscience Acquires Multi Channel Systems MCS GmbH and Triangle ... GlobeNewswire  - Oct 1, 2014 HOLLISTON, Mass., Oct. 1, 2014  -- Harvard Bioscience, Inc. , a global developer, manufacturer and marketer of a broad range of solutions to advance life science, has acquired two privately held life science companies:&nbsp;...Harvard Biosciences spends $11M on two acquisitions - Boston Business Journal '
p5
aS'Graziano retires as head of Harvard Bioscience, interim CEO named Boston Business Journal  - May 15, 2013 Chane Graziano, CEO and director of Harvard Bioscience Inc.  in Holliston, Mass., has retired after 17 years in the position.'
p6
aS"OSU spinoff Nanofiber back-burners IP fight with Harvard Bioscience Business First of Columbus  - Jan 7, 2014 The surgeon, Dr. Paolo Macchiarini, used the model trachea made by Nanofiber, and stem cells were seeded in the device in a bioreactor by Harvard Bioscience Inc.  - a Harvard University spinoff that fully credited its Columbus partner's ..."
p7
aS'Looking at the Levels for Harvard Bioscience Inc  Midway Monitor - Feb 28, 2017 Traders are taking a second look at how shares of Harvard Bioscience Inc  have been performing lately. A favorite tool among technical stock analysts is the moving average.'
p8
aS'The Heartland Advisors Inc. Buys 100000 Shares of Harvard Bioscience Inc.  Petro Global News 24 - Nov 3, 2016 Heartland Advisors Inc. boosted its position in Harvard Bioscience Inc.  by 4.5% during the third quarter, Holdings Channel reports.'
p9
aS'Harvard Bioscience Inc.  Upgraded to Hold by the Zacks Investment Research Petro Global News 24 - Jan 5, 2017 Zacks Investment Research upgraded shares of Harvard Bioscience Inc.  from a sell rating to a hold rating in a report published on Monday.The Harvard Bioscience Inc.  Shares Bought by the Acadian Asset ... - DailyQuint'
p10
a.