(lp0
S"Hibbett Sports, Inc.  Upgraded to Strong-Buy by Vetr Inc. The Cerbat Gem - 12 hours ago Vetr upgraded shares of Hibbett Sports, Inc.  from a buy rating to a strong-buy rating in a research report released on Tuesday.The Forward View Weighs in on Hibbett Sports, Inc.'s Q1 2018 Earnings  - Petro Global News 24Hibbett Sports, Inc.  Stock Rating Upgraded by Vetr Inc. - Chaffey Breeze"
p1
aS"Why Shares of Hibbett Sports, Inc. Plunged 14% Today Motley Fool - Feb 14, 2017 Retail competition that's hurt a lot of companies in the past few years is finally making its way to sporting goods. Hibbett is trying to adjust by focusing on building out e-commerce and &quot;Store-to-Home&quot; services but there's an uphill battle ahead ...Baesman Insights &amp; Marketing Scores New Partnership With Hibbett Sports, Inc. - GlobeNewswire "
p2
aS"Earnings Reaction History: Hibbett Sports, Inc., 20.0% Follow-Through ... Nasdaq - Mar 10, 2017 Hibbett Sports, Inc.  is due to issue its quarterly earnings report in the upcoming extended-hours session. Given its history, traders can expect light trading in the issue immediately following its quarterly earnings announcement.Hibbett Sports, Inc.  Files An 8-K Results of Operations and ... - Market ExclusiveHibbett Sport's Q4 Earnings Drop 30 Percent - SGB Media   "
p3
aS'Short Interest in Hibbett Sports, Inc.  Declines By 21.8% BNB Daily  - Mar 18, 2017 Hibbett Sports logo Hibbett Sports, Inc.  saw a large decrease in short interest during the month of February.Q4 2018 Earnings Estimate for Hibbett Sports, Inc.  Issued By Forward View - Chaffey Breeze'
p4
aS'Stock Returns: Office Depot Inc  is Beating Hibbett Sports Inc ... CML News - Mar 20, 2017 This is a snapshot to compare the stock returns for Hibbett Sports Inc  versus Office Depot Inc  .'
p5
aS"Option Market: Hibbett Sports Inc Risk Hits An Inflection Point CML News - Mar 12, 2017 We're going to look at a proprietary risk rating for the next 30-days built by Capital Market Laboratories  based on a large number of interactions of data points, many of which come directly from the option market for Hibbett Sports Inc ..."
p6
aS'Notable Earnings: Hibbett Sports, Inc.  Post Registrar - Mar 13, 2017 Shares of Hibbett Sports, Inc.  jumped 8.48% to reach at $29.75 during previous trading session. The company has experienced volume of 1,283,300 shares while on average the company has a capacity of trading 467.35K share.'
p7
aS'Jared Briskin, an Insider in Hibbett Sports, Inc. , Sold 3040 shares of ... Wolcott Daily - 10 hours ago Jared Briskin, the SVP - Chief Merchant and an insider of Hibbett Sports Inc sold a total of 3,040 shares of Hibbett Sports Inc, worth roughly $86,549 USD, at $28.5 for each one share at the time of the trade. This is according to a SEC document dated ...'
p8
aS'Hibbett Sports Inc Stock Volatility Hits An Escalated Level CML News - Feb 21, 2017 This is a proprietary realized volatility rating created by Capital Market Laboratories  based on a large number of data interactions for Hibbett Sports Inc  . We examine the little used gem of daily stock volatility over a 20-day ...'
p9
aS'Rating Change on Hibbett Sports, Inc.  Energy Index - Mar 8, 2017 Hibbett Sports, Inc.  has been in the radar of several wallstreet critics. Hibbett Sports was Downgraded by Susquehanna to Neutral on Feb 14, 2017.FMR LLC is the biggest holder of Hibbett Sports, Inc.  - Post Analyst'
p10
a.