(lp0
S"HMN Enters Into Agreement to Acquire Assets of Deerwood Bank's Albert Lea ... GlobeNewswire  - Nov 20, 2015 ROCHESTER, Minn., Nov. 19, 2015  -- HMN Financial, Inc.   today announced that its wholly owned subsidiary, Home Federal Savings Bank , has entered into an agreement to&nbsp;..."
p1
aS'HMN Closes Acquisition of Assets of Kasson State Bank GlobeNewswire  - Aug 18, 2015 ROCHESTER, Minn., Aug. 17, 2015  -- HMN Financial, Inc.   today announced that its wholly owned subsidiary, Home Federal Savings Bank , closed on the previously announced&nbsp;...'
p2
aS"Bioptix  Forms $3.34 Double Bottom, Hmn Financial  Shorts Down By ... Wolcott Daily - Mar 20, 2017 Bioptix Inc  formed double bottom with $3.11 target or 7.00% below today's $3.34 share price. Bioptix Inc  has $14.11 million valuation."
p3
aS'Home Federal Savings Bank Enters Into Agreement to Acquire Assets of Kasson ... GlobeNewswire  - Apr 3, 2015 ROCHESTER, Minn., April 2, 2015  -- HMN Financial, Inc.   today announced that its wholly owned subsidiary, Home Federal Savings Bank , has entered into an agreement to&nbsp;...'
p4
aS"Ranked: Minnesota's best- and worst-performing public companies Minneapolis / St. Paul Business Journal - Jul 24, 2015 Comparing company performance is a crucial component in determining the appropriateness of CEO pay at Minnesota's largest publicly traded companies for the Overpaid/Underpaid CEOs report in the Business Journal's Weekly Edition."
p5
aS'Home Federal Savings Bank La Crosse Tomah Journal - Jul 29, 2016 Home Federal Savings Bank, the sole operating subsidiary of HMN Financial, Inc., was originally chartered in 1934. The bank, founded in Spring Valley, Minnesota, as Home Federal Savings and Loan Association, has steadily grown to become one of the&nbsp;...'
p6
aS'Home Federal opens new branch in Owatonna Southernminn.com - Jan 5, 2016 Home Federal Savings Bank, the sole operating subsidiary of HMN Financial Inc., was originally chartered in 1934 in Spring Valley as Home Federal Savings and Loan Association.'
p7
aS"2016 Women in Leadership Forum Twin Cities Business Magazine - Aug 12, 2015 Join us as we bring together leading business women and men for an invigorating and collaborative discussion about the powerful benefits of women in corporate leadership roles, the challenges still facing many who want to ascend the ranks, and what's&nbsp;..."
p8
aS'Horace Mann  Rewards Shareholders with 4% Dividend Hike Zacks.com - Mar 9, 2017 Dividend hikes not only testify to the operational and financial strength of a company but also make a stock attractive for yield-seeking investors.Horace Mann Increases Quarterly Dividend by 4% - Yahoo FinanceCitadel Advisors LLC Increases Position in Horace Mann Educators Corp.  - Petro Global News 24'
p9
aS"BRIEF-Vietnam's No Va Land Investment says 2016 net profit up 3.7 times y/y Reuters - Jan 25, 2017 By Aparajita Saxena Jan 26 Southeast Asian stock markets advanced on Thursday, in line with global equities, following a record-breaking performance from Wall Street overnight."
p10
a.