(lp0
S"Auris Surgical to buy Hansen Medical Thomson Reuters' peHUB  - Apr 26, 2016 Auris Surgical Robotics Inc agreed to buy Hansen Medical Inc for about $80 million. Mountain View, California-based Hansen Medical develops intravascular robotics technology."
p1
aS'Auris Surgical Robotics closes $80m Hansen Medical buy Mass Device - Jul 28, 2016 Current Auris CEO Fred Moll founded Hansen Medical in 2002 with an eye toward the intravascular space. Moll, a serial entrepreneur, also co-founded Mako Surgical, acquired in 2013 by Stryker Corp. and Restoration Robotics and its Artas hair restoration&nbsp;...'
p2
aS"Hansen Medical: Revolutionizing Physicians' Capabilities With Robotics Seeking Alpha - Apr 28, 2016 Hansen Medical Inc., based in Mountain View, CA, develops robotically steerable catheters for electrophysiological  and peripheral vascular procedures."
p3
aS'Is Hansen Medical a Takeover Target? Benzinga - Sep 12, 2011 According to the source, management changes in Intuitive Surgical prompted Dr. Moll to leave the firm and create Hansen Medical. Intuitive Surgical proceeded to give his new company licensing to various, non-critical intellectual property. Hansen ...'
p4
aS'Hansen Medical slides on re-stated financials Mass Device - Apr 1, 2016 Hansen Medical  shares slid today after the robot-assisted surgery company re-stated its financials for last year due to a $15.3 million accounting error.'
p5
aS"Auris Surgical Robotics to Acquire Hansen Medical  in $80M Deal StreetInsider.com - Apr 20, 2016 Auris Surgical Robotics, Inc. and Hansen Medical, Inc.  today announced that they have signed a definitive merger agreement under which Auris will acquire Hansen Medical for $4.00 per share in cash, or a total equity value of&nbsp;...Robotic surgery mix-up: Moll's Auris buys Hansen Medical - Mass DeviceHansen Medical  Spikes on Takeover Announcement - Economic Calendar"
p6
aS"FDA Nod Stokes Unusual Option Activity On Hansen Medical, Inc.  Schaeffers Research  - Feb 2, 2016 Medical device manufacturer Hansen Medical, Inc.  hasn't had much success on the charts, to say the least."
p7
aS'Hansen Medical says goodbye to its Google landlord, signs 10-year lease in San ... Silicon Valley Business Journal - Dec 22, 2015 Hansen Medical Inc. is leaving its Google-owned Mountain View headquarters and headed for San Jose. According to SEC filings, Hansen signed a 10-year, seven-month lease on Dec. 15 with LBA Realty for a 33,000-square-foot building in the Silicon&nbsp;...'
p8
aS'SHAREHOLDER ALERT: Brodsky &amp; Smith, LLC Announces Investigation of The Board ... PR Newswire  - Apr 21, 2016 BALA CYNWYD, Pa., April 20, 2016 /PRNewswire/ -- Law office of Brodsky &amp; Smith, LLC announces that it is investigating potential claims against the Board of Directors of Hansen Medical, Inc.   for&nbsp;...'
p9
aS'Hansen Medical, Inc.  Quarterly Deferred Revenue At $3.923 Millions Enterprise Leader - Mar 20, 2017 Hansen Medical, Inc.  reported EBITDA of $-37.843 millions for year ended 2015-12-31. For the quarter ended 2015-12-31 it was $-37.843 millions.'
p10
a.