(lp0
S'Form 3 Hub Group, Inc. For: Mar 15 Filed by: Rand Steven E StreetInsider.com - Feb 8, 2017 Reminder: Report on a separate line for each class of securities beneficially owned directly or indirectly. * If the form is filed by more than one reporting person, see Instruction 4 .'
p1
aS"Hub Group, Inc. Reports Fourth Quarter and Full Year 2016 Results GlobeNewswire  - Feb 2, 2017 OAK BROOK, Ill., Feb. 02, 2017  -- Hub Group, Inc.  announced fourth quarter 2016 net income of $18.2 million, or diluted earnings per share of $0.55 vs.Hub Group's 2016 earnings rise on stable revenues - American Shipper "
p2
aS'Hub Group Inc. Profit Falls 18% In Q4 Nasdaq - Feb 2, 2017  - Hub Group Inc.  announced earnings for fourth quarter that fell from last year. The company said its bottom line dropped to $18.24 million, or $0.55 per share.'
p3
aS"Hub Group Inc.  Moves Lower on Volume Spike for March 17 Equities.com - Mar 17, 2017 Hub Group Inc.  traded on unusually high volume on Mar. 17, as the stock lost 1.88% to close at $46.95. On the day, Hub Group Inc. saw 635,714 shares trade hands on 4,294 trades. Considering that the stock averages only a daily volume of 230,866&nbsp;...Hub Group Inc  Position Raised by Comerica Bank - Chaffey BreezeAnalyst rating score stands at 2.80 while Hub Group, Inc.'s  stock price ... - Hot Stocks Point"
p4
aS'Hub Group Inc  Receives $44.29 Consensus Target Price from Brokerages Chaffey Breeze - 18 hours ago Hub Group logo Hub Group Inc  has earned an average recommendation of Hold from the ten ratings firms that are currently covering the stock.'
p5
aS"Hub Group  Q3 2016 Results - Earnings Call Transcript Seeking Alpha - Oct 27, 2016 Hello and welcome to the Hub Group Third Quarter 2016 Earnings Conference Call. Dave Yeager, Hub's CEO; Don Maltby, our President and Chief Operating Officer; and Terri Pizzuto, our CFO, are joining me on the call.Net Income Falls at Hub Group, Echo - Transport Topics Online"
p6
aS'Hub Group Inc.  Breaks into New 52-Week High on March 02 Session Equities.com - Mar 2, 2017 Shares of Hub Group Inc.  broke into a new 52-week high yesterday, hitting a peak of $52.50. Shares closed at $50.35 after opening at $51.70 for a move of -2.33%.'
p7
aS'Hub Group Continues Its Progression Towards A More Asset-Intensive Model Seeking Alpha - Feb 15, 2017 Hub Group could soon be approaching $1 billion in capex spend over the past decade by 2020. The company is ramping up its purchase of domestic intermodal containers to compete against other IMCs in a convoluted Class I North American rail network.'
p8
aS"Hub Group Grabbing Share, But Backfilling The Margins Is Important Seeking Alpha - Feb 8, 2017 I can't fault for Hub Group's  growth strategy, as the company has used acquisitions and execution to build itself to mid-teens share of the domestic intermodal market and a top-five position in the domestic truck brokerage sector."
p9
aS'The State Street Corp Has $41983000 Stake in Hub Group Inc  Petro Global News 24 - Mar 21, 2017 State Street Corp boosted its stake in shares of Hub Group Inc  by 10.1% during the fourth quarter, according to its most recent disclosure with the Securities and Exchange Commission.State Street Corp Has $41983000 Stake in Hub Group Inc  - The Cerbat GemEPS Estimate Of Hub Group, Inc.  At $0.7475 - Markets Daily'
p10
a.