(lp0
S'Hurco Companies Inc.  Moves Higher on Volume Spike for March 21 Equities.com - Mar 21, 2017 Hurco Companies Inc.  traded on unusually high volume on Mar. 21, as the stock gained 0.16% to close at $31.00. On the day, Hurco Companies Inc. saw 54,147 shares trade hands on 502 trades. Considering that the stock averages only a daily&nbsp;...Hurco Companies Inc  Climbs Higher Over the Past 5 Days - Business ReviewHurco Companies, Inc.  to pay $0.10 on Apr 10, 2017; Novatel Wireless ... - Wolcott Daily'
p1
aS'Hurco Companies, Inc.  Files An 8-K Results of Operations and ... Market Exclusive - Mar 10, 2017 Hurco Companies, Inc. is an industrial technology company. The Company designs, manufactures and sells computerized ) machine tools, consisting primarily of vertical machining centers  and turning centers .Hurco Companies Inc.  Moves Higher on Volume Spike for March 10 - Equities.comHurco Reports First Quarter Results for Fiscal 2017 - GlobeNewswire '
p2
aS'Hurco Announces Acquisition of Two Machine Tool Companies GlobeNewswire  - Jul 15, 2015 INDIANAPOLIS, July 15, 2015  -- Hurco Companies, Inc. , a leader in the development and manufacture of machine tools with integrated control technologies for the worldwide metal cutting market, announced today that,&nbsp;...Hurco Acquires Milltronics, Takumi Machinery - Industrial Distribution'
p3
aS'Hurco Companies Inc.  Moves Higher on Volume Spike for March 17 Equities.com - Mar 17, 2017 Hurco Companies Inc.  traded on unusually high volume on Mar. 17, as the stock gained 4.65% to close at $30.40. On the day, Hurco Companies Inc. saw 62,423 shares trade hands on 167 trades. Considering that the stock averages only a daily&nbsp;...Hurco Companies, Inc.  to Issue Quarterly Dividend of $0.10 on April 10th - Chaffey Breeze'
p4
aS'Hurco Companies Inc.  Moves Higher on Volume Spike for March 16 Equities.com - Mar 16, 2017 Hurco Companies Inc.  traded on unusually high volume on Mar. 16, as the stock gained 1.22% to close at $29.05. On the day, Hurco Companies Inc. saw 40,721 shares trade hands on 154 trades. Considering that the stock averages only a daily&nbsp;...Revenue Update on Hurco Companies - Money Flow Index & Trends'
p5
aS'Hurco Companies Inc  Trending Up Last 7 Bars Business Review - Mar 20, 2017 Hurco Companies Inc  shares are showing positive signals short-term as the stock has finished higher for 7 consecutive bars.'
p6
aS'Hurco Companies, Inc.  Ex-Dividend Date Scheduled for March 23, 2017 Nasdaq - Jul 26, 2016 Hurco Companies, Inc.  will begin trading ex-dividend on March 23, 2017. A cash dividend payment of $0.1 per share is scheduled to be paid on April 10, 2017.'
p7
aS'Hurco Companies Inc.  Moves Higher on Volume Spike for March 09 Equities.com - Mar 9, 2017 Hurco Companies Inc.  traded on unusually high volume on Mar. 09, as the stock gained 0.19% to close at $26.80. On the day, Hurco Companies Inc. saw 41,255 shares trade hands on 194 trades. Considering that the stock averages only a daily&nbsp;...'
p8
aS"Is Hurco Companies Inc's  Liquidity As Good As Its Solvency? Simply Wall St - Mar 2, 2017 Including debt in the capital structure of companies such as Hurco Companies Inc , which has no debt, can improve its capital returns as the cost of capital comes down."
p9
aS'Hurco Names Sonja K. McClelland Vice President, Secretary, Treasurer and Chief ... GlobeNewswire  - Mar 14, 2014 Hurco Companies, Inc., based in Indianapolis, Indiana announced today the promotion of Sonja K. McClelland to Vice President, Secretary, Treasurer and Chief Financial Officer.'
p10
a.