(lp0
S'4.24 MarketWatch - Nov 1, 2009 icad Inc. iCAD, Inc. engages in the provision of advanced image analysis and workflow solutions for the early identification of cancer.'
p1
aS'icad inc.  EPS Projection At $-0.13 RealistInvestor.com - 10 hours ago icad inc.  is likely to account earnings of $-0.13 for prior quarter, which can come on 2017-05-02. It should be documented that projections, as open by Zacks may blow from the calls of Thomson Reuters.'
p2
aS"Trading Options During Earnings in iCAD Inc  CML News - Mar 20, 2017 We're going to examine buying and selling out of the money strangles in iCAD Inc and find out once and for all what the winning trades have been during earnings releases."
p3
aS'iCAD Showcases Targeted, Non-Surgical Non-Melanoma Skin Cancer Treatment at ... PR Newswire  - Mar 3, 2017 NASHUA, N.H. and ORLANDO, Fla., March 3, 2017 /PRNewswire/ --  - iCAD, Inc. , an industry-leading provider of advanced image analysis, workflow solutions and radiation therapy for the early identification and treatment of&nbsp;...'
p4
aS'icad inc.  Stock ABR At 1 Markets Daily - 12 hours ago Market experts outlook on icad inc.  equity is positive. As of 2017-03-21, the stock ABR is 1 in 1-5 range. Zacks computes the average brokerage recommendation for listed stocks for the leading investment websites.'
p5
aS"Option Market Alert: iCAD Inc Implied Price Swing Hits A Notable High CML News - Mar 21, 2017 Risk Alert: Before we dive into any analysis we simply note that iCAD Inc  risk is elevated. We'll detail it below -- but that's the lede -- the option market is starting to flash those neon lights that signal &quot;risk is rising&quot; with an IV30 ..."
p6
aS'iCAD Inc to Post Q1 2017 Earnings of  Per Share, Zacks Investment ... Chaffey Breeze - Mar 17, 2017 iCAD logo iCAD Inc  - Equities research analysts at Zacks Investment Research issued their Q1 2017 earnings per share  estimates for iCAD in a report released on Tuesday.Next Weeks Broker Price Targets For Icad Inc.  - Fiscal Standard'
p7
aS'iCAD, Inc. Withdraws 2015 Financial Guidance Due to General Reimbursement ... GlobeNewswire  - May 27, 2015 NASHUA, N.H., May 27, 2015  -- iCAD, Inc.  announced today that it is withdrawing its full year 2015 financial guidance due to general uncertainty related to reimbursement for non-melanoma skin cancer in the United&nbsp;...'
p8
aS"Is iCAD Inc's  Balance Sheet Strong Enough To Weather A Storm? Simply Wall St - Mar 8, 2017 In any company, including iCAD Inc  which has zero-debt on its balance sheet, there are well known benefits of including debt in the capital structure, primarily a lower cost of capital - due to debtholders' higher claim on assets in the ..."
p9
aS"The Zacks Investment Research Comments on iCAD Inc's FY2017 Earnings  Petro Global News 24 - Mar 19, 2017 iCAD Inc  - Investment analysts at Zacks Investment Research decreased their FY2017 earnings per share estimates for shares of iCAD in a research report issued on Tuesday.iCAD Inc  to Post FY2017 Earnings of  Per Share, Zacks Investment ... - BBNSIcad Inc.  Reviewed By Analysts - The De Soto Edge"
p10
a.