(lp0
S'InfoSonics Corporation : Financial Strength Analysis Simply Wall St - Mar 8, 2017 Companies with small market capitalization such as InfoSonics Corporation , while they can deliver high growth, financial strength is the deciding element in their long-term existence.'
p1
aS'InfoSonics Reports Third Quarter 2016 Results PR Newswire  - Nov 10, 2016 About InfoSonics Corporation InfoSonics is a San Diego-based manufacturer and provider of wireless handsets, tablets and related products to carriers, distributors and consumers in the United States and Latin America under the verykool brand.'
p2
aS'InfoSonics: Is This Net Net Stock A Screaming Buy? Seeking Alpha - Jan 9, 2017 As more and more smart value investors turn to deep value investing and net net stocks in particular, I thought it would be worthwhile highlighting our approach to stock selection at Net Net Hunter.'
p3
aS'InfoSonics Corporation  Files An 8-K Results of Operations and ... Market Exclusive - Mar 9, 2017 InfoSonics Corporation is a provider of wireless handsets , tablets and accessories to carriers and distributors in Latin America and the United States.InfoSonics Reports Fourth Quarter 2016 Results - MENAFN.COM'
p4
aS'Investor Watch: Looking at Shares of InfoSonics Corporation  Searcy News - 15 hours ago Taking a look at shares of InfoSonics Corporation , the stock has a Value Composite Score of 46. Based on a scale from 0 to 100, a score near zero would indicate an undervalued company and a higher score would signal an expensive or&nbsp;...'
p5
aS'InfoSonics Goes Big with the Introduction of a 6-Inch Phablet: the verykool ... PR Newswire  - Feb 17, 2015 SAN DIEGO, Feb. 17, 2015 /PRNewswire/ -- InfoSonics Corporation  has unveiled the latest addition to the verykool product lineup - the s6001 Cyprus, an all-purpose 6-inch phablet.'
p6
aS"InfoSonics Corporation's  stock price closes yesterday with change of -6 ... Hot Stocks Point - Mar 18, 2017 InfoSonics Corporation  stock price ended its day with loss -6.14% and finalized at the value of $0.52. During its last trading session, Stock traded with the total exchanged volume of 0.03 million shares."
p7
aS"InfoSonics Launches a New 5-Inch Metal-Encased 4G LTE Smartphone: The verykool ... PR Newswire  - Feb 9, 2016 &quot;We've crafted the Spark LTE to be an impressive product that is aesthetically beautiful and feels great in the palm of your hand,&quot; said Joseph Ram, InfoSonics president and chief executive officer. &quot;From its dramatically thin 1mm bezel to its 2,200 ..."
p8
aS'InfoSonics Corp  Daily Sentiment At 0 Markets Daily - Mar 21, 2017 InfoSonics Corp  has been given a 0 daily sentiment score. This dataset comprises average sentiment and impact scores figured on all articles linked to InfoSonics Corp , published in preceding 24 hours. It is basically the ...'
p9
aS'Stock Check: Viewing Levels for InfoSonics Corp  Rives Journal - Mar 17, 2017 InfoSonics Corp  presently has a 14-day Commodity Channel Index  of -64.53. The CCI was created to typically stay within the reading of -100 to +100.'
p10
a.