(lp0
S'IntriCon Backs Bipartisan Legislation to Make Hearing Aids Available Over the ... Business Wire  - 11 hours ago ARDEN HILLS, Minn.----IntriCon Corporation , a designer, developer, manufacturer and distributor of miniature and micro-miniature body-worn devices, today announced its support of legislation to make hearing aids&nbsp;...'
p1
aS'Intricon Corporation  Misses Q4 EPS by 26c StreetInsider.com - Feb 16, 2017 Intricon Corporation  reported Q4 EPS of , $0.26 worse than the analyst estimate of , may not compare.IntriCon Corporation  Downgraded by Zacks Investment Research - Chaffey BreezeAnalysts Expect IntriCon Corporation  to Announce  Earnings Per Share - The Cerbat Gem'
p2
aS"IntriCon Corporation: IntriCon Reports 2016 Fourth-Quarter Results The Wall Street Transcript - Feb 16, 2017 BUSINESS WIRE)-- IntriCon Corporation , a designer, developer, manufacturer and distributor of miniature and micro-miniature body-worn devices, today announced financial results for its fourth quarter ended December 31, 2016.IntriCon's  CEO Mark Gorder on Q4 2016 Results - Earnings Call Transcript - Seeking Alpha"
p3
aS'IntriCon goes all in with Hearing Help Express, buys remaining 80% stake Seeking Alpha - Jan 20, 2017 IntriCon  exercises its option to acquire the rest of Hearing Help Express  that it did not own .'
p4
aS'IntriCon Acquires PC Werth Ltd Business Wire  - Nov 3, 2015 ARDEN HILLS, Minn.----IntriCon Corporation , a designer, developer, manufacturer and distributor of miniature and micro-miniature body-worn devices, today announced that it has acquired, effective today, assets of PC&nbsp;...'
p5
aS'IntriCon Reports 2016 Second-Quarter Results Business Wire  - Aug 2, 2016 ARDEN HILLS, Minn.----IntriCon Corporation , a designer, developer, manufacturer and distributor of miniature and micro-miniature body-worn devices, today announced financial results for its second quarter ended June 30,&nbsp;...'
p6
aS'IntriCon and The Academy of Doctors of Audiology Announce Joint Venture Business Wire  - Sep 14, 2015 BUSINESS WIRE)--IntriCon Corporation  and The Academy of Doctors of Audiology , today announced a joint venture to provide hearing instruments and educational resources that offer unprecedented value for audiologists and their&nbsp;...'
p7
aS"The Rubicon Project  Reaches $5.56 Yearly Low, Intricon  Shorts ... Herald KS - Mar 20, 2017 Intricon Corporation  had a decrease of 32.27% in short interest. IIN's SI was 55,000 shares in March as released by FINRA."
p8
aS"IntriCon's  CEO Mark Gorder on Q3 2016 Results - Earnings Call Transcript Seeking Alpha - Nov 15, 2016 Our medical business sales decreased 17% in the 2016 third quarter, chiefly driven by IntriCon's largest customer, Medtronic."
p9
aS'A New Kind of Stock Chart: IntriCon Corporation  Critical Pivot Points CML News - Feb 5, 2017 This is a real time view of the critical technical pivot points for IntriCon Corporation  . The technical pivot points we look at all surround the stock price movement from the last 10-trading days through the last year.'
p10
a.