(lp0
S"International Paper: Undervalued With Catalysts Seeking Alpha - Mar 14, 2017 International Paper's  recent pullback has the stock at an oversold level and bargain valuation. I think the stock is poised to increase due to the low valuation.Shares of International Paper Company  Sees Large Outflow of Money - Energy IndexStock Alert: International Paper Company  - TopChronicle"
p1
aS'International Paper: Long-Term Outlook Remains Promising Seeking Alpha - Feb 4, 2017 The tumble in the share price is not as bad as the one International Paper experienced in 2009 when, like so many other firms during the Great Recession, the Memphis-based company was compelled to cut its dividend. Indeed, the dividend was cut from&nbsp;...'
p2
aS'International Paper Company  Ex-Dividend Date Scheduled for February 13, 2017 Nasdaq - Feb 10, 2017 International Paper Company  will begin trading ex-dividend on February 13, 2017. A cash dividend payment of $0.463 per share is scheduled to be paid on March 15, 2017.Investor Research Report on International Paper Company  - FactsReporterBarclays PLC Downgrades International Paper Company  to Underweight - Sports Perspectives'
p3
aS'Insider Trading Activity International Paper Co   insider Sold 10351 ... Market Exclusive - Mar 7, 2017 On 1/8/2013 International Paper Co announced a quarterly dividend of $0.30 2.98% with an ex dividend date of 2/13/2013 which will be payable on 3/15/2013.'
p4
aS'Insider Trading Activity International Paper Co   insider Sold 18060 ... Market Exclusive - Mar 7, 2017 On 1/8/2013 International Paper Co announced a quarterly dividend of $0.30 2.98% with an ex dividend date of 2/13/2013 which will be payable on 3/15/2013.Impact of Brokerage Rating on International Paper Company  - Money Flow Index & TrendsInternational Paper Co /new/  Files Form 4 Insider Selling : John V Sims ... - Energy Index'
p5
aS"IP earns global recognition Memphis Business Journal - Mar 13, 2017 Congratulations to everyone at International Paper for being recognized as a World's Most Ethical Company.&quot; International Paper operates in North America, Latin America, Europe, North Africa, Asia and Russia. The company employs 55,000 people across&nbsp;...Milliken &amp; Co. makes world's most ethical list for 11th consecutive year - Upstate Business Journal"
p6
aS'Fiat Chrysler Automobiles NV  &amp; International Paper Co (NYSE:IP ... Daily News Journal - 15 hours ago On Tuesday, Shares of Fiat Chrysler Automobiles NV  lost -5.31% to $10.70. The share price is trading in a range of $10.69 - 11.39.'
p7
aS'International Paper India President Swaminathan resigns India Today - Feb 22, 2017 Hyderabad, Feb 22  International Paper Co  announced today its top executive Rampraveen Swaminathan has decided to leave the company to pursue his professional interests outside the firm.International Paper India Announces Leadership Changes - Indiainfoline'
p8
aS'Watching the Technicals on Shares of International Paper Co  BVN - 9 hours ago International Paper Co  currently has a 14-day Commodity Channel Index  of -54.29. Active investors may choose to use this technical indicator as a stock evaluation tool.'
p9
aS'Insider Trading at International Paper Co? Sports Perspectives - Mar 21, 2017 International Paper logo International Paper Co  insider W. Michael Jr. Amick sold 10,351 shares of the stock in a transaction on Thursday, March 16th.International Paper Co /new/  Files Form 4 Insider Selling : W. Michael Jr ... - Energy Index'
p10
a.