(lp0
S'Why Intersil Corp. Stock Popped Today Motley Fool - Sep 13, 2016 When all was said and done, Renasas agreed to purchase Intersil for $22.50 per share in cash, representing an equity value for the company of roughly $3.2 billion.Renesas Bets on Smarter Cars With $3 Billion Intersil Purchase - BloombergRenesas to Acquire Intersil Corp  in ~$3.2B Deal - StreetInsider.com'
p1
aS'Intersil Corporation Stockholders Approve Merger Proposal PR Newswire  - Dec 8, 2016 8, 2016 /PRNewswire/ -- Intersil Corporation , a leading provider of innovative power management and precision analog solutions, today announced that Intersil stockholders approved the merger agreement with Renesas Electronics&nbsp;...'
p2
aS'Intersil Corporation Reports Fourth Quarter and Full Year Results PR Newswire  - Jan 30, 2017 30, 2017 /PRNewswire/ -- Intersil Corporation , a leading provider of innovative power management and precision analog solutions, today announced financial results for the fourth quarter and the full year ended December 30, 2016.'
p3
aS'Why Intersil Corp. Stock Surged Today Motley Fool - Aug 31, 2016 Shares of integrated-circuit developer Intersil Corp.  jumped on Wednesday, following a report from Reuters claiming that the company planned to announce a sale to Renesas Electronics  as soon as next week.'
p4
aS'Intersil Corp  Acquires Great Wall Semiconductor in $23M Deal StreetInsider.com - Sep 9, 2015 Intersil Corp  announced the acquisition of Great Wall Semiconductor , a private technology company developing state-of-the-art power metal-oxide semiconductor field-effect transistor  technology for cloud computing, space&nbsp;...'
p5
aS'Intersil Corporation  Ex-Dividend Date Scheduled for February 10, 2017 Nasdaq - Feb 9, 2017 Intersil Corporation  will begin trading ex-dividend on February 10, 2017. A cash dividend payment of $0.12 per share is scheduled to be paid on February 24, 2017.Intersil Corporation  To Go Ex-Dividend on February 10th - Sports Perspectives'
p6
aS'Intersil Corp  Received Order to Pay $77M in Damages StreetInsider.com - Apr 26, 2016 ... Court for the Eastern District of Texas awarding firm client, ams-TAOS USA Inc. f/k/a Texas Advanced Optoelectronic Solutions, Inc., more than $77 million in damages against Intersil Corporation , including $10 million in exemplary ...ams AG Announces $77 Million Intellectual Property Award Against United States ... - PR Newswire '
p7
aS"Why Intersil Corp. Stock Soared Today Motley Fool - Aug 22, 2016 What: Shares of Intersil Corp  were up 19.9% as of 12:30 p.m. Monday following reports that Japan's Renasas Electronics Group is interested in acquiring the U.S.Renesas Climbs on Report of Talks to Buy Intersil for $3 Billion - Bloomberg"
p8
aS'Intersil is Oversold Forbes - Jul 31, 2014 But making Intersil Corp. an even more interesting and timely stock to look at, is the fact that in trading on Friday, shares of ISIL entered into oversold territory, changing hands as low as $11.51 per share.'
p9
aS'Intersil Corporation  Ex-Dividend Date Scheduled for November 10, 2016 Nasdaq - Nov 9, 2016 Intersil Corporation  will begin trading ex-dividend on November 10, 2016. A cash dividend payment of $0.12 per share is scheduled to be paid on November 28, 2016.'
p10
a.