(lp0
S'Iteris Upgrades Digital Farming Mobile Apps Business Wire  - Mar 14, 2017 SANTA ANA, Calif.----Iteris, Inc. , the global leader in applied informatics for transportation and agriculture, today announced new innovative features in the latest versions of its digital agriculture applications ...'
p1
aS'Iteris greenlights ways to better account for its revenue Los Angeles Times - May 4, 2015 Some people in Southern California like dealing with congested freeways - mainly those who work for Iteris Inc. of Santa Ana.'
p2
aS'Iteris Inc.  Hints At Turnaround Success, But Is It Too Late? Scibility Media - Jul 18, 2016 Iteris Inc.  has put investors on high alert regarding its F1Q2017 results. The management recently released what it termed as preliminary financial results for the quarter and the numbers exceeded the consensus estimate.'
p3
aS"Noteworthy Mover of Last Trading Session: Iteris, Inc.  Is stories - 19 hours ago Iteris, Inc.'s  witnessed a loss of -7.04% in recent trading period with closing price of $ 5.15. The company's last traded volume of 0.13 million shares as compared to it's an average volume of 0.1 million shares."
p4
aS"Soy Beans And Traffic Lights? Iteris's Risky Shift Into Agriculture Seeking Alpha - Jul 24, 2015 Historically, Iteris, Inc. , has operated in the transportation sector, selling sensors and providing consulting services to help manage traffic as efficiently as possible."
p5
aS'Form 3 ITERIS, INC. For: Feb 23 Filed by: Deeter Scott StreetInsider.com - Feb 20, 2017 Reminder: Report on a separate line for each class of securities beneficially owned directly or indirectly. * If the form is filed by more than one reporting person, see Instruction 4 .'
p6
aS'Iteris signs ClearAg agreement with Valent USA Corporation agprofessional.com - Sep 10, 2015 Iteris, Inc., a leader in providing information solutions to the transportation and agriculture markets, has entered into an agreement with Valent U.S.'
p7
aS'Stock Review: Level Check for Iteris, Inc.  SKV News - 7 hours ago Checking the Value Composite score for Iteris, Inc. , we see that the company has a rank of 70. This falls on a scale from 0 to 100 where a lower score indicated an undervalued company and a higher score would indicate an expensive or&nbsp;...'
p8
aS'Iteris Sets Fiscal Third Quarter 2017 Conference Call for Thursday, February 9 ... Business Wire  - Jan 26, 2017 SANTA ANA, Calif.----Iteris, Inc. , the global leader in applied informatics for transportation and agriculture, today announced that it will conduct a conference call on Thursday, February 9, 2017 at 4:30 p.m.'
p9
aS'Scott Deeter Joins Iteris Board of Directors Yahoo Finance - Feb 28, 2017 Iteris, Inc. , the global leader in applied informatics for transportation and agriculture, today announced that Scott Deeter, president and CEO of Ventria, has been elected to its Board of Directors.'
p10
a.