(lp0
S'Differential Brands Group Inc. to Present at 29th Annual ROTH Conference Yahoo Finance - Mar 6, 2017 Differential Brands Group Inc.   today announced that management will be presenting at the 29th Annual ROTH Conference in Dana Point, California on Monday, March 13, 2017, at 7:30 am Pacific Time.The Zacks: Differential Brands Group Inc.  Given Average Rating of ... - DailyQuint'
p1
aS'BRIEF-Differential Brands Group appoints Bob Ross as CFO Reuters - Jan 26, 2017 March 20 Eli Lilly and Co said a combination of its experimental breast cancer drug and another widely used treatment slowed disease progression in a key study in patients who had relapsed or did not derive enough benefit from anti-estrogen therapy.'
p2
aS'Differential Brands Group Inc. MarketWatch - Feb 4, 2016 Differential Brands Group, Inc. engages in the design and distribution of apparel and clothing products. It operates through the Wholesale and Retail segments.'
p3
aS'Differential Brands Group Inc. DFBG  Wall Street Journal - Jan 29, 2016 News Differential Brands Group Inc.DFBG. Significant News Only. 03/09/17; Press Release. Differential Brands Group Reports Fourth Quarter and Fiscal Year 2016 Results.'
p4
aS'Differential Brands Group Sees Q4 Revenues Double SGB Media    - Mar 13, 2017 Differential Brands Group Inc., which includes Hudson Jeans, Robert Graham and Swims, reported fourth quarter net sales increased 108 percent to $42.0 million; full year net sales increased 104 percent to $149.3 million, driven by the inclusion of the&nbsp;...'
p5
aS'Differential Brands Group Reports Fourth Quarter and Fiscal Year 2016 Results Yahoo Finance - Mar 9, 2017 Differential Brands Group Inc.  , a portfolio of global consumer brands comprised of Hudson Jeans, Robert Graham and SWIMS, today announced financial results for the three and twelve months ended December 31, 2016.'
p6
aS"Differential Brands Group Inc  Jumps 8.33% For the Week Business Review - 10 hours ago Differential Brands Group Inc  shares have seen strong upward momentum over the past week as they have moved higher 8.33% over the past five sessions, placing them on this week's winners list."
p7
aS'Ticker Watch: Technical Views on Shares of Differential Brands Group Inc  Rives Journal - Mar 21, 2017 Differential Brands Group Inc  currently has a 14-day Commodity Channel Index  of 3.06. Despite the name, CCI can be used on other investment tools such as stocks.'
p8
aS'Differential Brands Group Announces Acquisition of SWIMS Brand Business Wire  - Jul 19, 2016 LOS ANGELES----Differential Brands Group Inc.   announced today that it has completed the acquisition of SWIMS AS , a Scandinavian lifestyle brand best known for its&nbsp;...'
p9
aS"The Story At Differential Brands Group Is Interesting - But Not Quite Attractive Seeking Alpha - Oct 14, 2016 DFBG was formed out of the wreckage at Joe's Jeans, with that company's Hudson brand merging with fast-growing Robert Graham."
p10
a.