(lp0
S'Kronos Worldwide Hits New 52-Week High on Bright Prospects Yahoo Finance - 18 hours ago Shares of Kronos Worldwide, Inc. KRO reached a new 52-week high of $16.17 during its trading session on Mar 21. This apex improved upon the last 52-week high of $16.00 on Mar 20.Kronos Worldwide Inc  Breaks into New 52-Week High on March 21 Session - Equities.com3 Reasons Why Kronos Worldwide  is a Great Momentum Stock March 21, 2017 - Zacks.com'
p1
aS'Kronos Worldwide Inc  Ex-Dividend Date Scheduled for March 03, 2017 Nasdaq - Mar 2, 2017 Kronos Worldwide Inc  will begin trading ex-dividend on March 03, 2017. A cash dividend payment of $0.15 per share is scheduled to be paid on March 16, 2017.Kronos Worldwide Inc  Moves Lower on Volume Spike for March 02 - Equities.comKronos Worldwide, Inc.  To Go Ex-Dividend on March 3rd - Sports Perspectives'
p2
aS'Is Kronos Worldwide Inc  A Financially Sound Company? Simply Wall St - Mar 8, 2017 Kronos Worldwide Inc  is a small-cap-stock with a market capitalization of USD $1,667 Million. While investors primarily focus on the growth potential and competitive landscape of the small-cap companies, they end up ignoring a key aspect,&nbsp;...Stock Returns: Kronos Worldwide Inc  versus OCI Partners LP  - CML NewsThe Top Three Holders Of Kronos Worldwide, Inc.  - Post Analyst'
p3
aS'Option Market Alert: Kronos Worldwide Inc Implied Price Swing Hits An ... CML News - Mar 20, 2017 No Risk Alert Here: Before we dive into any analysis we simply note that Kronos Worldwide Inc  risk is neither elevated nor depressed.'
p4
aS'Kronos Worldwide Inc  Breaks into New 52-Week High on March 20 Session Equities.com - Mar 20, 2017 Shares of Kronos Worldwide Inc  broke into a new 52-week high yesterday, hitting a peak of $16.00. Shares closed at $15.88 after opening at $15.40 for a move of 2.85%.'
p5
aS"Kronos Worldwide posts 4Q profit Yahoo Finance - Mar 10, 2017 DALLAS  _ Kronos Worldwide Inc.  on Friday reported fourth-quarter net income of $23.2 million, after reporting a loss in the same period a year earlier.Zacks: Kronos Worldwide, Inc.  Given Average Rating of Hold by Brokerages - Chaffey BreezeNoteworthy Targeted Stock: Kronos Worldwide, Inc.'s  stock price is at ... - WsNews 4investors"
p6
aS'Investor Watch on Shares of Kronos Worldwide, Inc.  Baldwin Journal - 14 hours ago Many investors may have to work through multiple trading strategies to find one that works for them. Some individuals may be looking to monitor stock price momentum by looking at different historical data.'
p7
aS'Kronos Worldwide Inc  Moves Higher on Volume Spike for March 17 Equities.com - Mar 17, 2017 Kronos Worldwide Inc  traded on unusually high volume on Mar. 17, as the stock gained 0.92% to close at $15.44. On the day, Kronos Worldwide Inc saw 1.03 million shares trade hands on 6,777 trades. Considering that the stock averages only a daily&nbsp;...Kronos Worldwide, Inc.  Raised to Strong-Buy at Zacks Investment Research - The Cerbat GemThe Zacks: Analysts Set $10.67 Price Target for Kronos Worldwide, Inc.  - Petro Global News 24'
p8
aS'Kronos Worldwide Inc  Moves Higher on Volume Spike for February 16 Equities.com - Feb 16, 2017 Kronos Worldwide Inc  traded on unusually high volume on Feb. 16, as the stock gained 4.58% to close at $14.38. On the day, Kronos Worldwide Inc saw 684,763 shares trade hands on 5,065 trades. Considering that the stock averages only a daily&nbsp;...Dividend Growth of Kronos Worldwide Inc - Morning OutlookKronos Worldwide Inc  Downgraded to Hold at Zacks Investment Research - Community Financial News'
p9
aS'Kronos Worldwide Inc  Moves Lower on Volume Spike for February 23 Equities.com - Feb 23, 2017 Kronos Worldwide Inc  traded on unusually high volume on Feb. 23, as the stock lost 8.31% to close at $14.23. On the day, Kronos Worldwide Inc saw 592,748 shares trade hands on 4,462 trades. Considering that the stock averages only a daily volume&nbsp;...Kronos Worldwide, Inc.  Files An 8-K Regulation FD Disclosure - Market Exclusive'
p10
a.