(lp0
S'Why Is Lincoln Electric  Up 2.8% Since the Last Earnings Report? Nasdaq - 21 hours ago A month has gone by since the last earnings report for Lincoln Electric Holdings, Inc. LECO . Shares have added about 2.8% in that time frame, outperforming the market.Norges Bank Buys New Position in Lincoln Electric Holdings, Inc.  - The Cerbat GemThe Tudor Investment Corp Et Al Lowers Position in Lincoln Electric Holdings ... - Petro Global News 24'
p1
aS"Lincoln Electric  Hits 52-Week High on Solid Prospects Nasdaq - Mar 20, 2017 Lincoln Electric's fourth-quarter earnings registered an 8% year-over-year growth despite a 0.7% dip in revenues. The company is poised to gain from consistent focus on cost reduction, acquisitions, robust product pipeline, new launches and solid cash ...Vident Investment Advisory LLC Has $1344000 Stake in Lincoln Electric Holdings ... - The Cerbat GemStock Returns: Lincoln Electric Holdings Inc  is Beating Dover ... - CML News"
p2
aS'Lincoln Electric  Poised To Grow Despite Headwinds Yahoo Finance - Mar 16, 2017 We issued an updated research report on Lincoln Electric Holdings Inc. LECO on Mar 15, 2017. The manufacturer and reseller of welding and cutting products is poised to gain from continuous focus on cost reduction, acquisitions, strength of product ...Lincoln Electric Holdings, Inc.  loses confidence of 22 hedge ... - Post AnalystBrokers Issue New Targets On Lincoln Electric Holdings, Inc.  - Fiscal Standard'
p3
aS"Lincoln Electric Holdings  Q4 2016 Results - Earnings Call Transcript Seeking Alpha - Feb 14, 2017 Greetings and welcome to the Lincoln Electric 2016 Fourth Quarter and Full Year Financial Results Conference Call. At this time, all participants are in a listen-only mode.Is Lincoln Electric Holdings Inc's  Financial Health A Matter Of Concern? - Simply Wall St"
p4
aS"Lincoln Electric Enters Into Exclusive Negotiations With Air Liquide to ... GlobeNewswire  - Mar 2, 2017 CLEVELAND, March 02, 2017  -- Lincoln Electric Holdings, Inc.   announced today that it has signed a memorandum of understanding  and entered into exclusive negotiations to acquire Air&nbsp;...Lincoln Electric eyes acquisition of Air Liquide Welding - Crain's Cleveland BusinessLincoln Electric Holdings Inc.  Moves Higher on Volume Spike for March 03 - Equities.com"
p5
aS'Lincoln Electric: Benefiting From An Underperforming Industry Seeking Alpha - Jul 4, 2016 The latest ISM report came in way stronger than everyone expected . At this point, it looks like growth is accelerating again after slowing since the third quarter of 2014.'
p6
aS'Lincoln Electric Promotes Two Executives GlobeNewswire  - Aug 9, 2016 CLEVELAND, Aug. 09, 2016  -- Lincoln Electric Holdings, Inc.  , announced today the promotions of Michael J. Whitehead to Senior Vice President, Strategy and Business Development and Adel A. Mir to&nbsp;...'
p7
aS"Lucrative Stocks in today's market: Lincoln Electric Holdings, Inc., The News Journal - 14 hours ago With the amassed value of the company based on its existing stock price alongside the total amount of outstanding stocks, today's market cap for Lincoln Electric Holdings, Inc. is valued at 5642.97. The value of the Market cap relatively ensures a ..."
p8
aS"Lincoln Electric profits down sharply for 2nd quarter 2016 cleveland.com - Jul 26, 2016 Lincoln Electric's profits for the first six months of 2016, were $85 million, down about 39 percent from the same period in 2015."
p9
aS'Lincoln Electric executive vice president to retire News-Herald.com - Dec 23, 2016 Lincoln Electric Holdings Inc. has announced that Frederick G. Stueber will retire from the company as executive vice president, general counsel and secretary in April 2017.'
p10
a.