(lp0
S"Lucas Energy, Inc. Announces Name Change To Camber Energy, Inc. And ... PR Newswire  - Jan 4, 2017 HOUSTON, Jan. 4, 2017 /PRNewswire/ -- Lucas Energy, Inc.   today announced that it will change its name to Camber Energy, Inc., effective January 5, 2017, to more accurately reflect the Company's strategic shift from its Austin&nbsp;...Houston energy co. changes name as it expands focus - Houston Business Journal"
p1
aS'Camber Energy Announces Fiscal 2017 Third Quarter Results PR Newswire  - Feb 14, 2017 HOUSTON, Feb. 14, 2017 /PRNewswire/ -- Camber Energy, Inc.  , an independent oil and gas company with its operations in Texas and Oklahoma, today announced its fiscal 2017 third quarter results for the&nbsp;...'
p2
aS'Camber Energy Completes Permian Basin Acquisition PR Newswire  - Feb 7, 2017 HOUSTON, Feb. 7, 2017 /PRNewswire/ -- Camber Energy, Inc.  , an independent oil and gas company with operations in Texas and Oklahoma, announced today that it has completed the&nbsp;...Camber Completes $1.43 Million San Andres Permian Leasehold Acquisition - Oil and Gas Investor '
p3
aS'Which insiders are selling Camber Energy, Inc. ? Post Analyst - 20 hours ago Camber Energy, Inc.  reached -5.66% versus a 1-year low price of $0.48. The stock was last seen -9.09% lower, reaching at $0.5 on Mar. 21, 2017.'
p4
aS'Camber Energy Enters Into Purchase Agreement To Expand Its Permian Basin Position PR Newswire  - Feb 24, 2017 24, 2017 /PRNewswire/ -- Camber Energy, Inc.  , an independent oil and gas exploration and production company with operations in Texas and Oklahoma, announced today that its newly formed&nbsp;...Camber Energy, Inc.  Files An 8-K Other Events - Market ExclusiveHouston upstream energy co. makes 13000-acre Permian Basin deal - Houston Business Journal'
p5
aS'Camber Energy To Present At The 29th Annual ROTH Conference PR Newswire  - Mar 1, 2017 HOUSTON, March 1, 2017 /PRNewswire/ -- Camber Energy, Inc.  , an independent oil and gas company with operations in Oklahoma and Texas, announced today that the Company will be presenting at the 29th&nbsp;...Camber Energy, Inc.  Close to Lift Curtain on June 2016 Earnings - The Voice Registrar'
p6
aS'Lucas Energy to become Camber Energy Seeking Alpha - Jan 4, 2017 Lucas Energy  announces a name change to Camber Energy, and will begin trading on the NYSE Market exchange under the symbol CEI beginning tomorrow.'
p7
aS'Camber Energy Provides Operational Update PR Newswire  - Jan 25, 2017 HOUSTON, Jan. 25, 2017 /PRNewswire/ -- Camber Energy, Inc.  , an independent oil and gas company with operations in Oklahoma and Texas, today updated its operational activity in its recently acquired&nbsp;...'
p8
aS'Camber Energy, Inc.  Files An 8-K Entry into a Material ... Market Exclusive - Jan 27, 2017 Camber Energy, Inc., formerly Lucas Energy, Inc., is an independent oil and natural gas company. The Company is engaged in the acquisition and development of crude oil and natural gas from various known productive geological formations, including the&nbsp;...'
p9
aS'0.48 MarketWatch - Mar 15, 2011 Please email us at mwfeedback@marketwatch.com. Learn about the new look  or Dismiss this message. Home &middot; Investing &middot; Quotes &middot; Stocks &middot; United States; CEI. Stock Screener &middot; Earnings Calendar &middot; Sectors &middot; Amex. CEI U.S.: NYSE MKT. Join TD Ameritrade&nbsp;...'
p10
a.