(lp0
S'CrossAmerica Partners LP: Reports Year-End and Fourth Quarter 2016 Results Nasdaq - Feb 27, 2017 Allentown, PA, February 27, 2017 - CrossAmerica Partners LP  , a leading wholesale fuels distributor and owner and lessor of real estate used in the retail distribution of motor fuels, today reported ...CrossAmerica misses 4Q profit forecasts - Yahoo FinanceCrossAmerica Partners LP  Files An 8-K Results of Operations and ... - Market Exclusive'
p1
aS'BRIEF-CrossAmerica Partners LP reports qtrly earnings per share $0.04 Reuters - Feb 27, 2017 BRIEF-CrossAmerica Partners LP reports qtrly earnings per share $0.04. Feb 27 CrossAmerica Partners LP. * Reg-CrossAmerica Partners LP: Reports year-end and fourth quarter 2016 results. * Qtrly operating revenues $501.5 million versus $467.9 million.'
p2
aS'CrossAmerica Partners LP: Announces Pending Acquisition of Assets of State Oil ... Yahoo Finance - Jul 15, 2016 ALLENTOWN, PA, July 15, 2016 - CrossAmerica Partners LP   announced today that it has entered into a definitive agreement to acquire certain assets of Libertyville, Illinois based State Oil Company for total&nbsp;...CrossAmerica Reaches Deal for Certain State Oil Co. Assets - CSNews Online'
p3
aS'Analyst Activity  FBR &amp; Co Reiterates Buy on Crossamerica Partners LP  Market Exclusive - Mar 15, 2017 CrossAmerica Partners LP is a limited partnership engaged in the wholesale distribution of motor fuel, and the ownership and leasing of real estate used in the retail distribution of motor fuel.Royal Bank of Canada Lowers Crossamerica Partners LP  Price Target to $27.00 - The Cerbat GemThe Crossamerica Partners LP  Price Target Cut to $27.00 - Petro Global News 24'
p4
aS'Stock Returns: CrossAmerica Partners LP  versus Dorian LPG Ltd ... CML News - Mar 21, 2017 This is a snapshot to compare the stock returns for CrossAmerica Partners LP  versus Dorian LPG Ltd.  .'
p5
aS'CrossAmerica Partners LP: Announces the Closing of Sale-Leaseback Transaction ... Nasdaq - Dec 22, 2016 ALLENTOWN, PA, December 22, 2016 - CrossAmerica Partners LP   announced today that it has completed the previously announced transaction with a leading institutional real estate investor for the sale&nbsp;...'
p6
aS"Allentown's CrossAmerica Partners income falls Allentown Morning Call - Mar 5, 2015 CrossAmerica and CST have been in acquisition mode. The corporate partners announced three acquisitions during the fourth quarter, including the acquisition in December of 22 convenience store/gas stations from San Antonio-based Landmark Industries&nbsp;..."
p7
aS'CrossAmerica Partners  Stock Falls After Pricing Public Offering TheStreet.com - Jun 16, 2015 &quot;We rate CROSSAMERICA PARTNERS LP  a SELL. This is driven by a number of negative factors, which we believe should have a greater impact than any strengths, and could make it more difficult for investors to achieve positive results compared to&nbsp;...CST Brands &amp; CrossAmerica Announce Dropdown Transactions and Acquisition of ... - Business Wire CrossAmerica Partners adds 41 convenience stores - Allentown Morning Call'
p8
aS"Joe Topper, a player in Allentown's renewal, to retire from CrossAmerica Partners Allentown Morning Call - Mar 27, 2015 Joe Topper, an entrepreneur credited with helping downtown Allentown's rebirth, is leaving his company, the former Lehigh Gas Partners, months after selling it to a Fortune 500 company. Topper started his company, now called CrossAmerica Partners LLP,&nbsp;..."
p9
aS'Stock Returns: Rice Midstream Partners LP  is Beating CrossAmerica ... CML News - Mar 14, 2017 This is a snapshot to compare the stock returns for CrossAmerica Partners LP  versus Rice Midstream Partners LP  .'
p10
a.