(lp0
S'LMI Aerospace, Inc. Announces Expectations for Full-Year 2016 Results GlobeNewswire  - Feb 17, 2017 ST. LOUIS, Feb. 16, 2017  -- LMI Aerospace, Inc.  , a leading provider of design and aftermarket engineering services, and supplier of structural assemblies, kits and components to the aerospace&nbsp;...LMI Aerospace Inc.  Has Jumped To A New High After Bought By Sonaca - RTT News'
p1
aS'LMI Aerospace, Inc. Announces Fourth Quarter and Full-Year 2016 Results Nasdaq - Mar 15, 2017 LMI Aerospace Inc. is a leading supplier of structural assemblies, kits and components and provider of engineering services to the commercial, business and regional, and military aerospace markets.'
p2
aS"LMI Aerospace Inc.  Leaped To A New High After Merger RTT News - Feb 21, 2017 LMI Aerospace Inc.  announced Friday morning that it has agreed to be acquired by Sonaca Group for $14 per share in an all-cash transaction.Blog Coverage LMI Aerospace Inked a Merger Agreement with Sonaca Group - Yahoo FinanceLMI Aerospace merges with Sonaca Group; no change expected in company's ... - Business In Savannah"
p3
aS'LMI AEROSPACE, INC. SHAREHOLDER ALERT: Rigrodsky &amp; Long, PA Announces ... Yahoo Finance - Feb 22, 2017 Rigrodsky &amp; Long, P.A. announces that it is investigating potential legal claims against the board of directors of LMI Aerospace, Inc.   regarding possible breaches of fiduciary duties and other violations of ...'
p4
aS"Moody's downgrades LMI Aerospace CFR to B3; outlook is stable Moodys.com   - Jun 30, 2015 New York, June 29, 2015 -- Moody's Investors Service downgraded its ratings for LMI Aerospace Inc  including the company's Corporate Family Rating  to B3 from B2, and its Probability of Default Rating to B3-PD from B2-PD, with first and ..."
p5
aS'LMI Aerospace, Inc. Announces D3 Technologies President Richard Johnson to Retire GlobeNewswire  - Sep 2, 2014 ST. LOUIS, Sept. 2, 2014  -- LMI Aerospace, Inc. , a leading provider of design engineering services and supplier of structural assemblies, kits and components to the aerospace and defense markets, today announced that&nbsp;...'
p6
aS'LMI Aerospace Engineering Services President Olsen Resigns GlobeNewswire  - Sep 23, 2016 ST. LOUIS, Sept. 23, 2016  -- LMI Aerospace Inc.   has announced that Engineering Services President Brian Olsen resigned his post effective Oct. 7 to take another position within the industry.'
p7
aS'LMI Aerospace to Close Wichita Sheet-metal Fabrication Operation GlobeNewswire  - Jun 29, 2016 ST. LOUIS, June 29, 2016  -- LMI Aerospace Inc.   will close its Wichita, Kan.LMI Aerospace to close one of two Wichita plants - Wichita EagleAerospace company to close portion of Wichita operations - KWCH'
p8
aS'Mid-Afternoon Market Update: Monotype Drops On Earnings Miss; LMI Aerospace ... Benzinga - Feb 17, 2017 Shares of Monotype Imaging Holdings Inc.  were down around 12 percent to $20.90 after the company posted downbeat quarterly earnings.'
p9
aS"What are Analysts Expecting for LMI Aerospace, Inc.  Earnings? Aiken Advocate - 17 hours ago Company earnings numbers are typically highly analyzed by investors and analysts alike. Earnings are important because they can provide insight into a company's profitability."
p10
a.