(lp0
S"Snyder's-Lance Inc Risk Points versus Consumer Staples CML News - 13 hours ago This is a scatter plot analysis of the critical risk points from the option market for Snyder's-Lance Inc  compared to its own past and the Consumer Staples ETF.Snyder's-Lance Inc  is Initiated by UBS to Neutral - Highland MirrorUBS Covers Snyder's-Lance ; 1 Analysts Covering Barnes &amp; Noble, Inc.  - MoneyMakingArticles"
p1
aS"Snyder's-Lance, Inc. to Present at 2017 CAGNY Conference GlobeNewswire  - Feb 15, 2017 CHARLOTTE, N.C., Feb. 15, 2017  -- Snyder's-Lance, Inc. , today announced that the Company will present at the 2017 CAGNY Conference on Tuesday, February 21, 2017, at 4:15 p.m.Snyder's-Lance, Inc. Reports Fourth Quarter &amp; Full Year 2016 Results - VendingMarketWatchFive achievements drive momentum at Snyder's-Lance - Food Business News "
p2
aS"Snyder's-Lance pushes farther into healthier snacks with investment in Denver ... Charlotte Business Journal - Feb 17, 2017 Snyder's-Lance Inc. is buying into a Denver-based company that makes natural and organic foods for customers. The Charlotte snack food maker  is investing in Natural Foodworks Group, which manufactures healthier foods and helps its&nbsp;..."
p3
aS"Snyder's-Lance Announces Rick Puckett to Retire as Executive Vice President ... PR Newswire  - May 26, 2016 CHARLOTTE, N.C., May 26, 2016 /PRNewswire/ -- Snyder's-Lance, Inc.  announced today that Rick Puckett, Executive Vice President and Chief Financial Officer, will retire as CFO on December 31, 2016.CFO Moves: Boston Properties, Lagardere, Snyder's-Lance - Wall Street Journal Rick Puckett to retire as CFO of Snyder's-Lance Dec. 31 - Charlotte Observer"
p4
aS"Snyder's-Lance: May Stay Busy Putting Off Fires Seeking Alpha - Oct 4, 2016 The company has an impressive collection of brands that have decent market share in their respective categories, but strong headwinds may limit gains for the shareholders."
p5
aS"Snyder's-Lance to Report Third Quarter Results on November 7, 2016 GlobeNewswire  - Oct 17, 2016 CHARLOTTE, N.C., Oct. 17, 2016  -- Snyder's-Lance, Inc.  announced today that it will release its third quarter 2016 results before the market opens on Monday, November 7, 2016, followed by a conference call and live&nbsp;..."
p6
aS"Snyder's-Lance: Healthier Focus Seeking Alpha - Jul 25, 2016 Also, as Ken Shea of Bloomberg Intelligence recognizes, additional products help a company gain influence with supermarkets and more pricing power."
p7
aS"Stock Returns: Snyder's-Lance Inc  versus Pilgrim's Pride ... CML News - Mar 21, 2017 This is a snapshot to compare the stock returns for Snyder's-Lance Inc  versus Pilgrim's Pride Corporation  ."
p8
aS"Read this before buying Snyder's-Lance Inc  for its upcoming $0.16 dividend Simply Wall St - Feb 12, 2017 Important news for shareholders and potential investors in Snyder's-Lance : The dividend payment of $0.16 will be distributed into shareholder's accounts on Fri 03 Mar 2017 but the stock will begin trading ex-dividend already on the Tue 21&nbsp;...Snyder's-Lance  Q4 2016 Results - Earnings Call Transcript - Seeking AlphaThree things learned from Snyder's-Lance 2016 earnings - Charlotte Business Journal"
p9
aS"The Credit Agricole SA Has $599000 Position in Snyder's-Lance Inc  Petro Global News 24 - Mar 20, 2017 Credit Agricole S A held its stake in shares of Snyder's-Lance Inc  during the fourth quarter, Holdings Channel reports.Mean Rating Of Snyder's-Lance, Inc.  At $1.5 - RealistInvestor.comSnyder's-Lance, Inc.  Mean Price Target At $43.00 - Equities Focus"
p10
a.