(lp0
S"Lindsay Corporation Announces Fiscal 2017 Second Quarter Earnings Conference ... Yahoo Finance - Mar 20, 2017 Lindsay Corporation , a leading provider of irrigation systems and infrastructure products, today announced it plans to release financial results for its fiscal 2017 second quarter ended February 28, 2017, before the market opens on Thursday ...Lindsay Corporation  Market Cap Of $871.74M - Equities FocusLindsay Corporation's , a stock from Farm &amp; Construction Machinery ... - Street Updates"
p1
aS"Lindsay Corporation - Estimating Mid-Cycle Earnings For A Cyclical Business Seeking Alpha - May 9, 2016 Lindsay Corp.'s business is highly cyclical, and has spent the past several years enjoying record high profits. The last twelve months have seen operating profits fall more than 50% from the peak in 2013, and the business appear to be exiting the ..."
p2
aS'Price Alert: Lindsay Corporation  Stock Nears Resistance ... CML News - 16 hours ago Price Alert: Lindsay Corporation  has now crossed into technical strength -- watch the technical oscillators for momentum gaps.'
p3
aS'Lindsay Corporation  Ex-Dividend Date Scheduled for November 14, 2016 Nasdaq - Nov 11, 2016 Lindsay Corporation  will begin trading ex-dividend on November 14, 2016. A cash dividend payment of $0.29 per share is scheduled to be paid on November 30, 2016.'
p4
aS'Lindsay Corporation Reports Fiscal 2016 Fourth Quarter and Full Year Results Yahoo Finance - Oct 13, 2016 At August 31, 2016 Lindsay had approximately 10.6 million shares outstanding, which are traded on the New York Stock Exchange under the symbol LNN.Omaha-based Lindsay Corp. sees rise in shares, profit margins - Omaha World-Herald'
p5
aS'Lindsay Corporation  Moves Higher on Volume Spike for March 17 Equities.com - Mar 17, 2017 Lindsay Corporation  traded on unusually high volume on Mar. 17, as the stock gained 1.42% to close at $82.85. On the day, Lindsay Corporation saw 183,543 shares trade hands on 995 trades. Considering that the stock averages only a daily volume&nbsp;...Lindsay Corporation  Reviewed By Analysts - The De Soto EdgeNext Weeks Broker Price Targets For Lindsay Corporation  - Fiscal Standard'
p6
aS"Lindsay Corp. CEO plans to step down in December Omaha World-Herald - Feb 9, 2017 The head of Omaha agribusiness Lindsay Corp. will retire Dec. 1, and the company's board has launched a search for his replacement.Lindsay Corporation  Given Consensus Rating of Hold by Analysts - The Cerbat Gem"
p7
aS'Lindsay Corporation  EPS Forecast At $0.98 Markets Daily - 17 hours ago Sell-side brokers are supposing Lindsay Corporation  to report EPS of $0.98 for the quarter ending 2017-02-28. This consensus comes on 3 firms providing predictions.'
p8
aS'Lindsay Corporation  Moves Lower on Volume Spike for February 23 Equities.com - Feb 23, 2017 Lindsay Corporation  traded on unusually high volume on Feb. 23, as the stock lost 1.31% to close at $80.00. On the day, Lindsay Corporation saw 128,237 shares trade hands on 1,533 trades. Considering that the stock averages only a daily volume of&nbsp;...Zacks Investment Research Upgrades Lindsay Corporation  to Hold - The Cerbat GemThe Stock In Focus  Lindsay Corporation  - Transcript Daily'
p9
aS'LINDSAY CORPORATION  Files An 8-K Entry into a Material Definitive ... Market Exclusive - Mar 1, 2017 As previously disclosed, on February 18, 2015, Lindsay Corporation  entered into the Amended and Restated Revolving Credit Agreement  with Wells Fargo Bank, National Association , which continues to&nbsp;...'
p10
a.