(lp0
S"Lake Shore Bancorp, Inc. Announces Fourth Quarter 2016 Dividend GlobeNewswire  - Feb 8, 2017 DUNKIRK, N.Y., Feb. 08, 2017  -- Lake Shore Bancorp, Inc.  , the holding company for Lake Shore Savings Bank , announced that the Company's Board of Directors approved an $0.08 per&nbsp;..."
p1
aS'Lake Shore Bancorp, Inc.  Ex-Dividend Date Scheduled for February 21, 2017 Nasdaq - Feb 17, 2017 Lake Shore Bancorp, Inc.  will begin trading ex-dividend on February 21, 2017. A cash dividend payment of $0.08 per share is scheduled to be paid on March 13, 2017.'
p2
aS'LAKE SHORE BANCORP, inc.  Files An 8-K Other Events Market Exclusive - Mar 13, 2017 On March 7, 2017, Lake Shore, MHC , the mutual holding company of Lake Shore Bancorp, Inc. , received notice of the non-objection of the Federal Reserve Bank of Philadelphia to waive its right to receive dividends paid by the&nbsp;...'
p3
aS"Lake Shore Bancorp's board adds former New Era Cap executive Buffalo Business First - Oct 5, 2016 The board of directors in charge of Lake Shore Bancorp Inc. is now a 10-member group following the recent appointment of Jack Mehltretter to a three-year post."
p4
aS"Form 8-K LAKE SHORE BANCORP, INC. For: May 20 StreetInsider.com - May 20, 2015 On May 20, 2015, Lake Shore Bancorp, Inc.  will hold its annual shareholders' meeting at the Clarion Hotel in Dunkirk, New York at 8:30 a.m."
p5
aS'Lake Shore Bancorp announces 2016 and 4th-quarter financial results Evening Observer - Feb 8, 2017 Lake Shore Bancorp Inc., the holding company for Lake Shore Savings Bank, announced unaudited results for the three months and year ended Dec. 31.'
p6
aS'Lake Shore Bancorp 1Q earnings drop 26% Buffalo Business First - Apr 30, 2015 First-quarter net income at Lake Shore Bancorp Inc. tumbled 26 percent due to higher salaries, rising data processing costs, an increase in loan-loss provisions and a change in state tax laws.'
p7
aS'Lake Shore Bancorp, Inc.  to Issue Dividend Increase  $0.08 Per Share Sports Perspectives - Feb 16, 2017 Lake Shore Bancorp logo Lake Shore Bancorp, Inc.  declared a quarterly dividend on Thursday, February 9th.'
p8
aS'Lake Shore Bancorp adds to its management team Business First of Buffalo - Aug 7, 2014 At Evans, Werdein was senior vice president in charge of business development in the commercial real estate and small- and middle-market business segments.'
p9
aS"Mohawk Industries, Inc.  President-Flooring Eur and ROW Bernard Thiers ... HuronReport - 19 hours ago The SI to Lake Shore Bancorp Incorporated's float is 0.27%. The stock decreased 3.47% or $0.55 on March 21, reaching $15.3. About shares traded."
p10
a.