(lp0
S"Is buying MB Financial Inc  for its upcoming $0.19 dividend a good choice? Simply Wall St - Mar 9, 2017 Investors who want to cash in on MB Financial's  upcoming dividend of $0.19 have only 3 days left to buy the shares before the so called ex-dividend date on the Mon 13 Mar 2017.MB Financial Inc  Receives Consensus Recommendation of Hold from Analysts - Chaffey BreezeState Board of Administration of Florida Retirement System Has $2638000 ... - BNB Daily "
p1
aS'Amid slow growth prospects, MB Financial seeks more acquisitions Medill Reports: Chicago - Feb 2, 2017 MB Financial Inc.  is expected to continue modest growth in 2017 in spite of a higher rate environment, and management is looking for more acquisitions.MB Financial Inc.  Expected to Earn Q1 2017 Earnings of $0.55 Per Share - The Cerbat Gem'
p2
aS'EPS Target Of MB Financial Inc.  Set At $0.7833 Markets Daily - 16 hours ago As MB Financial Inc.  prepares to report financials for gone quarter 2017-04-17, investors will read where posted EPS stands against street expectation.'
p3
aS'Analyst Upside Underscores Impressive Growth for MB Financial, Inc.  Aiken Advocate - 7 hours ago MB Financial, Inc.  has been recommended as a long term growth stock according to analysts at Beta Research.'
p4
aS'MB Financial Inc.  Moves Lower on Volume Spike for March 17 Equities.com - Mar 17, 2017 MB Financial Inc.  traded on unusually high volume on Mar. 17, as the stock lost 0.29% to close at $44.44. On the day, MB Financial Inc. saw 1.1 million shares trade hands on 5,143 trades. Considering that the stock averages only a daily volume ...'
p5
aS'Stock Returns: Independent Bank Corp.  versus MB Financial Inc ... CML News - Mar 20, 2017 This is a snapshot to compare the stock returns for Independent Bank Corp.  versus MB Financial Inc  .'
p6
aS"11th-hour dispute reshapes MB Financial's post-merger board Crain's Chicago Business - Sep 23, 2016 It didn't take long for one key part of the tie-up of American Chartered Bank and MB Financial to unravel. The contract cementing the $449 million deal stipulated that American Chartered Chairman Robert Riter would join MB Financial's board, but that ..."
p7
aS'Analyst Recommendations And Earnings Forecast: Tech Data Corporation (TECD ... Post Analyst - 17 hours ago Over the last five days, shares have faced -2.6% losses and now is up 11.92% since hitting its 200-day moving average of $84.34. Tech Data Corporation  has made its way to a 12-month gain of 18.89%.Where PT Stands For MB Financial, Inc.  - TWN'
p8
aS'MB Financial Inc.  Ex-Dividend Date Scheduled for March 13, 2017 Nasdaq - Feb 14, 2017 MB Financial Inc.  will begin trading ex-dividend on March 13, 2017. A cash dividend payment of $0.19 per share is scheduled to be paid on March 31, 2017.'
p9
aS"Lucrative Stocks in today's market: MB Financial, Inc., The News Journal - 13 hours ago With the amassed value of the company based on its existing stock price alongside the total amount of outstanding stocks, today's market cap for MB Financial, Inc. is valued at 3502.01. The value of the Market cap relatively ensures a stable and secure&nbsp;..."
p10
a.