(lp0
S'MBT Financial Corp  Moves Lower on Volume Spike for March 21 Equities.com - Mar 21, 2017 M B T Financial Corp  traded on unusually high volume on Mar. 21, as the stock lost 3.65% to close at $10.55. On the day, M B T Financial Corp saw 144,860 shares trade hands on 1,305 trades. Considering that the stock averages only a daily volume&nbsp;...'
p1
aS'10.95 MarketWatch - Dec 21, 2009 M B T Financial Corp. Watchlist CreateMBTFAlert. After Hours. Last Updated: Mar 20, 2017 5:38 p.m.. $ 10.95. 0.00 0.00%.'
p2
aS'MBT Financial Corp  Moves Higher on Volume Spike for March 20 Equities.com - Mar 20, 2017 M B T Financial Corp  traded on unusually high volume on Mar. 20, as the stock gained 0.46% to close at $10.95. On the day, M B T Financial Corp saw 160,948 shares trade hands on 1,380 trades. Considering that the stock averages only a daily&nbsp;...'
p3
aS'MBT Financial Corp. Announces Dividends and Share Repurchase Authorization GlobeNewswire  - Jan 28, 2016 MONROE, Mich., Jan. 28, 2016  -- MBT Financial Corp.  announced today that its Board of Directors approved the resumption of regular dividend payments beginning with a $0.03 per share dividend.'
p4
aS'Insider Trading Activity MBT Financial Corp   Insider Sold 15000 ... Market Exclusive - Mar 3, 2017 On 3/1/2013 John L Skibski, CFO Buy, 1,000 $3.63 with an average share price of $3,630.00 View SEC Filing 3/1/2013 per share and the total transaction amounting to Karen M Wilson.Stock Returns: Park Sterling Corporation  is Beating MBT ... - CML News'
p5
aS'MBT Financial Corp  Moves Higher on Volume Spike for March 17 Equities.com - Mar 17, 2017 M B T Financial Corp  traded on unusually high volume on Mar. 17, as the stock gained 0.93% to close at $10.90. On the day, M B T Financial Corp saw 167,613 shares trade hands on 1,208 trades. Considering that the stock averages only a daily&nbsp;...'
p6
aS'MBT Financial Corp  Moves Higher on Volume Spike for March 16 Equities.com - Mar 16, 2017 M B T Financial Corp  traded on unusually high volume on Mar. 16, as the stock gained 0.47% to close at $10.80. On the day, M B T Financial Corp saw 122,350 shares trade hands on 1,148 trades. Considering that the stock averages only a daily&nbsp;...Stock Returns: Financial Institutions Inc  versus MBT Financial ... - CML News'
p7
aS'Decision Time: MBT Financial Corp.  Stock Technicals Have Hit an ... CML News - Mar 17, 2017 Decision Time: MBT Financial Corp.  now sits in the perhaps the most difficult technical position -- the stock has no urgency in its direction and that has left it at an inflection point.'
p8
aS"Price Target Updates on MBT Financial Corp.  The Children's Place ... Davidson Register - 11 hours ago Stock research firms currently have a positive stance on shares of MBT Financial Corp. . Analysts are projecting that the stock will reach $12.50 on a short term  basis.United Financial Bancorp  At $16.25 Forms Top, Mbt Financial (MBTF ... - NormanObserver.com"
p9
aS'Stock Returns: Cascade Bancorp  versus MBT Financial Corp ... CML News - Mar 12, 2017 This is a snapshot to compare the stock returns for Cascade Bancorp  versus MBT Financial Corp.  .'
p10
a.