(lp0
S'Stocks Roundup Medtronic plc. Ordinary Shares , KBR, Inc.  Daily News Journal - 18 hours ago On Tuesday, Medtronic plc. Ordinary Shares  stock opened its trade at $81.80 and after floating in a range of $80.72 to $81.90, settled at $81.12.'
p1
aS'Transcatheter Device By Medtronic plc. Ordinary Shares  Gets FDA Nod Market Exclusive - Mar 17, 2017 The Melody Transcatheter Pulmonary Valve that has been developed by Medtronic plc. Ordinary Shares  has been approved by the U.S.'
p2
aS'Progress Reported On The Partnership Between Mazor Robotics Ltd  ADR (NASDAQ ... Market Exclusive - Mar 21, 2017 Mazor Robotics Ltd - ADR  has disclosed that the strategic partnership the maker of surgical guidance systems formed with Medtronic plc. Ordinary Shares  to commercialize and co-promote its Mazor X platform is turning out&nbsp;...'
p3
aS'CRT Devices From Medtronic plc. Ordinary Shares  Found To Be Cost ... Market Exclusive - Feb 28, 2017 An economic analysis study done by Medtronic plc. Ordinary Shares  has revealed that Cardiac Resynchronization Therapy devices enable heart failure patients to extend their lifespan.'
p4
aS"Chasing Hot Stocks- Medtronic plc. Ordinary Shares , Shopify Inc (US ... Wall Street Times  - Mar 21, 2017 Medtronic plc. Ordinary Shares  traded at a yearly high level of $89.27 during the last trading session. The last session's volume of 4.42 million shares was lower than its average volume of 4.53 million shares."
p5
aS'Stocks on the Move Medtronic plc. Ordinary Shares , New Residential ... Daily News Journal - Mar 14, 2017 On Monday, Medtronic plc. Ordinary Shares  stock opened its trade at $82.99 and after floating in a range of $82.44 to $83.19, settled at $82.89.'
p6
aS'Coverage For Medtronic plc Ordinary Shares  Micra Approved By ... Market Exclusive - Mar 13, 2017 The Centers for Medicare &amp; Medicaid Services  has granted approval to the Micra Transcatheter pacemaker  that is manufactured by Medtronic plc. Ordinary Shares . This was done after two studies were conducted and which&nbsp;...'
p7
aS'Medtronic Leaves Guidance Unchanged As Q3 Earnings Beat Expectations StockNews.com  - Feb 21, 2017 Medtronic plc  early Tuesday posted better than expected fiscal third quarter earnings results and reaffirmed its guidance for the full year.Medtronic plc. Ordinary Shares  has been upgraded to Hold in a ... - Breaking Finance News'
p8
aS"Hot Stocks On Radar- Medtronic plc. Ordinary Shares , American ... Wall Street Times  - Mar 20, 2017 Medtronic plc. Ordinary Shares  traded at a yearly high level of $89.27 during the last trading session. The last session's volume of 11.36 million shares was higher than its average volume of 4.53 million shares."
p9
aS'Algonquin Power &amp; Utilities  Touches $12.69 High on Mar, 21, Franklin ... Herald KS - Mar 21, 2017 Medtronic Plc now has $111.45B valuation. The stock declined 0.18% or $0.15 reaching $81.25 on the news. About 1.66M shares traded.'
p10
a.