(lp0
S"Mohawk Industries: A Good Company But Slightly Expensive Seeking Alpha - Mar 16, 2017 In the past five years, Mohawk Industries'  stock has performed very well, beating the market benchmarks by far.Mohawk Industries, Inc.  Recent Ownership Changes - Post AnalystThe Thrivent Financial for Lutherans Lowers Position in Mohawk Industries, Inc ... - Petro Global News 24"
p1
aS'Mohawk Industries earnings rise to another record Chattanooga Times Free Press - Feb 9, 2017 Mohawk Industries, Inc. boosted its net income last year by 24 percent to a record high $930 million, or $12.48 per share.Mohawk Industries Inc Q4 Income Rises 16% - RTT News'
p2
aS'Mohawk Industries, Inc.  Given New $272.00 Price Target at Barclays PLC Petro Global News 24 - 11 hours ago Mohawk Industries, Inc.  had its target price upped by Barclays PLC from $251.00 to $272.00 in a research note issued to investors on Monday.Barclays PLC Increases Mohawk Industries, Inc.  Price Target to $272.00 - The Cerbat GemHow has Mohawk Industries, Inc. performed recently? - The Daily Leicester'
p3
aS"Mohawk Industries: Riding the Housing Upturn Barron's - Apr 23, 2016 Mohawk Industries: Riding the Housing Upturn ... Mohawk shares have barely budged over the same stretch, even though the two companies are enjoying comparable earnings growth."
p4
aS"Mohawk's Marazzi Tile Unit Grows Inorganically, Buys Emilgroup Seeking Alpha - Feb 7, 2017 Back in September 2016, we anticipated here at Seeking Alpha that Mohawk Industries'  Marazzi Italian tile unit was &quot;ready to close on a key acquisition, that would be on top of two large production increases made/announced in its Fiorano and&nbsp;..."
p5
aS'Mohawk Industries - Great Potential For Safe Growth And Returns Over The Long Run Seeking Alpha - Jan 30, 2017 Mohawk Industries  is a leader in its industry and has had a history of strong and steady organic and acquisition based growth.'
p6
aS"Insider Trading Activity Mohawk Industries, Inc.   Insider Sold ... Market Exclusive - Mar 21, 2017 Bernard Thiers , Insider of Mohawk Industries, Inc.  reportedly Sold 4,000 shares of the company's stock at an average price of 231.78 for a total transaction amount of $927,120.00 SEC Form.Mohawk Industries Inc.  Moves Higher on Volume Spike for March 20 - Equities.comInsider Trading at Mohawk Industries Inc.? - Chaffey Breeze"
p7
aS"Mohawk's Marazzi Tile Unit Eyes Italian Acquisition Seeking Alpha - Sep 23, 2016 Back in 2012, Seeking Alpha broke the news of Mohawk's  $1.5 billion acquisition of Italy-based Marazzi Group, which was the fifth largest tile producer in the ceramic tile industry, with operating units spread throughout Italy, Spain, USA ..."
p8
aS"Mohawk Industries profits rise to record high in third quarter Chattanooga Times Free Press - Nov 3, 2016 Mohawk Industries, Inc. boosted its third quarter net earnings by 25 percent over a year ago to a record $270 million, or $3.62 per share, as the world's biggest floorcovering manufacturer improved both its sales and margins in the past three months ...Mohawk Industries'  CEO Jeff Lorberbaum on Q3 2016 Results - Earnings ... - Seeking Alpha"
p9
aS"Mohawk Industries rolls up record sales in quarter Chattanooga Times Free Press - Aug 5, 2016 Mohawk Industries Inc. boosted profits and sales to an all-time record this spring, encouraging the floorcovering maker to plan more than $600 million of capital investments this year to continue to grow the company.Mohawk Industries'  CEO Jeff Lorberbaum on Q2 2016 Results - Earnings ... - Seeking Alpha"
p10
a.