(lp0
S'Narrowing in on the Numbers for MAXIMUS, Inc.  Rives Journal - 9 hours ago Looking at shares of MAXIMUS, Inc. , the company has an EV  of 4066923. Enterprise Value is a measure of the total value of a specific company.'
p1
aS'Why MAXIMUS, Inc. Stock Popped Today Motley Fool - Nov 10, 2016 Shares of MAXIMUS Inc.  jumped as much as 11.6% early Thursday, then settled to close down 8.6% after the government health and human services programs company released stronger-than-expected fiscal fourth-quarter 2016 results.MAXIMUS Reports Fourth Quarter and Full Year Results for Fiscal Year 2016 - Business Wire '
p2
aS"Maximus Inc.  Moves Higher on Volume Spike for March 17 Equities.com - Mar 17, 2017 Maximus Inc.  traded on unusually high volume on Mar. 17, as the stock gained 0.65% to close at $62.22. On the day, Maximus Inc. saw 858,918 shares trade hands on 3,561 trades. Considering that the stock averages only a daily volume of 410,130&nbsp;...Can MAXIMUS Inc's  ROE Continue To Surpass The Industry Average? - Simply Wall StNext Weeks Broker Price Targets For Maximus, Inc.  - Fiscal Standard"
p3
aS'Analyst Observation On 2 Stocks: Epizyme, Inc. , MAXIMUS, Inc.  Post Analyst - 12 hours ago The earnings of MAXIMUS, Inc.  are forecasted by the analysts to move at $0.77 in current quarter, from $0.74 a year-ago quarter.'
p4
aS'Maximus Inc.  Breaks into New 52-Week High on March 15 Session Equities.com - Mar 15, 2017 Shares of Maximus Inc.  broke into a new 52-week high yesterday, hitting a peak of $62.18. Shares closed at $61.86 after opening at $61.43 for a move of 0.86%.The David Francis Sells 1500 Shares of MAXIMUS, Inc.  Stock - Petro Global News 24'
p5
aS'Maximus to hold 3 job fairs to fill 2100 positions Rochester Democrat and Chronicle - Jul 21, 2016 The first of three job fairs is being held today at the Rochester Tech Park to fill hundreds of open positions for a new Maximus Inc. call center. According to the Gates Chili Chamber of Commerce, the job fairs will be held from 9 a.m. to 4 p.m. today ...'
p6
aS'Fast Growing Stock in Focus: MAXIMUS, Inc.  Aiken Advocate - 5 hours ago MAXIMUS, Inc.  has been recommended as a long term growth pick according to Beta Research. With their stock price currently trading around $61.15, the firm has proven a solid track record of growth over the past few years.'
p7
aS'Maximus could take $25 million revenue hit from Brexit Washington Business Journal  - Aug 5, 2016 The Brexit vote is expected to cost Maximus between $20 million and $25 million in fourth quarter revenue, CEO Rich Montoni told analysts Thursday on a third-quarter earnings call.'
p8
aS'Maximus: UK Contract May Continue To Drag Down The Performance Seeking Alpha - Jun 29, 2016 Exposure and limited improvement in the U.K. HAAS contract may continue to overshadow the business. Besides HAAS, issues related to other contracts in the U.K.'
p9
aS"Insider Trading Activity MAXIMUS, Inc.   General Counsel Sold 1500 ... Market Exclusive - Mar 10, 2017 David Francis , General Counsel of MAXIMUS, Inc.  reportedly Sold 1,500 shares of the company's stock at an average price of 60.36 for a total transaction amount of $90,540.00 SEC Form.Brokers Change Their Target Price On Maximus, Inc.  - Fiscal StandardMAXIMUS, Inc.  CEO Richard A. Montoni Sells 30000 Shares of Stock - BBNS"
p10
a.