(lp0
S"Altria Group Inc  Stock Is on Fire With Dominant Vape Game Investorplace.com - Mar 17, 2017 Altria's e-vapor division Nu Mark now makes up 55% of the vaping market, and continues to expand. MO is used to succeeding despite the odds."
p1
aS"Here's Why the Best Is Yet to Come for Altria Group Motley Fool - Mar 6, 2017 Investors in Altria Group  are already quite familiar with the success of the company's primary businesses."
p2
aS'Big Tobacco has a big party on Wall Street Seeking Alpha - Mar 10, 2017 It seems rare that a company can make such a joke at these events, but Altria Group has an exceptional track record that demands premium valuations.'
p3
aS"Altria Group: Valuation Analysis Under The Proposed Trump And House GOP Tax Plans Seeking Alpha - Mar 15, 2017 The focus of this article is to first compare Altria Group Inc.'s  current and recent historical valuations based on two common metrics."
p4
aS'Altria Group Inc  Position Raised by Texas Yale Capital Corp. Chaffey Breeze - 15 hours ago Altria Group logo Texas Yale Capital Corp. raised its position in shares of Altria Group Inc  by 3.6% during the fourth quarter, according to its most recent Form 13F filing with the SEC.Altria Group, Inc. closed with a change of 0.46% in the Previous Trading Session - Free ObserverThe Altria Group Inc  Shares Sold by Bank of Nova Scotia Trust Co. - Petro Global News 24'
p5
aS"Altria's Ever Expanding P/E Ratio Seeking Alpha - Feb 23, 2017 And then there is the matter of Altria's P/E ratio. During Altria's first year as a standalone company, which occurred during the recession-ravaged year of 2009, Altria was trading at 9.9x earnings. Since then, Altria's valuation has kept inching ..."
p6
aS'Better Buy: Altria Group vs. Philip Morris Motley Fool - Mar 13, 2017 Among tobacco stocks globally, Altria Group  and Philip Morris International  play key leadership roles in the industry.'
p7
aS'Altria Group Declares Quarterly Dividend Nasdaq - Mar 2, 2017 Altria Group Inc.  announced March 1 through Business Wire the dividend for the first quarter of 2017. The tobacco giant headquartered in Henrico County, Virginia, will pay 61 cents per ordinary share to shareholders of record as of March 15.How Does Altria Group, Inc.  Stack Up Right Now? - StockNewsJournalAltria Group Inc  Stake Boosted by Comerica Bank - Chaffey Breeze'
p8
aS"Sell-Side Analyst's Predictions: American Airlines Group Inc. , Altria ... The USA Commerce - Mar 20, 2017 Shares of American Airlines Group Inc.  dropped -0.97% to $41.72. During the trading on 03/17/2017, Company's stock ranged from $41.60 to $42.21. The relative strength index or RSI highlights overbought  and oversold &nbsp;..."
p9
aS'Is Altria Group, Inc.  Finding Support or Hitting Resistance? USA Commerce Daily - 14 hours ago With all other things going on, Altria Group, Inc.  has been on a run - rising 15.21 percent in just three months.'
p10
a.