(lp0
S'Vopak Americas Awards Matrix Service EPC of Brownfield Expansion Project at ... GlobeNewswire  - Mar 21, 2017 TULSA, Okla., March 21, 2017  -- Matrix Service Company  announced today that its subsidiary, Matrix Service Inc. has been awarded the engineering, fabrication, procurement, and construction of 10 new tanks and&nbsp;...'
p1
aS'Matrix Service Company Recognized by Forbes as One of 100 Most Trustworthy ... GlobeNewswire  - Jun 27, 2016 TULSA, Okla., June 27, 2016  -- Matrix Service Company  announced today that it has been named by Forbes as one of the 100 Most Trustworthy Companies in America based on third-party review by MSCI ESG&nbsp;...'
p2
aS'Matrix Service Company Announces Strong Finish to Fiscal 2016; Provides ... GlobeNewswire  - Aug 30, 2016 TULSA, Okla., Aug. 30, 2016  -- Matrix Service Company  today reported its financial results for the fourth quarter and year ended June 30, 2016.'
p3
aS'Matrix Service Company Acquires Baillie Tank Equipment GlobeNewswire  - Feb 1, 2016 TULSA, Okla., Feb. 01, 2016  -- Matrix Service Company  has completed the acquisition of Baillie Tank Equipment , an internationally-based company with nearly 20 years of experience in the design and&nbsp;...Matrix buys Baillie Tank Equipment - Tulsa World'
p4
aS'Matrix Service Company  Moves Higher on Volume Spike for March 17 Equities.com - Mar 17, 2017 Matrix Service Company  traded on unusually high volume on Mar. 17, as the stock gained 1.92% to close at $15.90. On the day, Matrix Service Company saw 436,215 shares trade hands on 1,588 trades. Considering that the stock averages only a&nbsp;...'
p5
aS'Matrix Service Company - Look Beyond 2017, Pick Up Some Shares For The Long Run Seeking Alpha - Feb 13, 2017 Matrix Service Company announced a painful cut in its 2017 guidance despite the acquisition of Houston Interest. While 2017 is challenging, order intake is already improving and infrastructure spending, increased production and oil recovery should ...'
p6
aS'Matrix Service Co. subsidiary acquires Tulsa-based Houston Interests Tulsa World - Dec 14, 2016 Tulsa-based Matrix Service Co. announced this week that its subsidiary Matrix PDM Engineering Inc. has acquired privately held global solutions company Houston Interests LLC.'
p7
aS"Matrix Service Awarded EPFC of Two-Million Gallon LNG Tank for JAX LNG GlobeNewswire  - Nov 7, 2016 TULSA, Okla., Nov. 07, 2016  -- Matrix Service Company  announced today that its subsidiary, Matrix Service has been awarded the engineering, procurement, fabrication and construction of a 2 million gallon LNG tank&nbsp;...Matrix Service's  CEO John Hewitt on Q1 2017 Results - Earnings Call ... - Seeking Alpha"
p8
aS'Matrix Service Awarded EPFC of LNG Cryogenic Tank for Eagle LNG Partners GlobeNewswire  - Jan 27, 2016 TULSA, Okla., Jan. 27, 2016  -- Matrix Service Company  announced today that its subsidiary, Matrix Service Inc., has been awarded a contract for the engineering, procurement, fabrication and construction of a 1,000,000&nbsp;...'
p9
aS"Matrix Service Co. awarded $70 million contract Tulsa World - Sep 7, 2016 &quot;We are very proud to have been selected by KBR and look forward to supporting their work on this significant project for Monroe Energy,&quot; said John Hewitt, CEO of Matrix Service Company. &quot;We are confident in the ability of our team to meet KBR's and&nbsp;...Matrix to Move KBR Refinery Unit - www.breakbulk.com"
p10
a.