(lp0
S"2 Stocks Are Hot- Ford Motor Company , Nielsen NV Ordinary Shares ... Wall Street Times  - Mar 20, 2017 Ford Motor Company  traded at a yearly high level of $14.22 during the last trading session. The last session's volume of 54.93 million shares was higher than its average volume of 30.88 million shares. The stock, after opening at $12.74 ...Share Price Nielsen NV  Compared to Index - Energy Index"
p1
aS"Wall Street Movers News- The Coca-Cola Co , Nielsen NV Ordinary ... Wall Street Times  - 20 hours ago The Coca-Cola Co  traded at a yearly high level of $47.13 during the last trading session. The last session's volume of 17.19 million shares was lower than its average volume of 17.57 million shares. The stock, after opening at $42.31, closed ..."
p2
aS'Shares of Nielsen NV  Climbs 0.18% Energy Index - Feb 27, 2017 Nielsen N.V. Ordinary Shares was Downgraded by Barclays on Jan 10, 2017 to Equal Weight, Lowers Price Target to $ 45 from a previous price target of $50 .Pivotal Research Group Just Issued Hold Rating on Nielsen NV Ordinary Shares ... - Highland MirrorStocks in News- Reynolds American, Inc. , Nielsen NV Ordinary Shares ... - Wall Street Times '
p3
aS"Movers Stock Analysis- Nokia Corp  , Nielsen NV Ordinary Shares ... Wall Street Times  - Mar 17, 2017 Nokia Corp   traded at a yearly high level of $6.31 during the last trading session. The last session's volume of 1.05 million shares was lower than its average volume of 12.51 million shares. The stock, after opening at $5.41, closed at ..."
p4
aS'Stock under Review: Nielsen NV Ordinary Shares  Post Registrar - Jan 11, 2017 Nielsen N.V. Ordinary Shares  plunged -1.44% during previous trade, a total of 3.94M shares exchanged hands compared with its average trading volume of 2.58M shares whereas its relative volume is 1.28.'
p5
aS"Stocks To Look Out For Nielsen NV Ordinary Shares , Sanofi SA (ADR ... Wall Street Times  - Mar 21, 2017 Nielsen N.V. Ordinary Shares  traded at a yearly high level of $55.94 during the last trading session. The last session's volume of 3.10 million shares was higher than its average volume of 2.62 million shares."
p6
aS'Stree Opinion on Nielsen NV  Highland Mirror - Mar 8, 2017 Nielsen N.V.  has been in the radar of several wallstreet critics. Company shares were Reiterated by Pivotal Research Group on Feb 27, 2017 to Hold, Raises Price Target to $ 39 from a previous price target of $38 .Nielsen NV Ordinary Shares  has been upgraded to B- in a statement ... - Breaking Finance NewsCompany Performance of Nielsen NV  Decreases -0.86% - Times Money'
p7
aS"Stock Market Update- Oracle Corporation , Nielsen NV Ordinary ... Wall Street Times  - Feb 28, 2017 Oracle Corporation  traded at a yearly high level of $43.26 during the last trading session. The last session's volume of 13.87 million shares was higher than its average volume of 11.86 million shares. The stock, after opening at $43.26 ..."
p8
aS'Stock Price of Nielsen NV  Increases 1.74% Money Flow Index & Trends - Feb 21, 2017 Nielsen N.V. Ordinary Shares Last issued its quarterly earnings results on Feb 9, 2017. The company reported $0.44 EPS for the quarter, beating the analyst consensus estimate by $ 0.01.'
p9
aS'Corcept Therapeutics Incorporated  &amp; Nielsen NV Ordinary Shares ... Daily News Journal - Mar 14, 2017 On Monday, Shares of Corcept Therapeutics Incorporated  lost -0.92% to $10.77. The share price is trading in a range of $10.60 - 11.40.'
p10
a.