(lp0
S'Why NeoPhotonics Corp Stock Jumped Today Motley Fool - Mar 15, 2017 Shares of NeoPhotonics Corp  finished up 18.1% today, overcoming an initially poor reaction to its earnings report, as it seemed to rally on general excitement in the fiber-optics industry and a potential short squeeze.Analyst Activity  Cowen and Company Lowers Its Price Target On NeoPhotonics ... - Market ExclusiveNeoPhotonics Corp.  Is Losing Ground On Weak Q1 Outlook - RTT News'
p1
aS"What Makes NeoPhotonics Corporation  A Financially Strong Company, Is It ... Simply Wall St - 8 hours ago NeoPhotonics Corporation , with a market capitalization of USD $367 Million, is considered a small-cap company. Although such businesses are the ones which could grow the most, they are also highly prone to a downturn in the country's&nbsp;...Today Analysts Focus on Owens-Illinois, Inc. , NeoPhotonics Corp.  - StockNewsJournalHot Stocks Among Investors: NeoPhotonics Corporation , West Corporation ... - Post Analyst"
p2
aS'Earnings Reaction History: NeoPhotonics Corp., 40.0% Follow-Through Indicator ... Nasdaq - Mar 14, 2017 NeoPhotonics Corp.  is due to issue its quarterly earnings report in the upcoming extended-hours session. Given its history, traders can expect light trading in the issue immediately following its quarterly earnings announcement.'
p3
aS'Eye on Technicals for NeoPhotonics Corp  Baxter Review - 11 hours ago When applying indicators for technical analysis, traders and investors might want to examine the ATR or Average True Range. The current 14-day ATR for NeoPhotonics Corp  is currently sitting at 0.63. The ATR basically measures the volatility of a&nbsp;...'
p4
aS'NeoPhotonics Corp  Climbs Higher Over the Past 5 Days Business Review - 10 hours ago Over the past five sessions, NeoPhotonics Corp  has pulled in nice gains, moving higher 6.68% over the past five sessions.'
p5
aS'NeoPhotonics offers CFP2-ACO coherent transceiver for 200/400/600 Gbps LightWave Online - Mar 21, 2017 NeoPhotonics Corp.  will demonstrate its ClearLight pluggable coherent CFP2-ACO module at OFC 2017 in Los Angeles this week.NeoPhotonics to Showcase 400G Coherent Product Suite at OFC 2017 - Yahoo FinanceNeoPhotonics demos pluggable coherent CFP2-ACO transceiver for 400/600Gbps - Semiconductor Today'
p6
aS'NeoPhotonics Corporation: NeoPhotonics to Host Conference Call to Discuss 2016 ... The Wall Street Transcript - Mar 7, 2017 SAN JOSE, Calif.----Mar. 7, 2017-- NeoPhotonics Corporation , a leading designer and manufacturer of advanced hybrid photonic integrated optoelectronic modules and subsystems for bandwidth-intensive, high-speed&nbsp;...Allianz Asset Management AG Boosts Stake in NeoPhotonics Corporation  - The Cerbat GemFeatured Stock Update: NeoPhotonics Corporation  - HugoPress'
p7
aS"The Research Analysts' Weekly Ratings Updates for NeoPhotonics Corp  Petro Global News 24 - Mar 21, 2017 Shares of NeoPhotonics Corp  opened at 8.96 on Tuesday. The stock has a 50 day moving average price of $10.57 and a 200 day moving average price of $12.89.Needham &amp; Company LLC Cuts NeoPhotonics Corp  Price Target to $13.00 - The Cerbat GemRevenue Update on NeoPhotonics Corp - Money Flow Index & Trends"
p8
aS'Option Market Alert: NeoPhotonics Corporation Implied Price Swing Hits An ... CML News - 16 hours ago No Risk Alert Here: Before we dive into any analysis we simply note that NeoPhotonics Corporation  risk is neither elevated nor depressed.'
p9
aS'Stock Returns: NeoPhotonics Corporation  versus Synaptics ... CML News - Mar 20, 2017 This is a snapshot to compare the stock returns for NeoPhotonics Corporation  versus Synaptics Incorporated  .'
p10
a.