(lp0
S'Nortel Networks Corporation : Nortel Announces Closure of Share Transfer Registers 4-traders  - Jun 21, 2013 TORONTO - Nortel* Networks Corporation  [OTC: NRTLQ] and Nortel Networks Limited  announced today that, effective as of 5:00 p.m.'
p1
aS'Nortel creditors agree to split $7.3B bankruptcy proceeds CBC.ca - Oct 13, 2016 A nearly eight-year legal battle over how to divide what remains of Nortel Networks Corp. has ended in a deal that will put a stop to legal fees eating away at the remaining $7.3 billion US pot and bring former employees and pensioners one step closer ...'
p2
aS"Nortel bankruptcy: $7.3B in remaining assets to be split among subsidiaries CBC.ca - May 13, 2015 The scraps of bankrupt Nortel Networks, once considered the powerhouse of Canada's tech sector, will be split between the various subsidiaries it once operated around the world, according to decisions released Tuesday."
p3
aS'Lessons from Nortel: what do the recent allocation decisions mean? Lexology  - May 29, 2015 In January 2009 Nortel Networks Corporation and various subsidiaries across Canada, the US and a number of EMEA jurisdictions were placed into insolvency procedures in, respectively, Canada, the US and England.'
p4
aS'Canada: Top 5 Civil Appeals from the Court of Appeal  Mondaq News Alerts  - Jun 22, 2016 GM commenced bankruptcy proceedings in the United States, and its assets were transferred to a new company, General Motors Company, or its subsidiary, General Motors LLC .'
p5
aS'Canada: Nortel Allocation Trial A Cross-Border First, But Will It Be Worth It? Mondaq News Alerts  - Jul 30, 2014 On January 14, 2009, Nortel Networks Corporation, Nortel Networks Limited, Nortel Technology Corporation, Nortel Networks International Corporation, and Nortel Networks Global Corporation filed for and obtained protection under the CCAA.'
p6
aS"In Re Sanjel , Inc.: Bankruptcy Court Denies Comity to Canadian Court's ... Lexology  - Sep 21, 2016 Cf. In re Nortel Networks Corp., 2013 WL 6053845 . In In re Quimonda AG, after initially granting recognition to a German insolvency proceeding, the bankruptcy court refused to recognize that part of German insolvency law which ..."
p7
aS'United States: The Gateway To Chapter 15: An Evolving Issue Mondaq News Alerts  - Jun 25, 2014 As of this writing, in the Nortel Networks Corp. liquidation in the Delaware Bankruptcy Court in the United States and the Ontario Superior Court in Canada, the Bankruptcy Court and the Superior Court are presiding over a joint trial in the United ...'
p8
aS'Nortel - finally, the ground-breaking cross-border bankruptcy settlement Lexology  - Jan 10, 2017 Eight years ago, Nortel Networks Inc. and many affiliates filed multiple insolvency proceedings, across Europe, the US, and Canada.'
p9
aS"Ontario's top court denies bid by US bondholders in Nortel bankruptcy case Toronto Sun - May 3, 2016 TORONTO -- Ontario's top court has rejected an application by a group of U.S. bondholders to appeal a decision last year on how Nortel Networks Corp.'s remaining US$7.3 billion in assets should be divided. A panel of three judges from the Ontario Court ..."
p10
a.