(lp0
S"NuStar GP Holdings, LLC Earnings Edge Up on a Tax Benefit Motley Fool - Jan 31, 2017 Midstream general partner NuStar GP Holdings'  financial results have not moved all that much in quite a while, primarily because cash flow at its master limited partnership NuStar Energy  has plateaued due to the oil market downturn.Nustar GP Holdings, LLC  Issues Quarterly Earnings Results, Misses ... - Sports PerspectivesNuStar Energy's  CEO Brad Barron on Q4 2016 Results - Earnings Call Transcript - Seeking Alpha"
p1
aS'A New Kind of Stock Chart: NuStar GP Holdings, LLC  Critical Pivot ... CML News - Mar 21, 2017 This is a real time view of the critical technical pivot points for NuStar GP Holdings, LLC  . The technical pivot points we look at all surround the stock price movement from the last 10-trading days through the last year.'
p2
aS'What are Analysts Expecting for Nustar GP Holdings, LLC  Earnings? Aiken Advocate - 14 hours ago Analysts and investors are usually very focused on company earnings numbers when they are released. Company earnings are a good way to evaluate the profitability of the company.The NuStar GP Holdings, LLC  to Post Q1 2018 Earnings of $0.41 Per Share ... - Petro Global News 24Reviewing Individual Broker Targets Of Nustar GP Holdings, LLC  - NewsDen'
p3
aS'NuStar Energy LP and NuStar GP Holdings, LLC File 2016 Annual Reports Yahoo Finance - Feb 23, 2017 NuStar Energy L.P.  and NuStar GP Holdings, LLC  today announced that they filed their respective Annual Reports on Form 10-K for the year ended December 31, 2016 with the U.S.Insider Trading Activity Nustar GP Holdings, LLC   Director Bought ... - Market ExclusiveNuStar GP Holdings, LLC  Receives $26.20 Consensus Target Price from Analysts - The Cerbat Gem'
p4
aS'Risk Malaise Alert in Option Market: NuStar GP Holdings, LLC Implied Price ... CML News - Mar 17, 2017 Before we dive into any analysis we simply note that NuStar GP Holdings, LLC  risk is actually priced pretty low by the option market as of right now.'
p5
aS'NuStar GP Holdings, LLC  to Post Q1 2018 Earnings of $0.41 Per Share, US ... Sports Perspectives - Mar 21, 2017 NuStar GP Holdings logo NuStar GP Holdings, LLC  - Investment analysts at US Capital Advisors issued their Q1 2018 earnings estimates for shares of NuStar GP Holdings in a research report issued on Wednesday.'
p6
aS"Noticeable Price Move: Nustar GP Holdings, LLC  Is stories - Mar 9, 2017 NuStar GP Holdings, LLC's  witnessed a loss of -1.69% in recent trading period with closing price of $ 29.10.Nustar GP Holdings, LLC  Valuation According To Analysts - UK Market News"
p7
aS"2 MLP Turnaround Stories: Enbridge Energy Partners LP And NuStar GP Holdings LLC Seeking Alpha  - Sep 2, 2014 Bottom fishing in the MLP space can deliver differentiated returns. We prefer beaten-down names with a credible plan to restore the MLP's growth prospects."
p8
aS'Stock Returns: NuStar GP Holdings, LLC  is Beating Genesis Energy ... CML News - Mar 12, 2017 This is a snapshot to compare the stock returns for Genesis Energy, L.P.  versus NuStar GP Holdings, LLC  .The GSA Capital Partners LLP Has $1025000 Position in NuStar GP Holdings, LLC ... - DailyQuint'
p9
aS'Facebook  Reaches $139.89 52-Week High, Nustar GP Holdings  Sentiment ... MoneyMakingArticles - Mar 21, 2017 NuStar GP Holdings, LLC holds interests in NuStar Energy L.P. . The company has market cap of $1.21 billion. NuStar Energy is engaged in the transportation of petroleum products and anhydrous ammonia, the terminalling and storage of petroleum products,&nbsp;...'
p10
a.