(lp0
S'CenturyLink  and NetApp Team Up on Storage Program Yahoo Finance - 16 hours ago CenturyLink Inc. CTL, a leading regional wireline service provider in the U.S., has teamed up with a multinational storage and data management company NetApp, Inc. NTAP. Specifically, CenturyLink has joined NetApp Unified Partner Program to re-sell&nbsp;...CenturyLink Joins NetApp Unified Partner Program - Bobsguide '
p1
aS"NetApp, Inc. : From Top to Bottom StockNewsJournal - 14 hours ago NetApp, Inc.  is an interesting player in the Technology space, with a focus on Data Storage Devices. The stock has been active on the tape, currently trading at $40.91, down from yesterday's close by -2.48%.Why Is NetApp  Up 4% Since the Last Earnings Report? - Yahoo FinanceThe NetApp Inc.  Earns Market Perform Rating from Wells Fargo &amp; Co - Petro Global News 24"
p2
aS'Is the Time Ripe to Build Positions in NetApp ? Yahoo Finance - Mar 17, 2017 NetApp Inc. NTAP should then find a place in your portfolio. Shares of the company have been escalating since it reported impressive third-quarter fiscal 2017 results.NetApp Inc.  Receives Market Perform Rating from Wells Fargo &amp; Co - Chaffey BreezeZacks Rank on NetApp, Inc.  based on Estimated Earnings - Money Flow Index & Trends'
p3
aS"NetApp Inc.  Names Anthony Lye To Lead Cloud Business Unit Traders350 - Mar 13, 2017 NetApp Inc. , a NASDAQ Stock listed company has appointed Anthony Lye to be the company's vice president in of Cloud Business Unit.Netapp, Inc.  Files Form 4 Insider Selling : Alan L Earhart Sells 27422 ... - Energy IndexNorinchukin Bank The reaches $2643000 position of NetApp Inc.  - Petro Global News 24"
p4
aS"NetApp, Inc.  : Checking the Chart The USA Commerce - 14 hours ago We have gathered the technical data on NetApp, Inc. , and see some interesting trends in the stock's behavior of late."
p5
aS"What Does The Chart For NetApp, Inc.  Tell Us Presently? NY Stock News - 18 hours ago NetApp, Inc.  has presented a rich pool of technical data in recent sessions. These are the trends we've been tracking and how we feel they should be played in the current environment."
p6
aS'Trading Monitor: Watching Shares of NetApp Inc  The Standard - 12 hours ago NetApp Inc  has a current 14 day Williams %R reading of -93.47. Levels can range from 0 to -100. A Williams %R that falls between -80 to -100 is typically viewed as being in strong oversold territory.'
p7
aS"CenturyLink joins NetApp partner program, to re-sell managed storage Seeking Alpha - Mar 22, 2017 CenturyLink  has joined the Unified Partner Program at NetApp , extending an existing relationship by arranging to re-sell the latter's managed storage solutions."
p8
aS'Why NetApp  Could Be Positioned for a Surge Yahoo Finance - Mar 2, 2017 NetApp, Inc. NTAP is a leading provider of innovative data management solutions that could be an interesting play for investors.Today Analysts Focus on NetApp, Inc. , The Home Depot, Inc.  - StockNewsJournal236 hedge funds sold their entire positions in NetApp, Inc.  - Post Analyst'
p9
aS"Analyst's Predictions on NetApp, Inc. , Intercontinental Exchange, Inc ... StockNewsJournal - Mar 21, 2017 Investors who are keeping close eye on the stock of NetApp, Inc.  established that the company was able to keep return on investment at 5.40 in the trailing twelve month while Reuters data showed that industry's average stands at 9.88 and&nbsp;..."
p10
a.