(lp0
S'NVE Corporation: Bursting Through Industry Doors Seeking Alpha - Jan 25, 2017 In its fiscal 2017 third quarter earnings call, NVE Corporation shared it had won another R&amp;D opportunity, this one from the United States Army to develop spintronic radar detectors.NVE Corporation  Ex-Dividend Date Scheduled for January 26, 2017 - Nasdaq'
p1
aS'NVE Corporation: Mingling With Giants Seeking Alpha - Jun 26, 2016 NVE Corporation reported full-year results for fiscal 2016 on May 4th. Revenue declined year-over-year due to a decrease in product sales.'
p2
aS'Zacks Investment Research Downgrades NVE Corp  to Hold Chaffey Breeze - 19 hours ago NVE Corp logo NVE Corp  was downgraded by Zacks Investment Research from a strong-buy rating to a hold rating in a note issued to investors on Wednesday.NVE Corp  has been downgraded to Hold in a statement by Zacks ... - Breaking Finance News'
p3
aS'NVE Corp  Shows Strength: Stock Adds 5.6% in Session March 07, 2017 Zacks.com - Mar 7, 2017 NVE Corporation  was a big mover last session, as its shares rose almost 6% on the day. The move came on solid volume too with far more shares changing hands than in a normal session.'
p4
aS'The Birth Of A Dividend Dynamo: NVE Corporation Seeking Alpha - Jun 23, 2015 The Birth Of A Dividend Dynamo: NVE Corporation. Direction: Long. Timeframe: N/A. Expected Gain: 00%. The vast number of technology companies make it difficult to distinguish a competitive moat or advantage.'
p5
aS'NVE Corporation  Moves Higher on Volume Spike for March 20 Equities.com - Mar 20, 2017 NVE Corporation  traded on unusually high volume on Mar. 20, as the stock gained 2.02% to close at $82.25. On the day, NVE Corporation saw 62,427 shares trade hands on 539 trades. Considering that the stock averages only a daily volume of&nbsp;...NVE Corporation  Analyst Recommendation - NewsDen'
p6
aS'NVE Corporation  Moves Higher on Volume Spike for March 07 Equities.com - Mar 7, 2017 NVE Corporation  traded on unusually high volume on Mar. 07, as the stock gained 2.06% to close at $84.83. On the day, NVE Corporation saw 60,308 shares trade hands on 819 trades. Considering that the stock averages only a daily volume of&nbsp;...Stock Returns: NVE Corporation  is Beating MagnaChip ... - CML News'
p7
aS'NVE Corporation  Moves Lower on Volume Spike for March 17 Equities.com - Mar 17, 2017 NVE Corporation  traded on unusually high volume on Mar. 17, as the stock lost 0.17% to close at $80.62. On the day, NVE Corporation saw 32,312 shares trade hands on 461 trades. Considering that the stock averages only a daily volume of 20,140&nbsp;...Stock Returns: Alpha and Omega Semiconductor Limited  versus NVE ... - CML NewsNVE Corporation  Receives An Update From Brokers - The De Soto Edge'
p8
aS"NVE Corporation's  CEO Daniel Baker on Q3 2017 Results - Earnings Call ... Seeking Alpha - Jan 19, 2017 Good day, ladies and gentlemen, and welcome to the NVE Conference Call and Third Quarter Results. At this time, all participants are in a listen-only mode."
p9
aS'The Zacks: NVE Corp  Receives Consensus Recommendation of Strong Buy ... Petro Global News 24 - Mar 10, 2017 Shares of NVE Corp  have earned an average broker rating score of 1.00  from the one analysts that cover the stock, Zacks Investment Research reports.'
p10
a.