(lp0
S'315.55 MarketWatch - Dec 22, 2009 National Western Life Group Inc. Cl A. Watchlist CreateNWLIAlert. After Hours. Last Updated: Mar 20, 2017 5:38 p.m.. $ 315.55. 0.00 0.00%. After Hours Volume: 485. Close, Chg, Chg %. $315.55, -1.06, -0.33%. Created with Highstock 2.1.8 After-Hours 10am&nbsp;...'
p1
aS'National Western Life Group, Inc. Announces Appointment of President of ... PR Newswire  - Nov 9, 2016 AUSTIN, Texas, Nov. 9, 2016 /PRNewswire/ -- National Western Life Group, Inc. , announced the appointment of K. Kennedy Nelson to the position of President &amp; Chief Operating Officer of its wholly owned subsidiary, National Western Life&nbsp;...'
p2
aS'National Western Life Group, Inc. Announces 2016 Third Quarter Earnings PR Newswire  - Nov 4, 2016 4, 2016 /PRNewswire/ -- Ross R. Moody, Chairman of the Board, President, and Chief Executive Officer of National Western Life Group, Inc. , announced today third quarter 2016 consolidated net earnings of $33.7 million, or $9.54 per ...'
p3
aS"Is National Western Life Group Inc  Really As Financially Strong As Its ... Simply Wall St - Mar 12, 2017 In any company, including National Western Life Group Inc  which has zero-debt on its balance sheet, there are well known benefits of including debt in the capital structure, primarily a lower cost of capital - due to debtholders' higher ..."
p4
aS'National Western Life Group Inc.  Breaks into New 52-Week High on March ... Equities.com - Mar 6, 2017 Shares of National Western Life Group Inc.  broke into a new 52-week high yesterday, hitting a peak of $331.70. Shares closed at $326.71 after opening at $327.00 for a move of -0.09%.'
p5
aS'NATIONAL WESTERN LIFE GROUP, INC.  Files An 8-K Departure of ... Market Exclusive - Dec 21, 2016 ... General Re Corporation , Berkshire Hathaway Reinsurance Group , Berkshire Hathaway Primary Group, Burlington Northern Santa Fe, LLC , Berkshire Hathaway Energy, Manufacturing, McLane Company, Service and retailing,&nbsp;...'
p6
aS'National Western Life Group Inc.  Moves Higher on Volume Spike for March 17 Equities.com - Mar 17, 2017 National Western Life Group Inc.  traded on unusually high volume on Mar. 17, as the stock gained 0.64% to close at $316.61.'
p7
aS'National Western Life Group Inc.  Breaks into New 52-Week High on ... Equities.com - Feb 27, 2017 Shares of National Western Life Group Inc.  broke into a new 52-week high yesterday, hitting a peak of $328.00. Shares closed at $326.00 after opening at $323.00 for a move of 0.89%.'
p8
aS"What You Must Know About National Western Life Group Inc's  ROE? Simply Wall St - Mar 9, 2017 National Western Life Group Inc's  6.6% ROE over the past year fell short of the performance averaged by the industry, which delivered 10.13% ROE in the same period."
p9
aS"National Western Life Insurance Company Announces Annual Shareholders Meeting ... PR Newswire  - Apr 6, 2015 &quot;We expect the shares of National Western Life Group, Inc. common stock to trade under the Company's current ticker symbol, 'NWLI', on the NASDAQ Global Select Market,&quot; commented Ross R. Moody, the Company's President and Chief Operating Officer."
p10
a.