(lp0
S"Oaktree Capital Group LLC  Q4 2016 Results - Earnings Call Transcript Seeking Alpha - Feb 7, 2017 Welcome and thank you for joining the Oaktree Capital Group's fourth quarter 2016 conference call. Today's conference call is being recorded.Oaktree Capital Group, LLC  to Release Earnings on Tuesday - Sports Perspectives"
p1
aS"Oaktree Capital Group LLC  Q3 2016 Results - Earnings Call Transcript Seeking Alpha - Oct 28, 2016 Welcome, and thank you for joining the Oaktree Capital Group Third Quarter 2016 Conference Call. Today's conference call is being recorded.Oaktree Announces Third Quarter 2016 Financial Results - Business Wire "
p2
aS'Stock Returns: Associated Capital Group Inc  versus Oaktree Capital ... CML News - 17 hours ago This is a snapshot to compare the stock returns for Associated Capital Group Inc  versus Oaktree Capital Group, LLC  . The stock return points we compare look at the last three-months, six-months and twelve-months. At the end of this&nbsp;...Sell-Side Sees Upside &amp; Positive Growth in Oaktree Capital Group, LLC  - Aiken AdvocateA Look Ahead For 2 Stocks: The Buckle, Inc. , Oaktree Capital Group, LLC ... - Post Analyst'
p3
aS'Oaktree Capital Group, LLC  Ex-Dividend Date Scheduled for February 15, 2017 Nasdaq - Feb 14, 2017 Oaktree Capital Group, LLC  will begin trading ex-dividend on February 15, 2017. A cash dividend payment of $0.63 per share is scheduled to be paid on February 24, 2017.'
p4
aS'Stock Returns: Legg Mason Inc  versus Oaktree Capital Group, LLC ... CML News - Mar 21, 2017 This is a snapshot to compare the stock returns for Legg Mason Inc  versus Oaktree Capital Group, LLC  .Price Target Watch on Oaktree Capital Group, LLC  - Rockville RegisterBroker Outlook For The Week Ahead Oaktree Capital Group, LLC  - Fiscal Standard'
p5
aS'Oaktree Capital Group, LLC  Ex-Dividend Date Scheduled for November 03, 2016 Nasdaq - Nov 2, 2016 Oaktree Capital Group, LLC  will begin trading ex-dividend on November 03, 2016. A cash dividend payment of $0.65 per share is scheduled to be paid on November 14, 2016.'
p6
aS"BRIEF-Oaktree Capital Group Q4 adjusted earnings 91 cents/shr Reuters - Feb 7, 2017 LOS ANGELES, Feb 7 Yum China Holdings Inc , reporting for the first time as a standalone company, on Tuesday said its profit beat expectations for the fourth quarter despite just missing Wall Street's target for sales at established restaurants."
p7
aS'Price Alert: Oaktree Capital Group, LLC  Stock Nears Resistance ... CML News - Mar 20, 2017 Price Alert: Oaktree Capital Group, LLC  has now crossed into technical strength -- watch the technical oscillators for momentum gaps.'
p8
aS"Barclays Slaps An Underweight Rating On Oaktree Capital Benzinga - Oct 13, 2016 Barclays' Kenneth Hill believes Oaktree Capital Group LLC  has less upside in the near term, as compared to its alternative asset manager peers."
p9
aS'Oaktree Capital Group, LLC  Ex-Dividend Date Scheduled for May 05, 2016 Nasdaq - May 4, 2016 Oaktree Capital Group, LLC  will begin trading ex-dividend on May 05, 2016. A cash dividend payment of $0.55 per share is scheduled to be paid on May 13, 2016.'
p10
a.