(lp0
S"Bermuda's OneBeacon Insurance Group to Explore Sale Bloomberg - Jan 18, 2017 The Bermuda-based company recently began working with Credit Suisse Group AG to solicit offers from rival insurers, said the people, who asked not to be identified because the process is private.OneBeacon Insurance Group  to Explore a Sale - Bloomberg - StreetInsider.comOneBeacon Insurance  in Focus: Stock Jumps 9.1% - Yahoo Finance"
p1
aS'ONEBEACON INSURANCE GROUP, LTD.  Files An 8-K Departure of Directors ... Market Exclusive - Mar 6, 2017 OneBeacon Insurance Group, Ltd., through its subsidiaries, is a property and casualty insurance writer that offers a range of insurance products in the United States primarily through independent agencies, regional and national brokers, wholesalers and&nbsp;...OneBeacon Insurance Group, Ltd.  to Issue Quarterly Dividend of $0.21 on ... - The Cerbat GemThe OneBeacon Insurance Group, Ltd. Declares Quarterly Dividend of $0.21  - DailyQuint'
p2
aS'News OneBeacon Insurance Group Ltd. Cl AOB Wall Street Journal - Feb 8, 2011 News OneBeacon Insurance Group Ltd. Cl AOB. Significant News Only. 03/01/17; Press Release. A.M. Best Assigns Credit Ratings to Split Rock Insurance, Ltd.'
p3
aS'OneBeacon Insurance Group Ltd. Class A  Moves Higher on Volume Spike for ... Equities.com - Mar 17, 2017 OneBeacon Insurance Group Ltd. Class A  traded on unusually high volume on Mar. 17, as the stock gained 0.59% to close at $15.43.Analysts Set $14.00 Price Target for OneBeacon Insurance Group, Ltd.  - Sports PerspectivesStock Returns: MBIA Inc  versus OneBeacon Insurance Group, Ltd ... - CML News'
p4
aS"OneBeacon Insurance Group, Ltd. Reportedly Exploring A Sale; Stock Rises ValueWalk - Apr 8, 2015 They said White Mountains is assessing the market's interest for OneBeacon. Insurance companies are facing new competition from hedge funds.OneBeacon Said to Weigh Sale Drawing Interest From Fosun - Bloomberg"
p5
aS'OneBeacon Insurance Group Ltd. Class A  Moves Higher on Volume Spike for ... Equities.com - Feb 17, 2017 OneBeacon Insurance Group Ltd. Class A  traded on unusually high volume on Feb. 17, as the stock gained 0.06% to close at $16.17.Stock Returns: OneBeacon Insurance Group, Ltd.  versus Selective ... - CML News'
p6
aS"OneBeacon Reports $10.82 Book Value Per Share PR Newswire  - Feb 7, 2017 HAMILTON, Bermuda, Feb. 7, 2017 /PRNewswire/ -- OneBeacon Insurance Group, Ltd.  today reported book value per share of $10.82, reflecting an increase of 0.9% for the fourth quarter and 11.1% for the year ended December 31, 2016,&nbsp;...Zacks: OneBeacon Insurance Group, Ltd.  Given $13.00 Average Target Price ... - BNB Daily Stock within Traders Spotlight: White Mountains Insurance Group, Ltd.'s (WTM ... - WsNews 4investors"
p7
aS'Watching the Charts on Shares of OneBeacon Insurance Group Ltd  Davidson Register - 9 hours ago Taking a glance from a technical standpoint, OneBeacon Insurance Group Ltd  presently has a 14-day Commodity Channel Index  of -128.81.The Zacks: OneBeacon Insurance Group, Ltd.  Given Consensus Recommendation ... - Petro Global News 24Zacks: OneBeacon Insurance Group, Ltd.  Given Consensus Recommendation of ... - The Cerbat Gem'
p8
aS'John Iannotti Joins OneBeacon as President of Professional Liability PR Newswire  - Sep 23, 2015 About OneBeacon: OneBeacon Insurance Group, Ltd. is a Bermuda-domiciled holding company that is publicly traded on the New York Stock Exchange under the symbol &quot;OB.'
p9
aS"AM Best Affirms Ratings of White Mountains Insurance Group, Ltd., OneBeacon ... Business Wire  - Oct 30, 2015 At the same time, A.M. Best has affirmed the ICRs of bbb, the issue rating on currently issued securities and indicative issue ratings on shelf registrations of OneBeacon's publicly traded parent, OneBeacon Insurance Group, Ltd. (OneBeacon Ltd ..."
p10
a.