(lp0
S'Buffett Followers: Open Text Corp. Is a Dividend-Growth King in the Making The Motley Fool Canada - Jan 24, 2017 Open Text Corp.  is a rare technology gem with explosive earnings growth that many investors overlook.Open Text Corp   Stock Strong Buy Reiterated After Split - BNL Finance   '
p1
aS"Why Open Text Corporation Plunged 10% The Motley Fool Canada - Jan 28, 2015 What: Shares of Open Text Corporation  plunged more than 10% after the company's recent quarterly revenues fell short of analysts' expectations."
p2
aS"OpenText Corp's share price plunge, layoffs highlight challenges of cloud ... Financial Post - May 21, 2015 Business software company OpenText Corp. said on Tuesday it agreed to acquire EasyLink Services, a provider of cloud-based messaging services, for US$232-million, in a move aimed at tapping business within the growing Cloud and mobile environments.OpenText CEO Resumes Full Involvement in Day-to-Day Operations - PR Newswire "
p3
aS"M&amp;A News: Open Text Corp  to Buy Dell Unit for $1.62B Investorplace.com - Sep 12, 2016 Open Text Corp   has announced plans to purchase a unit from Dell for $1.62 billion. OpenText, Dell, OTEX The deal will have OpenText acquiring Dell EMC's Enterprise Content Division.OpenText to buy Dell EMC's enterprise content division - PCWorldOpen Text to buy Dell EMC's ECD business for $1.6 billion - MarketWatch"
p4
aS'Open Text Corp   Stock Outlook For 2017 BNL Finance    - Dec 5, 2016 Open Text Corp   has very quietly become one of the best opportunities in technology with gains of 30% in 2016.'
p5
aS'Open Text Corporation   is Initiated by Citigroup to Neutral Highland Mirror - Feb 16, 2017 Open Text Corporation   was Initiated by Citigroup to Neutral and the brokerage firm has set the Price Target at $36.Citigroup Inc. disclosed Open Text Corp  , hiking its price ... - Breaking Finance News'
p6
aS"NCI Building Systems  Touches $16.30 Formed H&amp;S, Open Text  (OTEX ... Wolcott Daily - Mar 17, 2017 $56.29's average target is 62.88% above currents $34.56 stock price. OpenText Corporation had 12 analyst reports since July 30, 2015 according to SRatingsIntel."
p7
aS'Citigroup Initiates Coverage On Open Text Corporation  to Neutral with ... Money Flow Index & Trends - Feb 28, 2017 Citigroup Initiates Coverage On Open Text Corporation . In a research note issued to the investors, the brokerage major Announces the price-target to $36 per share.Forward Dividend Yield of Open Text Corporation  - Highland Mirror'
p8
aS"Moody's rates Open Text's proposed notes Ba2; affirms Ba1 CFR Moodys.com   - May 25, 2016 New York, May 25, 2016 -- Moody's Investors Service,  affirmed Open Text Corp.'s Ba1 corporate family rating  and assigned a Ba2 rating to the company's proposed senior unsecured notes."
p9
aS"Waterloo's OpenText tracking trends during US presidential race CBC.ca - Mar 1, 2016 OpenText is a Waterloo-based company that takes media content from across the internet and crunches it into easy-to-understand displays."
p10
a.