(lp0
S'PICO Holdings, Inc. Announces Fourth Quarter and Full Year 2016 Results GlobeNewswire  - Mar 2, 2017 LA JOLLA, Calif., March 02, 2017  -- PICO Holdings, Inc.  reported results for the fourth quarter and full year ended December 31, 2016.'
p1
aS'PICO Holdings, Inc. Announces Closing of the Sale of 100000 Long Term Storage ... GlobeNewswire  - Feb 7, 2017 LA JOLLA, Calif., Feb. 07, 2017  -- PICO Holdings, Inc.  announced today that its wholly-owned subsidiary, Vidler Water Company, Inc. has closed on two sales totaling 100,000 Long Term Storage Credits stored in the&nbsp;...'
p2
aS'14.55 MarketWatch - Apr 18, 2011 PICO Holdings Inc. Watchlist CreatePICOAlert. After Hours. Last Updated: Mar 20, 2017 5:38 p.m.. $ 14.55. 0.00 0.00%.'
p3
aS"PICO Holdings, Inc. Announces Revised Compensation Arrangements GlobeNewswire  - Dec 15, 2016 Webb and Perri; and; PICO's ownership interest in UCP, Inc. has been carved-out of the Executive Bonus Plan to allow the Board of Directors of PICO to separately incentivize management to pursue PICO's objectives with respect to its stake in UCP."
p4
aS'PICO Holdings Announces Director Resignation GlobeNewswire  - Aug 1, 2016 LA JOLLA, Calif., Aug. 01, 2016  -- PICO Holdings, Inc.  today announced that on July 27, 2016 Mr. Kenneth J. Slepicka resigned as a member of the Board of Directors, effective immediately.'
p5
aS"PICO Holdings: Activist Embattled Conglomerate With Catalysts Seeking Alpha - Nov 8, 2015 PICO Holdings  has two activist investors - two underrated activists that you've likely never heard of - owning nearly 15% of the company."
p6
aS'PICO Holdings: Activists Have Taken Control With Monetization On The Horizon Seeking Alpha - Jun 28, 2016 PICO Holdings has been a highly controversial company with shady corporate governance concerns and plenty of activism shareholder involvement in the past few years.'
p7
aS'Price Alert: PICO Holdings Inc  Stock Nears Resistance ... CML News - Mar 20, 2017 Price Alert: PICO Holdings Inc  has now crossed into technical strength -- watch the technical oscillators for momentum gaps.'
p8
aS"A Turnaround Is in the Works at PICO Holdings Barron's - Sep 17, 2016 PICO's stock has been a serial disappointer for years, and is down more than 50% from its 2014 high. One problem has been the uncertain timing around monetizing the company's water rights."
p9
aS'Central Square: New Role At PICO Holdings Seeking Alpha - Dec 3, 2015 Per a recent filing with the SEC, Central Square Management has disclosed an increased stake in PICO Holdings . It has upped its shares by a couple percentage points and now owns 1.35 million shares - currently owning 5.9% of the stock.'
p10
a.