(lp0
S'Polaris Industries to recall about 19200 ATVs STLtoday.com - Mar 21, 2017 Polaris Industries Inc. is recalling about 19,200 all-terrain vehicles due to fire hazard and risk of injury, the Consumer Product Safety Commission said on Tuesday.Polaris recalls Sportsman 850 and 1000 ATVs - The Columbus Dispatch '
p1
aS"Here's Why the Best Is Yet to Come for Polaris Industries Inc. Motley Fool - Mar 9, 2017 2016 was a rough year for Polaris Industries Inc.  as a slowdown in the market combined with design problems with its own products to hit both revenue and earnings for the year."
p2
aS"Will 2017 Be Polaris Industries Inc.'s Best Year Yet? Motley Fool - Feb 3, 2017 Considering all that went wrong for Polaris Industries  last year, 2017 can't help but be better, right? From an industry slowdown in its primary powersports vehicle market to product recalls across almost all of its product lines, Polaris ..."
p3
aS"Will 2017 Be Polaris Industries Inc.'s Worst Year Yet? Motley Fool - Jan 14, 2017 As bad as last year was for Polaris Industries , it looks like 2017 is shaping up to be even worse. From a stock performance perspective, 2016 could've been worse.This Is Your Last Chance To Grab A Sweet Victory Bike - MaximVictory Motorcycles to end production - Manila Bulletin"
p4
aS'4 Reasons Polaris Industries Inc. Stock Could Fall Motley Fool - Dec 28, 2016 Shares of Polaris Industries Inc.  have had a rough go of it over the last few years as operational missteps have led to recalls and a sharp decline in earnings.Headwinds For Polaris Should Gradually Subside - Seeking Alpha'
p5
aS"Polaris Industries Inc.'s Biggest Failure in 2016 Motley Fool - Jan 6, 2017 The same thing that made 2015 such a bad year for Polaris Industries  is what made 2016 a year the powersports vehicle maker would like to forget."
p6
aS'Polaris Industries Inc.  Moves Lower on Volume Spike for March 21 Equities.com - Mar 21, 2017 Polaris Industries Inc.  traded on unusually high volume on Mar. 21, as the stock lost 4.88% to close at $84.28. On the day, Polaris Industries Inc. saw 1.08 million shares trade hands on 11,047 trades. Considering that the stock averages only a ...Wunderlich Downgrades the shares of Polaris Industries Inc.  to Hold - HugoPress558596 Shares in Polaris Industries Inc.  Acquired by Norges Bank - Chaffey Breeze'
p7
aS"40 Under 40: Amanda Rusin Minneapolis / St. Paul Business Journal - Mar 16, 2017 As assistant general counsel at Polaris Industries Inc., 35-year-old Amanda Rusin's area of practice is broad - mergers and acquisitions, distribution and dealer development, and lead counsel to the manufacturer."
p8
aS'Stock Watch: Examining the Levels on Shares of Polaris Industries Inc.  Rives Journal - 14 hours ago Looking at shares of Polaris Industries Inc. , the company has an EV  of 6445722. Enterprise Value is a measure of the total value of a specific company.'
p9
aS'Polaris Industries Inc.  Ex-Dividend Date Scheduled for February 27, 2017 Nasdaq - Feb 24, 2017 Polaris Industries Inc.  will begin trading ex-dividend on February 27, 2017. A cash dividend payment of $0.58 per share is scheduled to be paid on March 15, 2017.'
p10
a.