(lp0
S'Plantronics, Inc.  Ex-Dividend Date Scheduled for February 16, 2017 Nasdaq - Feb 15, 2017 Plantronics, Inc.  will begin trading ex-dividend on February 16, 2017. A cash dividend payment of $0.15 per share is scheduled to be paid on March 10, 2017.'
p1
aS'Levels in Review for Plantronics, Inc.  Baldwin Journal - 14 hours ago Plantronics, Inc.  currently has a 6 month price index of 1.02104. The six month price index is easily measured by dividing the current share price by the share price six months ago.'
p2
aS'Plantronics Inc  Shares Sold by Dimensional Fund Advisors LP The Cerbat Gem - 17 hours ago Plantronics logo Dimensional Fund Advisors LP lowered its position in Plantronics Inc  by 1.4% during the fourth quarter, according to its most recent Form 13F filing with the Securities and Exchange Commission .EPS Target Of Plantronics, Inc.  Set At $0.55 - Markets Daily'
p3
aS'Plantronics Inc.  Moves Lower on Volume Spike for March 17 Equities.com - Mar 17, 2017 Plantronics Inc.  traded on unusually high volume on Mar. 17, as the stock lost 0.48% to close at $54.46. On the day, Plantronics Inc. saw 320,452 shares trade hands on 1,862 trades. Considering that the stock averages only a daily volume of 146 ...The Plantronics Inc  Lifted to Hold at Zacks Investment Research - Petro Global News 24Broker Outlook For The Week Ahead Plantronics, Inc.  - Fiscal Standard'
p4
aS'Plantronics Backbeat 500 Series Headphones Make Wireless Your New Standard ... GlobeNewswire  - Mar 21, 2017 Plantronics, BackBeat and DeepSleep are trademarks of Plantronics, Inc. registered in the US and other countries. The Bluetooth trademark is owned by Bluetooth SIG, Inc. and any use of the mark by Plantronics, Inc. is under license. All other ...'
p5
aS'Form 3 PLANTRONICS INC /CA/ For: Mar 13 Filed by: SARKAR SHANTANU StreetInsider.com - Mar 21, 2017 Get instant alerts when news breaks on your stocks. Claim your 2-week free trial to StreetInsider Premium here. FORM 3, UNITED STATES SECURITIES AND EXCHANGE COMMISSION Washington, D.C.'
p6
aS'Stock Returns: Plantronics Inc  is Beating ShoreTel Inc  CML News - Mar 21, 2017 This is a snapshot to compare the stock returns for Plantronics Inc  versus ShoreTel Inc  . The stock return points we compare look at the last three-months, six-months and twelve-months.Plantronics Inc - Receive News &amp; Ratings Daily - BBNS'
p7
aS'A Sound Long Investment - Plantronics Seeking Alpha - Apr 1, 2016 Plantronics  designs, manufactures and markets lightweight telecommunication headsets for enterprises and consumers.'
p8
aS'PLANTRONICS, INC.  Files An 8-K Departure of Directors or Certain ... Market Exclusive - Mar 17, 2017 President, Sales of Plantronics, Inc. , would assume the role of Senior Vice President, New Business Sales effective April 1, 2017.'
p9
aS'Plantronics Inc.  Moves Higher on Volume Spike for March 01 Equities.com - Mar 1, 2017 Plantronics Inc.  traded on unusually high volume on Mar. 01, as the stock gained 1.57% to close at $54.40. On the day, Plantronics Inc. saw 256,818 shares trade hands on 2,026 trades. Considering that the stock averages only a daily volume of&nbsp;...'
p10
a.