(lp0
S"Plexus Corp  Appoints Paul Rooke to the Board of Directors StreetInsider.com - Mar 13, 2017 Dean Foate, Executive Chairman of the Board, commented, I am pleased to welcome Paul to Plexus' Board of Directors. He is an accomplished executive with a diverse background and global expertise."
p1
aS'Zacks Investment Research Downgrades Plexus Corp.  to Hold Chaffey Breeze - 11 hours ago Plexus Corp. logo Plexus Corp.  was downgraded by Zacks Investment Research from a buy rating to a hold rating in a research note issued on Wednesday.Investor Watch on Shares of Plexus Corp.  - Baldwin JournalZacks Investment Research downgraded Plexus Corp.  to Hold in a ... - Breaking Finance News'
p2
aS'Is Plexus Corp  As Financially Strong As It Appears Due To Its Low Debt? Simply Wall St - Mar 3, 2017 Small-cap companies such as Plexus Corp  with its market cap of USD $1,916 Million, benefit the most from improving economic conditions due to the growth potential, but on the other hand they also are highly prone to a downturn, thus&nbsp;...Russell Investments Group Ltd. Acquires New Stake in Plexus Corp.  - BBNSNationwide Fund Advisors Has $3831000 Stake in Plexus Corp.  - Petro Global News 24'
p3
aS'Plexus to close plant in California Milwaukee Business Journal - Nov 5, 2015 Plexus Corp., a Neenah-based contract manufacturer, said Thursday that it will close a factory in Fremont, Calif., a move that will result in the loss of 200 jobs.Plexus Announces Closure of Fremont, California Facility - GlobeNewswire Plexus to close California facility - Idaho Press-Tribune'
p4
aS'The Plexus Corp.  Shares Bought by State Street Corp Petro Global News 24 - Mar 21, 2017 State Street Corp increased its position in shares of Plexus Corp.  by 9.1% during the fourth quarter, according to its most recent filing with the Securities and Exchange Commission.Plexus Corp.  Shares Bought by State Street Corp - Sports Perspectives'
p5
aS'Plexus Corp.  Moves Higher on Volume Spike for March 17 Equities.com - Mar 17, 2017 Plexus Corp.  traded on unusually high volume on Mar. 17, as the stock gained 1.69% to close at $57.92. On the day, Plexus Corp. saw 397,070 shares trade hands on 2,252 trades. Considering that the stock averages only a daily volume of 196,254&nbsp;...Plexus Corp.  Reviewed By Analysts - The De Soto Edge'
p6
aS"Trading Options During Earnings in Plexus Corp.  CML News - Feb 15, 2017 We're going to examine buying and selling out of the money strangles in Plexus Corp. and find out once and for all what the winning trades have been during earnings releases."
p7
aS'Plexus Corp.  Breaks into New 52-Week High on February 23 Session Equities.com - Feb 23, 2017 Shares of Plexus Corp.  broke into a new 52-week high yesterday, hitting a peak of $58.74. Shares closed at $57.98 after opening at $58.04 for a move of 0.29%.Systematic Financial Management LP Has $1881000 Position in Plexus Corp.  - The Cerbat GemPlexus Corp.  Deferred Tax Assets At $9.916 Millions - RealistInvestor.com'
p8
aS"Tudor Investment Corp Et Al Decreases Position in Plexus Corp.  BNB Daily  - Mar 12, 2017 Plexus Corp. logo Tudor Investment Corp Et Al reduced its stake in shares of Plexus Corp.  by 37.3% during the fourth quarter, according to its most recent disclosure with the SEC.Plexus Corp.'s  Buy Rating Reiterated at Needham &amp; Company LLC - The Cerbat GemPlexus Corp.  Rating Reiterated by Needham &amp; Company LLC - Sports Perspectives"
p9
aS'The Renaissance Technologies LLC Purchases 36600 Shares of Plexus Corp.  Petro Global News 24 - Mar 19, 2017 Renaissance Technologies LLC boosted its stake in shares of Plexus Corp.  by 19.4% during the fourth quarter, Holdings Channel reports.'
p10
a.