(lp0
S"Lookout for Price Target? Oceaneering International, Inc. , Pilgrim's ... StockNewsJournal - 17 hours ago Pilgrim's Pride Corporation , at its latest closing price of $21.70, it has a price-to-book ratio of 6.09, compared to an industry average at 3.60.Market View: Checking on the Technicals for Pilgrim's Pride Corporation ... - Rives JournalPilgrim's Pride  Slips to Hold on Lingering Macro Risks - Zacks.com"
p1
aS"Analyst Upside Underscores Impressive Growth for Pilgrim's Pride Corporation ... Aiken Advocate - 10 hours ago Pilgrim's Pride Corporation  has been recommended as a long term growth pick according to Beta Research. With their stock price currently trading around $21.95, the firm has proven a solid track record of growth over the past few years."
p2
aS"Pilgrim's Pride Facility Accused of Polluting Florida's Suwannee River Wall Street Journal  - Mar 10, 2017 JACKSONVILLE, Fla.Two environmental groups filed a federal lawsuit Thursday against a Pilgrim's Pride Corp. chicken-processing plant, alleging the facility is polluting the Suwannee River.Pilgrim's Pride sued over wastewater in river - Gainesville SunEnvironmentalists Sue Over Florida Chicken Plant's Pollution - U.S. News & World Report"
p3
aS"Buy, Sell or Hold? Analysts Approach: Pilgrim's Pride Corporation , Janus ... The USA Commerce - Mar 21, 2017 Pilgrim's Pride Corporation  share price decreased in the last trading session with a previous 52-week high of $26.50."
p4
aS"Technical Clues For Pilgrim's Pride Corporation  Investors USA Commerce Daily - Mar 21, 2017 With all other things going on, Pilgrim's Pride Corporation  has been on a run - rising 20.54 percent in just three months."
p5
aS"Pilgrim's Pride: Is it a Good Pick for Value Investors? Nasdaq - Mar 6, 2017 Value investing is easily one of the most popular ways to find great stocks in any market environment. After all, who wouldn't want to find stocks that are either flying under the radar and are compelling buys, or offer up tantalizing discounts when ..."
p6
aS"Pilgrim's Pride to Host Annual Meeting of Shareholders on April 28, 2017 Yahoo Finance - Feb 27, 2017 27, 2017  -- Pilgrim's Pride Corporation  will host its annual meeting of shareholders on Friday, April 28, 2017, at 8 a.m.Pilgrim\\'s Pride Corporation  Moves Higher on Volume Spike for February 27 - Equities.com"
p7
aS"Stock Price of Pilgrims Pride Corporation  Increases 2.72% Energy Index - Mar 13, 2017 Pilgrims Pride Corporation stock performance trend indicates that the stock price has rallied 17.53% in the past 12 Weeks , but analyzing the 6 month charts for the stock , the price continues to stay positive and keep the rally at 2.67% .Market Mover Alert: Pilgrim's Pride Corporation  - Is storiesStock Returns: Dean Foods Company  versus Pilgrim's Pride Corporation ... - CML News"
p8
aS"Today's Brokerage Rating: TransUnion , Pilgrim's Pride Corporation  StockNewsJournal - Feb 24, 2017 Pilgrim's Pride Corporation , at its latest closing price of $20.65, it has a price-to-book ratio of 5.75, compared to an industry average at 3.49.Trading Options During Earnings in Pilgrim's Pride Corporation  - CML NewsStock Under Radar: Pilgrim's Pride Corporation  - The Oracle Examiner"
p9
aS"Pilgrim's asking $1M for old processing plant The Decatur Daily - 2 hours ago Marks has said eminent domain is a possibility for acquiring the property, but city officials have been hopeful they can secure a better price through negotiation."
p10
a.