(lp0
S'PetroQuest Energy Inc Risk Points versus Energy CML News - 11 hours ago This is a scatter plot analysis of the critical risk points from the option market for PetroQuest Energy Inc  compared to its own past and the Energy ETF.'
p1
aS'PetroQuest Energy Announces 2016 Year-End And Fourth Quarter Results And ... PR Newswire  - Mar 7, 2017 LAFAYETTE, La., March 7, 2017 /PRNewswire/ -- PetroQuest Energy, Inc.  announced today a net loss to common stockholders for the quarter ended December 31, 2016 of $, or $ per share, compared to fourth quarter 2015 net&nbsp;...PetroQuest Energy -9% premarket after wide Q4 earnings miss - Seeking AlphaPetroquest Energy Inc  Trading Down 14.5% on Disappointing Earnings - Chaffey Breeze'
p2
aS'PetroQuest Energy Announces 2016 Estimated Proved Oil And Gas Reserves And ... PR Newswire  - Feb 7, 2017 LAFAYETTE, La., Feb. 7, 2017 /PRNewswire/ -- PetroQuest Energy, Inc.  announced today that the Company ended 2016 with approximately 115 Bcfe  of estimated&nbsp;...'
p3
aS'PetroQuest Energy Solves Liquidity Problems Seeking Alpha - Feb 8, 2016 PetroQuest Energy  was amongst those firms. Even though PetroQuest had a nice portfolio of assets and a strong management team the company was going to have a hard time surviving in this brutal energy commodities market. Consequently, the&nbsp;...'
p4
aS'PetroQuest Energy, Inc. Invites You To Join Its 2016 Year-End and Fourth ... PR Newswire  - Feb 14, 2017 About the Company PetroQuest Energy, Inc. is an independent energy company engaged in the exploration, development, acquisition and production of oil and natural gas reserves in East Texas, South Louisiana and the shallow waters of the Gulf of Mexico.'
p5
aS'PetroQuest Energy Announces East Texas Joint Venture PR Newswire  - Nov 10, 2016 LAFAYETTE, La., Nov. 10, 2016 /PRNewswire/ -- PetroQuest Energy, Inc.  announced today that it has entered into East Texas joint venture agreements to develop the Cotton Valley formation with a group of investors , whereby the&nbsp;...Back to Growth: PetroQuest Energy Finalizes Texas JV, Readies Cotton Valley HZ ... - Oil & Gas 360'
p6
aS'Option Trading: PetroQuest Energy Inc  Long Put Spreads and ... CML News - 20 hours ago As we look at PetroQuest Energy Inc we note that a long put spread is one of the most common implementations of an option strategy during a bull market, but the analysis completed when employing the long put spread often times lacks the necessary rigor&nbsp;...'
p7
aS"Is PetroQuest Energy Inc's  ROE Of 87.7% Sustainable? Simply Wall St - Mar 7, 2017 PetroQuest Energy Inc , with its ROE of 87.7 over the past 12 months, performed better than the industry, which averaged 7.14% in the same period."
p8
aS'The Petroquest Energy Inc  Receives $5.13 Average Price Target from Analysts Petro Global News 24 - Mar 22, 2017 Petroquest Energy Inc  has received an average rating of Buy from the six research firms that are presently covering the company.'
p9
aS'Investor Center: Technicals in View for PetroQuest Energy Inc  Rives Journal - Mar 21, 2017 PetroQuest Energy Inc  presently has a 14-day Commodity Channel Index  of -98.54. The CCI was created to typically stay within the reading of -100 to +100.'
p10
a.