(lp0
S'Keefe, Bruyette &amp; Woods Analysts Give Primerica, Inc.  a $78.00 Price Target BNB Daily  - 19 hours ago Primerica, Inc. logo Keefe, Bruyette &amp; Woods set a $78.00 price target on Primerica, Inc.  in a research note released on Friday.Primerica, Inc.  Given Average Rating of Hold by Analysts - The Cerbat Gem'
p1
aS'Primerica Inc.  Moves Lower on Volume Spike for March 21 Equities.com - Mar 21, 2017 Primerica Inc.  traded on unusually high volume on Mar. 21, as the stock lost 2.2% to close at $79.85. On the day, Primerica Inc. saw 546,341 shares trade hands on 5,182 trades. Considering that the stock averages only a daily volume of 350,463 ...The Insider Selling: Primerica, Inc.  President Sells $150405.00 in Stock - Petro Global News 24Sell-side is Weighing in on Primerica, Inc.  Earnings - Aiken Advocate'
p2
aS"Primerica, Inc.  Ex-Dividend Date Scheduled for February 15, 2017 Nasdaq - Feb 14, 2017 Primerica, Inc.  will begin trading ex-dividend on February 15, 2017. A cash dividend payment of $0.19 per share is scheduled to be paid on March 17, 2017.SunTrust Banks Weighs in on Primerica, Inc.'s Q2 2017 Earnings  - Sports Perspectives"
p3
aS'Will The Recent DOL Rule End Primerica? Seeking Alpha - Oct 31, 2016 Primerica will likely come through compliance issues, but their share price does not reflect the risks involved. Investment ... Primerica was started in 1977 in an effort to sell term life insurance to middle class families through independent licensed ...'
p4
aS'Primerica Wins Fourteenth Consecutive DALBAR Mutual Fund Service Award Business Wire  - Jan 11, 2017 Primerica, Inc., headquartered in Duluth, GA, is a leading distributor of financial products to middle income households in North America.'
p5
aS'Primerica Inc.  Moves Lower on Volume Spike for March 17 Equities.com - Mar 17, 2017 Primerica Inc.  traded on unusually high volume on Mar. 17, as the stock lost 1.32% to close at $82.30. On the day, Primerica Inc. saw 566,663 shares trade hands on 3,632 trades. Considering that the stock averages only a daily volume of 346,597&nbsp;...Primerica, Inc. : Important Trade and Target Levels To Watch - Post AnalystPrimerica, Inc.  President Peter W. Schneider Sells 1850 Shares of Stock - Chaffey Breeze'
p6
aS"Ackman Targeted The Wrong MLM: Primerica Will Collapse Before Herbalife Seeking Alpha - Jul 19, 2016 Between the DOL fiduciary rule and Friday's Herbalife settlement from the FTC, we think there is almost no chance that Primerica's MLM structure can survive through 2018. Primerica's recent inclusion on the IBD50 introduced a woefully misinformed&nbsp;..."
p7
aS'In It For The Long Haul? Long Term Growth Pick: Primerica, Inc.  Aiken Advocate - 6 hours ago Primerica, Inc.  has been recommended as a long term growth stock according to analysts at Beta Research. With their stock price currently trading around $79.70, the firm has proven a solid track record of growth over the past few years ...'
p8
aS'Primerica is Oversold Forbes - Aug 2, 2016 But making Primerica Inc an even more interesting and timely stock to look at, is the fact that in trading on Tuesday, shares of PRI entered into oversold territory, changing hands as low as $49.69 per share.'
p9
aS"The Primerica, Inc.  Given Hold Rating at Keefe, Bruyette &amp; Woods Petro Global News 24 - Mar 20, 2017 Primerica, Inc. 's stock had its hold rating reissued by stock analysts at Keefe, Bruyette &amp; Woods in a report released on Friday.Insider Selling: Primerica, Inc.  President Sells $150405.00 in Stock - Sports PerspectivesPrimerica, Inc.  Given a $78.00 Price Target at Keefe, Bruyette &amp; Woods - BBNS"
p10
a.