(lp0
S'Largest Public Storage Location Makes Debut Commercial Property Executive - Mar 14, 2017 Jersey City, N.J.Public Storage has celebrated the completion of its newest and largest storage facility in the country.'
p1
aS'Public Storage Opens Biggest Facility in US San Fernando Valley Business Journal - Mar 13, 2017 The Glendale real estate investment trust has opened the remaining units for Public Storage at 133 Second St. in Jersey City, N.J.'
p2
aS'Is Now a Good Time to Invest in Public Storage? Motley Fool - Mar 3, 2017 2016 was a rough year for shares of Public Storage . After rocketing to new all-time peaks early in the year, prices steadily declined and are still about 20% off of its highs as of this writing.Revenue Update on Public Storage - Energy IndexPublic Storage - Receive News &amp; Ratings Daily - Chaffey Breeze'
p3
aS'Former Employees Say Public Storage Forces Insurance On Customers CBS Local - Feb 23, 2017 Jim Casas and Don Tautfest spent a decade managing Public Storage properties and say they were constantly pressured to sell insurance.'
p4
aS'Public Storage Celebrating Its Newest, Largest Location in Jersey City, New Jersey Yahoo Finance - Mar 10, 2017 Public Storage at 133 2 Street, Jersey City, NJ opened its remaining units and now has 3,978 units, the most under one roof at any of the locations, owned by the largest storage company in the nation.Public Storage  Reviewed By Analysts - The De Soto Edge'
p5
aS"Analyst's Predictions on Lear Corporation , Public Storage  StockNewsJournal - 18 hours ago Public Storage , at its latest closing price of $224.28, it has a price-to-book ratio of 7.68, compared to an industry average at 4.15.Buy, Sell or Hold? Analysts Approach: Lear Corporation , Public Storage ... - The USA Commerce"
p6
aS"PUBLIC STORAGE INC-REGIONL - Ad from 2017-03-20 STLtoday.com - Mar 20, 2017 We provide this commenting area for readers to exchange ideas and opinions on the day's news. Passionate views, pointed criticism and critical thinking are welcome."
p7
aS"FY2017 EPS Estimates for Public Storage Lowered by Cantor Fitzgerald  The Cerbat Gem - 13 hours ago Public Storage logo Public Storage  - Analysts at Cantor Fitzgerald cut their FY2017 EPS estimates for Public Storage in a research report issued on Tuesday. Cantor Fitzgerald analyst G. Mehta now anticipates that the brokerage will post&nbsp;...The Research Analysts Offer Predictions for Public Storage's Q1 2017 Earnings ... - Petro Global News 24Public Storage Forecasted to Earn Q1 2017 Earnings of $2.42 Per Share  - Sports Perspectives"
p8
aS'Strategic Storage Growth Trust, Inc. Acquires Newly Converted Self Storage ... Yahoo Finance - 12 hours ago LADERA RANCH, Calif., March 22, 2017 /PRNewswire/ -- Strategic Storage Growth Trust, Inc., a public non-traded REIT sponsored by SmartStop Asset Management, LLC, announced today its purchase of a newly converted, 900-unit self storage facility that&nbsp;...'
p9
aS'Public Storage  Ex-Dividend Date Scheduled for March 13, 2017 Nasdaq - Mar 10, 2017 Public Storage  will begin trading ex-dividend on March 13, 2017. A cash dividend payment of $2 per share is scheduled to be paid on March 30, 2017.'
p10
a.