(lp0
S'Praxair, Inc.  Ex-Dividend Date Scheduled for March 03, 2017 Nasdaq - Mar 2, 2017 Praxair, Inc.  will begin trading ex-dividend on March 03, 2017. A cash dividend payment of $0.788 per share is scheduled to be paid on March 15, 2017.Envestnet Asset Management Inc. Has $15183000 Stake in Praxair, Inc.  - The Cerbat GemBaillie Gifford &amp; Co. Has $8229000 Position in Praxair, Inc.  - Sports Perspectives'
p1
aS'Praxair Inc.  Moves Lower on Volume Spike for March 08 Equities.com - Mar 8, 2017 Praxair Inc.  traded on unusually high volume on Mar. 08, as the stock lost 0.19% to close at $118.57. On the day, Praxair Inc. saw 2.72 million shares trade hands on 23,634 trades. Considering that the stock averages only a daily volume of 1.46 ...Empire Life Investments Inc. Buys Shares of 153909 Praxair, Inc.  - Chaffey BreezePraxair, Inc.  Position Decreased by Santa Barbara Asset Management LLC - The Cerbat Gem'
p2
aS'Praxair, Inc.  Stock Will Show Resistance At $118.19 USA Commerce Daily - 13 hours ago With all other things going on, Praxair, Inc.  has been on a free fall - declining -3.89 percent in just three months.'
p3
aS'The Praxair, Inc.  Receives Consensus Recommendation of Hold from Brokerages Petro Global News 24 - Mar 21, 2017 Praxair, Inc.  has been given a consensus recommendation of Hold by the nineteen research firms that are currently covering the company.Which insiders are selling Praxair, Inc. ? - Post AnalystHow has Praxair, Inc. performed recently? - The Daily Leicester'
p4
aS'Risk Malaise Alert in Option Market: Praxair Inc Implied Price Swing Hits An ... CML News - Mar 21, 2017 Before we dive into any analysis we simply note that Praxair Inc  risk is actually priced pretty low by the option market as of right now.'
p5
aS"Buy, Sell or Hold? Analysts Approach: Praxair, Inc. , Edwards Lifesciences ... The USA Commerce - Mar 14, 2017 Shares of Praxair, Inc.  dropped -0.20% to $116.72. During the trading on 03/13/2017, Company's stock ranged from $115.99 to $117.34.Significant Brokerage Ratings of Two Stocks: Praxair, Inc. , Edwards ... - The Voice Registrar"
p6
aS"Smart Money Buying the Price Weakness of Praxair, Inc.  Energy Index - Mar 14, 2017 Praxair, Inc.  witnessed a selling pressure and the shares last traded with a loss of -0.5 points or -0.43% at $116.45.Praxair, Inc.  held by 164 SEC 13F Filers - Post AnalystProminent Stock of Market: Praxair, Inc.'s  stock price is Worth at $116 ... - Hot Stocks Point"
p7
aS"Analysts Take Aim At This Stock's Earnings Estimates: Praxair, Inc.  Aiken Advocate - Mar 21, 2017 Investors and analysts are typically super focused on company earnings numbers when they are reported. Company earnings are a good way to evaluate the company profitability."
p8
aS"Analyst's Proposition on Unum Group , Praxair, Inc.  The USA Commerce - Mar 16, 2017 Shares of Unum Group  dropped -0.50% to $48.17. During the trading on 03/15/2017, Company's stock ranged from $47.76 to $48.59.2 Stocks Analyst Opinion Asks for Deeper Look: Unum Group , Praxair ... - The Voice Registrar"
p9
aS'Why to Keeping Eye on Praxair, Inc. , The Allstate Corporation ? StockNewsJournal - Mar 15, 2017 Praxair, Inc.  have shown a high EPS growth of -0.90% in the last 5 years and has earnings decline of -2.60% yoy.'
p10
a.