(lp0
S'Quality Distribution, Inc. Acquires Isotank Group UK GlobeNewswire  - Jun 3, 2016 TAMPA, Fla., June 03, 2016  -- Quality Distribution, Inc. , a North American logistics and transportation provider with market leading businesses, today announced that it has acquired Isotank Group U.K.'
p1
aS'Quality Distribution Agrees to be Acquired by Funds Advised by Apax Partners ... GlobeNewswire  - May 7, 2015 TAMPA, Fla. and NEW YORK, May 6, 2015  -- Quality Distribution, Inc.  , a North American logistics and transportation provider with market leading businesses, today announced&nbsp;...Quality Distribution Firm Taken Private by Apax in $800 Million Deal - TheStreet.comSkadden Reps Apax In $800M Quality Distribution Buy - Law360 '
p2
aS"Quality Distribution 'say on pay' vote doesn't matter in $800M deal Tampa Bay Business Journal - Aug 18, 2015 What had been one of the largest publicly traded companies in Tampa Bay is now owned by a private equity firm. Shareholders of Quality Distribution Inc. approved an $800 million acquistion by Apax Partners, based in London and one of the largest ..."
p3
aS"Moody's assigns B2 CFR to Gruden Acquisition, Inc. (&quot;Quality Distribution ... Moodys.com   - Jul 15, 2015 Gruden Acquisition was formed to effectuate the acquisition by Apax Partners of Quality Distribution, Inc. , the parent company of Quality Distribution, LLC."
p4
aS'New Analyst Ratings On Quality Distribution, Inc.  NewsDen - Mar 20, 2017 Recently stock market analysts have updated their consensus ratings on shares of Quality Distribution, Inc. . Most recent broker ratings.'
p5
aS'Quality Distribution, Inc.  Under Analyst Spotlight UK Market News - Nov 18, 2016 05/11/2015 - Quality Distribution, Inc. was upgraded to buy by analysts at Zacks. They now have a USD 18 price target on the stock.'
p6
aS'Brokers Release Average Price Target Of 15.00 On Quality Distribution, Inc.  UK Market News - Mar 9, 2017 Quality Distribution Inc. is a United States-based provider of bulk transportation and logistics services. The Company also provides transportation and delivery services.'
p7
aS'Next Weeks Broker Price Targets For Quality Distribution, Inc.  Fiscal Standard - Jun 7, 2016 11/10/2014 - Quality Distribution, Inc. had its neutral rating reiterated by analysts at Credit Suisse. They now have a USD 12 price target on the stock.'
p8
aS'Brokers Change Their Target Price On Quality Distribution, Inc.  Fiscal Standard - Jun 7, 2016 11/10/2014 - Quality Distribution, Inc. had its neutral rating reiterated by analysts at Credit Suisse. They now have a USD 12 price target on the stock.'
p9
aS'Brokers Add To Their Ratings On Quality Distribution, Inc.  NewsDen - Jun 7, 2016 A number of investment brokers have recently updated their price targets on shares of Quality Distribution, Inc. .'
p10
a.