(lp0
S'Bankrate, Inc. Shareholder Alert: Former SEC Attorney Willie Briscoe ... Business Wire  - 14 hours ago DALLAS----Former United States Securities and Exchange Commission attorney Willie Briscoe, founder of The Briscoe Law Firm, PLLC, has launched an investigation of Bankrate, Inc.   and several officers and&nbsp;...'
p1
aS"SHAREHOLDER ALERT: Lundin Law PC Announces an Investigation of Bankrate, Inc ... Business Wire  - 11 hours ago When this information was revealed to investors, the value of Bankrate stock dropped, causing harm to investors. Lundin Law PC was founded by Brian Lundin, a securities litigator based in Los Angeles dedicated to upholding shareholders' rights."
p2
aS'SHAREHOLDER ALERT: Bronstein, Gewirtz &amp; Grossman, LLC Announces Investigation ... Yahoo Finance - Mar 17, 2017 NEW YORK, March 17, 2017 /PRNewswire/ -- Attorney Advertising -- Bronstein, Gewirtz &amp; Grossman, LLC is investigating potential claims on behalf of purchasers of the Bankrate, Inc.  . Such investors are advised&nbsp;...'
p3
aS'SHAREHOLDER ALERT: Pomerantz Law Firm Investigates Claims On Behalf of ... PR Newswire  - Mar 17, 2017 NEW YORK, March 17, 2017 /PRNewswire/ -- Pomerantz LLP is investigating claims on behalf of investors of Bankrate, Inc.  . Such investors are advised to contact Robert S. Willoughby at&nbsp;...'
p4
aS'Bankrate, Inc. To Report Fourth Quarter And Full Year 2016 Earnings On March 8 ... PR Newswire  - Feb 21, 2017 NEW YORK, Feb. 21, 2017 /PRNewswire/ -- Bankrate, Inc.  announced today that it will release its fourth quarter and full year 2016 results on March 8, 2017.'
p5
aS'Bankrate, Inc. Agrees To Acquire NextAdvisor Business PR Newswire  - May 5, 2016 NEW YORK, May 5, 2016 /PRNewswire/ -- Bankrate, Inc.  announced today that it has reached an agreement to acquire the business of NextAdvisor, Inc., a leading online source of independent and in-depth research and reviews of credit cards&nbsp;...'
p6
aS'Why Bankrate, Inc. Stock Is Flying Higher Today Motley Fool - Nov 4, 2016 Last quarter, Bankrate guided for third-quarter revenue of $113 million and adjusted EBITDA of $24 million at the midpoint of their respective ranges.'
p7
aS'BRIEF-Bankrate Inc files for non timely 10-K Reuters - Mar 17, 2017 March 17 Amgen Inc sells its cholesterol-lowering drug Repatha at a discount of about 30 percent to its U.S. list price of $14,000 a year, but the largest pharmacy benefit managers say they want lower prices after new data suggested more patients ...'
p8
aS'Bankrate Reports Fourth Quarter and Full Year 2016 Financial Results PR Newswire  - Mar 8, 2017 We are laser-focused on continuing to scale revenue, while accelerating Adjusted EBITDA growth,&quot; said Kenneth S. Esterow, President and CEO of Bankrate, Inc. Mr. Esterow continued, &quot;We made three commitments in early 2016: First, accelerate the growth&nbsp;...'
p9
aS"BANKRATE INC - Ad from 2017-03-19 STLtoday.com - Mar 19, 2017 We provide this commenting area for readers to exchange ideas and opinions on the day's news. Passionate views, pointed criticism and critical thinking are welcome."
p10
a.