(lp0
S"Recon Technology, Ltd. Signs Agreement with PetroChina's Qinghai Oilfield to ... PR Newswire  - Jan 12, 2016 BEIJING, Jan. 12, 2016 /PRNewswire/ -- Recon Technology, Ltd.  , a leading independent oilfield services provider operating primarily in China, announced today that Beijing BHD Petroleum Technology Co."
p1
aS'Stock Concentration on Shares of Recon Technology Ltd  Midway Monitor - 8 hours ago Investors are paying close attention to shares of Recon Technology Ltd . A popular tool among technical stock analysts is the moving average.'
p2
aS'Recon Technology, Ltd. Announces Acquisition of New Business to Expand Service ... PR Newswire  - Dec 7, 2015 7, 2015 /PRNewswire/ -- Recon Technology, Ltd. , , a leading independent oilfield services provider operating primarily in China, today announced that the Company will acquire a 100% equity interest in Qinghai&nbsp;...'
p3
aS'Recon Technology Reports Fiscal 2017 Second Quarter and First Six Months ... Yahoo Finance - Feb 13, 2017 13, 2017 /PRNewswire/ -- Recon Technology, Ltd. , , a leading independent oilfield services provider operating primarily in China, today reported its financial results for the second quarter and first six months ...'
p4
aS'Recon Technology, Ltd.  Reports Consolidated EPS Of $-0.0927 Equities Focus - Mar 22, 2017 Recon Technology, Ltd.  reported its annual basic consolidated earnings per share for the period ended 2016-12-31 to be $-0.0927.'
p5
aS'One Factor Bringing Recon Technology  Stock Up Today TheStreet.com - Jun 10, 2015 NEW YORK  -- Shares of Recon Technology  were gaining 22.3% to $2.02 on heavy trading volume after the oil services company announced it received contract  qualification from Jianghan Oilfield Construction Engineering&nbsp;...'
p6
aS"Buzzer within Traders Radar: Recon Technology, Ltd.  Is stories - Feb 21, 2017 Recon Technology, Ltd.'s  witnessed a loss of -1.49% in recent trading period with closing price of $ 1.32."
p7
aS'BRIEF-Recon Technology Q2 loss per share $0.10 Reuters - Mar 26, 2013 BRIEF-Recon Technology Q2 loss per share $0.10. Feb 13 Recon Technology Ltd. * Recon Technology reports fiscal 2017 second quarter and first six months financial results.'
p8
aS'Investor Center: Technicals in View for Recon Technology Ltd  Rives Journal - Nov 30, 2016 Recon Technology Ltd  presently has a 14-day Commodity Channel Index  of 7.28. The CCI was created to typically stay within the reading of -100 to +100.'
p9
aS'Recon Technology, Ltd.  Spikes On Annual General Meeting Update USMarketsDaily  - Feb 9, 2015 The shares of Recon Technology, Ltd.  soared high in the last trading session. However, there was no news or information available to drive the stock up except its 8-k filing submitted on February 4, 2015.'
p10
a.