(lp0
S'RadNet, Inc. Announces Date of its Fourth Quarter 2016 Financial Results ... GlobeNewswire  - Mar 3, 2017 LOS ANGELES, March 03, 2017  -- RadNet, Inc. , a national leader in providing high-quality, cost-effective diagnostic imaging services through a network of owned and operated outpatient imaging centers, announced&nbsp;...'
p1
aS"RadNet Inc.  Soars 5.31% on March 20 Equities.com - Mar 20, 2017 RadNet Inc.  had a good day on the market for Monday March 20 as shares jumped 5.31% to close at $5.95. About 341,312 shares traded hands on 1,588 trades for the day, compared with an average daily volume of 120,288 shares out of a total float&nbsp;...RadNet Inc.  Given Consensus Rating of Hold by Analysts - The Cerbat GemCraig Hallum Weighs in on RadNet Inc.'s Q2 2017 Earnings  - Chaffey Breeze"
p2
aS'Traders Take Note: RadNet Inc  Stock Drops, Weakness in Technical ... CML News - 18 hours ago Take Note: RadNet Inc  has hit some technical weakness in its momentum, and while it has not broken down all the way through support -- watch the key levels that we discuss below and further, watch the stochastics and technical oscillators&nbsp;...Zacks Investment Research Lowers RadNet Inc.  to Sell - Chaffey Breeze'
p3
aS'RadNet Expands Its New York City Presence Through the Acquisition of New York ... GlobeNewswire  - Apr 14, 2015 LOS ANGELES, April 14, 2015  -- RadNet, Inc. , a national leader in providing high-quality, cost-effective, fixed-site outpatient diagnostic imaging services through a network of 259 owned and operated outpatient imaging&nbsp;...'
p4
aS"Wait For A Pullback Before Buying RadNet Seeking Alpha - Sep 28, 2016 But with an EV/EBIT ratio of ~20x, the company's shares are currently fairly valued. Investors need to be patient and wait for a pullback before buying this stock: fair value is likely around $5 to ... Moreover, offering a broad mix of imaging ..."
p5
aS'Option Market Alert: RadNet Inc Implied Price Swing Hits An Inflection Point CML News - Mar 19, 2017 No Risk Alert Here: Before we dive into any analysis we simply note that RadNet Inc  risk is neither elevated nor depressed.'
p6
aS'RadNet Inc  Jumps 5.50% For the Week Business Review - 11 hours ago Pushing higher over the last five sessions are shares of RadNet Inc . The stock has risen 5.50% over that span, yielding profits for savvy traders.'
p7
aS'RadNet Inc.  Moves Higher on Volume Spike for March 17 Equities.com - Mar 17, 2017 RadNet Inc.  traded on unusually high volume on Mar. 17, as the stock gained 4.15% to close at $5.65. On the day, RadNet Inc. saw 191,843 shares trade hands on 815 trades. Considering that the stock averages only a daily volume of 103,288 shares&nbsp;...RadNet Inc.  to Post FY2017 Earnings of $0.39 Per Share, Jefferies Group ... - Chaffey BreezeFY2017 EPS Estimates for RadNet Inc.  Reduced by Analyst - The Cerbat Gem'
p8
aS'RadNet, Inc. Announces the Addition of Lawrence Tanenbaum, MD to Its ... GlobeNewswire  - Sep 22, 2015 LOS ANGELES, Sept. 22, 2015  -- RadNet, Inc. , a national leader in providing high-quality, cost-effective diagnostic imaging services through a network of owned and operated outpatient imaging centers, announced&nbsp;...'
p9
aS'Zacks Investment Research Downgrades RadNet Inc.  to Sell BNB Daily  - Mar 21, 2017 RadNet logo RadNet Inc.  was downgraded by Zacks Investment Research from a hold rating to a sell rating in a research note issued to investors on Friday.Jefferies Group LLC Analysts Give RadNet Inc.  a $7.00 Price Target - The Cerbat Gem'
p10
a.