(lp0
S'1.289 MarketWatch - Dec 22, 2009 Research Frontiers Inc. Research Frontiers, Inc. engages in developing, licensing and commercializing suspended particle device  light-control technology for automobiles, homes, buildings, aircraft, boats, exhibition and display applications markets.'
p1
aS'Research Frontiers Reports Full Year 2016 Financial Results Yahoo Finance - Mar 13, 2017 WOODBURY, NY-- - Research Frontiers Inc.  announced its financial results for its full year ended December 31, 2016.Research Frontiers Incorporated  Expected To Report Earnings On ... - UK Market News'
p2
aS'Research Frontiers net loss narrows Newsday - Mar 17, 2017 Research Frontiers Inc., a Woodbury maker of smart glass used in high-end automobiles and business jets, reported lower fourth quarter fee income, but a smaller net loss due in part to $483,000 of stock and option compensation charges in the year ...'
p3
aS'WestPark Capital Remains Bullish on Research Frontiers, Inc.  After ... StreetInsider.com - Dec 14, 2016 WestPark Capital reiterated an Outperform rating and $6.00 price target on Research Frontiers, Inc.  after meeting with company management.'
p4
aS"Form 4 RESEARCH FRONTIERS INC For: Mar 20 Filed by: Kaganowicz Alexander StreetInsider.com - Mar 20, 2017 Find out which companies are about to raise their dividend well before the news hits the Street with StreetInsider.com's Dividend Insider Elite."
p5
aS'Research Frontiers to Host Fourth Quarter 2016 Conference Call Yahoo Finance - Mar 9, 2017 WOODBURY, NY-- - Research Frontiers Inc.  announced today that it will release its fourth quarter 2016 financial results on Monday, March 13, 2017.'
p6
aS"Zacks Investment Research Lowers Research Frontiers, Inc.  to Sell Chaffey Breeze - 13 hours ago Research Frontiers, Inc. logo Zacks Investment Research lowered shares of Research Frontiers, Inc.  from a hold rating to a sell rating in a research report report published on Friday.Research Frontiers Inc  Files Form 4 Insider Buying : Alexander ... - Energy IndexInsider Trade: Research Frontiers, Inc. 's director Alexander Kaganowicz ... - Wolcott Daily"
p7
aS'Investor Center: Technical Focus on Research Frontiers Inc  Rives Journal - Mar 21, 2017 Research Frontiers Inc  has a 14-day Commodity Channel Index  of -119.66. The CCI was designed to typically remain within the reading of -100 to +100.'
p8
aS'The Future Of Research Frontiers: Interview With CEO Joseph Harary Seeking Alpha - Sep 24, 2013 Back in June, I covered Research Frontiers  in an article titled Research Frontiers: SmartGlass Technology Has Major Potential.'
p9
aS'Infant Tech Company Research Frontiers Could Grow Up To Be Worth $6 A Share Benzinga - Sep 28, 2016 West Park Capital initiated coverage on Research Frontiers, Inc.  with an Outperform rating and target price of $6.'
p10
a.