(lp0
S"Analyst's Predictions on PrivateBancorp, Inc. , Rex Energy Corporation ... StockNewsJournal - 17 hours ago Rex Energy Corporation , at its latest closing price of $0.43, it has a price-to-book ratio of 4.42, compared to an industry average at 0.52.Buy, Sell or Hold? Analysts Approach: Rex Energy Corporation , Ball ... - The USA CommercePRIMECAP MANAGEMENT CO/CA/ is the biggest holder of Rex Energy Corporation  - Post Analyst"
p1
aS'SHAREHOLDER ALERT: Purcell Julie &amp; Lefkowitz LLP Is Investigating Rex Energy ... PR Newswire  - Mar 13, 2017 NEW YORK, March 13, 2017 /PRNewswire/ -- Purcell Julie &amp; Lefkowitz LLP, a class action law firm dedicated to representing shareholders nationwide, is investigating a potential breach of fiduciary duty claim involving the board of directors of Rex ...'
p2
aS"Rex Energy - With '2L' Negotiations Having Failed, It's Time To Prepack Seeking Alpha - Nov 11, 2016 Stressed energy complex E&amp;P Rex Energy has announced the failure of private, non-public October negotiations with certain holders of its 1.0%/8.0% Senior Secured Notes due 2020."
p3
aS"A Swing For The Fences With Rex Energy Seeking Alpha - Oct 31, 2016 Going for the fences  isn't only for the Cubs or Cleveland. Is the notion bad when trading or investing. Simply, the timing has to be right otherwise you'll strikeout alongside a &quot;Greed is bad&quot; clich."
p4
aS'Stock Update : Rex Energy Corporation Posts 4Q:16 Production ... Smarter Analyst - Jan 23, 2017 Rex Energy Corporation  announced fourth quarter and full-year 2016 production and estimated pricing and provided an operational update.Rex Energy: Improvements In Realised Pricing Reduces Its Breakeven Point To $3 ... - Seeking AlphaRex Energy Corporation  Updates On Operational Plan - Traders350'
p5
aS"Rex Energy Corporation  Reports 4Q and Full Year 2016 Financial Results Smarter Analyst - Mar 7, 2017 Rex Energy Corporation  announced its fourth quarter and full-year 2016 operational and financial results. Operational Update.Rex Energy's  CEO Tom Stabley on Q4 2016 Results - Earnings Call Transcript - Seeking Alpha"
p6
aS"Rex Energy  to Sell Ohio Utica Warrior South Asset for $30M StreetInsider.com - Jan 4, 2017 Rex Energy Corporation   today announced that it entered into a purchase and sale agreement with Antero Resources Corporation  pursuant to which Antero will acquire the company's Ohio Utica assets in the Warrior&nbsp;...Rex Energy Exits Southeast Ohio with Utica Sale to Antero - Natural Gas IntelligenceRex Energy sells assets to Antero Resources - Canton Repository"
p7
aS'Rex Energy Asset Sale Reduces Liquidity Concerns Seeking Alpha - Jun 21, 2016 The Illinois Basin asset sale appears to be a positive one for Rex Energy , mainly in terms of improving its liquidity.'
p8
aS'Rex Energy Announces Date of Fourth Quarter and Full-Year 2016 Earnings Release GlobeNewswire  - Feb 21, 2017 STATE COLLEGE, Pa., Feb. 21, 2017  -- Rex Energy Corporation  today announced plans to release fourth quarter and full-year 2016 financial and operational results on Tuesday, March 7, 2017 after market close.Rex Energy Corporation  Closed the Last Trading Session with ... - The Newburgh PressOverview of Price Move: Rex Energy Corporation  - Is stories'
p9
aS'Rex Energy: Toxic Swaps Seeking Alpha - Jul 27, 2016 Rex announced July 25, 2016 that it had privately negotiated an exchange agreement for the exchange of $43.5 million in aggregate principal of its 1.00%/8.00% Senior Secured Second Lien Notes.'
p10
a.