(lp0
S"SunTrust Banks Comments on Regions Financial Corp's Q1 2017 Earnings  BNB Daily  - 1 hour ago Regions Financial Corp logo Regions Financial Corp  - Research analysts at SunTrust Banks cut their Q1 2017 earnings estimates for Regions Financial Corp in a research report issued to clients and investors on Monday. SunTrust Banks analyst&nbsp;...Stock under Review: Regions Financial Corp  - Post RegistrarSell-Side Sees Upside &amp; Positive Growth in Regions Financial Corporation  - Aiken Advocate"
p1
aS"Regions Financial Corporation  Dips 5.24% for March 21 Equities.com - Mar 21, 2017 Among the S&amp;P 500's biggest fallers on Tuesday March 21 was Regions Financial Corporation . The stock experienced a 5.24% decline to $14.10 with 27.07 million shares changing hands."
p2
aS'The Federated Investors Inc. PA Has $646000 Stake in Regions Financial Corp  Petro Global News 24 - 5 hours ago Federated Investors Inc. PA boosted its stake in Regions Financial Corp  by 31.3% during the fourth quarter, Holdings Channel reports.'
p3
aS'Regions Financial Corporation  Ex-Dividend Date Scheduled for March 08, 2017 Nasdaq - Mar 7, 2017 Regions Financial Corporation  will begin trading ex-dividend on March 08, 2017. A cash dividend payment of $0.065 per share is scheduled to be paid on March 31, 2017.'
p4
aS'Regions Financial Corporation declined in the Previous Trading Session with ... Free Observer - 17 hours ago Regions Financial Corporation  belongs to the Financial sector with an industry focus on Regional - Southeast Banks, with Mr. O. B. Grayson Hall Jr.'
p5
aS"What Analysts are Predicting For Regions Financial Corporation , Snap Inc ... The USA Commerce - Mar 20, 2017 Shares of Regions Financial Corporation  surged 0.00% to $15.05. During the trading on 03/17/2017, Company's stock ranged from $14.80 to $15.11.Just the Facts on Regions Financial Corporation  - StockNewsJournal"
p6
aS"How Does the Chart Look for Regions Financial Corporation  ? The USA Commerce - Mar 21, 2017 We have gathered the technical data on Regions Financial Corporation , and see some interesting trends in the stock's behavior of late."
p7
aS'Regions Financial Corp  Receives Consensus Rating of Hold from Brokerages BNB Daily  - Mar 18, 2017 Regions Financial Corp logo Regions Financial Corp  has earned an average recommendation of Hold from the twenty-seven ratings firms that are presently covering the company.Regions Financial Corp  Forecasted to Post Q2 2017 Earnings of $0.25 Per Share - Chaffey BreezeBrokerages Set Regions Financial Corp  PT at $12.25 - The Cerbat Gem'
p8
aS'Stock Returns: Regions Financial Corporation  is Beating IBERIABANK ... CML News - Mar 16, 2017 This is a snapshot to compare the stock returns for IBERIABANK Corporation  versus Regions Financial Corporation  . The stock return points we compare look at the last three-months, six-months and twelve-months. At the end of&nbsp;...'
p9
aS'Right time to invest?  M&amp;T Bank Corp , Regions Financial Corp  USA Commerce Daily - 18 hours ago Shares of M&amp;T Bank Corporation  are making a strong comeback as they have jumped 48% since bottoming out at $107.01 on Apr. 07, 2016.'
p10
a.