(lp0
S'Revenue Approximations Analysis: Rigel Pharmaceuticals, Inc. , Rennova ... StockNewsJournal - 16 hours ago Rigel Pharmaceuticals, Inc.  have shown a high EPS growth of 11.60% in the last 5 years and has earnings decline of -26.00% yoy.Sell-side Consensus on Rigel Pharmaceuticals, Inc.  First Savings ... - Sherwood DailyAnalysts Near-Term outlook: Sarepta Therapeutics , Rigel ... - The USA Commerce'
p1
aS'Rigel Pharmaceuticals Inc.  Plunges 8.11% on March 21 Equities.com - Mar 21, 2017 Rigel Pharmaceuticals Inc.  had a rough trading day for Tuesday March 21 as shares tumbled 8.11%, or a loss of $-0.24 per share, to close at $2.72.'
p2
aS'Rigel Announces Conference Call and Webcast to Report Fourth Quarter and Year ... PR Newswire  - Feb 28, 2017 SOUTH SAN FRANCISCO, Calif., Feb. 28, 2017 /PRNewswire/ -- Rigel Pharmaceuticals, Inc.  today announced that it will report its fourth quarter and year end 2016 financial results after market close on Tuesday, March 7, 2017.Rigel Pharmaceuticals Inc.  Moves Lower on Volume Spike for February 28 - Equities.com'
p3
aS"Rigel Pharmaceuticals Inc: Hits 4-month high Times of India - Mar 8, 2017 ... ** Drug developer's shares rise as much as 14.2 pct to $2.98 - their highest intraday level since mid-November. ** Rigel on Tuesday indicates it is on track to submit a U.S. marketing application in Q1 for its experimental drug fostamatinib to ..."
p4
aS'Rigel Pharmaceuticals Inc.  Plunges 6.99% on March 06 Equities.com - Mar 6, 2017 Rigel Pharmaceuticals Inc.  had a rough trading day for Monday March 06 as shares tumbled 6.99%, or a loss of $-0.2 per share, to close at $2.66.Rigel Pharmaceuticals Inc.: Rigel Announces Fourth Quarter 2016 and Year End ... - The Wall Street TranscriptRigel Pharmaceuticals, Inc.  Issues Quarterly Earnings Results - Chaffey Breeze'
p5
aS'Investor Center: Technicals in View for Rigel Pharmaceuticals Inc  Rives Journal - Mar 21, 2017 Rigel Pharmaceuticals Inc  presently has a 14-day Commodity Channel Index  of 150.58. The CCI was created to typically stay within the reading of -100 to +100.'
p6
aS'Analyst Views On Top Movers In Recent Trade: Rigel Pharmaceuticals, Inc. (RIGL ... Post Analyst - Mar 21, 2017 Rigel Pharmaceuticals, Inc.  has made its way to a 12-month gain of 44.39%. Turning to Corcept Therapeutics Incorporated , its shares were trading at $10.39 a gain of $0.49, on the trading floor.High Volume Healthcare Stocks: Rigel Pharmaceuticals, Inc. , Corcept ... - TWN'
p7
aS'Between The Numbers: Catalyst Pharmaceuticals, Inc. , Rigel ... USA Commerce Daily - 15 hours ago Shares of Catalyst Pharmaceuticals, Inc.  are making a strong comeback as they have jumped 233.33% since bottoming out at $0.51 on Apr. 26, 2016.'
p8
aS'Rigel Pharmaceuticals Inc.  Soars 7.46% on March 13 Equities.com - Mar 13, 2017 Rigel Pharmaceuticals Inc.  had a good day on the market for Monday March 13 as shares jumped 7.46% to close at $2.88.'
p9
aS'Stock Returns: NewLink Genetics Corporation  versus Rigel ... CML News - Mar 20, 2017 This is a snapshot to compare the stock returns for NewLink Genetics Corporation  versus Rigel Pharmaceuticals Inc  . The stock return points we compare look at the last three-months, six-months and twelve-months.'
p10
a.