(lp0
S'RLI Promotes Betsy K. McLaughlin to Vice President, Chief Claim Counsel; Brian ... Business Wire  - Mar 21, 2017 PEORIA, Ill.----RLI Corp.  -- RLI Corp. announced today that Betsy McLaughlin is being promoted to Vice President, Chief Claim Counsel, effective April 1, 2017.'
p1
aS'by MarketWatch MarketWatch - Oct 25, 2010 A.M. Best Affirms A+  Rating for RLI Corp., RLI Insurance Co., Mt. Hawley Insurance Co. and Contractors Bonding and Insurance Co.'
p2
aS'RLI Corp. Common Stock Quote &amp; Summary Data Nasdaq - Aug 22, 2011 RLI Corp. is an Illinois corporation that was organized in 1965. We underwrite selected property and casualty insurance through major subsidiaries collectively known as RLI Insurance Group .'
p3
aS'Ex-Dividend Reminder: Steris, RLI Corp. and EPR Properties Nasdaq - Feb 22, 2017 Looking at the universe of stocks we cover at Dividend Channel , on 2/24/17, Steris plc , RLI Corp. , and EPR Properties  will all trade ex-dividend for their respective upcoming dividends.'
p4
aS'RLI Corp  Moving Higher Over Past Week Business Review - Mar 20, 2017 RLI Corp  shares are showing positive signals short-term as the stock has finished higher for 7 consecutive bars. In taking a look at recent performance, we can see that shares have moved 3.36% over the past week, 0.32% over the past 4-weeks, -9 ...'
p5
aS"RLI Corp: Massively Overvalued Vs. Better Performing Peers Seeking Alpha - Jan 15, 2016 Berkshire was included because Markel and RLI are often compared with Berkshire. Like Berkshire, Markel and RLI invest a significant percentage of shareholders' equity in non-insurance companies, either directly or by owning shares of public companies,&nbsp;..."
p6
aS'RLI Corp. announces $15 million expansion of its Peoria headquarters Peoria Journal Star - Mar 30, 2015 Crediting RLI founder Gerald Stephens, in attendance with wife Helen, for &quot;building the foundation on which the company is built,&quot; Michael noted that the firm, started with a $300,000 investment by Stephens in 1965, has grown into an insurance firm ...'
p7
aS"RLI Corp  True Range Trending Higher Business Review - Mar 21, 2017 Now we'll take a look at how the fundamentals are stacking up for RLI Corp . Fundamental analysis takes into consideration market, industry and stock conditions to help determine if the shares are correctly valued."
p8
aS'Under the Trendline, Stock Looks for a New-Year Reversal: RLI Corp.  Midway Monitor - 8 hours ago We see here that RLI Corp.  is -0.01% away from the 20-Day Simple Moving Average. Their 50-Day Simple Moving Average is a difference of -0.83% from current levels.'
p9
aS"RLI Corp's  CEO Jon Michael on Q3 2016 Results - Earnings Call Transcript Seeking Alpha - Oct 20, 2016 Good morning and welcome, ladies and gentlemen, to the RLI Corp third quarter earnings teleconference. At this time, I would like to inform you that this conference is being recorded and that all participants are in a listen-only mode."
p10
a.