(lp0
S'Rand Logistics, Inc.  Files An 8-K Notice of Delisting or Failure ... Market Exclusive - 10 hours ago As previously disclosed on a Form 8-K filed on September 22, 2016, on September 20, 2016, Rand Logistics, Inc.  received a letter from The Nasdaq Stock Market LLC  providing notification that, for the previous 30 consecutive&nbsp;...'
p1
aS'Rand Logistics, Inc. Reports Third Quarter Fiscal Year 2017 Financial Results GlobeNewswire  - Feb 13, 2017 JERSEY CITY, N.J., Feb. 13, 2017  -- Rand Logistics, Inc.  , a leading provider of bulk freight shipping services throughout the Great Lakes region, today announced its financial results for the fiscal year 2017&nbsp;...Rand Logistics, Inc.  is up this morning and looking strong - FinancialsTrendRand Logistics, Inc.  held by 11 SEC 13F Filers - Post Analyst'
p2
aS'Rand Logistics Inc. RLOG  Wall Street Journal - Feb 12, 2011 Rand Logistics Inc. RLOG . search. View All companies. AT CLOSE 5:00 PM EDT 03/10/17. $0.64 USD; -0.0299 -4.46%.'
p3
aS'0.6018 MarketWatch - Feb 15, 2011 Find a Broker. Rand Logistics Inc. Watchlist CreateRLOGAlert. Open. Last Updated: Mar 21, 2017 3:25 p.m. Real time quote. $ 0.6018. -0.0282 -4.48%. Previous Close. $0.6300. Created with Highstock 2.1.8 10am 1pm $0.62 $0.63 $0.64 $0.65 $0.66 $0.67.'
p4
aS'BRIEF-Rand Logistics Inc Q3 loss per share $0.03 Reuters - Feb 13, 2017 NEW YORK, March 3 Federal Reserve policymakers who have recently signaled a pending U.S. interest rate rise have been acknowledging growing confidence and aggregate demand in the economy and stock market since the U.S.'
p5
aS'Rand Logistics, Inc. Announces Appointment of Christopher J. Garwood Corporate ... GlobeNewswire  - Sep 29, 2015 NEW YORK, Sept. 29, 2015  -- Rand Logistics, Inc. , a leading provider of bulk freight shipping services throughout the Great Lakes region, today announced the appointment of Mr. Christopher J. Garwood to the position&nbsp;...Rand Logistics appoints Corporate VP of Procurement - Marine Log'
p6
aS'Rand Logistics, Inc. Announces Appointments of Vice Presidents of Operations ... GlobeNewswire  - Jan 4, 2016 NEW YORK, Jan. 04, 2016  -- Rand Logistics, Inc.   today announced the Company has appointed Captain Paul J. Joaquin and Captain Gerald Gerry J. Ray as Vice Presidents of Operations for the U.S.'
p7
aS'Chart Level Analysis on Shares of Rand Logistics Inc  Rives Journal - Mar 21, 2017 Many technical traders will be taking a look at different indicators to help figure out where shares may be heading. At the time of writing, Rand Logistics Inc  has a 14-day Commodity Channel Index  of -86.85. Although the indicator uses the ...'
p8
aS'Rand Logistics Has Huge Upside Potential Seeking Alpha - Nov 12, 2015 Rand Logistics Inc mainly transports dry bulk goods. Some of the examples of such dry goods would include coal, iron ore, salt, various grains, and other dry commodities.'
p9
aS"Rand Logistics Announces Settlement of Proxy Contest With JWEST, LLC GlobeNewswire  - Sep 22, 2014 NEW YORK, Sept. 22, 2014  -- Rand Logistics, Inc.  announced today that it has reached an agreement with JWEST, LLC, a significant stockholder of the company, ending JWEST's proxy contest for Rand's upcoming&nbsp;..."
p10
a.