(lp0
S'RenaissanceRe Holdings Ltd.  Ex-Dividend Date Scheduled for March 13, 2017 Nasdaq - Mar 10, 2017 RenaissanceRe Holdings Ltd.  will begin trading ex-dividend on March 13, 2017. A cash dividend payment of $0.32 per share is scheduled to be paid on March 31, 2017.'
p1
aS'RenaissanceRe Holdings Ltd.  Moves Higher on Volume Spike for March 17 Equities.com - Mar 17, 2017 RenaissanceRe Holdings Ltd.  traded on unusually high volume on Mar. 17, as the stock gained 0.07% to close at $148.09.The RenaissanceRe Holdings Ltd.  Receives $133.45 Consensus PT from Analysts - Petro Global News 24EPS Estimate Of RenaissanceRe Holdings Ltd.  At $3.04 - Markets Daily'
p2
aS'Is a Pullback Coming For Renaissancere Holdings Ltd ? Business Review - Mar 19, 2017 Renaissancere Holdings Ltd  has a current 14-day RSI of 72.90, indicating that the shares have entered into overbought range.'
p3
aS'RenaissanceRe Holdings Ltd. to Acquire Platinum Underwriters in $1.9 Billion ... Business Wire  - Nov 24, 2014 PEMBROKE, Bermuda----RenaissanceRe Holdings Ltd.   and Platinum Underwriters Holdings, Ltd.RenaissanceRe to buy Platinum Underwriters for $1.9 billion - Reuters'
p4
aS"RenaissanceRe Holdings  Ups Dividend, Share Repurchase Yahoo Finance - Feb 27, 2017 The board of directors of RenaissanceRe Holdings Ltd. RNR approved a 3.2% hike in the company's quarterly common stock dividend.RenaissanceRe Holdings Ltd.  Raised to Hold at Zacks Investment Research - Sports Perspectives"
p5
aS'RenaissanceRe Responsible For $140m Fibonacci Reinsurance Ltd. Seeking Alpha - Jan 4, 2017 The company explained that Fibonacci Re was established in order to provide collateralized capacity to Renaissance Reinsurance, the main Bermuda-based reinsurance subsidiary of RenaissanceRe Holdings Ltd. The capital behind the $140 million&nbsp;...RenaissanceRe Announces The Formation Of Fibonacci Re - Property and Casualty'
p6
aS'The RenaissanceRe Holdings Ltd.  Receives Consensus Recommendation of ... Petro Global News 24 - Mar 21, 2017 Shares of RenaissanceRe Holdings Ltd.  have been given an average rating of Hold by the five research firms that are covering the firm.RenaissanceRe Holdings Ltd.  Forms $146.76 Double Top, Central European ... - HuronReportRenaissanceRe Holdings Ltd.  Receives Consensus Recommendation of Hold ... - Sports Perspectives'
p7
aS'Renaissancere Holdings Ltd  Files Form 4 Insider Selling : Jonathan ... Energy Index - Mar 7, 2017 Renaissancere Holdings Ltd : Jonathan Paradine , SVP, CUO - Singapore of Renaissancere Holdings Ltd sold 18,732 shares on Mar 1, 2017.RenaissanceRe Holdings Ltd.  Under Analyst Spotlight - UK Market News'
p8
aS'RenaissanceRe Completes Acquisition of Platinum Underwriters Insurance Journal - Mar 2, 2015 RenaissanceRe Holdings Ltd. announced that it has completed its acquisition of Platinum Underwriters Holdings Ltd. The acquisition was originally announced on November 24, 2014.RenaissanceRe Completes Acquisition Of Platinum - PR Newswire Half of Platinum staff kept on by RenRe - Royal Gazette'
p9
aS'RenaissanceRe Schedules Fourth Quarter and Year-End 2016 Financial Results ... Business Wire  - Jan 5, 2017 PEMBROKE, Bermuda----RenaissanceRe Holdings Ltd.   will conduct an investment community conference call on Wednesday, February 1, 2017, at 10:00 a.m.'
p10
a.