(lp0
S'Renasant Corporation Approves Dividend PR Newswire  - Feb 21, 2017 TUPELO, Miss., Feb. 21, 2017 /PRNewswire/ -- The board of directors of Renasant Corporation  approved the payment of a quarterly cash dividend of eighteen cents  per share to be paid March 31, 2017, to shareholders of record as&nbsp;...'
p1
aS'Renasant Announces Mobile Market Entry and Staff Hires PR Newswire  - Mar 8, 2017 TUPELO, Miss., March 8, 2017 /PRNewswire/ -- Renasant Corporation  today announced its entry into Mobile, Ala.'
p2
aS'Renasant Corporation and Metropolitan BancGroup, Inc. Announce Definitive ... PR Newswire  - Jan 18, 2017 TUPELO, Miss. and RIDGELAND, Miss., Jan. 17, 2017 /PRNewswire/ -- Renasant Corporation  , the parent company of Renasant Bank , and Metropolitan BancGroup, Inc., the parent company of Metropolitan&nbsp;...Form 425 RENASANT CORP Filed by: RENASANT CORP - StreetInsider.comProminent regional banks merge in $190 million deal - Memphis Business Journal'
p3
aS'38.39 MarketWatch - Feb 6, 2010 Renasant Corp. Watchlist CreateRNSTAlert. After Hours. Last Updated: Mar 21, 2017 4:50 p.m.. $ 38.39. 0.00 0.00%.'
p4
aS'Renasant Announces Mortgage Lending Market Entries and Expansion PR Newswire  - Feb 28, 2017 TUPELO, Miss., Feb. 28, 2017 /PRNewswire/ -- Renasant Corporation  today announced the opening of three de novo mortgage lending locations with one each in the markets of Destin and Jacksonville, Fla.'
p5
aS'Renasant Corporation Announces Pricing Of Subordinated Notes PR Newswire  - Aug 18, 2016 TUPELO, Miss., Aug. 17, 2016 /PRNewswire/ -- Renasant Corporation  , the parent company of Renasant Bank , today announced that it has priced $60 million of its 5.00% fixed-to-floating rate subordinated notes&nbsp;...'
p6
aS'Renasant Corp. Kicks Off Common Stock Offering Memphis Daily News - Dec 15, 2016 Shares of Tupelo-based Renasant Corp. are trading at 30 percent above their all-time high since the election, according to Renasant director of corporate communication John Oxford.'
p7
aS"Stock Watch for Renasant Corp  The Standard - 11 hours ago Let's view some technical levels on shares of Renasant Corp . Presently, the 14 day Williams %R is -93.82. Readings may range from 0 to -100."
p8
aS"Renasant Announces Pricing of Common Stock Offering PR Newswire  - Dec 14, 2016 14, 2016 /PRNewswire/ -- Renasant Corporation  , the parent of Renasant Bank, announced today the pricing of an underwritten public offering of 1,900,000 shares of the Company's common stock at a price to the public of&nbsp;..."
p9
aS'Renasant Corporation Completes Merger with Heritage Financial Group, Inc. PR Newswire  - Jul 1, 2015 TUPELO, Miss., July 1, 2015 /PRNewswire/ -- Renasant Corporation   today announced that it had completed its merger with Heritage Financial Group, Inc. , a bank holding company headquartered&nbsp;...Renasant completes merger with Heritage - Northeast Mississippi Daily Journal'
p10
a.