(lp0
S'RTI SURGICAL, INC.  Files An 8-K Departure of Directors or ... Market Exclusive - Mar 20, 2017 RTI Surgical, Inc. is engaged in producing orthopedic and other surgical implants that repair and promote the natural healing of human bone and other human tissues.RTI Surgical, Inc.  loses confidence of 11 hedge fund managers - Post AnalystThe 7.6% Stake of RTI Surgical Inc  Held by Krensavage Asset Management, LLC - Petro Global News 24'
p1
aS"Here's Who Just Picked Up Rti Surgical Inc.  Shares Small Cap Exclusive  - Mar 17, 2017 For those not familiar with the company, RTI Surgical, Inc. is engaged in producing orthopedic and other surgical implants that repair and promote the natural healing of human bone and other human tissues.RTI Surgical settles proxy war with Krensavage Partners - Mass DeviceStock Recent Trading Summary: RTI Surgical, Inc.  - Is stories"
p2
aS'ATR Check for RTI Surgical Inc  Baxter Review - 15 hours ago Active traders have a wide variety of technical indicators at their disposal for completing technical stock analysis. Presently, the 14-day ATR for RTI Surgical Inc  is spotted at 0.14. First developed by J. Welles Wilder, the ATR may assist ...'
p3
aS'RTI Surgical Inc: M&amp;A Target? Seeking Alpha - May 19, 2016 Krensavage Asset Management LLC, activist investor, and Water Street Healthcare Partners at the same time. This is an outstanding opportunity.'
p4
aS'RTI SURGICAL, INC.  Files An 8-K Entry into a Material Definitive ... Market Exclusive - Mar 15, 2017 RTI Surgical, Inc. is engaged in producing orthopedic and other surgical implants that repair and promote the natural healing of human bone and other human tissues.Price-to-Earnings-Growth Ratio Of RTI Surgical, Inc.  At 3.080 - Equities Focus'
p5
aS"BRIEF-Michael Krensavage reports 7.2 pct stake in RTI Surgical Reuters - Feb 17, 2017 BRIEF-Michael Krensavage reports 7.2 pct stake in RTI Surgical ... Michael Krensavage - purchased RTI Surgical Inc's shares based on belief that shares, when purchased, were undervalued Source text - bit."
p6
aS'RTI Surgical Schedules 2016 Fourth Quarter, Year End Earnings and Conference ... Yahoo Finance - Feb 16, 2017 RTI Surgical Inc.  , a global surgical implant company, announced today that it plans to release financial results from the fourth quarter and year ended December 31, 2016 on Thursday, Feb. 23, 2017, prior to the market open.'
p7
aS'RTI Surgical Inc.  Moves Higher on Volume Spike for March 17 Equities.com - Mar 17, 2017 RTI Surgical Inc.  traded on unusually high volume on Mar. 17, as the stock gained 2.67% to close at $3.85. On the day, RTI Surgical Inc. saw 352,428 shares trade hands on 1,100 trades. Considering that the stock averages only a daily volume of&nbsp;...Next Weeks Broker Price Targets For RTI Surgical, Inc.  - Fiscal StandardThis Weeks Target Prices For RTI Surgical, Inc.  - NewsDen'
p8
aS'RTI Surgical collaborates with ADA on report for tracking and tracing of human ... Dentistry IQ - Oct 10, 2016 Last week, RTI Surgical Inc.  issued a statement regarding its collaboration with the American Dental Association  on a new report regarding tissue implants used in dental surgeries.'
p9
aS'Continues to Advance Science Behind Allograft Implantation Business Wire  - Jul 25, 2016 ALACHUA, Fla.----RTI Surgical, Inc.  , a leading global surgical implant company, announced that a peer-reviewed, pre-clinical study titled Multipotent adult progenitor cells on an allograft scaffold facilitate the ...'
p10
a.