(lp0
S'Salem Media Group Inc. accused of using photograph without authorization Northern California Record - 6 hours ago Michael Grecco Productions Inc., doing business as Michael Grecco Photography, filed a complaint on March 17 in the U.S. District Court for the Central District of California against Salem Media Group Inc. and Does 1-10 alleging copyright infringement.'
p1
aS'Salem Media Group Is A Good Buy For 2017 Seeking Alpha - Jan 23, 2017 Salem Media Group is a California-based company specializing in radio broadcast, Internet service provision and book and magazine publishing.'
p2
aS'Salem Media Group, Inc.  Ex-Dividend Date Scheduled for March 16, 2017 Nasdaq - Mar 15, 2017 Salem Media Group, Inc.  will begin trading ex-dividend on March 16, 2017. A cash dividend payment of $0.065 per share is scheduled to be paid on March 31, 2017.Salem Media Group Inc  Upgraded at Zacks Investment Research - The Cerbat GemSalem Media Group, Inc.  to pay $0.07 on Mar 31, 2017, Alexander ... - Wolcott Daily'
p3
aS"3 days left to Salem Media Group Inc 's ex-dividend date, should you buy? Simply Wall St - Mar 12, 2017 Dividend hunters beware, Salem Media Group  will pay its upcoming dividend of $0.07 on the Fri 31 Mar 2017 and will start trading ex-dividend on the Thu 16 Mar 2017."
p4
aS"Salem Media Group, Inc. Announces Third Quarter 2016 Total Revenue Of $71.3 ... PR Newswire  - Nov 7, 2016 To access the teleconference, please dial  241-1527, and then ask to be joined into the Salem Media Group call or listen via the investor relations portion of the company's website, located at investor.salemmedia.com. A replay of the ..."
p5
aS"Salem Media Group's  CEO Edward Atsinger on Q4 2016 Results - Earnings ... Seeking Alpha - Mar 10, 2017 Welcome to the Salem Media Group Fourth Quarter 2016 Earnings Release and Teleconference. [Operator Instructions]. As a reminder, this conference is being recorded.Salem Media Group, Inc. Announces Fourth Quarter 2016 Total Revenue of $70.7 ... - Business Wire "
p6
aS'Salem Media Group Schedules Fourth Quarter 2016 Earnings Release and ... Yahoo Finance - Mar 1, 2017 Salem Media Group, Inc.  announced today that it plans to report its fourth quarter 2016 financial results after the market closes on March 9, 2017.Salem Media Group Inc.  Moves Higher on Volume Spike for March 01 - Equities.com'
p7
aS'Salem Media Group Inc Risk Points versus Consumer Discretionary CML News - Mar 13, 2017 This is a scatter plot analysis of the critical risk points from the option market for Salem Media Group Inc  compared to its own past and the Consumer Discretionary ETF.'
p8
aS'David Evans Sells 2255 Shares of Salem Media Group Inc  Stock Sports Perspectives - 4 hours ago Salem Media Group logo Salem Media Group Inc  insider David Evans sold 2,255 shares of Salem Media Group stock in a transaction dated Tuesday, March 21st.The Salem Media Group Inc  Upgraded by Zacks Investment Research to Buy - Petro Global News 24'
p9
aS'Zacks: Analysts Set $9.00 Price Target for Salem Media Group Inc  Chaffey Breeze - Mar 21, 2017 Salem Media Group logo Shares of Salem Media Group Inc  have received an average broker rating score of 0.00  from the one analysts that provide coverage for the stock, Zacks Investment Research reports.Salem Media Group Inc  Upgraded by Zacks Investment Research to Buy - Community Financial NewsSalem Communications Corporation  Broker Price Targets For The Coming Week - Fiscal Standard'
p10
a.