(lp0
S"Community Banker of the Year: Sussex Bancorp's Anthony Labozzetta American Banker - Dec 1, 2016 As president and chief executive of Sussex Bancorp in Franklin, N.J., he is just as willing to try a new strategy as to reinvent past ones."
p1
aS'Sergio Musacchio Appointed to Executive Vice President/Chief Lending Officer ... GlobeNewswire  - Jul 18, 2016 Sussex Bancorp  is the holding company for Sussex Bank, which operates through its regional offices and corporate centers in Rockaway, Oradell and Wantage, New Jersey and through its eleven branch offices located in Andover, Augusta,&nbsp;...'
p2
aS"Sussex Bancorp  Is At $23.90 Formed Wedge; Melco Crown Entertainment ... Wolcott Daily - 16 hours ago Sussex Bancorp  formed wedge up with $24.62 target or 3.00% above today's $23.90 share price. Sussex Bancorp  has $112.56 million valuation. About 11,486 shares traded. Sussex Bancorp  has risen 50.62% since August&nbsp;..."
p3
aS'Stock Returns: Sussex Bancorp  is Beating Select Bancorp Inc ... CML News - Mar 19, 2017 This is a snapshot to compare the stock returns for Sussex Bancorp  versus Select Bancorp Inc  . The stock return points we compare look at the last three-months, six-months and twelve-months.Is there Upside to Sussex Bancorp  ? - Rockville Register'
p4
aS'Stock Returns: Sussex Bancorp  is Beating Landmark Bancorp Inc ... CML News - Mar 12, 2017 This is a snapshot to compare the stock returns for Landmark Bancorp Inc  versus Sussex Bancorp  .'
p5
aS'Stock Returns: Sussex Bancorp  is Beating First United ... CML News - Mar 10, 2017 This is a snapshot to compare the stock returns for First United Corporation  versus Sussex Bancorp  .'
p6
aS'Form 8-K/A SUSSEX BANCORP For: Feb 04 StreetInsider.com - Feb 5, 2015 The purpose of this Current Report on Form 8-K/A is to amend the Current Report on Form 8-K of Sussex Bancorp, filed with the Securities and Exchange Commission on February 4, 2015 , to correct inadvertent errors that were&nbsp;...'
p7
aS'Breaking: Sussex Bancorp  Stock Has Pushed Through Resistance ... CML News - Mar 16, 2017 Breaking: Sussex Bancorp  has hit maximum technical strength -- watch the technical oscillators for momentum gaps.'
p8
aS'Stock Returns: Veritex Holdings Inc  is Beating Sussex Bancorp ... CML News - Feb 9, 2017 This is a snapshot to compare the stock returns for Sussex Bancorp  versus Veritex Holdings Inc  .'
p9
aS'Stock Returns: Sussex Bancorp  is Beating United Security ... CML News - Mar 5, 2017 This is a snapshot to compare the stock returns for Sussex Bancorp  versus United Security Bancshares  .'
p10
a.