(lp0
S"The business of empathy Business Review USA - Mar 15, 2017 If unfamiliar with the name, one wouldn't be able to guess that the vaguely-entitled Service Corporation International* specializes in the provision of funeral goods and services across America, plus parts of Canada and Puerto Rico, and yet it is the ..."
p1
aS'Generational Equity Announces Sale of Weerts Funeral Home to Service ... PR Newswire  - Feb 14, 2017 Mr. Deuth, who was diagnosed with cancer in 2016 has been retained in a consultative role by Service Corporation International . &quot;[My wife] Linda and I have decided and agreed that the restoration of my health must be my singular focus and my ...'
p2
aS"Service Corporation International Awards 2016 Scholarships GlobeNewswire  - Aug 16, 2016 HOUSTON, Aug. 16, 2016  -- Service Corporation International , North America's largest provider of funeral and cemetery services, and its brand, Dignity Memorial, awarded over $53,000 in scholarships to 30 mortuary&nbsp;..."
p3
aS"Trading Monitor: Watching Shares of Service Corporation International  The Standard - 10 hours ago Traders may be interested in various technical levels on shares of Service Corporation International . After a recent check, Service Corporation International 's Williams Percent Range or 14 day Williams %R was spotted at -90.15. Levels can ..."
p4
aS"Service Corporation International's  CEO Thomas Ryan on Q4 2016 Results ... Seeking Alpha - Feb 14, 2017 Welcome to the Fourth Quarter 2016 Service Corporation International Earnings Conference Call. My name is Christine and I will be the operator for today's call.Service Corporation International Issues Outlook For 2017 - Quick Facts - NasdaqService Corp. International  Has Surged To A New High On Q4 Results - RTT News"
p5
aS"BRIEF-Service Corporation International receives from IRS office of Appeals ... Reuters - Mar 6, 2017 CHICAGO, March 13 Archer Daniels Midland Co , one of the world's largest agricultural traders, will widen its operations in China to produce fish feed, the company said on Monday, amid increasing global demand for fish from health-conscious consumers."
p6
aS'Weerts Funeral Home sold to Service Corp. International Quad City Times - Feb 2, 2017 Service Corp. International already owns Runge Mortuary and Crematory, Davenport; Hodgson Funeral Home, Rock Island; and Davenport Memorial Park, said Henry &quot;Hank&quot; Runge III, general manager of the Quad-City group.'
p7
aS"A buried problem at country's top funeral home chain? CBS News - Mar 6, 2017 Families dealing with the death of a loved one are often struggling with a range of bereavement issues. The pain of getting overcharged by a funeral home may only add to their grief.For a fair funeral price, cast a wide net - CNBCFuneral Home Fees Vary Widely, and It's Hard to Shop Around - New York Times"
p8
aS'Service Corp. International Q4 Earnings Advance 23% Nasdaq - Feb 13, 2017  - Service Corp. International  released a profit for its fourth quarter that increased compared to the same period last year.'
p9
aS'Service Corporation International  Moves Higher on Volume Spike for March 01 Equities.com - Mar 1, 2017 Service Corporation International  traded on unusually high volume on Mar. 01, as the stock gained 0.65% to close at $30.93.Service Corporation International  recently sold by insider WARING SUMNER ... - Post Analyst'
p10
a.