(lp0
S'Stepan Company Announces Changes to Board of Directors PR Newswire  - Oct 20, 2016 NORTHFIELD, Ill., Oct. 20, 2016 /PRNewswire/ -- Stepan Company  announced today that F. Quinn Stepan, the Chairman of the Company, will retire from the position of Chairman effective as of December 31, 2016.'
p1
aS'Stepan Company  Ex-Dividend Date Scheduled for March 01, 2017 Nasdaq - Feb 28, 2017 Stepan Company  will begin trading ex-dividend on March 01, 2017. A cash dividend payment of $0.205 per share is scheduled to be paid on March 15, 2017.Stepan Company  Moves Higher on Volume Spike for February 28 - Equities.comBrokers Change Their Target Price On Stepan Company  - Fiscal Standard'
p2
aS'Stepan Company: Stepan Declares Quarterly Dividend The Wall Street Transcript - Feb 22, 2017 On February 21, 2017, the Board of Directors of Stepan Company declared a quarterly cash dividend on its common stock of $0.205 per share.'
p3
aS'Stepan Announces Expansion of Poland Polyester Polyol Facility PR Newswire  - Jun 2, 2016 NORTHFIELD, Ill., June 2, 2016 /PRNewswire/ -- Stepan Company  is pleased to confirm that the expansion of its polyester polyol facility in Brzeg Dolny, Poland will be completed in mid 2016, with the addition of a new reactor.'
p4
aS'Stepan Announces Canadian Plant Closure PR Newswire  - May 20, 2016 NORTHFIELD, Ill., May 20, 2016 /PRNewswire/ -- Stepan Company , today announced plans to cease all production activities and shutdown its Longford Mills, Canada facility by the end of 2016.'
p5
aS'Stock in Focus: Stepan Company  Baldwin Journal - 13 hours ago Stepan Company  currently has a 6 month price index of 1.07703. The six month price index is easily measured by dividing the current share price by the share price six months ago.'
p6
aS'STEPAN COMPANY  Files An 8-K Results of Operations and Financial ... Market Exclusive - Feb 22, 2017 Stepan Company produces specialty and intermediate chemicals, which are sold to other manufacturers and used in a variety of end products.Stepan Company  Plunges 9.21% on February 22 - Equities.comRevenue Update on Stepan Company - Money Flow Index & Trends'
p7
aS'Stepan Company  Moves Higher on Volume Spike for March 17 Equities.com - Mar 17, 2017 Stepan Company  traded on unusually high volume on Mar. 17, as the stock gained 2.33% to close at $79.98. On the day, Stepan Company saw 182,813 shares trade hands on 929 trades. Considering that the stock averages only a daily volume of&nbsp;...'
p8
aS'Stepan Co.  Tops Q2 EPS by 14c; Will Acquire Commercial Business of ... StreetInsider.com - Jul 20, 2016 Stepan Company also reported that its subsidiary in Brazil has reached an agreement with Tebras Tensoativos do Brazil Ltda.'
p9
aS"Stepan Company  Moves Higher on Volume Spike for March 15 Equities.com - Mar 15, 2017 Stepan Company  traded on unusually high volume on Mar. 15, as the stock gained 3.96% to close at $79.06. On the day, Stepan Company saw 133,530 shares trade hands on 1,309 trades. Considering that the stock averages only a daily volume of&nbsp;...The Research Analysts Set Expectations for Stepan Company's Q1 2017 Earnings  - Petro Global News 24Stepan Company  Under Analyst Spotlight - UK Market News"
p10
a.