(lp0
S'Hewlett Packard offers $275 million for Silicon Graphics International MarketWatch - Aug 11, 2016 Hewlett Packard Enterprise HPE, +0.93% announced plans late Thursday to buy Silicon Graphics International Corp. SGI, +1.01% in a deal valued at $275 million.'
p1
aS"Silicon Graphics International Corp. Acquisition May Not Be in the Best ... PR Newswire  - Aug 12, 2016 NEW YORK, Aug. 12, 2016 /PRNewswire/ -- WeissLaw LLP is investigating possible breaches of fiduciary duty and other violations of law by the Board of Directors of Silicon Graphics International Corp.  in connection with the&nbsp;...Robbins Arroyo LLP: Acquisition of Silicon Graphics International Corp. Silicon Graphics International Corp. 's Deal With HPE Triggers ... - Scibility Media"
p2
aS"Why Silicon Graphics International Shares Plunged Today Motley Fool - Apr 28, 2016 Now what: Silicon Graphics' federal business has been hit by delays which are hurting the company's outlook for 2016.Silicon Graphics International Corp. | $SIG Stock | Shares Crash Down On Low ... - TickerTV News Why Silicon Graphics International Corp 'S F3Q Profit Isn't Celebrated - Scibility Media"
p3
aS'Hewlett Packard Enterprise to Buy Silicon Graphics for $275 Million Wall Street Journal - Aug 11, 2016 Hewlett Packard Enterprise Co. agreed to pay about $275 million to buy Silicon Graphics International Corp., a once-influential pioneer in computing hardware that wound up settling into a small industry niche.Silicon Graphics International Corp  Stock Soars on HPE Deal - Investorplace.com'
p4
aS'Superior Gold Inc. MarketWatch - Jun 28, 2009 Check out the returns on our 8 Lazy Portfolios that are made up of low-cost buy-and-hold index funds.  How to create your own Lazy Portfolio.'
p5
aS'Silicon Graphics Soars 11.2%  Benzinga - Jan 14, 2011 Shares of Silicon Graphics International Corp.  are trading up 11.2% at $10.79 per share during the Friday afternoon trading session.'
p6
aS'HPE Closes $275M Buy of Silicon Graphics International to Add High-Performance ... GovConWire - Nov 1, 2016 big data2 Hewlett Packard Enterprise  has completed its acquisition of high-performance computing technology provider Silicon Graphics International for $275 million to add new data analytics technology and pursue HPC market growth.'
p7
aS"Billionaire Mario Gabelli's GAMCO Investors Reports New Stake in Silicon ... Insider Monkey  - Aug 23, 2016 Billionaire Mario Gabelli's GAMCO Investors has initiated a new position in Silicon Graphics International Corp  and together with its affiliates it has acquired 2.36 million common shares, which amass 6.51% of the Silicon Graphics&nbsp;..."
p8
aS'Silicon Graphics International Corp.  Position Cut by Paradigm Capital ... Sports Perspectives - Jan 2, 2017 Silicon Graphics International Corp. logo Paradigm Capital Management Inc. NY cut its stake in shares of Silicon Graphics International Corp.  by 55.8% during the third quarter, according to its most recent filing with the Securities and ...'
p9
aS'Deferred Tax Assets Of Silicon Graphics International Corp  At $0 ... RealistInvestor.com - Feb 14, 2017 Silicon Graphics International Corp  reported accounts payable of $55.761 millions for the year ended 2008-06-30.'
p10
a.