(lp0
S'Simulations Plus Inc  Jumps Higher For Week Business Review - 15 hours ago Pushing higher over the last five sessions are shares of Simulations Plus Inc . The stock has risen 5.94% over that span, yielding profits for savvy traders.'
p1
aS'Simulations Plus Inc. SLP  Wall Street Journal - Feb 11, 2011 News Simulations Plus Inc.SLP. Significant News Only. 03/13/17; Press Release. Simulations Plus Reports Record Preliminary Revenues for Second Quarter FY2017.'
p2
aS"Recent Trading Updates: Simulations Plus, Inc.  Is stories - 17 hours ago Simulations Plus, Inc.'s  witnessed a gain of 3.38% in recent trading period with closing price of $ 10.70."
p3
aS'Shorting Simulations Plus Is Silly Seeking Alpha - Feb 23, 2016 Simulations Plus  is my favorite buy-it-and-close-your-eyes-for-a-decade company, as I explained last week.'
p4
aS"Simulations Plus, Inc. Passes Its Checkup Seeking Alpha  - Jan 29, 2015 Simulations Plus  is a major software provider for pharmaceutical research and development. The company's software predictions reduce client's research and development costs and lead to faster conclusions. Revenues were up 54% over&nbsp;..."
p5
aS'Simulations Plus Reports Record Preliminary Revenues for Second Quarter FY2017 Yahoo Finance - Mar 13, 2017 Simulations Plus, Inc. , a leading provider of consulting services and software for pharmaceutical discovery and development, today released preliminary revenues for the second quarter of its fiscal year 2017, the period ended February 28, 2017&nbsp;...'
p6
aS'Simulations Plus, Inc.  Reaches $10.70 After 7.00% Up Move; Polaris ... Herald KS - Mar 21, 2017 The stock of Simulations Plus, Inc.  is a huge mover today! About 72,433 shares traded or 143.41% up from the average.'
p7
aS'Simulations Plus: Riding A 20% Plus Growth Industry Seeking Alpha  - Nov 4, 2014 The company operates in a drug simulation industry that is expected to grow more than 20% a year from now till 2020.'
p8
aS'Simulations Plus, Inc.  Files An 8-K Departure of Directors or ... Market Exclusive - Dec 1, 2016 Simulations Plus, Inc.  develops and produces software for use in pharmaceutical research and for education, and provides consulting and contract research services to the pharmaceutical industry.'
p9
aS'Simulations Plus Releases ADMET Predictor Version 8.1 Business Wire  - Jan 12, 2017 LANCASTER, Calif.----Simulations Plus, Inc. , the premier provider of simulation and modeling software and consulting services for pharmaceutical discovery and development, today announced that it has released Version&nbsp;...'
p10
a.