(lp0
S'Summit Financial Group Inc.  Moves Lower on Volume Spike for March 22 Equities.com - 9 hours ago Summit Financial Group Inc.  traded on unusually high volume on Mar. 22, as the stock lost 2.18% to close at $19.33. On the day, Summit Financial Group Inc. saw 26,860 shares trade hands on 301 trades. Considering that the stock averages only a&nbsp;...'
p1
aS'Summit Financial Group Inc.  Plunges 7.62% on March 21 Equities.com - Mar 21, 2017 Summit Financial Group Inc.  had a rough trading day for Tuesday March 21 as shares tumbled 7.62%, or a loss of $-1.63 per share, to close at $19.76.'
p2
aS'Summit Financial Group, Inc. to Acquire First Century Bankshares, Inc. and Its ... GlobeNewswire  - Jun 1, 2016 MOOREFIELD, W. Va. and BLUEFIELD, W. Va., June 01, 2016  -- Summit Financial Group, Inc.   and First Century Bankshares, Inc.   announced the signing of a definitive&nbsp;...'
p3
aS'Summit Financial Group, Inc.  Ex-Dividend Date Scheduled for March 13, 2017 Nasdaq - Mar 10, 2017 Summit Financial Group, Inc.  will begin trading ex-dividend on March 13, 2017. A cash dividend payment of $0.11 per share is scheduled to be paid on March 31, 2017.'
p4
aS'Traders Take Note: Summit Financial Group Inc  Stock Drops ... CML News - Mar 19, 2017 Take Note: Summit Financial Group Inc  has hit some technical weakness in its momentum, and while it has not broken down all the way through support -- watch the key levels that we discuss below and further, watch the stochastics and&nbsp;...'
p5
aS'Summit Financial Group Inc.  Moves Higher on Volume Spike for March 17 Equities.com - Mar 17, 2017 Summit Financial Group Inc.  traded on unusually high volume on Mar. 17, as the stock gained 2.15% to close at $20.89.Basic Consolidated EPS Of Summit Financial Group, Inc.  At $1.6182 - Equities Focus'
p6
aS'Summit Financial Group Inc.  Moves Higher on Volume Spike for February 27 Equities.com - Feb 27, 2017 Summit Financial Group Inc.  traded on unusually high volume on Feb. 27, as the stock gained 0.95% to close at $24.34.Summit Financial Group, Inc.  Increases Dividend to $0.11 Per Share - Community Financial News'
p7
aS'Stock Returns: Summit Financial Group Inc  versus Xenith ... CML News - Mar 3, 2017 This is a snapshot to compare the stock returns for Summit Financial Group Inc  versus Xenith Bankshares Inc  .'
p8
aS'Stock Returns: Salisbury Bancorp Inc  versus Summit Financial ... CML News - Mar 8, 2017 This is a snapshot to compare the stock returns for Salisbury Bancorp Inc  versus Summit Financial Group Inc  .Summit Financial Group, Inc.  To Go Ex-Dividend on March 13th - Chaffey Breeze'
p9
aS"Analysts Set Expectations for Summit Financial Group, Inc.'s Q1 2017 Earnings ... Chaffey Breeze - Mar 11, 2017 Summit Financial Group logo Summit Financial Group, Inc.  - DA Davidson issued their Q1 2017 earnings estimates for Summit Financial Group in a research note issued on Monday.Summit Financial Group, Inc.  Earns Neutral Rating from Analysts at DA ... - BNB Daily Insider Buying: Summit Financial Group, Inc.  Director Buys 6888 Shares ... - The Cerbat Gem"
p10
a.