(lp0
S"Sempra Energy To Webcast Analyst Conference April 5 Yahoo Finance - 18 hours ago SAN DIEGO, March 22, 2017 /PRNewswire/ -- Top executives from Sempra Energy  will provide an update on the company's strategy and financial goals at 12 p.m.Sempra Energy  Ex-Dividend Date Scheduled for March 21, 2017 - NasdaqWhy Analysts put forward these two stocks: Sempra Energy , Quality Care ... - The USA Commerce"
p1
aS"Sempra Energy Appoints Contreras-Sweet To Board Of Directors PR Newswire  - Mar 14, 2017 SAN DIEGO, March 14, 2017 /PRNewswire/ -- Sempra Energy  today announced that Maria Contreras-Sweet has been appointed to the company's board of directors.Sempra Energy Adds Ex-SBA Admin. Maria Contreras-Sweet to Board - Times of San DiegoSempra Energy appoints new board member - LNG Industry"
p2
aS'Ex-Dividend Reminder: Philip Morris International, Las Vegas Sands and Sempra ... Nasdaq - Mar 17, 2017 Looking at the universe of stocks we cover at Dividend Channel , on 3/21/17, Philip Morris International Inc , Las Vegas Sands Corp , and Sempra Energy  will all trade ex-dividend for their respective upcoming&nbsp;...'
p3
aS'P. Kevin Chase Appointed Chief Information Officer For Sempra Energy PR Newswire  - Mar 7, 2017 SAN DIEGO, March 7, 2017 /PRNewswire/ -- P. Kevin Chase has joined Sempra Energy  as its chief information officer, the company announced today.Stock Returns: CenterPoint Energy Inc  is Beating Sempra Energy ... - CML NewsSempra Energy  Files Form 4 Insider Selling : William G Ouchi Sells 600 ... - Energy Index'
p4
aS"Sempra Energy  Q4 2016 Results - Earnings Call Transcript Seeking Alpha - Feb 28, 2017 Please standby, we're about to begin. Good day and welcome to the Sempra Energy Fourth Quarter Earnings Results Conference Call.Sempra Energy  Beats on Q4 Earnings, Lifts '17 View - Nasdaq"
p5
aS'Sempra Energy Risk Points versus Industrials CML News - 13 hours ago This is a scatter plot analysis of the critical risk points from the option market for Sempra Energy  compared to its own past and the Industrials ETF.'
p6
aS'Sempra Energy Taps Industry Vet as CIO Wall Street Journal   - Mar 8, 2017 Kevin Chase joined San Diego-based Sempra Energy as chief information officer Monday. Among key technology projects this year, the company plans to roll out self-help systems for employees to make changes to human resources services, such as&nbsp;...Sempra Energy names new chief information officer - Electric Light & Power'
p7
aS"Sempra Energy : Dividend is coming in 3 days, should you buy? Simply Wall St - Mar 17, 2017 Dividend hunters beware, Sempra Energy  will pay its upcoming dividend of $0.82 on the Sat 15 Apr 2017 and will start trading ex-dividend on the Tue 21 Mar 2017.Sempra Energy's Dividend: Why the Low Yield? - Market RealistThe Top Three Holders Of Sempra Energy  - Post Analyst"
p8
aS"BRIEF-Sempra Energy appoints Contreras-Sweet to board Reuters - Mar 14, 2017 Reuters is the news and media division of Thomson Reuters. Thomson Reuters is the world's largest international multimedia news agency, providing investing news, world news, business news, technology news, headline news, small business news, news&nbsp;..."
p9
aS"Earnings Clues on Varian Medical Systems, Inc. , Sempra Energy (SRE ... StockNewsJournal - 19 hours ago Sempra Energy , maintained return on investment for the last twelve months at 3.82, higher than what Reuters data shows regarding industry's average."
p10
a.