(lp0
S'Scripps CEO Rich Boehne to retire in 2017 WCPO - Nov 9, 2016 The E.W. Scripps Co. announced a leadership change Wednesday. CEO Rich Boehne named Chief Digital Officer Adam Symson as his successor.'
p1
aS'EW Scripps Co.  Tops Q4 EPS by 4c StreetInsider.com - Feb 24, 2017 E.W. Scripps Co.  reported Q4 EPS of $0.46, $0.04 better than the analyst estimate of $0.42. Revenue for the quarter came in at $273 million versus the consensus estimate of $269.93 million.'
p2
aS'McCracken takes the EW Scripps Company Down New Digital Paths WOUB - Oct 26, 2016 Rob McCracken is the director of the Digital Solutions Groups for the E.W. Scripps media company. He heads a team that is cutting-edge in research and design.'
p3
aS'The EW Scripps Co  PT Raised to $20.00 Petro Global News 24 - Mar 21, 2017 E. W. Scripps Co  had its price objective hoisted by investment analysts at Jefferies Group LLC from $16.00 to $20.00 in a note issued to investors on Monday.Insider Selling: EW Scripps Co  Major Shareholder Sells $3685681.00 in Stock - BNB Daily Buzzer within Investors Radar: EW Scripps Company   - Is stories'
p4
aS'Insider Trading Activity EW Scripps Company    Director Sold ... Market Exclusive - Mar 2, 2017 The E. W. Scripps Company is a media enterprise with interests in television and radio broadcasting, as well as local and national digital media brands.EW Scripps Company   Moves Higher on Volume Spike for March 01 - Equities.comQ1 2017 EPS Estimates for EW Scripps Company  Reduced by Analyst  - BNB Daily '
p5
aS'Insider Trading Activity EW Scripps Co   Chairman Sold 100000 ... Market Exclusive - Mar 6, 2017 The E. W. Scripps Company is a media enterprise with interests in television and radio broadcasting, as well as local and national digital media brands.Rating Change on EW Scripps Company   - Energy IndexRobert A. Carson Sells 10000 Shares of EW Scripps Co  Stock - BNB Daily '
p6
aS'Insider Trading Activity EW Scripps Co   Major Shareholder Sold ... Market Exclusive - Mar 6, 2017 The E. W. Scripps Company is a media enterprise with interests in television and radio broadcasting, as well as local and national digital media brands.'
p7
aS'EW Scripps Co  Reaches $22.27 After 3.00% Up Move; Gates Capital ... Wolcott Daily - 14 hours ago The stock of E. W. Scripps Co  is a huge mover today! About 187,873 shares traded. E. W. Scripps Co  has risen 31.21% since August 15, 2016 and is uptrending.'
p8
aS'EW Scripps Company   Breaks into New 52-Week High on February 27 Session Equities.com - Feb 27, 2017 Shares of E.W. Scripps Company   broke into a new 52-week high yesterday, hitting a peak of $22.84. Shares closed at $22.53 after opening at $21.18 for a move of 5.68%.Crazy Volume Spikes for: The EW Scripps Company  - HugoPressEW Scripps Company   Releases Earnings Results, Beats Estimates By ... - Chaffey Breeze'
p9
aS'The EW Scripps Company  is trading at a 24% discount to its intrinsic value Simply Wall St - Feb 24, 2017 I am going to run you through how I calculated the intrinsic value of E. W. Scripps  by taking the expected future cash flows and discounted them to the value today.'
p10
a.