(lp0
S"Insider Trading Activity Tucows Inc.   EVP Sold 5000 shares of Stock Market Exclusive - Mar 20, 2017 David John Woroch , EVP of Tucows Inc.  reportedly Sold 5,000 shares of the company's stock at an average price of 49.02 for a total transaction amount of $245,100.00 SEC Form.Tucows  announce Michael Cooperman, will retire as CFO - Benchmark Monitor"
p1
aS"Tucows Inc. Lifts Fourth-Quarter Sales, but Earnings Dip Motley Fool - Feb 8, 2017 Online business services provider Tucows  reported fourth-quarter results after Tuesday's closing bell. Share prices fell more than 12% in after-hours trading as investors digested the report.Tucows Inc.  Releases Quarterly Earnings Results, Misses Expectations By ... - Sports PerspectivesTucows Inc.  Releases Earnings Results, Misses Expectations By $0.15 EPS - The Cerbat Gem"
p2
aS"TUCOWS INC.  Files An 8-K Other Events Market Exclusive - Mar 1, 2017 Tucows Inc. is engaged in providing Internet services. The Company's segments include Domain Services and Network Access Services.Tucows Inc.  Receives Average Recommendation of Hold from the Brokerages - Petro Global News 24"
p3
aS'Tucows Inc.  Accounts Payable At $4.7866 Millions RealistInvestor.com - 12 hours ago Tucows Inc.  reported accounts payable of $4.7866 millions for the year ended 2016-12-31. For the quarter ended 2016-12-31 it was $4.7866 millions.'
p4
aS'Watching the Metrics for Tucows Inc.  Piedmont Register - 10 hours ago The 12 month stock volatility for Tucows Inc.  is currently 36.173100. The 6 month volatility is 43.378500, and the 3 month is seen at 52.209200.'
p5
aS'Acquisition Of ENom Makes Tucows Second Largest Domain Registrar Seeking Alpha - Jan 26, 2017 Last week, on January 20, 2017, Tucows Inc.  announced in a press release to acquire wholesale domain name registrar eNom from the Rightside Group for $83.5 million.'
p6
aS"Form 8-K TUCOWS INC /PA/ For: Mar 01 StreetInsider.com - Mar 1, 2017 The timing and exact number of common shares purchased will be at Tucows' discretion and will depend on available cash and market conditions."
p7
aS'Tucows Inc. Earnings: 55% Earnings Growth; Shares Jump on Tuesday Motley Fool - Nov 8, 2016 Domain name registrar and network service operator Tucows  reported third-quarter results on Monday night. The Toronto-based company beat analyst expectations on both the top and bottom lines.'
p8
aS"Valuing Tucows Inc.  From A Bearish Perspective Smarter Analyst - Aug 3, 2015 You've almost gotta love Tucows Inc.   for its humor, as demonstrated by the company reportedly taking a real cow to a conference, plus its depiction of two cows in its logo."
p9
aS'The Tucows Inc.  Given Average Recommendation of  by Brokerages Petro Global News 24 - Mar 21, 2017 Tucows Inc.   has been given an average broker rating score of 0.00  from the two analysts that provide coverage for the company, Zacks Investment Research reports.David John Woroch Sells 5000 Shares of Tucows Inc.  Stock - BNB Daily '
p10
a.