(lp0
S"Tofutti Brands Inc. Announces Notification of NYSE MKT Listing Deficiency PR Newswire  - Apr 2, 2015 CRANFORD, N.J., April 2, 2015 /PRNewswire/ -- TOFUTTI BRANDS INC.   today announced the receipt of a notice indicating that the Company does not meet certain of the NYSE MKT LLC's (the &quot;NYSE&nbsp;..."
p1
aS'Tofutti Brands Inc Stock Upgraded  TheStreet.com - May 15, 2014 TOFUTTI BRANDS INC reported significant earnings per share improvement in the most recent quarter compared to the same quarter a year ago.'
p2
aS'Tofutti Announces 2014 Results PR Newswire  - Mar 27, 2015 Founded in 1981, Tofutti Brands Inc. develops and distributes a complete line of dairy-free products. The Company sells more than 80 milk-free foods including frozen desserts, cheese products and prepared frozen dishes throughout the United States and ...'
p3
aS'Tofutti Brands  Taps Advisors to Explore Alternatives StreetInsider.com - Sep 30, 2016 Tofutti Brands  announced that its Board of Directors has commenced a review of its strategic alternatives intended to enhance shareholder value.Dairy-free firm Tofutti weighs up &quot;strategic&quot; options - just-food.com '
p4
aS'The Tale of Tofutti WholeFoods Magazine - Jul 24, 2013 The story of Tofutti is one of triumph, loss and three divine brushes with fate. Holding the reigns of this successful company is founder and CEO David Mintz, a jovial, passionate businessman who has yet to abandon the eye of the tiger that served him ...'
p5
aS'Tofutti Brands claims industry first with launch of dairy-free mozzarella FoodNavigator-USA.com - May 1, 2013 &quot;The goal with Tofutti cheese is to have people taste it and believe it is cheese. I feel like we have accomplished our goal.'
p6
aS"Tofutti recalls 'Yours Truly' dessert cones for trace amounts of milk This Dish Is Veg - Dec 14, 2010 Tofutti Brands, Inc. has announced a precautionary recall of 25 pallets worth of its 4-pack Yours Truly frozen dessert cones for possible trace of level milk contamination."
p7
aS'Small Cap Dean Foods Q4 Earnings Report: Got Milk? SmallCap Network - Feb 14, 2017 A long term performance chart for Dean Foods Co shows a decent long term return as small caps Lifeway Foods, Inc  and non-dairy desert stock Tofutti Brands Inc  have come up even for investors while mid cap dairy and&nbsp;...'
p8
aS'Hottest Manufacturing Stocks Now  MNI EBIO VBLT HSGX Investorplace.com - Jun 16, 2016 Tofutti Brands Inc : TOF stock is down 10.58% today. Chemocentryx Inc. : CCXI stock is down 9.94% today. Sarepta Therapeutics : SRPT stock is down 7.9% today.'
p9
aS'Biggest Movers in Manufacturing Stocks Now  CTRV OHRP LTEA MLSS Investorplace.com - Oct 17, 2016 Lannett Co Inc : LCI stock is down 8.45% today. Biostar Pharmaceutic : BSPM stock is down 8.52% today. Lee Enterprises Inc : LEE stock is down 7.94% today.'
p10
a.