(lp0
S"Texas Roadhouse: Their Rolls Are Not Worth The Risk Seeking Alpha - Mar 16, 2017 Texas Roadhouse's goal is to offer legendary food and legendary service to every guest that walks in the door. Each guest is greeted with friendly waitstaff, all you can eat peanuts, and the amazing Fresh-Baked Bread with homemade honey cinnamon butter&nbsp;...Texas Roadhouse Inc.  Moves Higher on Volume Spike for March 17 - Equities.comShort Interest in Texas Roadhouse Inc  Rises By 28.0% - Chaffey Breeze"
p1
aS"Why Texas Roadhouse, Inc. Stock Got Slaughtered Today Motley Fool - Feb 22, 2017 Shares of Texas Roadhouse, Inc.  were getting chopped today after the steakhouse chain turned in a disappointing fourth-quarter earnings report.Texas Roadhouse is taking a dive on Wall Street  here's why - Louisville Business FirstTexas Roadhouse Inc  Stock Tanks on Q4 Earnings Miss - Investorplace.com"
p2
aS"Texas Roadhouse Gets Crushed By High Expectations Seeking Alpha - Feb 27, 2017 I was a long time bull on Texas Roadhouse  because it seemed to have taken the market a long time to figure out that a tremendous growth story was in play.Can Texas Roadhouse Stock Bounce Back After Last Week's 12% Drop? - Motley FoolGuess Who Picked Up Texas Roadhouse Inc.  Shares - Small Cap Exclusive "
p3
aS'Share Watch: Examining the Levels for Texas Roadhouse, Inc.  Rives Journal - 17 hours ago Texas Roadhouse, Inc.  has an EV  of 3120344. Enterprise Value measures the complete value of a specific company.'
p4
aS'Analysts Near-Term outlook: Uni-Pixel, Inc. , Texas Roadhouse, Inc.  The USA Commerce - 17 hours ago Latest closing price was -34.31% below its 50-day moving average and -41.90% below its 200-day moving average. On 03/21/2017 close, Texas Roadhouse, Inc.  plummeted -1.50% to $43.26. The stock currently has a Market Cap of $3.06B&nbsp;...'
p5
aS'Can Texas Roadhouse Inc  Continue its Near-Term Run? Business Review - 13 hours ago Over the past five sessions, Texas Roadhouse Inc  has pulled in nice gains, moving higher 5.33% over the past five sessions.'
p6
aS"Trading Scope: Checking the Levels for Texas Roadhouse Inc  The Standard - 13 hours ago Currently, Texas Roadhouse Inc 's Williams Percent Range or 14 day Williams %R is resting at -34.91. Values can range from 0 to -100."
p7
aS'Traders Take Note: Texas Roadhouse Inc  Stock Drops, Weakness in ... CML News - 17 hours ago Take Note: Texas Roadhouse Inc  has hit some technical weakness in its momentum, and while it has not broken down all the way through support -- watch the key levels that we discuss below and further, watch the stochastics and technical&nbsp;...'
p8
aS'Risk Malaise Alert in Option Market: Texas Roadhouse Inc Implied Price Swing ... CML News - Mar 20, 2017 Before we dive into any analysis we simply note that Texas Roadhouse Inc  risk is actually priced pretty low by the option market as of right now.'
p9
aS"Texas Roadhouse Blowing Smoke To Delay Bias Retrial: EEOC Law360  - Mar 9, 2017 Law360, New York  -- The Equal Employment Opportunity Commission shot back in Massachusetts federal court on Wednesday at Texas Roadhouse Inc.'s bid to delay an upcoming retrial in an age-discrimination suit because of&nbsp;..."
p10
a.