(lp0
S'Union Bankshares Corporation Announces Pricing of Subordinated Notes Offering GlobeNewswire  - Dec 1, 2016 RICHMOND, Va., Dec. 01, 2016  -- Union Bankshares Corporation , the parent company of Union Bank &amp; Trust , today announced the pricing of its public offering of $150 million of its Fixed-to-Floating Rate&nbsp;...'
p1
aS'Asbury begins as new CEO of Union Bankshares Corp. Richmond.com - Jan 4, 2017 John C. Asbury is the new CEO of Union Bankshares Corp., the Richmond-based holding company for Union Bank &amp; Trust. The appointment, effective Monday, had been announced in August.New CEO takes over at Union Bankshares - Virginia Business Magazine'
p2
aS'Union Bankshares Corporation to Present at Keefe, Bruyette &amp; Woods 2016 ... GlobeNewswire  - Jul 26, 2016 RICHMOND, Va., July 26, 2016  -- Union Bankshares Corporation today announced that G. William Beale, President and CEO, and Robert M. Gorman, EVP and CFO, will present at the Keefe, Bruyette &amp; Woods 2016 Community Bank&nbsp;...'
p3
aS"Union Bankshares Corporation Announces Share Repurchase Authorization PR Newswire  - Nov 3, 2015 RICHMOND, Va., Nov. 3, 2015 /PRNewswire/ -- Union Bankshares Corporation  today announced that its Board of Directors has authorized a share repurchase program to purchase up to $25 million worth of the Company's common stock on&nbsp;..."
p4
aS'Union Bankshares Corporation  Moves Lower on Volume Spike for March 17 Equities.com - Mar 17, 2017 Union Bankshares Corporation  traded on unusually high volume on Mar. 17, as the stock lost 0.06% to close at $36.10.'
p5
aS'Union Bankshares Heads Deeper Into The Stratosphere Seeking Alpha - Feb 7, 2017 Union Bankshares  has been a model of profitable growth for community banks over the last several years. This company is extremely well run, and it shows in its ever-rising profit numbers.'
p6
aS"What The Planned Supermarket Merger Means For Union Bankhares Seeking Alpha - Jun 29, 2016 It was just confirmed this week that multiple locations of Union Bankshares Corp's  Union Bank and Trust locations would be shutting their doors by the end of September."
p7
aS'Form 8-K Union Bankshares Corp For: Feb 20 StreetInsider.com - Feb 22, 2017 On February 20, 2017, Union Bankshares Corporation issued a press release announcing that John C. Asbury, president and CEO, and Robert M. Gorman, executive vice president and CFO, will present at the Raymond James 38th Annual Institutional&nbsp;...Union Bankshares Corp  Position Maintained by Bessemer Group Inc. - BNB Daily Bogle Investment Management LP DE Has $1833000 Stake in Union Bankshares Corp ... - The Cerbat Gem'
p8
aS'John Neal To Retire as President of Union Bank &amp; Trust PR Newswire  - Sep 30, 2015 &quot;If you were to look up the definition of a true community banker, you would most likely find a picture of John Neal as an example,&quot; said G. William Beale, president and CEO of Union Bankshares Corporation. &quot;Through his contacts and reputation for ...'
p9
aS'Baird Financial Group Inc. Reduces Stake in Union Bankshares Corp  BNB Daily  - Mar 6, 2017 Union Bankshares Corp logo Baird Financial Group Inc. lowered its position in Union Bankshares Corp  by 24.5% during the fourth quarter, according to its most recent filing with the Securities and Exchange Commission .Stock Returns: Union Bankshares Corporation  is Beating ... - CML NewsUnion Bankshares Corp - Receive News &amp; Ratings Daily - BBNS'
p10
a.