(lp0
S'United Community Financial Corp.  Moves Lower on Volume Spike for March 21 Equities.com - Mar 21, 2017 United Community Financial Corp.  traded on unusually high volume on Mar. 21, as the stock lost 1.99% to close at $8.39.'
p1
aS'United Community Financial Corp.  Ex-Dividend Date Scheduled for ... Nasdaq - Feb 7, 2017 United Community Financial Corp.  will begin trading ex-dividend on February 08, 2017. A cash dividend payment of $0.03 per share is scheduled to be paid on February 22, 2017.'
p2
aS'Traders Take Note: United Community Financial Corp.  Stock Drops ... CML News - 17 hours ago Take Note: United Community Financial Corp.  has hit some technical weakness in its momentum, and while it has not broken down all the way through support -- watch the key levels that we discuss below and further, watch the stochastics&nbsp;...'
p3
aS'United Community Financial Corp. to Expand Akron and Canton Ohio Presence with ... Business Wire  - Sep 8, 2016 YOUNGSTOWN, Ohio----United Community Financial Corp.  , a $2.1 billion financial services institution headquartered in Youngstown, Ohio, parent of The Home Savings and Loan&nbsp;...'
p4
aS'Chart Watch: Checking on Shares of United Community Financial Corp  Baxter Review - 14 hours ago Technical traders have a large inventory of technical indicators they may use when doing technical stock analysis. After a recent look, the 14-day ATR for United Community Financial Corp  is resting at 0.18. First developed by J. Welles Wilder ...'
p5
aS'Insider Trading Activity United Community Financial Corp (NASDAQ:UCFC ... Market Exclusive - Mar 15, 2017 On 5/17/2013 Timothy Esson, CFO, sold 1,752 with an average share price of $3.74 per share and the total transaction amounting to $6,552.48.Zacks Investment Research upgraded United Community Financial Corp (NASDAQ ... - Breaking Finance News'
p6
aS'The United Community Financial Corp  Upgraded by Zacks Investment ... Petro Global News 24 - Mar 21, 2017 Zacks Investment Research upgraded shares of United Community Financial Corp  from a sell rating to a hold rating in a report published on Wednesday.United Community Financial Corp  Position Boosted by Renaissance ... - Chaffey BreezeMethanex  Sector Perform Rating Reaffirmed by Scotia Capital; The ... - HuronReport'
p7
aS'United Community Financial Corp.  Moves Higher on Volume Spike for March 17 Equities.com - Mar 17, 2017 United Community Financial Corp.  traded on unusually high volume on Mar. 17, as the stock gained 0.12% to close at $8.65.The United Community Financial Corp  Director Richard J. Schiraldi ... - Petro Global News 24Zacks Investment Research Upgrades United Community Financial Corp  to ... - The Cerbat Gem'
p8
aS'United Community Financial Corp.  Stock Technicals Hit Weakness CML News - Mar 14, 2017 This is a technical analysis stock rating for United Community Financial Corp.  . The company has a two bull technical rating which indicates some weakness.United Community Financial Corp.  Short interest At 190172 - Markets DailyRichard Schiraldi an Insider in United Community Financial , Invested in ... - Wolcott Daily'
p9
aS'The United Community Financial Corp  Upgraded at Zacks Investment Research Petro Global News 24 - Mar 20, 2017 Zacks Investment Research upgraded shares of United Community Financial Corp  from a sell rating to a hold rating in a research report released on Wednesday morning.Insider Buying: United Community Financial Corp  Director Buys $42500.00 ... - The Cerbat GemUnited Community Financial Corp - Receive News &amp; Ratings Daily - BBNS'
p10
a.