(lp0
S"Universal Electronics Inc  Rating Reiterated by B. Riley The Cerbat Gem - 13 hours ago Universal Electronics logo Universal Electronics Inc 's stock had its buy rating restated by B. Riley in a research note issued to investors on Wednesday.The Universal Electronics Inc  Upgraded by TheStreet to B- - Petro Global News 24Envestnet Asset Management Inc. Buys 175 Shares of Universal Electronics Inc ... - BNB Daily "
p1
aS'Universal Electronics Initiated With Buy Rating At Lake Street Capital Benzinga - Aug 18, 2016 Lake Street initiated coverage on Universal Electronics Inc  with Buy Rating and $87 price target. The analysts believe the company is well-positioned to see sustained top- and bottom-line growth as it benefits from cable and satellite&nbsp;...'
p2
aS'Universal Electronics Inc.  Moves Higher on Volume Spike for March 17 Equities.com - Mar 17, 2017 Universal Electronics Inc.  traded on unusually high volume on Mar. 17, as the stock gained 2.02% to close at $68.05.Universal Electronics Inc  Position Maintained by Public Sector Pension ... - Community Financial News'
p3
aS'Universal Electronics Inc.  Moves Lower on Volume Spike for January 27 Equities.com - Jan 27, 2017 Universal Electronics Inc.  traded on unusually high volume on Jan. 27, as the stock lost 3% to close at $59.75. On the day, Universal Electronics Inc. saw 152,792 shares trade hands on 1,478 trades. Considering that the stock averages only a ...'
p4
aS'A New Kind of Stock Chart: Universal Electronics Inc  Critical ... CML News - Mar 20, 2017 This is a real time view of the critical technical pivot points for Universal Electronics Inc  . The technical pivot points we look at all surround the stock price movement from the last 10-trading days through the last year.'
p5
aS'BRIEF-Universal Electronics Q4 adjusted EPS $0.70 Reuters - Feb 16, 2017 BRIEF-Universal Electronics Q4 adjusted EPS $0.70 ... TOKYO, Feb 17 Toshiba Corp on Friday said it would buy 3 percent of U.S.'
p6
aS'Could Universal Electronics Inc  be actually undervalued when we account ... Simply Wall St - Feb 16, 2017 Universal Electronics is available at price to earnings ratio of 34.8x, showing us it is overvalued when compared to the US market average of 25.5x and overvalued based on current earnings compared to the Consumer Products industry average of 22.6x .'
p7
aS'Universal Electronics Signs Warrants Agreement with Comcast Business Wire  - Mar 9, 2016 SANTA ANA, Calif.----Universal Electronics Inc.   today announced it has entered into a warrants agreement with Comcast Corporation as an extension of its partnership in developing advanced technology products with&nbsp;...Comcast signs warrants agreement with X1 voice remote maker Universal Electronics - FierceCableUEI, Comcast Sign Warrants Agreement - Multichannel News'
p8
aS'Universal Electronics Reports Fourth Quarter and Year-End 2016 Financial Results Business Wire  - Feb 16, 2017 Adjusted Non-GAAP diluted earnings per share attributable to Universal Electronics Inc. is calculated using Adjusted Non-GAAP net income.'
p9
aS'Brokerages Set Universal Electronics Inc  Price Target at $75.38 Chaffey Breeze - Mar 12, 2017 Universal Electronics logo Shares of Universal Electronics Inc  have been given a consensus rating of Buy by the six analysts that are presently covering the stock.Brokerages Set Universal Electronics Inc  Target Price at $75.38 - Sports PerspectivesReviewing Individual Broker Targets Of Universal Electronics Inc.  - NewsDen'
p10
a.