(lp0
S"US Energy Corp  in the Spotlight After Gaining 8.86% Business Review - 14 hours ago Shares of US Energy Corp  have seen strong upward momentum over the past week as they have moved higher 8.86% over the past five sessions, placing them on this week's winners list."
p1
aS'Checking the Levels for US Energy Corp.  Searcy News - 5 hours ago Taking a look at shares of U.S. Energy Corp. , the stock has a Value Composite Score of 83. Based on a scale from 0 to 100, a score near zero would indicate an undervalued company and a higher score would signal an expensive or&nbsp;...'
p2
aS'US ENERGY CORP.  Files An 8-K Departure of Directors or Certain ... Market Exclusive - Mar 6, 2017 On February 28, 2017, Stephen V. Conrad announced his retirement and resignation from the Board of Directors of U.S. Energy Corp.  effective March 3, 2017. Item 8.01 Other Events. On February 1, 2017, the Company and BP Energy ,&nbsp;...'
p3
aS'Mover inside Traders Radar: US Energy Corp.  Is stories - Feb 24, 2017 US Energy Corp. is a natural resource exploration and development company which primary focus on the exploration and development of oil and gas assets.Should You Buy US Energy Corp.  On Current Analyst Views? - Fiscal Standard'
p4
aS'To Buy Or Sell US Energy Corp.  On Latest Analyst Consensus Fiscal Standard - Mar 20, 2017 U.S. Energy Corp.  is an independent energy company focused on the acquisition and development of oil and gas producing properties in the continental United States.US Energy Corp.  Quarterly EBIT Margin At -47.8843% - Enterprise Leader'
p5
aS'Next Weeks Broker Price Targets For US Energy Corp.  Fiscal Standard - Mar 17, 2017 U.S. Energy Corp.  is an independent energy company focused on the acquisition and development of oil and gas producing properties in the continental United States.Chesapeake Energy Corporation  Closed the Last Trading Session at $5.45 - Normangee Star'
p6
aS'OPEC May Soon Declare War on Baytex Energy Corp. The Motley Fool Canada - 16 hours ago ... oil production in the United States, which is poised to be strong both this year and next. Investors assumed production would go down as the price went lower, and it happened.'
p7
aS"Exxon's $20 Billion Spending Plan Points to US Energy Surge Wall Street Journal  - Mar 6, 2017 HOUSTONExxon Mobil Corp. plans to spend about $20 billion on refineries, petrochemical plants and other projects in and around the Gulf of Mexico, Chief Executive Darren Woods said Monday, underscoring how the giants of the global energy industry&nbsp;..."
p8
aS'US energy stocks, darlings last year, stumble in 2017 Reuters - Mar 5, 2017 Energy outdid all other sectors last year, up nearly 24 percent thanks to a late-year rally on anticipation that impending production cuts from major oil producers would lift crude prices and after the election of Donald Trump as U.S. president spurred ...'
p9
aS"Enbridge cuts 1000 jobs in wake of Spectra Energy takeover Canoe - 14 hours ago Enbridge company logos on display at the company's annual meeting in Calgary, Thursday, May 12, 2016. Enbridge Inc. of Calgary plans to buy Houston-based Spectra Energy Corp. for stock worth $37 billion.Enbridge Cuts 1000 Jobs Following Takeover of Spectra in US - BloombergEnbridge sheds 1000 jobs after takeover of Spectra Energy - CBC.ca"
p10
a.