(lp0
S"Earnings Clues on Hersha Hospitality Trust , USG Corporation  Analyst ... StockNewsJournal - 18 hours ago USG Corporation , maintained return on investment for the last twelve months at 5.87, higher than what Reuters data shows regarding industry's average."
p1
aS"Equity Perception: Analyst's Indicator Review for USG Corporation (USG ... The USA Commerce - 17 hours ago Presently USG Corporation  stock have an ABR of 2.36. This is built on a simplified 1 to 5 scale where 1 represents a Strong Buy and 5 a Strong Sell."
p2
aS"USG Corporation Unveils the World's Most Sustainable Wallboard Business Wire  - Mar 14, 2017 Scientists at USG's Corporate Innovation Center developed new gypsum core chemistries and a manufacturing process to reduce 20 percent of carbon dioxide emissions and decrease water usage by 25 percent."
p3
aS"Trade of the Day: USG Corporation  Investorplace.com - Feb 27, 2017 Today, we're opening a new bullish trade on USG Corporation . We are stepping into this trade following the surprising housing data and Toll Brothers 's earnings last week.Stock Returns: USG Corporation  is Beating Trex Company Inc  - CML NewsUSG Corporation  Recent Ownership Changes - Post Analyst"
p4
aS'Stock Watch: Checking the Levels on Shares of USG Corporation  Rives Journal - 13 hours ago Tracking shares of USG Corporation , the company has a current EV  of 5823963. Enterprise Value measures the total value of a specific company.'
p5
aS"USG Corporation's Lynn Hancock Named 2017 STEP Ahead Award Honoree by The ... Yahoo Finance - Mar 3, 2017 USG Corporation , an industry leading manufacturer of building products and innovative solutions, is proud to announce that Lynn Hancock, Director of Advanced Manufacturing and Director of Enterprise Project Management Organization , has&nbsp;..."
p6
aS"USG Corporation's Richard C. Master Elected to the 2017 American Institute of ... Yahoo Finance - Feb 28, 2017 USG Corporation , an industry-leading manufacturer of building products and innovative solutions, is pleased to announce that the American Institute of Architects  has inducted USG's Richard  C. Master, Senior Manager of Sustainability ..."
p7
aS'USG Corporation  Moves Lower on Volume Spike for March 07 Equities.com - Mar 7, 2017 USG Corporation  traded on unusually high volume on Mar. 07, as the stock lost 2.47% to close at $32.76. On the day, USG Corporation saw 2.77 million shares trade hands on 14,146 trades. Considering that the stock averages only a daily volume of&nbsp;...USG Corporation  loses confidence of 36 hedge fund managers - Post AnalystSizling Stock Update: USG Corporation  - HugoPress'
p8
aS'Price Alert: USG Corporation  Stock Nears Resistance -- Technicals ... CML News - Mar 19, 2017 Price Alert: USG Corporation  has now crossed into technical strength -- watch the technical oscillators for momentum gaps.'
p9
aS"Long Term Growth Stock in Review: USG Corporation  Aiken Advocate - 8 hours ago Shaers of USG Corporation  have been recommended as a long term growth pick according to Beta Research. With the firm's stock price currently trading around $33.12, the firm has proven a solid track record of growth over the past few years."
p10
a.