(lp0
S'Seven Generations Energy Ltd The Globe and Mail - Oct 31, 2014 Seven Generations Energy Ltd closed lower Wednesday, dropping $0.19 or 0.85% to $22.29. Over the last five days, shares have lost 5.31% and are down 28.81% for the last year to date.'
p1
aS"Seven Generations Energy considers moving beyond gas into plastics, power Calgary Herald - Jun 28, 2016 Being a fast-growing supplier of low-cost natural gas only gets a producer so far in a shrinking market. It's that reality that has Canada's Seven Generations Energy Ltd. looking beyond resource extraction. The Calgary-based company is seeking options ..."
p2
aS'Seven Generations buying Paramount assets for $1.9-billion The Globe and Mail - Jul 6, 2016 Seven Generations Energy Ltd. is taking advantage of the industry downturn to buy assets from Paramount Resources Ltd. for $1.9-billion, vastly increasing its land holdings in the prolific Montney natural gas region of Alberta.Seven Generations Buys Alberta Shale Assets From Paramount - Bloomberg'
p3
aS'Seven Generations Energy improving well performance and growth Energeticcity.ca - Jan 24, 2017 In the update, they say growth is expected in 2017 and is underpinned by a plan that is built on continued strong well performance that is meeting or exceeding well production.'
p4
aS'Why Seven Generations Energy Ltd  Delivered An Inferior ROE Compared ... Simply Wall St - Mar 8, 2017 With a ROE of 1.8%, Seven Generations Energy Ltd  could hardly match the performance of its industry, which averaged a ROE of 7.14%.'
p5
aS"Seven Generations Energy Ltd. Announces Continued Production Growth and ... Canada NewsWire  - Jan 12, 2015 12, 2015 /CNW/ - Seven Generations Energy Ltd.   is pleased to provide an update to its shareholders through a management interview.Seven Generations defies oil rout, won't cut spending - The Globe and MailSeven Generations confirms $1.6B spending plan - Calgary Herald"
p6
aS'Why Seven Generations Energy CEO Pat Carlson is taking the long view and ... Financial Post - Jun 24, 2016 Chris Bolin for National PostSeven Generations Energy CEO Pat Carlson. As its Iroquois-inspired name implies, Seven Generations takes a very long view and is driven by unusual goals for a fracker - to benefit society and to ensure the environment is&nbsp;...'
p7
aS'Seven Generations price cut on production miss: BMO Financial Post - Jan 9, 2017 Seven Generations Energy Ltd. had its target price cut at BMO Capital Markets after it missed the mark on production amid completion delays.'
p8
aS"Stock Watch: Tracking the Levels for Seven Generations Energy Ltd.  Piedmont Register - 16 hours ago Tracking volatility data, Seven Generations Energy Ltd. 's 12 month volatility is currently 32.576900. The 6 month volatility is 35.188200, and the 3 month is noted at 38.488100."
p9
aS"Seven Generations IPO Raises $723 Million as Oil Slumps Bloomberg - Oct 29, 2014 Seven Generations Energy Ltd. sold C$810 million  in an initial public offering yesterday, pricing shares at the lower end of a targeted range after energy prices slumped, people familiar with the sale said.Canada's Seven Generations Energy Raises C$810 Million in IPO - Wall Street Journal"
p10
a.