(lp0
S"Why Vera Bradley, Inc. Stock Plunged Today Motley Fool - Dec 7, 2016 More specifically within Vera Bradley's top line, direct segment revenue climbed 2.3% year over year, to $86.1 million, as new store growth more than offset a 5% decline in comparable sales, while indirect segment revenue fell 4.6%, to $40.6 million ...Vera Bradley Shares Drop as Company Slashes Outlook - Wall Street Journal"
p1
aS'Vera Bradley Inc. Q2 Earnings Highlight Brand Transformation Motley Fool - Sep 9, 2016 Vera Bradley  released its fiscal 2017 second quarter earnings on Sept. 1, and its stock is up double digits since the report.'
p2
aS'Vera Bradley Gives Downbeat Outlook for Year Ahead Wall Street Journal  - Mar 8, 2017 Vera Bradley Inc. gave a soft forecast for revenue and profit this year as the handbag retailer Wednesday reported a 12% drop in revenue for the latest quarter.Vera Bradley closing stores - Fort Wayne Journal GazetteVera Bradley Profit Dips, Plans Store Closings - Inside INdiana Business'
p3
aS'Why Did Vera Bradley Inc. Shares Drop Nearly 13% in May? Motley Fool - Jun 6, 2016 Vera Bradley  shares declined steadily in May as investors fretted over their expectations for its first quarter fiscal 2017 results.'
p4
aS"Why Vera Bradley, Inc. Dropped Nearly 14% in April Motley Fool - May 5, 2016 Vera Bradley  released its annual report at the end of March, which sent its stock plunging downward. What: Even though it merely confirmed what had already been reported in the company's Q4 earnings report, the release of the handbag,&nbsp;..."
p5
aS"Why Vera Bradley, Inc. Stock Fell 25.9% in 2016 Motley Fool - Jan 16, 2017 Vera Bradley's stock had a great start in 2016, climbing more than 30% to a fresh 52-week high by the beginning of April, as analysts applauded the fashion accessory company's compelling product line and its improving profitability (despite continued&nbsp;..."
p6
aS'What Investors Need to Know After the Vera Bradley Security Breach Motley Fool - Oct 25, 2016 Vera Bradley  announced on Oct. 12 that its payment system was breached. Payment cards used at Vera Bradley store locations between July 25 and Sept. 23 may have been affected. Besides the potential theft of customer information, the&nbsp;...'
p7
aS'Vera Bradley, Inc.  Major Shareholder Sells $323750.00 in Stock BNB Daily  - 18 hours ago Vera Bradley logo Vera Bradley, Inc.  major shareholder Michael C. Ray sold 35,000 shares of the stock in a transaction on Thursday, March 16th.Hot Stocks Among Investors: Vera Bradley, Inc. , Emerge Energy Services ... - Post AnalystThe Michael C. Ray Sells 35000 Shares of Vera Bradley, Inc.  Stock - Petro Global News 24'
p8
aS'Earnings Reaction History: Vera Bradley, Inc., 60.0% Follow-Through Indicator ... Nasdaq - Mar 8, 2017 Vera Bradley, Inc.  is due to issue its quarterly earnings report in the upcoming extended-hours session. Given its history, traders can expect light trading in the issue immediately following its quarterly earnings announcement.'
p9
aS'Vera Bradley - Soon To Be Best In Class Seeking Alpha - Dec 6, 2016 Vera Bradley, Inc.  is an affordable, functional, and innovate brand that designs fashionable feminine products ranging from wallets to bedding.'
p10
a.