(lp0
S'ASPiRA LABs Announces Contracted In-Network Agreement with Blue Cross Blue ... PR Newswire  - Mar 1, 2017 &quot;We are pleased to announce our Blue Cross Blue Shield of Michigan agreement for OVA1 ,&quot; said Valerie Palmieri, President and CEO of Vermillion, Inc. &quot;We continue to execute on our managed care strategy, which has direct impact on access for&nbsp;...'
p1
aS'Vermillion, Inc.  Pops Higher on New Investment The Oracle Dispatch - Feb 18, 2017 Vermillion, Inc.  is a diagnostics firm with strong growth on the top line in its latest reports. The stock has started to rip higher recently.Vermillion, Inc.  Insider Acquires $864823.40 in Stock - The Cerbat GemValerie Barber Palmieri Purchases 10042 Shares of Vermillion, Inc.  Stock - Sports Perspectives'
p2
aS'Price Alert: Vermillion Inc  Stock Nears Resistance -- Technicals ... CML News - Mar 20, 2017 Price Alert: Vermillion Inc  has now crossed into technical strength -- watch the technical oscillators for momentum gaps.'
p3
aS'Vermillion Announces FDA Clearance of Overa, Second Generation OVA1 Test PR Newswire  - Mar 21, 2016 AUSTIN, Texas, March 21, 2016 /PRNewswire/ -- Vermillion, Inc. , a bio-analytical solutions company focused on gynecologic disease, announced today the receipt of 510 marketing clearance from the U.S.'
p4
aS"Given Its Low Debt-Load, Is Vermillion Inc  A Financially Sound Company? Simply Wall St - Mar 4, 2017 Vermillion Inc , with a market capitalization of USD $137 Million, is considered a small-cap company. Although such businesses are the ones which could grow the most, they are also highly prone to a downturn in the country's economy or&nbsp;..."
p5
aS"Vermillion and ASPiRA LABs Applaud the FDA's Position on Ovarian Cancer Screening PR Newswire  - Sep 9, 2016 Vermillion, Inc. is dedicated to the discovery, development and commercialization of novel high-value diagnostic and bio-analytical solutions that help physicians diagnose, treat and improve gynecologic health outcomes for women."
p6
aS'Vermillion Inc  Pushes Higher into Overbought RSI Range Business Review - Mar 19, 2017 Checking on current RSI levels on shares of Vermillion Inc , the 14-day RSI is currently standing at 82.91, pushing the stock into overbought territory.'
p7
aS'Vermillion to Showcase Comparison of Overa and ROMA Algorithms at ACOG ... PR Newswire  - May 16, 2016 AUSTIN, Texas, May 16, 2016 /PRNewswire/ -- Vermillion, Inc. , a bio-analytical solutions company today announced positive top line results from a study entitled, &quot;Clinical Performance Comparison of Two IVDMIAs for Pre-Surgical&nbsp;...'
p8
aS'Research Brokerage Consensus Buys: First Internet Bancorp (NASDAQ:INBK ... Davidson Register - 10 hours ago Brokerage firms currently have a positive stance on shares of First Internet Bancorp . The majority of analysts covering the equity have either a Buy or Strong Buy recommendation on the stock, yielding a consensus score of 1.80.'
p9
aS'Company Watch: Checking the Numbers for Vermillion Inc  Rives Journal - Mar 17, 2017 Vermillion Inc  presently has a 14-day Commodity Channel Index  of -103.59. The CCI was created to typically stay within the reading of -100 to +100.'
p10
a.