(lp0
S'Vestin Realty Mortgage II, Inc. Announces Intent to Voluntarily Delist and ... PR Newswire  - Mar 8, 2017 LAS VEGAS, March 8, 2017 /PRNewswire/ -- Vestin Realty Mortgage II, Inc.   announced today that it has notified the Nasdaq Stock Market of its intent to voluntarily delist its common stock from the Nasdaq Capital Market,&nbsp;...'
p1
aS"Vestin Realty Mortgage I, Inc. Announces Last Day of Trading on Nasdaq GlobeNewswire  - Dec 24, 2015 LAS VEGAS, Dec. 24, 2015  -- As previously announced, Vestin Realty Mortgage I, Inc.   is in the process of voluntarily delisting the Company's common stock  from Nasdaq and&nbsp;..."
p2
aS'Technicals in Focus for Vestin Realty Mortgage II Inc  Midway Monitor - 8 hours ago Investors are paying close attention to shares of Vestin Realty Mortgage II Inc . A popular tool among technical stock analysts is the moving average.'
p3
aS'Stock Update: Technicals in View for Vestin Realty Mortgage II Inc  Rives Journal - Mar 21, 2017 Vestin Realty Mortgage II Inc  has a 14-day Commodity Channel Index  of -8. The CCI was designed to typically remain within the reading of -100 to +100.'
p4
aS'Vestin real estate lenders settle investor lawsuits Las Vegas Sun - Sep 10, 2010 The settlements were disclosed today by Shustek, Vestin Realty Mortgage I Inc., Vestin Realty Mortgage II Inc. and Vestin Mortgage Inc. The suits were filed in 2006 and 2007 by investor groups led by Kenneth Klaas, Tom Sirintr and Spectrum Capital LLC.'
p5
aS'BRIEF-Vestin Realty Mortgage II announces intent to voluntarily delist Reuters - Mar 26, 2013 COLOMBO, March 9 Sri Lankan shares fell for a third straight session on Thursday, posting their lowest close in a month, dragged down by diversified stocks such as John Keells Holdings Plc as investor sentiment continued to remain low on concerns about&nbsp;...'
p6
aS'Are Cagey Traders Interested in Vestin Realty Mortgage II, Inc. ? Morgan Research - 9 hours ago Vestin Realty Mortgage II, Inc.  shares are on our watchlist today as the stock has moved 1.98% from the recent close, pricing at $2.57 at the time of press.'
p7
aS"Top Positive Mover Inside Traders Spotlight: Vestin Realty Mortgage II, Inc.'s ... WsNews 4investors - Mar 13, 2017 Vestin Realty Mortgage II, Inc.  stock price escalated 5.71% to finalize at $2.59 throughout previous buying and selling session."
p8
aS'Eye-Catching Watch List: AK Steel Holding Corporation , Vestin ... KC Register - Mar 13, 2017 AK Steel Holding Corporation  applauded the unanimous decision by the U.S. International Trade Commission  that the U.S.'
p9
aS'JC Penney  Reveals 138 Locations It Will Close This Year- Vestin ... Seneca Globe - Mar 20, 2017 J.C. Penney Company, Inc. jumped down -2.76% during the previous trading session. J.C. Penney  shoppers across the U.S.'
p10
a.