(lp0
S'Ventas Announces Pricing of Senior Notes Business Wire  - 10 hours ago CHICAGO----Ventas, Inc.   announced today the pricing of the public offering of $400 million aggregate principal amount of 3.10% senior notes due 2023 and $400 million aggregate principal&nbsp;...'
p1
aS"VTR appears to have all of the levers in place to become a top performer, and ... Seeking Alpha - Mar 20, 2017 Also, I'm gearing up for bracketology this week and I'll be providing head-to-head analysis for Ventas and all other healthcare REITs.The Ventas, Inc.  Downgraded by Goldman Sachs Group Inc - Petro Global News 24Zacks Investment Research Lowers Ventas, Inc.  to Sell - BBNS"
p2
aS'Ventas Inc.  Moves Higher on Volume Spike for March 22 Equities.com - 10 hours ago Ventas Inc.  traded on unusually high volume on Mar. 22, as the stock gained 2.76% to close at $62.45. On the day, Ventas Inc. saw 3.78 million shares trade hands on 27,437 trades. Considering that the stock averages only a daily volume of 1.97&nbsp;...Ventas, Inc.  Downgraded to Sell at Zacks Investment Research - Chaffey Breeze'
p3
aS'Ventas: Equity Surrogate For Fixed Income Seeking Alpha - Mar 20, 2017 Ventas, Inc. is a real estate investment trust based in the US and specializes in senior housing and healthcare properties.'
p4
aS'About: Ventas Inc.  Seeking Alpha - Mar 15, 2017 Ventas  is a well position healthcare REIT with solid growth potential. Because its current market price is lower than the present value of its future dividend payments, dividend growth investors should consider buying shares now.The Top Three Holders Of Ventas, Inc.  - Post Analyst'
p5
aS"BRIEF-Ventas Inc says buys medical campus in Rhode Island Reuters - Mar 14, 2017 Reuters is the news and media division of Thomson Reuters. Thomson Reuters is the world's largest international multimedia news agency, providing investing news, world news, business news, technology news, headline news, small business news, news&nbsp;..."
p6
aS'Ventas  Down 2.1% Since Earnings Report: Can It Rebound? Yahoo Finance - 18 hours ago It has been about a month since the last earnings report for Ventas, Inc. VTR. Shares have lost about 2.1% in that time frame, underperforming the market.'
p7
aS'Risk Malaise Alert in Option Market: Ventas Inc Implied Price Swing Hits A ... CML News - 17 hours ago Before we dive into any analysis we simply note that Ventas Inc  risk is actually priced pretty low by the option market as of right now.'
p8
aS"Buy or Sell? Average Brokerage Ratings on Ventas, Inc. , S&amp;P Global Inc ... StockNewsJournal - Mar 21, 2017 Investors who are keeping close eye on the stock of Ventas, Inc.  established that the company was able to keep return on investment at 2.55 in the trailing twelve month while Reuters data showed that industry's average stands at 7.47 and&nbsp;..."
p9
aS'Stock Returns: HCP Inc  versus Ventas Inc  CML News - Mar 20, 2017 This is a snapshot to compare the stock returns for HCP Inc  versus Ventas Inc  . The stock return points we compare look at the last three-months, six-months and twelve-months.'
p10
a.