(lp0
S"Evine Live Inc. Reports Fourth Quarter and Full Year Results Nasdaq - 21 hours ago MINNEAPOLIS, March 22, 2017  -- Evine Live Inc.   today announced results for the fourth quarter ended January 28, 2017.What You Must Know About EVINE Live Inc's  Financial Strength? - Simply Wall StEvine Live tops 4Q profit forecasts - Yahoo Finance"
p1
aS"BRIEF-Evine Live Inc Q4 earnings per share $0.03 Reuters - 20 hours ago OTTAWA, March 22 Canada's federal budget projected a deficit of C$28.5 billion  in 2017-18 falling to C$27.4 billion in 2018-19, Finance Minister Bill Morneau said on Wednesday."
p2
aS"EVINE Live Inc. Announces Changes in Senior Management GlobeNewswire  - Feb 8, 2016 MINNEAPOLIS, Feb. 08, 2016  -- EVINE Live Inc.  today announced that its Board of Directors has appointed Bob Rosenblatt, Chairman of the EVINE Live Board, as interim Chief Executive Officer, effective immediately.Evine Live's turnaround CEO is out as profits continue to fall - Minneapolis Star TribuneEvine Live CEO Mark Bozek leaves after brief tenure - Minneapolis / St. Paul Business Journal"
p3
aS'Evine to Broadcast Live Aboard Cruise Ship GlobeNewswire  - Feb 8, 2017 MINNEAPOLIS, Feb. 08, 2017  -- Evine Live Inc.  , a multiplatform video commerce company (evine.'
p4
aS"Former Sony Music honcho to partner up for Evine Live New York Business Journal - Mar 6, 2017 Former Sony Music boss and Bronx native Tommy Mottola is looking to partner with &quot;a big retailer&quot; for multi-platform video e-commerce company Evine Live Inc. We're in the midst of aligning ourselves with a partner that will be a big strategic move for ...Quarterly EBIT Margin Of EVINE Live Inc.  At -1.371% - Enterprise LeaderEVINE Live Inc.  Receives An Update From Brokers - The De Soto Edge"
p5
aS"Evine Live Inc. Announces Permanent Chief Executive Officer GlobeNewswire  - Aug 18, 2016 MINNEAPOLIS, Aug. 18, 2016  -- Evine Live Inc. , a multiplatform video e-commerce company today announced that Bob Rosenblatt, currently Evine's Chairman of the Board and interim Chief Executive Officer, has been&nbsp;..."
p6
aS'As a rocky year ends, Evine Live makes money and cuts costs, including 45 jobs Minneapolis Star Tribune - Mar 23, 2016 Evine Live Inc. edged back into profitability at the end of a tumultuous fiscal year that, after it finished, led to another management shake-up and job cuts.EVINE Live +7.67% Reveals Net Sales Increase in Q4 and 2015 Year End Reports - Equities.com'
p7
aS'EVINE Live Inc.: Evine Live Inc. to Report Fourth Quarter 2016 Results on ... The Wall Street Transcript - Mar 1, 2017 MINNEAPOLIS, March 01, 2017  -- Evine Live Inc.  , a multiplatform video commerce company (evine.'
p8
aS'Hilfiger, Goldfarb and Mottola Join Forces to Invest in Evine Live WWD - Sep 15, 2016 Evine Live Inc., a multiplatform video e-commerce company, has landed several high-profile investors. The company has forged a definitive agreement to sell $10 million of common stock at $1.68 per share, to investors that include Tommy Hilfiger, Morris&nbsp;...'
p9
aS'Evine Secures Strategic Investment Led By Tommy Hilfiger, Morris Goldfarb and ... GlobeNewswire  - Sep 15, 2016 MINNEAPOLIS, Sept. 14, 2016  -- Evine Live Inc.   announced today the execution of a definitive agreement to sell $10 million of common stock at $1.68 per share, which was priced at a 10&nbsp;...Tommy Hilfiger Among New EVINE Investors - Twin Cities Business MagazineEvine makes deal with investment group that includes Tommy Hilfiger, Tommy Mottola - Minneapolis Star Tribune'
p10
a.