(lp0
S"WageWorks Inc. Sales Jump 22% Motley Fool - Feb 27, 2017 Total revenue jumped 22% year over year to $101.1 million, driven by sales increases in WageWorks' healthcare , commuter , and COBRA  segments.WageWorks Inc.  Moves Higher on Volume Spike for February 27 - Equities.comWageworks Inc  Upgraded to Hold by Zacks Investment Research - BNB Daily "
p1
aS'WageWorks Inc.  Moves Lower on Volume Spike for March 21 Equities.com - Mar 21, 2017 WageWorks Inc.  traded on unusually high volume on Mar. 21, as the stock lost 2% to close at $78.25. On the day, WageWorks Inc. saw 397,329 shares trade hands on 2,933 trades. Considering that the stock averages only a daily volume of 204,134&nbsp;...'
p2
aS'WageWorks Inc. Sees Strong Growth Across All Core Business Lines Motley Fool - Aug 18, 2016 WageWorks  saw its second-quarter sales rise as the manager of consumer-directed benefits -- such as flexible spending accounts, health savings accounts, and commuter benefit services -- continues to take share in its core markets.'
p3
aS"Acquisitions to Fuel Growth at WageWorks Inc. Motley Fool - Nov 11, 2016 WageWorks  reported third-quarter results on Nov. 9. The administrator of consumer-directed benefits is enjoying strong organic growth in its main business lines, while also using acquisitions to further expand its customer base.WageWorks'  CEO Joe Jackson on Q3 2016 Results - Earnings Call Transcript - Seeking Alpha"
p4
aS"Fast Growing WageWorks Beats Wall Street Expectations Seeking Alpha - Feb 24, 2016 HR and Employee Benefits provider WageWorks  recently reported a sales revenue of $334.3 million for 2015, a 25% increase Y/Y - beating Wall Street's expectation."
p5
aS'WageWorks Partners with Uber to Offer Pre-Tax Commuter Benefits for uberPOOL GlobeNewswire  - Aug 30, 2016 SAN MATEO, Calif., Aug. 30, 2016  -- WageWorks, Inc., a leader in administering Consumer-Directed Benefits , today announced a partnership with Uber that allows Uber riders to pay for uberPOOL rides with their WageWorks&nbsp;...You can now use pretax dollars to pay for UberPool, which is huge - The VergeNow you can pay for Uber with pre-tax commuter dollars - Mashable'
p6
aS"WageWorks Acquires ADP's Consumer Health Spending Account and Consolidated ... GlobeNewswire  - Nov 1, 2016 SAN MATEO, Calif., Nov. 01, 2016  -- WageWorks, Inc. , a leader in administering Consumer-Directed Benefits , today announced it has signed definitive agreements to acquire Automatic Data Processing Inc.'s&nbsp;..."
p7
aS'WageWorks Inc.  Moves Higher on Volume Spike for March 17 Equities.com - Mar 17, 2017 WageWorks Inc.  traded on unusually high volume on Mar. 17, as the stock gained 1.33% to close at $80.20. On the day, WageWorks Inc. saw 372,236 shares trade hands on 1,552 trades. Considering that the stock averages only a daily volume of&nbsp;...Broker Outlook For The Week Ahead WageWorks, Inc.  - Fiscal Standard'
p8
aS'WageWorks, Inc.  Files An 8-K Departure of Directors or Certain ... Market Exclusive - Mar 13, 2017 Item 5.02 Departure of Directors or Certain Officers; Election of Directors; Appointment of Certain Officers; Compensatory Arrangements of Certain Officers.'
p9
aS'Stock Returns: WageWorks Inc  versus Zhaopin Limited  CML News - Mar 20, 2017 This is a snapshot to compare the stock returns for WageWorks Inc  versus Zhaopin Limited  . The stock return points we compare look at the last three-months, six-months and twelve-months.'
p10
a.