(lp0
S'Insider Trading Activity Western New England Bancorp Inc (NASDAQ:WNEB ... Market Exclusive - Mar 21, 2017 On 12/8/2016 Allen J Miles III, VP, bought 3,699 with an average share price of $8.63 per share and the total transaction amounting to $31,922.37.'
p1
aS'WESTERN NEW ENGLAND BANCORP, INC.  Files An 8-K Other Events Market Exclusive - Feb 22, 2017 Western New England Bancorp, Inc., formerly Westfield Financial, Inc., is a Massachusetts-chartered stock holding company. The Company serves as a holding company for Westfield Bank .Insider Trading at Western New England Bancorp? - BBNS'
p2
aS'Westfield Financial, Inc. and Chicopee Bancorp, Inc. Complete MergerCombined ... Business Wire  - Oct 21, 2016 The combined bank will do business under the Westfield Bank name, and the holding company has been renamed Western New England Bancorp, Inc.  with the NASDAQ trading symbol WNEB for trading commencing on October 24, 2016.'
p3
aS'Western New England Bancorp, Inc. Reports Results for the Year Ended December ... Business Wire  - Feb 2, 2017 BUSINESS WIRE)--Western New England Bancorp, Inc.  , the holding company for Westfield Bank , reported net income of $1.9 million, or $0.07 per diluted share, for the quarter ended December 31,&nbsp;...'
p4
aS"Western New England Bancorp Inc  Director Sells $165692.70 in Stock The Cerbat Gem - Mar 21, 2017 Western New England Bancorp logo Western New England Bancorp Inc  Director Paul C. Picknelly sold 15,558 shares of the company's stock in a transaction dated Monday, March 20th."
p5
aS'The Western New England Bancorp Inc  Director Sells $165692.70 in Stock Petro Global News 24 - Mar 21, 2017 Western New England Bancorp Inc  Director Paul C. Picknelly sold 15,558 shares of Western New England Bancorp stock in a transaction dated Monday, March 20th.Western New England Bancorp Inc  Director Paul C. Picknelly Sells 15558 ... - Sports Perspectives'
p6
aS'BRIEF-MHC Mutual Conversion Fund reports a 5.6 pct stake in Western New ... Reuters - Feb 27, 2017 Feb 27 Western New England Bancorp Inc: * MHC Mutual Conversion Fund LP reports a 5.6 percent stake in Western New England Bancorp Inc as of Feb. 24, 2017 Source text:  Further company coverage:&nbsp;...'
p7
aS'Western New England Bancorp Inc  Rating Increased to Buy at Compass Point Chaffey Breeze - Mar 3, 2017 Western New England Bancorp Inc logo Compass Point upgraded shares of Western New England Bancorp Inc  from a neutral rating to a buy rating in a report released on Tuesday morning.FY2017 Earnings Forecast for Western New England Bancorp Inc Issued By FIG ... - The Cerbat GemWestern New England Bancorp Inc  Given Average Recommendation of Buy ... - Sports Perspectives'
p8
aS'Zacks: Western New England Bancorp Inc  Given $9.25 Consensus Price ... The Cerbat Gem - Mar 7, 2017 Western New England Bancorp logo Western New England Bancorp Inc  has been given a consensus broker rating score of 2.33  from the three analysts that provide coverage for the stock, Zacks Investment Research reports.The Zacks Investment Research Upgrades Western New England Bancorp Inc (WNEB ... - DailyQuint'
p9
aS'Paul Picknelly Sold 15558 shares of Western New England Bancorp  in an ... HuronReport - 18 hours ago It was revealed in a public form which was filled with the U.S. SEC that Paul Picknelly, who works for Western New England Bancorp Inc, and currently serves as director made an insider deal on 21/03/2017. He made a sale of 15,558 shares of the&nbsp;...'
p10
a.