(lp0
S'Prairie Mines &amp; Royalty ULC and Westmoreland Coal Company face charges Yahoo Finance - 14 hours ago CALGARY, ALBERTA-- - The Alberta Energy Regulator  has laid three charges against Prairie Mines &amp; Royalty ULC and Westmoreland Coal Company for modifying their mining plan without AER approval and for failing to&nbsp;...Colorado-based Westmoreland Coal charged in Alberta after bulldozer partially ... - Calgary Herald'
p1
aS'Westmoreland Coal Company  Plunges 5.73% on March 22 Equities.com - 9 hours ago Westmoreland Coal Company  had a rough trading day for Wednesday March 22 as shares tumbled 5.73%, or a loss of $-0.84 per share, to close at $13.83.Westmoreland Coal Company  recently sold by insider Mangrove ... - Post AnalystWestmoreland Coal Company  Reaches $13.70 After 9.00% Down Move; 5 ... - HuronReport'
p2
aS"Can Westmoreland Coal Company Outperform its Peers? Market Realist - Feb 29, 2016 As of February 24, 2016, Westmoreland Coal Company's stock has fallen by about 38% in value since the release of its 3Q15 earnings on November 4, 2015."
p3
aS'Westmoreland Coal Company  Plunges 6.64% on March 02 Equities.com - Mar 2, 2017 Westmoreland Coal Company  had a rough trading day for Thursday March 02 as shares tumbled 6.64%, or a loss of $-1 per share, to close at $14.06.'
p4
aS'Westmoreland Coal Company  Moves Higher on Volume Spike for March 16 Equities.com - Mar 16, 2017 Westmoreland Coal Company  traded on unusually high volume on Mar. 16, as the stock gained 0.25% to close at $12.19. On the day, Westmoreland Coal Company saw 479,654 shares trade hands on 3,727 trades. Considering that the stock averages&nbsp;...Westmoreland Reschedules Fourth Quarter and Full Year Earnings Conference Call ... - GlobeNewswire '
p5
aS"Moody's downgrades Westmoreland Coal Company's CFR to Caa1; outlook stable Moodys.com   - Mar 1, 2016 New York, February 29, 2016 -- Moody's Investors Service today downgraded the ratings of Westmoreland Coal Company , including its corporate family rating  to Caa1 from B3, probability of default rating  to Caa1-PD from B3-PD,&nbsp;..."
p6
aS'Westmoreland Coal Company  Moves Lower on Volume Spike for March 03 Equities.com - Mar 3, 2017 Westmoreland Coal Company  traded on unusually high volume on Mar. 03, as the stock lost 2.42% to close at $13.72. On the day, Westmoreland Coal Company saw 436,396 shares trade hands on 3,261 trades. Considering that the stock averages&nbsp;...Westmoreland Coal Company  Reviewed By Analysts - The De Soto Edge'
p7
aS'Westmoreland Coal Company  Moves Lower on Volume Spike for February 24 Equities.com - Feb 24, 2017 Westmoreland Coal Company  traded on unusually high volume on Feb. 24, as the stock lost 2.13% to close at $15.16. On the day, Westmoreland Coal Company saw 416,498 shares trade hands on 3,409 trades. Considering that the stock averages&nbsp;...WESTMORELAND COAL COMPANY  Files An 8-K Non-Reliance on Previously ... - Market ExclusiveWestmoreland Announces Restatement of Previously Issued Financial Statements - GlobeNewswire '
p8
aS'Westmoreland Coal Company Has Lost 86% This Year Market Realist - Dec 23, 2015 Westmoreland Coal Company  reported $1.1 billion in revenues during the first nine months of 2015, substantially up from $806.0 million in the first nine months of 2014.'
p9
aS"Why Are Analysts Rating Westmoreland Coal a 'Buy'? Market Realist - Oct 14, 2016 Among major coal  mining companies, analysts recommend buying Westmoreland Coal Company Primarily because of its unique business model, low production costs, diversified asset base, and secured cash flows from long-term coal supply&nbsp;..."
p10
a.