(lp0
S'White Mountains Insurance Group, Ltd.  Ex-Dividend Date Scheduled for ... Nasdaq - Mar 15, 2017 White Mountains Insurance Group, Ltd.  will begin trading ex-dividend on March 16, 2017. A cash dividend payment of $1 per share is scheduled to be paid on March 29, 2017.Janus Capital Management LLC Has $5351000 Stake in White Mountains Insurance ... - Chaffey BreezeWhite Mountains Insurance Group, Ltd.  Stock Technicals Hit Strength - CML News'
p1
aS'WHITE MOUNTAINS INSURANCE GROUP, LTD.  Files An 8-K Departure of ... Market Exclusive - Mar 6, 2017 On March 1, 2017, Ray Barrette retired as Chief Executive Officer of White Mountains Insurance Group, Ltd.  and as Chairman and a member of the Board of Directors of the Company .The Horizon Kinetics LLC Acquires New Stake in White Mountains Insurance Group ... - DailyQuint'
p2
aS'White Mountains Insurance Group Ltd. MarketWatch - Jul 20, 2009 White Mountains Insurance Group Ltd. NYSE: WTM. GO. Set Alerts &middot; Find a Broker &middot; Join TD Ameritrade &middot; Market Index &middot; Overview Profile News Charts Financials Historical Quotes Analyst Estimates Options SEC Filings Insiders.'
p3
aS'White Mountains Insurance Group Ltd  Cut to Sell at Zacks Investment ... Chaffey Breeze - 12 hours ago White Mountains Insurance Group Ltd  was downgraded by Zacks Investment Research from a strong-buy rating to a sell rating in a research note issued on Wednesday.The GSA Capital Partners LLP Has $453000 Position in White Mountains Insurance ... - Petro Global News 24White Mountains Insurance Group Ltd  has been downgraded to Sell in ... - Breaking Finance News'
p4
aS'OneTitle Announces Investment from White Mountains Insurance Group PR Newswire  - Apr 22, 2015 NEW YORK, April 22, 2015 /PRNewswire/ -- OneTitle National Guaranty Company, Inc.  announced today that White Mountains Insurance Group, Ltd.  has agreed to provide up to $13 million to OneTitle and will take a minority&nbsp;...'
p5
aS"White Mountains Insurance Group Ltd.: White Mountains Reports Fourth Quarter ... The Wall Street Transcript - Feb 7, 2017 7, 2017 /PRNewswire/ -- White Mountains Insurance Group, Ltd.  reported December 31, 2016 book value per share of $790 and adjusted book value per share of $794.Stock within Traders Spotlight: White Mountains Insurance Group, Ltd.'s (WTM ... - WsNews 4investorsWhite Mountains Insurance Group, Ltd.  Position Held by Pax World ... - Community Financial News"
p6
aS'White Mountains Insurance Group Ltd.  Moves Higher on Volume Spike for ... Equities.com - Feb 23, 2017 White Mountains Insurance Group Ltd.  traded on unusually high volume on Feb. 23, as the stock gained 1.54% to close at $934.13.White Mountains Insurance Group, Ltd.  Given Average Recommendation of ... - Community Financial NewsThe Analysts Anticipate White Mountains Insurance Group, Ltd.  to Post $1 ... - Petro Global News 24'
p7
aS'White Mountains Announces Election of Manning Rountree as CEO PR Newswire  - Mar 2, 2017 HAMILTON, Bermuda, March 2, 2017 /PRNewswire/ -- White Mountains Insurance Group, Ltd.  today announced the election of Manning Rountree as Chief Executive Officer, effective immediately, succeeding Ray Barrette, who is retiring.Ray Barrette retires as chief of White Mountains - Business InsuranceZacks: White Mountains Insurance Group Ltd  Given Average Recommendation ... - BNB Daily '
p8
aS'White Mountains Closes $2.6B Sale of Sirius to China Minsheng Investment Insurance Journal - Apr 19, 2016 White Mountains Insurance Group Ltd. completed its $2.6 billion sale of Sirius International Insurance Group to a division of China Minsheng Investment Corp.White Mountains completes $2.6B sale of Sirius International Insurance - Canadian UnderwriterSingapore: CM International Holdings acquires Sirius Group in $2.5b deal - DEALSTREETASIA'
p9
aS'White Mountains Insurance Group Ltd  Receives Average Rating of  from ... Chaffey Breeze - Mar 21, 2017 White Mountains Insurance Group logo Shares of White Mountains Insurance Group Ltd  have been assigned a consensus broker rating score of 0.00  from the one brokers that cover the stock, Zacks Investment Research reports.Dimensional Fund Advisors LP Has $46658000 Position in White Mountains ... - The Cerbat GemState Street Corp Has $50026000 Stake in White Mountains Insurance Group Ltd  - Sports Perspectives'
p10
a.