(lp0
S"YieldBoost XL Group To 10.7% Using Options Nasdaq - Mar 21, 2017 Shareholders of XL Group Ltd  looking to boost their income beyond the stock's 2.2% annualized dividend yield can sell the July covered call at the $41 strike and collect the premium based on the $1.14 bid, which annualizes to an additional&nbsp;..."
p1
aS'XL Group Ltd.  Ex-Dividend Date Scheduled for March 13, 2017 Nasdaq - Mar 10, 2017 XL Group Ltd.  will begin trading ex-dividend on March 13, 2017. A cash dividend payment of $0.22 per share is scheduled to be paid on March 31, 2017.'
p2
aS"XL Group Ltd Announces Retirement of Peter Porrino as Chief Financial Officer ... PR Newswire  - Feb 22, 2017 HAMILTON, Bermuda, Feb. 22, 2017 /PRNewswire/ -- XL Group Ltd   announced today that Group Controller Stephen Robb will succeed Peter Porrino as Chief Financial Officer, following Mr. Porrino's retirement, effective&nbsp;...CFO Moves: XL Group, Community West Bancshares, International Lithium - Wall Street Journal  XL CFO Peter Porrino to retire, successor named - Business Insurance"
p3
aS"Trading Views: Watching Shares of XL Group Ltd  The Standard - 11 hours ago XL Group Ltd 's current 14-day Willams %R value has been spotted at -59.38. Values can span from 0 to -100. A reading between -80 to -100 may be typically viewed as strong oversold territory."
p4
aS'BRIEF-XL Group Ltd announces estimated Ogden Rate change impact Reuters - Mar 1, 2017 BRIEF-XL Group Ltd announces estimated Ogden Rate change impact. March 1 XL Group Ltd. * XL Group Ltd announces estimated Ogden Rate change impact.'
p5
aS'Why Is XL Group  Up 4.3% Since the Last Earnings Report? Nasdaq - Mar 9, 2017 It has been about a month since the last earnings report for XL Group Ltd. XL . Shares have added about 4.3% in that time frame, underperforming the market.'
p6
aS"Equity Focus: Looking at Shares of XL Group Ltd  Sherwood Daily - 17 hours ago XL Group Ltd  presently has a Piotroski F-Score of 6. Piotroski's F-Score uses nine tests based on company financial statements."
p7
aS'Blog Coverage Insurance and Reinsurance Giant XL Group to Buyback $1 Billion ... Yahoo Finance - Feb 21, 2017 LONDON, UK / ACCESSWIRE / February 21, 2017 / Active Wall St. blog coverage looks at the headline from Hamilton, Bermuda based XL Group Ltd.  as the Company announced on February 17, 2017, that its Board of Directors had authorized the&nbsp;...'
p8
aS'Brokerages Set XL Group Ltd.  PT at $40.89 Chaffey Breeze - 19 hours ago XL Group logo Shares of XL Group Ltd.  have been assigned an average rating of Hold from the fourteen research firms that are currently covering the firm.'
p9
aS"Long Term Growth Stock in Review: XL Group Ltd  Aiken Advocate - 9 hours ago Shaers of XL Group Ltd  have been recommended as a long term growth pick according to Beta Research. With the firm's stock price currently trading around $40.11, the firm has proven a solid track record of growth over the past few years."
p10
a.