(lp0
S"BRIEF-Zion Oil And Gas Inc files for mixed shelf of upto $102.4 mln Reuters - Feb 23, 2017 BEIJING, March 10 China's corporate debt levels are excessively high, the head of its central bank said on Friday, as policymakers in the world's second-largest economy grow increasingly concerned about the risks from a rapid build-up in debt and an&nbsp;..."
p1
aS'Zion Oil &amp; Gas Launches Simplified New Stock Unit Option Program GlobeNewswire  - Nov 1, 2016 DALLAS and CAESAREA, Israel, Nov. 01, 2016  -- Zion Oil &amp; Gas, Inc.  announces its new Unit Option program under its Dividend Reinvestment and Common Stock Purchase Plan .'
p2
aS'Stock Concentration on Shares of Zion Oil and Gas Inc  Midway Monitor - 8 hours ago Investors may be looking to compare the current stock price of Zion Oil and Gas Inc  to some of its moving averages.'
p3
aS"Zion Oil &amp; Gas in Unique Position to Help Supply Israel's Energy Security Needs PR Newswire  - Jan 30, 2017 The Company's Megiddo-Jezreel License grants Zion Oil &amp; Gas the exclusive right to explore in an area of approximately 99,000 acres that appears to possess the key geologic ingredients of an active petroleum system with significant exploration potential."
p4
aS'Zion Oil &amp; Gas Inc : Financial Strength Analysis Simply Wall St - Mar 4, 2017 Zion Oil &amp; Gas Inc  is a small-cap company - a market capitalization of less than $2 billion. Such companies have the highest growth potential, primarily due to their small-size.'
p5
aS"Zion Oil &amp; Gas Granted Exploration License Extension in Israel GlobeNewswire  - Jul 7, 2016 DALLAS and CAESAREA, Israel, July 06, 2016  -- Zion Oil &amp; Gas, Inc.   reported today that the Israeli Petroleum Commissioner modified Zion's work plan deadlines and awarded the Company a&nbsp;..."
p6
aS'Technical Toolbox: Investor Focus on Zion Oil and Gas Inc  Rives Journal - Mar 21, 2017 Zion Oil and Gas Inc  presently has a 14-day Commodity Channel Index  of -13.16. The CCI was created to typically stay within the reading of -100 to +100.'
p7
aS"Photo Release -- Zion Oil &amp; Gas Announces Key Executive Leadership Changes GlobeNewswire  - Jun 17, 2015 DALLAS and CAESAREA, Israel, June 17, 2015  -- Zion Oil &amp; Gas, Inc.   today announced that on June 11, 2015, during the Board of Directors  meeting following the Company's annual&nbsp;..."
p8
aS'Photo Release -- Zion Oil &amp; Gas Appoints New Director GlobeNewswire  - Apr 20, 2015 DALLAS and CAESAREA, Israel, April 20, 2015  -- Zion Oil &amp; Gas, Inc.   today announced the appointment of a new director to its Board of Directors  and the amendment of the corporate Bylaws&nbsp;...'
p9
aS"Zion Oil &amp; Gas is Granted Approval of Their Exploratory Drilling Request ... GlobeNewswire  - Dec 28, 2015 DALLAS and CAESAREA, Israel, Dec. 28, 2015  -- Zion Oil &amp; Gas, Inc.   today announced that on December 21st in the city of Nazareth, Israel's Northern District Committee held a formal, non-public meeting during&nbsp;..."
p10
a.