(dp0
S'AGO'
p1
I1
sS'AGN'
p2
I1
sS'AGM'
p3
I1
sS'BOCH'
p4
I1
sS'GTIV'
p5
I1
sS'LIFE'
p6
I1
sS'CRK'
p7
I1
sS'SGMO'
p8
I1
sS'AGX'
p9
I1
sS'ORMP'
p10
I1
sS'ERIE'
p11
I1
sS'BWP'
p12
I1
sS'BWS'
p13
I1
sS'PFPT'
p14
I1
sS'VRTA'
p15
I1
sS'VRTB'
p16
I1
sS'SCLN'
p17
I1
sS'SPU'
p18
I1
sS'SPW'
p19
I1
sS'VRTX'
p20
I1
sS'BWA'
p21
I1
sS'BWC'
p22
I1
sS'PTNT'
p23
I1
sS'BSDM'
p24
I1
sS'GFED'
p25
I1
sS'SPB'
p26
I1
sS'VRTS'
p27
I1
sS'VRTU'
p28
I1
sS'SPF'
p29
I1
sS'PKG'
p30
I1
sS'ENDP'
p31
I1
sS'XPO'
p32
I1
sS'CBLI'
p33
I1
sS'CEP'
p34
I1
sS'TBOW'
p35
I1
sS'GY'
p36
I1
sS'MNKD'
p37
I1
sS'GE'
p38
I1
sS'GD'
p39
I1
sS'GB'
p40
I0
sS'BYI'
p41
I1
sS'MEIP'
p42
I1
sS'GM'
p43
I1
sS'GK'
p44
I1
sS'JNS'
p45
I1
sS'REMY'
p46
I1
sS'MAS'
p47
I1
sS'MAR'
p48
I1
sS'MAT'
p49
I1
sS'AXAS'
p50
I1
sS'EBMT'
p51
I1
sS'SNI'
p52
I1
sS'SNV'
p53
I1
sS'MAC'
p54
I1
sS'ACLS'
p55
I1
sS'MAG'
p56
I1
sS'AMCF'
p57
I1
sS'JOEZ'
p58
I1
sS'ANV'
p59
I1
sS'SNX'
p60
I1
sS'MAN'
p61
I0
sS'JBSS'
p62
I1
sS'BEN'
p63
I1
sS'CSL'
p64
I1
sS'OVLY'
p65
I1
sS'EVC'
p66
I1
sS'TPLM'
p67
I1
sS'CRTX'
p68
I0
sS'ICUI'
p69
I1
sS'IDCC'
p70
I1
sS'LNKD'
p71
I1
sS'AEIS'
p72
I1
sS'VLO'
p73
I1
sS'SPBC'
p74
I1
sS'UEIC'
p75
I1
sS'LSI'
p76
I1
sS'WWWW'
p77
I1
sS'TTI'
p78
I1
sS'TTC'
p79
I1
sS'ZN'
p80
I1
sS'WSBC'
p81
I1
sS'PFIN'
p82
I1
sS'SPRO'
p83
I1
sS'USLM'
p84
I1
sS'CEVA'
p85
I1
sS'TMNG'
p86
I0
sS'GRC'
p87
I1
sS'PFIS'
p88
I1
sS'CPRX'
p89
I1
sS'CPRT'
p90
I1
sS'SIG'
p91
I1
sS'ORBT'
p92
I1
sS'NSLP'
p93
I1
sS'WPCS'
p94
I1
sS'RPTP'
p95
I1
sS'DYAX'
p96
I1
sS'LPSN'
p97
I1
sS'AVHI'
p98
I1
sS'HLS'
p99
I1
sS'NOC'
p100
I1
sS'KKD'
p101
I1
sS'NOV'
p102
I1
sS'NOW'
p103
I1
sS'SPR'
p104
I1
sS'NOR'
p105
I1
sS'CSX'
p106
I1
sS'SYPR'
p107
I1
sS'CTS'
p108
I1
sS'WEBK'
p109
I1
sS'GCFB'
p110
I1
sS'SPPI'
p111
I1
sS'CWEI'
p112
I1
sS'CTG'
p113
I1
sS'LBAI'
p114
I1
sS'CTB'
p115
I1
sS'CCBG'
p116
I1
sS'CTL'
p117
I1
sS'CTO'
p118
I1
sS'CPHC'
p119
I1
sS'SPH'
p120
I1
sS'WHG'
p121
I1
sS'VSEC'
p122
I1
sS'ARTW'
p123
I1
sS'KTOS'
p124
I1
sS'ARTX'
p125
I1
sS'PES'
p126
I1
sS'QCCO'
p127
I1
sS'WHR'
p128
I1
sS'TASR'
p129
I1
sS'TAST'
p130
I1
sS'FCLF'
p131
I1
sS'ATEA'
p132
I1
sS'ATEC'
p133
I1
sS'WSM'
p134
I1
sS'BFAM'
p135
I1
sS'OCFC'
p136
I1
sS'SPA'
p137
I1
sS'RLI'
p138
I1
sS'NTAP'
p139
I1
sS'ZBRA'
p140
I1
sS'RLD'
p141
I1
sS'LMT'
p142
I1
sS'EDR'
p143
I1
sS'PDII'
p144
I1
sS'NWPX'
p145
I1
sS'ORI'
p146
I1
sS'SPG'
p147
I1
sS'ORB'
p148
I1
sS'LOW'
p149
I1
sS'DPW'
p150
I1
sS'CRRC'
p151
I1
sS'DPS'
p152
I1
sS'FARM'
p153
I1
sS'FARO'
p154
I1
sS'ADUS'
p155
I1
sS'DPZ'
p156
I1
sS'FCBC'
p157
I1
sS'GBLI'
p158
I1
sS'IKAN'
p159
I1
sS'COHR'
p160
I1
sS'FSYS'
p161
I1
sS'ABAX'
p162
I1
sS'MDC'
p163
I1
sS'COHU'
p164
I1
sS'LF'
p165
I1
sS'LG'
p166
I1
sS'OSUR'
p167
I1
sS'AGCO'
p168
I1
sS'SEMG'
p169
I1
sS'LO'
p170
I1
sS'LL'
p171
I1
sS'LH'
p172
I1
sS'PGNX'
p173
I1
sS'PTSI'
p174
I1
sS'MNDL'
p175
I0
sS'IIN'
p176
I1
sS'III'
p177
I1
sS'A'
p178
I1
sS'FORM'
p179
I1
sS'VPHM'
p180
I0
sS'NTWK'
p181
I1
sS'ANTP'
p182
I0
sS'FORD'
p183
I1
sS'ANTH'
p184
I1
sS'FRGI'
p185
I1
sS'FORR'
p186
I1
sS'STND'
p187
I1
sS'EZPW'
p188
I1
sS'CFN'
p189
I1
sS'PNX'
p190
I1
sS'CFI'
p191
I1
sS'SNH'
p192
I1
sS'PNW'
p193
I1
sS'CALI'
p194
I1
sS'PNK'
p195
I1
sS'MRLN'
p196
I1
sS'PNM'
p197
I1
sS'CALM'
p198
I1
sS'SYBT'
p199
I1
sS'PNC'
p200
I1
sS'CALD'
p201
I1
sS'FIZZ'
p202
I1
sS'UTEK'
p203
I1
sS'CBOE'
p204
I1
sS'JBT'
p205
I1
sS'GIII'
p206
I1
sS'BYD'
p207
I1
sS'MCBK'
p208
I1
sS'PRE'
p209
I1
sS'ASTI'
p210
I1
sS'HFWA'
p211
I1
sS'SAH'
p212
I1
sS'PRA'
p213
I1
sS'ASTM'
p214
I1
sS'SAM'
p215
I1
sS'SAL'
p216
I1
sS'PRO'
p217
I1
sS'ASTC'
p218
I1
sS'PRI'
p219
I1
sS'ASTE'
p220
I1
sS'PRK'
p221
I1
sS'PRU'
p222
I1
sS'JOB'
p223
I1
sS'ACMP'
p224
I1
sS'MBRG'
p225
I1
sS'JOE'
p226
I1
sS'FITB'
p227
I1
sS'RELL'
p228
I1
sS'RCPT'
p229
I1
sS'CHD'
p230
I1
sS'CHE'
p231
I1
sS'CHH'
p232
I1
sS'JAXB'
p233
I1
sS'CHK'
p234
I1
sS'ATK'
p235
I1
sS'ASBB'
p236
I1
sS'ASBC'
p237
I0
sS'CHS'
p238
I1
sS'MRH'
p239
I1
sS'JAH'
p240
I1
sS'MRK'
p241
I1
sS'ZIPR'
p242
I1
sS'FELE'
p243
I1
sS'ASBI'
p244
I1
sS'NNBR'
p245
I1
sS'MRC'
p246
I1
sS'SUPX'
p247
I0
sS'SNAK'
p248
I1
sS'AMRI'
p249
I1
sS'ACGL'
p250
I1
sS'ATW'
p251
I1
sS'PESI'
p252
I1
sS'APP'
p253
I1
sS'MTRN'
p254
I1
sS'DBD'
p255
I1
sS'AMRB'
p256
I1
sS'AMRC'
p257
I1
sS'BRKS'
p258
I1
sS'API'
p259
I1
sS'BELFA'
p260
I1
sS'LIWA'
p261
I1
sS'SUPN'
p262
I1
sS'ATR'
p263
I1
sS'ORBC'
p264
I1
sS'APA'
p265
I1
sS'MTRX'
p266
I1
sS'APD'
p267
I1
sS'AMRS'
p268
I1
sS'DXPE'
p269
I1
sS'SZYM'
p270
I1
sS'CHSCP'
p271
I1
sS'WSCI'
p272
I1
sS'TWER'
p273
I1
sS'QLIK'
p274
I1
sS'PRPH'
p275
I1
sS'ADNC'
p276
I1
sS'EWBC'
p277
I1
sS'USMD'
p278
I1
sS'MNRO'
p279
I1
sS'NLS'
p280
I1
sS'AVGO'
p281
I1
sS'WY'
p282
I1
sS'PTEN'
p283
I1
sS'NLY'
p284
I1
sS'FUN'
p285
I1
sS'WMAR'
p286
I1
sS'UCTT'
p287
I1
sS'DEST'
p288
I1
sS'HMN'
p289
I1
sS'TKR'
p290
I1
sS'LPLA'
p291
I1
sS'HME'
p292
I0
sS'HSKA'
p293
I1
sS'RPRX'
p294
I1
sS'RICK'
p295
I1
sS'GCA'
p296
I0
sS'DLB'
p297
I1
sS'DLA'
p298
I1
sS'CSOD'
p299
I1
sS'AFH'
p300
I1
sS'PACB'
p301
I1
sS'GCI'
p302
I1
sS'BOBE'
p303
I1
sS'AFG'
p304
I1
sS'AFA'
p305
I1
sS'GCO'
p306
I1
sS'DLR'
p307
I1
sS'JNJ'
p308
I1
sS'HWAY'
p309
I1
sS'DLX'
p310
I1
sS'FMER'
p311
I1
sS'SUBK'
p312
I1
sS'BTU'
p313
I1
sS'HPCCP'
p314
I0
sS'SSY'
p315
I1
sS'AMCC'
p316
I1
sS'CBAN'
p317
I1
sS'SAAS'
p318
I1
sS'BTX'
p319
I1
sS'SSS'
p320
I1
sS'CBAK'
p321
I1
sS'SSN'
p322
I1
sS'SSI'
p323
I1
sS'SSD'
p324
I1
sS'BTN'
p325
I1
sS'BTH'
p326
I1
sS'SCMR'
p327
I1
sS'MFNC'
p328
I1
sS'USEG'
p329
I1
sS'DGI'
p330
I1
sS'TSO'
p331
I1
sS'GKNT'
p332
I1
sS'FRX'
p333
I1
sS'WYY'
p334
I1
sS'WYN'
p335
I1
sS'AMCX'
p336
I1
sS'PGTI'
p337
I1
sS'TTEC'
p338
I1
sS'LANC'
p339
I1
sS'LNT'
p340
I0
sS'ECL'
p341
I1
sS'RKUS'
p342
I1
sS'LNN'
p343
I1
sS'EXPO'
p344
I1
sS'LGND'
p345
I1
sS'RMD'
p346
I1
sS'AREX'
p347
I1
sS'SEB'
p348
I1
sS'B'
p349
I1
sS'CRWS'
p350
I1
sS'BBG'
p351
I1
sS'CTWS'
p352
I1
sS'WAIR'
p353
I1
sS'BSQR'
p354
I1
sS'TRIP'
p355
I1
sS'MBND'
p356
I0
sS'SPAN'
p357
I1
sS'SOCB'
p358
I1
sS'IKNX'
p359
I1
sS'VMI'
p360
I1
sS'TUP'
p361
I1
sS'CPGI'
p362
I1
sS'DNKN'
p363
I1
sS'GMET'
p364
I1
sS'SPAR'
p365
I1
sS'GIS'
p366
I1
sS'ALCO'
p367
I1
sS'WYNN'
p368
I1
sS'MORN'
p369
I1
sS'STMP'
p370
I1
sS'ANSS'
p371
I1
sS'NBIX'
p372
I1
sS'DUK'
p373
I1
sS'STML'
p374
I1
sS'DYNIQ'
p375
I0
sS'RDIB'
p376
I1
sS'NKSH'
p377
I1
sS'EVR'
p378
I1
sS'AZZ'
p379
I1
sS'HASI'
p380
I1
sS'CYS'
p381
I1
sS'NPTN'
p382
I1
sS'CYT'
p383
I1
sS'BIIB'
p384
I1
sS'CAMP'
p385
I1
sS'POR'
p386
I1
sS'BKMU'
p387
I1
sS'PHIIK'
p388
I1
sS'CYB'
p389
I1
sS'POL'
p390
I1
sS'POM'
p391
I1
sS'IMH'
p392
I1
sS'CYH'
p393
I1
sS'CWHN'
p394
I0
sS'CYN'
p395
I1
sS'FUBC'
p396
I1
sS'VASO'
p397
I1
sS'MOLXA'
p398
I0
sS'VASC'
p399
I1
sS'SMED'
p400
I1
sS'SPIR'
p401
I1
sS'CWH'
p402
I1
sS'SPWR'
p403
I1
sS'FRM'
p404
I0
sS'FWRD'
p405
I1
sS'MILL'
p406
I1
sS'IMN'
p407
I0
sS'GHDX'
p408
I1
sS'FRS'
p409
I1
sS'RMBS'
p410
I1
sS'AIRM'
p411
I1
sS'NICK'
p412
I1
sS'SRDX'
p413
I1
sS'AIRT'
p414
I1
sS'WIBC'
p415
I1
sS'HUM'
p416
I1
sS'CLX'
p417
I1
sS'MOCO'
p418
I1
sS'HUN'
p419
I0
sS'CHEV'
p420
I1
sS'SKUL'
p421
I1
sS'PAR'
p422
I1
sS'NPBC'
p423
I1
sS'RM'
p424
I1
sS'ENTG'
p425
I1
sS'SRCE'
p426
I1
sS'BSRR'
p427
I1
sS'PAY'
p428
I1
sS'AAPL'
p429
I1
sS'FRT'
p430
I1
sS'SRCL'
p431
I1
sS'BIRT'
p432
I1
sS'CHEF'
p433
I1
sS'FCNCA'
p434
I1
sS'ENTR'
p435
I1
sS'BRSS'
p436
I1
sS'CKP'
p437
I1
sS'PAG'
p438
I1
sS'ASCA'
p439
I0
sS'CKX'
p440
I1
sS'DCO'
p441
I1
sS'THRM'
p442
I1
sS'PERF'
p443
I1
sS'DCI'
p444
I1
sS'ININ'
p445
I1
sS'AMSF'
p446
I1
sS'THRD'
p447
I1
sS'LKFN'
p448
I1
sS'AMSC'
p449
I1
sS'CFNB'
p450
I1
sS'AWK'
p451
I1
sS'THRX'
p452
I1
sS'AWH'
p453
I1
sS'UAMY'
p454
I1
sS'PERY'
p455
I1
sS'GBCI'
p456
I1
sS'WEC'
p457
I1
sS'FCAP'
p458
I1
sS'DRRX'
p459
I1
sS'SGNT'
p460
I1
sS'WEN'
p461
I1
sS'PXLW'
p462
I1
sS'PSDV'
p463
I1
sS'CSPI'
p464
I1
sS'X'
p465
I1
sS'PEDH'
p466
I1
sS'GLOW'
p467
I1
sS'UBSH'
p468
I1
sS'UBSI'
p469
I1
sS'ANAT'
p470
I1
sS'PLCE'
p471
I1
sS'CCL'
p472
I1
sS'PLCM'
p473
I1
sS'IHT'
p474
I1
sS'UUU'
p475
I1
sS'ANAD'
p476
I1
sS'ANAC'
p477
I1
sS'IHC'
p478
I0
sS'DHRM'
p479
I1
sS'AEP'
p480
I1
sS'AES'
p481
I1
sS'DMD'
p482
I1
sS'AET'
p483
I1
sS'CSV'
p484
I1
sS'AEY'
p485
I1
sS'GBL'
p486
I1
sS'WSBF'
p487
I1
sS'SWC'
p488
I1
sS'AMAT'
p489
I1
sS'APT'
p490
I1
sS'LMIA'
p491
I1
sS'AEE'
p492
I1
sS'INFA'
p493
I1
sS'GPOR'
p494
I1
sS'SSNC'
p495
I1
sS'MHGC'
p496
I1
sS'AEL'
p497
I1
sS'GBX'
p498
I1
sS'XWES'
p499
I1
sS'VTNC'
p500
I0
sS'PRLS'
p501
I1
sS'SQNM'
p502
I1
sS'VTNR'
p503
I1
sS'FFBH'
p504
I0
sS'CRDC'
p505
I1
sS'MEET'
p506
I1
sS'CTXS'
p507
I1
sS'TRXI'
p508
I0
sS'FFBC'
p509
I1
sS'XRM'
p510
I1
sS'AGNC'
p511
I1
sS'CBNK'
p512
I1
sS'CBNJ'
p513
I1
sS'NFEC'
p514
I1
sS'UMPQ'
p515
I1
sS'FFIV'
p516
I1
sS'MSCI'
p517
I1
sS'XRX'
p518
I1
sS'ITW'
p519
I1
sS'MSCC'
p520
I1
sS'HALL'
p521
I1
sS'HALO'
p522
I0
sS'NGSX'
p523
I1
sS'HITT'
p524
I1
sS'BLL'
p525
I1
sS'PSB'
p526
I1
sS'IMKTA'
p527
I1
sS'PSA'
p528
I1
sS'ACNB'
p529
I1
sS'MOV'
p530
I0
sS'PSX'
p531
I1
sS'MOH'
p532
I1
sS'MON'
p533
I1
sS'INWK'
p534
I1
sS'MOC'
p535
I1
sS'ASUR'
p536
I1
sS'HITK'
p537
I0
sS'GABC'
p538
I1
sS'MOD'
p539
I1
sS'CRVP'
p540
I1
sS'BCO'
p541
I1
sS'BSPM'
p542
I1
sS'ACCL'
p543
I0
sS'HNI'
p544
I1
sS'HNH'
p545
I1
sS'GRA'
p546
I1
sS'SWK'
p547
I1
sS'BCC'
p548
I1
sS'TRNX'
p549
I1
sS'BABY'
p550
I1
sS'HNR'
p551
I1
sS'GBNK'
p552
I1
sS'FDEF'
p553
I1
sS'ETH'
p554
I1
sS'TRNS'
p555
I1
sS'CRVL'
p556
I1
sS'BCR'
p557
I1
sS'ETM'
p558
I0
sS'VRS'
p559
I1
sS'TORM'
p560
I1
sS'DLTR'
p561
I1
sS'PPBI'
p562
I1
sS'DF'
p563
I1
sS'VRA'
p564
I1
sS'TKOI'
p565
I1
sS'RUSHB'
p566
I1
sS'RUSHA'
p567
I1
sS'ROVI'
p568
I1
sS'LLEN'
p569
I1
sS'GALT'
p570
I1
sS'CI'
p571
I1
sS'JDSU'
p572
I1
sS'CL'
p573
I1
sS'CB'
p574
I1
sS'CA'
p575
I1
sS'SRI'
p576
I1
sS'CG'
p577
I1
sS'CF'
p578
I1
sS'GALE'
p579
I1
sS'CY'
p580
I1
sS'SRT'
p581
I1
sS'SORL'
p582
I1
sS'USNA'
p583
I1
sS'CW'
p584
I1
sS'CHMT'
p585
I1
sS'BAGR'
p586
I1
sS'PMFG'
p587
I1
sS'PRKR'
p588
I1
sS'TDC'
p589
I1
sS'HUBB'
p590
I1
sS'HUBG'
p591
I1
sS'RLJE'
p592
I1
sS'PRGO'
p593
I1
sS'TDY'
p594
I1
sS'FLIC'
p595
I1
sS'BDMS'
p596
I1
sS'APFC'
p597
I0
sS'TDW'
p598
I1
sS'BAGL'
p599
I1
sS'IFON'
p600
I1
sS'FHN'
p601
I1
sS'CVX'
p602
I1
sS'CVV'
p603
I1
sS'CVU'
p604
I1
sS'CVR'
p605
I1
sS'CVS'
p606
I1
sS'ZNGA'
p607
I1
sS'NMRX'
p608
I1
sS'CVM'
p609
I1
sS'LOV'
p610
I1
sS'SYRG'
p611
I1
sS'CVI'
p612
I1
sS'CVG'
p613
I1
sS'CVD'
p614
I1
sS'GUID'
p615
I1
sS'CVC'
p616
I1
sS'CVA'
p617
I1
sS'CORT'
p618
I1
sS'QRE'
p619
I1
sS'MFCO'
p620
I1
sS'TUES'
p621
I1
sS'SBGI'
p622
I1
sS'QTWW'
p623
I1
sS'TWTC'
p624
I1
sS'PSUN'
p625
I1
sS'HPY'
p626
I1
sS'VC'
p627
I1
sS'MCRS'
p628
I1
sS'VG'
p629
I1
sS'HPQ'
p630
I1
sS'HPP'
p631
I1
sS'TACT'
p632
I1
sS'HPT'
p633
I0
sS'IMI'
p634
I1
sS'BCEI'
p635
I1
sS'HLF'
p636
I1
sS'Y'
p637
I1
sS'VZ'
p638
I1
sS'WMT'
p639
I1
sS'NTGR'
p640
I1
sS'EBF'
p641
I1
sS'TGT'
p642
I1
sS'RBPAA'
p643
I1
sS'ARDM'
p644
I1
sS'LAMR'
p645
I1
sS'RJF'
p646
I1
sS'EBS'
p647
I1
sS'CNDO'
p648
I1
sS'GEOS'
p649
I1
sS'WDC'
p650
I1
sS'BYFC'
p651
I1
sS'DRQ'
p652
I1
sS'MOVE'
p653
I1
sS'LFUS'
p654
I1
sS'DRI'
p655
I1
sS'DRH'
p656
I1
sS'WDR'
p657
I1
sS'BONE'
p658
I1
sS'DRL'
p659
I1
sS'GPRE'
p660
I1
sS'CCIX'
p661
I0
sS'DRC'
p662
I1
sS'DRE'
p663
I1
sS'CONN'
p664
I1
sS'ALLB'
p665
I1
sS'WTSL'
p666
I0
sS'IROQ'
p667
I1
sS'IOT'
p668
I1
sS'UIL'
p669
I1
sS'RVM'
p670
I1
sS'UIS'
p671
I1
sS'RVP'
p672
I1
sS'DGICA'
p673
I1
sS'DGICB'
p674
I1
sS'ANDAU'
p675
I1
sS'CXP'
p676
I1
sS'D'
p677
I1
sS'RXN'
p678
I1
sS'HCOM'
p679
I1
sS'ALEX'
p680
I1
sS'CLFD'
p681
I1
sS'HEOP'
p682
I1
sS'PBYI'
p683
I1
sS'STLD'
p684
I1
sS'SRPT'
p685
I1
sS'CXW'
p686
I1
sS'LECO'
p687
I1
sS'SMPL'
p688
I1
sS'ASBCW'
p689
I0
sS'CCNE'
p690
I1
sS'RAVN'
p691
I1
sS'STLY'
p692
I1
sS'CXO'
p693
I1
sS'METR'
p694
I1
sS'SURG'
p695
I1
sS'HY'
p696
I1
sS'IMO'
p697
I1
sS'HCSG'
p698
I1
sS'HR'
p699
I1
sS'HW'
p700
I1
sS'HT'
p701
I1
sS'OB'
p702
I0
sS'HK'
p703
I1
sS'HH'
p704
I1
sS'HI'
p705
I1
sS'HL'
p706
I1
sS'HA'
p707
I1
sS'GTXI'
p708
I1
sS'HE'
p709
I1
sS'SCL'
p710
I1
sS'SCI'
p711
I1
sS'INTC'
p712
I1
sS'SCG'
p713
I1
sS'REG'
p714
I1
sS'INVN'
p715
I1
sS'CLMS'
p716
I1
sS'SCX'
p717
I1
sS'PTX'
p718
I1
sS'SCU'
p719
I0
sS'INVE'
p720
I1
sS'ACOR'
p721
I1
sS'SCS'
p722
I1
sS'PTP'
p723
I1
sS'EGAN'
p724
I1
sS'OXGN'
p725
I1
sS'AUXL'
p726
I1
sS'CHDX'
p727
I1
sS'PBY'
p728
I1
sS'NAV'
p729
I1
sS'SCVL'
p730
I1
sS'PBF'
p731
I1
sS'YHOO'
p732
I1
sS'DTSI'
p733
I1
sS'IBCA'
p734
I1
sS'MATW'
p735
I1
sS'AVX'
p736
I1
sS'AVY'
p737
I1
sS'INTT'
p738
I1
sS'AVT'
p739
I1
sS'MPO'
p740
I1
sS'AVP'
p741
I1
sS'AMPE'
p742
I1
sS'PCMI'
p743
I1
sS'MPB'
p744
I1
sS'BREW'
p745
I1
sS'PSIX'
p746
I1
sS'AVA'
p747
I1
sS'AVB'
p748
I1
sS'CPWR'
p749
I1
sS'ACAD'
p750
I1
sS'ZEUS'
p751
I1
sS'DEER'
p752
I1
sS'SUI'
p753
I1
sS'PRMW'
p754
I1
sS'ACAT'
p755
I1
sS'SUP'
p756
I1
sS'JBLU'
p757
I1
sS'WUHN'
p758
I1
sS'AZPN'
p759
I1
sS'TEL'
p760
I1
sS'AVEO'
p761
I1
sS'LPNT'
p762
I1
sS'OBCI'
p763
I1
sS'ARTC'
p764
I1
sS'TEG'
p765
I1
sS'TEX'
p766
I1
sS'R'
p767
I1
sS'HBCP'
p768
I1
sS'POOL'
p769
I1
sS'TER'
p770
I1
sS'INTZ'
p771
I1
sS'SWHC'
p772
I1
sS'ADT'
p773
I1
sS'GMO'
p774
I1
sS'ADS'
p775
I1
sS'ADP'
p776
I1
sS'DNB'
p777
I1
sS'ROMA'
p778
I0
sS'HWCC'
p779
I1
sS'GME'
p780
I0
sS'GLRE'
p781
I1
sS'RENT'
p782
I1
sS'DNR'
p783
I1
sS'UHAL'
p784
I1
sS'ADM'
p785
I1
sS'CORX'
p786
I1
sS'ADK'
p787
I1
sS'ADI'
p788
I1
sS'VIAB'
p789
I1
sS'AAON'
p790
I1
sS'XEL'
p791
I1
sS'BRT'
p792
I1
sS'MHFI'
p793
I1
sS'PTIE'
p794
I1
sS'UBA'
p795
I1
sS'BRO'
p796
I1
sS'BRN'
p797
I1
sS'PTIX'
p798
I1
sS'WAYN'
p799
I1
sS'VIAS'
p800
I1
sS'DJCO'
p801
I1
sS'BRC'
p802
I1
sS'SCKT'
p803
I1
sS'TWC'
p804
I1
sS'TWI'
p805
I1
sS'TWO'
p806
I1
sS'AUBN'
p807
I1
sS'NRF'
p808
I1
sS'MFLX'
p809
I1
sS'AVSR'
p810
I1
sS'DISH'
p811
I1
sS'TWX'
p812
I1
sS'MFLR'
p813
I0
sS'EBSB'
p814
I1
sS'RKT'
p815
I1
sS'OVRL'
p816
I1
sS'WIRE'
p817
I1
sS'CTIB'
p818
I1
sS'EAC'
p819
I1
sS'ALSN'
p820
I1
sS'ALSK'
p821
I1
sS'ALSE'
p822
I1
sS'EAT'
p823
I1
sS'ARKR'
p824
I1
sS'HOG'
p825
I1
sS'SHOR'
p826
I1
sS'SHOS'
p827
I1
sS'CIDM'
p828
I1
sS'HON'
p829
I1
sS'LCNB'
p830
I1
sS'MLHR'
p831
I1
sS'HOV'
p832
I0
sS'HOT'
p833
I1
sS'ESC'
p834
I1
sS'HOS'
p835
I1
sS'EVTC'
p836
I1
sS'ESL'
p837
I0
sS'TROW'
p838
I1
sS'TROV'
p839
I1
sS'SHOO'
p840
I1
sS'FBMS'
p841
I1
sS'IPGP'
p842
I1
sS'VSR'
p843
I1
sS'IPXL'
p844
I1
sS'DSPG'
p845
I1
sS'MCS'
p846
I1
sS'PFBI'
p847
I1
sS'SCIL'
p848
I1
sS'CECE'
p849
I1
sS'MBLX'
p850
I1
sS'VSH'
p851
I1
sS'FBMI'
p852
I1
sS'PFBX'
p853
I1
sS'MNR'
p854
I1
sS'CECO'
p855
I1
sS'RYN'
p856
I1
sS'NDSN'
p857
I1
sS'RYL'
p858
I1
sS'LTRE'
p859
I1
sS'UBCP'
p860
I1
sS'V'
p861
I1
sS'EXLS'
p862
I1
sS'AMD'
p863
I1
sS'SCEI'
p864
I1
sS'IDXX'
p865
I1
sS'AMG'
p866
I1
sS'AEHR'
p867
I1
sS'LTRX'
p868
I1
sS'ROIC'
p869
I1
sS'ROIA'
p870
I1
sS'CVO'
p871
I1
sS'ARTNA'
p872
I1
sS'WM'
p873
I1
sS'CCOI'
p874
I1
sS'FIS'
p875
I1
sS'VAL'
p876
I1
sS'LHO'
p877
I1
sS'ADTN'
p878
I1
sS'FIX'
p879
I1
sS'CYTXW'
p880
I1
sS'DLGC'
p881
I1
sS'FIG'
p882
I1
sS'IFNY'
p883
I1
sS'VAR'
p884
I1
sS'FII'
p885
I1
sS'PBHC'
p886
I1
sS'SLMAP'
p887
I1
sS'PSTR'
p888
I1
sS'EDE'
p889
I1
sS'VIFL'
p890
I0
sS'PSTB'
p891
I1
sS'ABPI'
p892
I1
sS'PSTI'
p893
I1
sS'ODFL'
p894
I1
sS'CMN'
p895
I1
sS'RFIL'
p896
I1
sS'CMI'
p897
I1
sS'DAIO'
p898
I1
sS'CMG'
p899
I1
sS'ICGE'
p900
I1
sS'CME'
p901
I1
sS'CMC'
p902
I1
sS'MPET'
p903
I1
sS'CMA'
p904
I1
sS'ASEI'
p905
I1
sS'HMTV'
p906
I1
sS'PCL'
p907
I1
sS'ATU'
p908
I1
sS'FWLT'
p909
I1
sS'ESIO'
p910
I1
sS'PCG'
p911
I1
sS'GALTW'
p912
I1
sS'CMP'
p913
I1
sS'ORN'
p914
I1
sS'UACL'
p915
I1
sS'FEIM'
p916
I1
sS'UVV'
p917
I1
sS'FLWS'
p918
I1
sS'SNBC'
p919
I1
sS'FNGN'
p920
I1
sS'PCLN'
p921
I1
sS'CENTA'
p922
I1
sS'FSLR'
p923
I1
sS'NWLI'
p924
I1
sS'INGR'
p925
I1
sS'DIOD'
p926
I1
sS'MTG'
p927
I0
sS'WGA'
p928
I1
sS'SNPS'
p929
I1
sS'WGL'
p930
I1
sS'WGO'
p931
I1
sS'JAKK'
p932
I1
sS'BKYF'
p933
I1
sS'TWIN'
p934
I1
sS'O'
p935
I1
sS'PEBK'
p936
I1
sS'PEBO'
p937
I1
sS'COOL'
p938
I1
sS'RIVR'
p939
I1
sS'MD'
p940
I1
sS'MG'
p941
I1
sS'MA'
p942
I1
sS'ALOG'
p943
I1
sS'INT'
p944
I1
sS'MO'
p945
I1
sS'MN'
p946
I1
sS'EXPR'
p947
I1
sS'BLOX'
p948
I1
sS'INN'
p949
I1
sS'RDEN'
p950
I1
sS'NDAQ'
p951
I1
sS'UHS'
p952
I1
sS'ALOT'
p953
I1
sS'GMT'
p954
I1
sS'PLMT'
p955
I1
sS'DEPO'
p956
I1
sS'INB'
p957
I0
sS'HWBK'
p958
I1
sS'AKS'
p959
I1
sS'EPAY'
p960
I1
sS'LMOS'
p961
I1
sS'FSBK'
p962
I1
sS'SUMR'
p963
I1
sS'GLF'
p964
I1
sS'FSBW'
p965
I1
sS'COST'
p966
I1
sS'HURN'
p967
I1
sS'CMKG'
p968
I1
sS'HURC'
p969
I1
sS'EDUC'
p970
I1
sS'DOV'
p971
I1
sS'EPAM'
p972
I1
sS'GLW'
p973
I1
sS'SCHW'
p974
I1
sS'PVFC'
p975
I0
sS'BSX'
p976
I1
sS'ISRL'
p977
I1
sS'POWR'
p978
I1
sS'PBI'
p979
I1
sS'LOJN'
p980
I1
sS'COWN'
p981
I1
sS'ZOOM'
p982
I1
sS'XXIA'
p983
I1
sS'PBH'
p984
I1
sS'CVVT'
p985
I1
sS'POWI'
p986
I1
sS'POWL'
p987
I1
sS'SCHN'
p988
I1
sS'SCHL'
p989
I1
sS'GIFI'
p990
I1
sS'TLLP'
p991
I1
sS'ELLI'
p992
I1
sS'CAP'
p993
I1
sS'F'
p994
I1
sS'CTHR'
p995
I1
sS'MNOV'
p996
I1
sS'PSEM'
p997
I1
sS'SUSQ'
p998
I1
sS'SUSP'
p999
I1
sS'CBPO'
p1000
I1
sS'SNCR'
p1001
I1
sS'CAT'
p1002
I1
sS'MPC'
p1003
I1
sS'ZAZA'
p1004
I1
sS'ACPW'
p1005
I1
sS'INUV'
p1006
I1
sS'MMP'
p1007
I0
sS'MMS'
p1008
I0
sS'MMM'
p1009
I1
sS'GNCMA'
p1010
I1
sS'HSNI'
p1011
I1
sS'BTUI'
p1012
I1
sS'SBH'
p1013
I1
sS'MGYR'
p1014
I1
sS'MMC'
p1015
I1
sS'CTSH'
p1016
I1
sS'CIEN'
p1017
I1
sS'SUNE'
p1018
I1
sS'VVUS'
p1019
I1
sS'GPN'
p1020
I0
sS'BAX'
p1021
I1
sS'FMBI'
p1022
I1
sS'RTIX'
p1023
I1
sS'ERA'
p1024
I1
sS'TRLA'
p1025
I1
sS'RNDY'
p1026
I1
sS'KOS'
p1027
I1
sS'DPM'
p1028
I1
sS'BAH'
p1029
I1
sS'FFNM'
p1030
I1
sS'BNCN'
p1031
I1
sS'ADEP'
p1032
I1
sS'QLTY'
p1033
I1
sS'ADES'
p1034
I1
sS'CAG'
p1035
I1
sS'ISRG'
p1036
I1
sS'BJRI'
p1037
I1
sS'VPG'
p1038
I1
sS'MDCI'
p1039
I1
sS'GOM'
p1040
I1
sS'MDCO'
p1041
I1
sS'QLTI'
p1042
I1
sS'CELG'
p1043
I1
sS'FBNC'
p1044
I1
sS'WETF'
p1045
I1
sS'UWN'
p1046
I1
sS'STE'
p1047
I1
sS'USATP'
p1048
I1
sS'NEOG'
p1049
I1
sS'STC'
p1050
I1
sS'STL'
p1051
I1
sS'NEON'
p1052
I1
sS'STI'
p1053
I1
sS'STJ'
p1054
I1
sS'WLFC'
p1055
I1
sS'RESI'
p1056
I1
sS'UDR'
p1057
I1
sS'STR'
p1058
I1
sS'STS'
p1059
I1
sS'DSW'
p1060
I1
sS'WSFS'
p1061
I1
sS'STX'
p1062
I1
sS'PFMT'
p1063
I1
sS'STZ'
p1064
I1
sS'TFM'
p1065
I1
sS'EDGW'
p1066
I1
sS'CERE'
p1067
I1
sS'CERN'
p1068
I1
sS'NCLH'
p1069
I1
sS'NCR'
p1070
I1
sS'NCS'
p1071
I1
sS'NCT'
p1072
I1
sS'NCI'
p1073
I1
sS'MPX'
p1074
I1
sS'CSC'
p1075
I1
sS'GPX'
p1076
I1
sS'RGCO'
p1077
I1
sS'GENC'
p1078
I1
sS'ACC'
p1079
I1
sS'IFMI'
p1080
I1
sS'THI'
p1081
I1
sS'SPTN'
p1082
I1
sS'ECOM'
p1083
I1
sS'ECOL'
p1084
I1
sS'DNDN'
p1085
I0
sS'LII'
p1086
I1
sS'FNF'
p1087
I1
sS'EDMC'
p1088
I1
sS'FNB'
p1089
I1
sS'PBIO'
p1090
I1
sS'PDEX'
p1091
I1
sS'PBIB'
p1092
I1
sS'CLVS'
p1093
I1
sS'DLHC'
p1094
I1
sS'PIKE'
p1095
I1
sS'WTR'
p1096
I1
sS'WTS'
p1097
I1
sS'WTT'
p1098
I1
sS'THC'
p1099
I1
sS'GERN'
p1100
I1
sS'RE'
p1101
I1
sS'RF'
p1102
I1
sS'RL'
p1103
I1
sS'MOFG'
p1104
I1
sS'RH'
p1105
I1
sS'WTM'
p1106
I1
sS'UNAM'
p1107
I1
sS'TPC'
p1108
I1
sS'HBNC'
p1109
I1
sS'HRT'
p1110
I1
sS'TPL'
p1111
I1
sS'VGZ'
p1112
I1
sS'HRS'
p1113
I1
sS'TPH'
p1114
I1
sS'HRL'
p1115
I1
sS'DSS'
p1116
I1
sS'HRG'
p1117
I1
sS'HRC'
p1118
I1
sS'HRB'
p1119
I1
sS'IDIX'
p1120
I1
sS'LGCY'
p1121
I1
sS'DBLE'
p1122
I0
sS'IACI'
p1123
I1
sS'RHT'
p1124
I1
sS'RHI'
p1125
I1
sS'IVAC'
p1126
I1
sS'FABK'
p1127
I1
sS'CNC'
p1128
I1
sS'OFLX'
p1129
I1
sS'MTDR'
p1130
I1
sS'WFM'
p1131
I1
sS'FCFS'
p1132
I1
sS'WFC'
p1133
I1
sS'HZNP'
p1134
I1
sS'WFD'
p1135
I1
sS'OBAF'
p1136
I1
sS'CHTP'
p1137
I1
sS'COLM'
p1138
I1
sS'COLB'
p1139
I1
sS'HFC'
p1140
I1
sS'WFT'
p1141
I1
sS'SGMA'
p1142
I1
sS'UGI'
p1143
I1
sS'DMND'
p1144
I1
sS'RTN'
p1145
I1
sS'RTI'
p1146
I1
sS'RTK'
p1147
I1
sS'JCTCF'
p1148
I1
sS'SEIC'
p1149
I1
sS'SGMS'
p1150
I1
sS'ALNY'
p1151
I1
sS'SNSS'
p1152
I1
sS'AWX'
p1153
I1
sS'HCCI'
p1154
I1
sS'AXLL'
p1155
I1
sS'DRCO'
p1156
I0
sS'DISCA'
p1157
I1
sS'DISCB'
p1158
I1
sS'RFP'
p1159
I1
sS'END'
p1160
I1
sS'OXY'
p1161
I1
sS'G'
p1162
I1
sS'ENH'
p1163
I1
sS'DISCK'
p1164
I1
sS'STNR'
p1165
I1
sS'OXM'
p1166
I1
sS'ENR'
p1167
I1
sS'ENS'
p1168
I1
sS'ENV'
p1169
I1
sS'ISIS'
p1170
I1
sS'OXF'
p1171
I0
sS'SALM'
p1172
I1
sS'FBRC'
p1173
I1
sS'NPSP'
p1174
I1
sS'TEN'
p1175
I1
sS'YELP'
p1176
I1
sS'CZR'
p1177
I1
sS'LXK'
p1178
I1
sS'Z'
p1179
I1
sS'CACG'
p1180
I1
sS'LXRX'
p1181
I1
sS'CLDT'
p1182
I1
sS'LEAP'
p1183
I0
sS'SMRT'
p1184
I1
sS'RSTI'
p1185
I1
sS'CLDX'
p1186
I1
sS'RGP'
p1187
I1
sS'AGII'
p1188
I1
sS'CVGI'
p1189
I1
sS'GRIF'
p1190
I1
sS'CBST'
p1191
I1
sS'MCBI'
p1192
I1
sS'MCBF'
p1193
I1
sS'ATO'
p1194
I1
sS'MERR'
p1195
I1
sS'UTIW'
p1196
I1
sS'MCBC'
p1197
I1
sS'GGG'
p1198
I1
sS'ATI'
p1199
I1
sS'UBFO'
p1200
I1
sS'PLXS'
p1201
I1
sS'PLXT'
p1202
I1
sS'TNAV'
p1203
I1
sS'CBSH'
p1204
I1
sS'NCMI'
p1205
I1
sS'CVGW'
p1206
I1
sS'ATX'
p1207
I0
sS'AAME'
p1208
I1
sS'SEV'
p1209
I1
sS'AXDX'
p1210
I1
sS'DAEG'
p1211
I1
sS'SASR'
p1212
I1
sS'DGIT'
p1213
I0
sS'PODD'
p1214
I1
sS'PVA'
p1215
I1
sS'SEE'
p1216
I1
sS'DGII'
p1217
I1
sS'TTEK'
p1218
I1
sS'PVH'
p1219
I1
sS'SEM'
p1220
I1
sS'CALX'
p1221
I1
sS'FRF'
p1222
I1
sS'FRD'
p1223
I1
sS'CLD'
p1224
I1
sS'CJJD'
p1225
I1
sS'STBZ'
p1226
I1
sS'CARV'
p1227
I1
sS'CLB'
p1228
I1
sS'CLC'
p1229
I1
sS'PDO'
p1230
I0
sS'MRVL'
p1231
I1
sS'HMST'
p1232
I1
sS'PDH'
p1233
I1
sS'CARB'
p1234
I1
sS'HMSY'
p1235
I1
sS'CLW'
p1236
I1
sS'CLR'
p1237
I1
sS'INFN'
p1238
I1
sS'ISIL'
p1239
I1
sS'PEOP'
p1240
I1
sS'INFI'
p1241
I1
sS'FCTY'
p1242
I1
sS'RATE'
p1243
I1
sS'COBZ'
p1244
I1
sS'ASFI'
p1245
I1
sS'ZEP'
p1246
I1
sS'FLTX'
p1247
I1
sS'INFU'
p1248
I1
sS'COBK'
p1249
I1
sS'SWI'
p1250
I1
sS'DO'
p1251
I1
sS'ACCO'
p1252
I1
sS'SWM'
p1253
I1
sS'DK'
p1254
I1
sS'TTWO'
p1255
I1
sS'SWN'
p1256
I1
sS'BPI'
p1257
I1
sS'DG'
p1258
I1
sS'DD'
p1259
I1
sS'DE'
p1260
I1
sS'BPL'
p1261
I1
sS'MGLN'
p1262
I1
sS'SWY'
p1263
I1
sS'SWX'
p1264
I1
sS'DXLG'
p1265
I1
sS'DX'
p1266
I1
sS'DY'
p1267
I1
sS'DV'
p1268
I1
sS'DW'
p1269
I1
sS'SWS'
p1270
I1
sS'BPZ'
p1271
I1
sS'CRIS'
p1272
I1
sS'BOTJ'
p1273
I1
sS'AGEN'
p1274
I1
sS'NANO'
p1275
I1
sS'BOTA'
p1276
I1
sS'SSNI'
p1277
I1
sS'SCCO'
p1278
I1
sS'TCBI'
p1279
I1
sS'TGC'
p1280
I1
sS'TCBK'
p1281
I1
sS'ATVI'
p1282
I1
sS'TGE'
p1283
I1
sS'CALL'
p1284
I1
sS'TGI'
p1285
I1
sS'MYGN'
p1286
I1
sS'BPFH'
p1287
I1
sS'INTG'
p1288
I1
sS'LMNX'
p1289
I1
sS'VCRA'
p1290
I1
sS'DHI'
p1291
I1
sS'LMNR'
p1292
I1
sS'RGLS'
p1293
I1
sS'MLM'
p1294
I1
sS'INTU'
p1295
I1
sS'UCFC'
p1296
I1
sS'MLP'
p1297
I1
sS'DHX'
p1298
I1
sS'BOFI'
p1299
I1
sS'GOV'
p1300
I1
sS'DHR'
p1301
I1
sS'AJG'
p1302
I1
sS'RNST'
p1303
I1
sS'CITZ'
p1304
I0
sS'HGSH'
p1305
I1
sS'CFR'
p1306
I1
sS'NRG'
p1307
I1
sS'ACHN'
p1308
I1
sS'VICL'
p1309
I1
sS'VICR'
p1310
I1
sS'CBEY'
p1311
I1
sS'INTL'
p1312
I1
sS'PRTA'
p1313
I1
sS'PGEM'
p1314
I1
sS'GTLS'
p1315
I1
sS'NRP'
p1316
I1
sS'GIGA'
p1317
I1
sS'ZAGG'
p1318
I1
sS'PRIM'
p1319
I1
sS'RRTS'
p1320
I1
sS'WG'
p1321
I1
sS'BBOX'
p1322
I1
sS'WD'
p1323
I1
sS'WBCO'
p1324
I0
sS'ZUMZ'
p1325
I1
sS'CCMP'
p1326
I1
sS'WU'
p1327
I1
sS'HUSA'
p1328
I1
sS'SNMX'
p1329
I1
sS'MFRM'
p1330
I1
sS'ULBI'
p1331
I1
sS'MFRI'
p1332
I1
sS'DKS'
p1333
I1
sS'LTBR'
p1334
I1
sS'HSC'
p1335
I1
sS'OVTI'
p1336
I1
sS'ARII'
p1337
I1
sS'SLAB'
p1338
I1
sS'HSH'
p1339
I1
sS'ARIA'
p1340
I1
sS'HSP'
p1341
I1
sS'HST'
p1342
I1
sS'HSY'
p1343
I1
sS'BUSE'
p1344
I1
sS'HSON'
p1345
I1
sS'IART'
p1346
I0
sS'MED'
p1347
I1
sS'H'
p1348
I1
sS'EQU'
p1349
I1
sS'HAE'
p1350
I1
sS'TRMB'
p1351
I1
sS'CIFC'
p1352
I1
sS'PETS'
p1353
I1
sS'TRMK'
p1354
I1
sS'OVBC'
p1355
I1
sS'RBCAA'
p1356
I1
sS'SYA'
p1357
I1
sS'ZLTQ'
p1358
I1
sS'RIGL'
p1359
I1
sS'SPEX'
p1360
I1
sS'LXP'
p1361
I1
sS'SYK'
p1362
I1
sS'LNDC'
p1363
I1
sS'XEC'
p1364
I1
sS'SYN'
p1365
I1
sS'CEMP'
p1366
I1
sS'CEMI'
p1367
I1
sS'RMKR'
p1368
I1
sS'SYY'
p1369
I1
sS'TOWR'
p1370
I1
sS'GWRE'
p1371
I1
sS'EME'
p1372
I1
sS'RGR'
p1373
I1
sS'RGS'
p1374
I1
sS'BRS'
p1375
I1
sS'RGA'
p1376
I1
sS'RGC'
p1377
I1
sS'WTBA'
p1378
I1
sS'CNSL'
p1379
I1
sS'NSSC'
p1380
I1
sS'DKL'
p1381
I1
sS'CNSI'
p1382
I1
sS'SMSI'
p1383
I1
sS'FXEN'
p1384
I1
sS'FOR'
p1385
I0
sS'MET'
p1386
I1
sS'MW'
p1387
I0
sS'IIVI'
p1388
I1
sS'LDL'
p1389
I1
sS'LDR'
p1390
I1
sS'CLCT'
p1391
I1
sS'FBSS'
p1392
I1
sS'AFFY'
p1393
I1
sS'AFFX'
p1394
I1
sS'CLUB'
p1395
I1
sS'FOX'
p1396
I1
sS'ECHO'
p1397
I1
sS'FOE'
p1398
I1
sS'AFFM'
p1399
I1
sS'JFBI'
p1400
I1
sS'FUNC'
p1401
I1
sS'GLDC'
p1402
I1
sS'AMSG'
p1403
I1
sS'JFBC'
p1404
I1
sS'CPIX'
p1405
I1
sS'SYUT'
p1406
I1
sS'DGAS'
p1407
I1
sS'ADVS'
p1408
I1
sS'CZNC'
p1409
I1
sS'C'
p1410
I1
sS'ULTI'
p1411
I1
sS'MKTX'
p1412
I1
sS'MKTY'
p1413
I1
sS'WWE'
p1414
I1
sS'WWD'
p1415
I1
sS'QADA'
p1416
I1
sS'FRP'
p1417
I1
sS'MOGA'
p1418
I1
sS'WINA'
p1419
I1
sS'OVAS'
p1420
I1
sS'COP'
p1421
I1
sS'COR'
p1422
I1
sS'COT'
p1423
I1
sS'COV'
p1424
I1
sS'FSI'
p1425
I1
sS'FISI'
p1426
I1
sS'PEP'
p1427
I1
sS'RELV'
p1428
I1
sS'FSP'
p1429
I1
sS'DAVE'
p1430
I1
sS'FST'
p1431
I1
sS'AOI'
p1432
I1
sS'COG'
p1433
I1
sS'PDFS'
p1434
I1
sS'COH'
p1435
I1
sS'PEG'
p1436
I1
sS'COL'
p1437
I1
sS'COO'
p1438
I1
sS'PZZI'
p1439
I0
sS'ZBB'
p1440
I1
sS'CASM'
p1441
I1
sS'CASH'
p1442
I1
sS'PENX'
p1443
I1
sS'DLIA'
p1444
I0
sS'CASS'
p1445
I1
sS'AMWD'
p1446
I1
sS'COCO'
p1447
I1
sS'PLUS'
p1448
I1
sS'CASY'
p1449
I1
sS'RGLD'
p1450
I1
sS'WAL'
p1451
I1
sS'WAG'
p1452
I1
sS'MRGE'
p1453
I1
sS'GMETP'
p1454
I1
sS'WAB'
p1455
I1
sS'TAYCP'
p1456
I1
sS'RALY'
p1457
I1
sS'GLCH'
p1458
I1
sS'WRLD'
p1459
I1
sS'CAAS'
p1460
I1
sS'SVBL'
p1461
I1
sS'UFI'
p1462
I1
sS'PLOW'
p1463
I1
sS'ALIM'
p1464
I1
sS'BLMT'
p1465
I1
sS'FCEL'
p1466
I1
sS'NYMT'
p1467
I1
sS'RUE'
p1468
I0
sS'BLMN'
p1469
I1
sS'JNGW'
p1470
I1
sS'TELK'
p1471
I1
sS'UFS'
p1472
I1
sS'TYPE'
p1473
I1
sS'DIN'
p1474
I1
sS'FNSR'
p1475
I1
sS'RECN'
p1476
I1
sS'GNW'
p1477
I1
sS'AIZ'
p1478
I1
sS'AIT'
p1479
I1
sS'AIV'
p1480
I1
sS'AIQ'
p1481
I1
sS'AMED'
p1482
I1
sS'VDSI'
p1483
I1
sS'AIR'
p1484
I1
sS'GNC'
p1485
I1
sS'RPAI'
p1486
I1
sS'CUTR'
p1487
I1
sS'GNE'
p1488
I1
sS'DIT'
p1489
I1
sS'INSY'
p1490
I1
sS'AIG'
p1491
I1
sS'STRT'
p1492
I1
sS'CHFN'
p1493
I1
sS'NSH'
p1494
I1
sS'QADB'
p1495
I1
sS'MEAS'
p1496
I1
sS'NSM'
p1497
I1
sS'MNST'
p1498
I1
sS'NSC'
p1499
I1
sS'FHCO'
p1500
I1
sS'PCYG'
p1501
I1
sS'CHFC'
p1502
I1
sS'MKTG'
p1503
I0
sS'MEAD'
p1504
I0
sS'NSP'
p1505
I1
sS'NSR'
p1506
I1
sS'VPRT'
p1507
I1
sS'NSPH'
p1508
I1
sS'AERG'
p1509
I1
sS'PANW'
p1510
I1
sS'CBRX'
p1511
I1
sS'VOLC'
p1512
I1
sS'TXN'
p1513
I1
sS'IP'
p1514
I1
sS'STRL'
p1515
I1
sS'UTHR'
p1516
I1
sS'UTL'
p1517
I1
sS'AERT'
p1518
I1
sS'CBRL'
p1519
I1
sS'DDDC'
p1520
I1
sS'IM'
p1521
I1
sS'IL'
p1522
I1
sS'IO'
p1523
I1
sS'ELNK'
p1524
I1
sS'IRC'
p1525
I1
sS'IG'
p1526
I1
sS'IRG'
p1527
I1
sS'RCKY'
p1528
I1
sS'MKTO'
p1529
I1
sS'HOTR'
p1530
I1
sS'RSOL'
p1531
I0
sS'ACRX'
p1532
I1
sS'ASYS'
p1533
I1
sS'NUTR'
p1534
I1
sS'PWX'
p1535
I1
sS'MAA'
p1536
I0
sS'DXCM'
p1537
I1
sS'TBAC'
p1538
I0
sS'ACRE'
p1539
I1
sS'DAKT'
p1540
I1
sS'RCKB'
p1541
I0
sS'BOX'
p1542
I1
sS'HBI'
p1543
I1
sS'CTRN'
p1544
I1
sS'RRGB'
p1545
I1
sS'FTEK'
p1546
I1
sS'DGSE'
p1547
I1
sS'CLF'
p1548
I1
sS'SATS'
p1549
I1
sS'TIVO'
p1550
I1
sS'EPL'
p1551
I1
sS'EPM'
p1552
I1
sS'PARS'
p1553
I1
sS'GTAT'
p1554
I1
sS'SHLD'
p1555
I1
sS'WAFD'
p1556
I1
sS'CENX'
p1557
I1
sS'SXC'
p1558
I1
sS'SXE'
p1559
I1
sS'JOSB'
p1560
I1
sS'JMP'
p1561
I0
sS'SXI'
p1562
I1
sS'SXL'
p1563
I1
sS'CENT'
p1564
I1
sS'PRFT'
p1565
I1
sS'SXT'
p1566
I1
sS'URZ'
p1567
I1
sS'FFBCW'
p1568
I1
sS'VVC'
p1569
I1
sS'BWLD'
p1570
I1
sS'UTI'
p1571
I1
sS'PFSW'
p1572
I1
sS'EGHT'
p1573
I1
sS'VYFC'
p1574
I1
sS'SAFM'
p1575
I1
sS'FSL'
p1576
I1
sS'INTX'
p1577
I1
sS'DSCO'
p1578
I1
sS'DSCI'
p1579
I1
sS'HOFT'
p1580
I1
sS'SVT'
p1581
I1
sS'SPN'
p1582
I1
sS'PFSI'
p1583
I1
sS'TE'
p1584
I1
sS'MDSO'
p1585
I1
sS'NCBC'
p1586
I0
sS'BOKF'
p1587
I1
sS'GXP'
p1588
I1
sS'AMKR'
p1589
I1
sS'AMRE'
p1590
I1
sS'FISV'
p1591
I1
sS'TPX'
p1592
I1
sS'NRTLQ'
p1593
I1
sS'ISLE'
p1594
I1
sS'PEI'
p1595
I1
sS'CATO'
p1596
I1
sS'CPHD'
p1597
I1
sS'FLS'
p1598
I1
sS'COF'
p1599
I1
sS'FLT'
p1600
I1
sS'DNBF'
p1601
I1
sS'OSIR'
p1602
I1
sS'FLL'
p1603
I1
sS'FLO'
p1604
I1
sS'ZLCS'
p1605
I1
sS'BDCO'
p1606
I1
sS'ESGR'
p1607
I1
sS'FONR'
p1608
I1
sS'LKQ'
p1609
I1
sS'CACC'
p1610
I1
sS'PRXL'
p1611
I1
sS'FCCY'
p1612
I1
sS'BRKR'
p1613
I1
sS'PEB'
p1614
I1
sS'EFII'
p1615
I1
sS'APO'
p1616
I1
sS'SCSS'
p1617
I1
sS'BDGE'
p1618
I1
sS'APL'
p1619
I1
sS'TRC'
p1620
I1
sS'AMGN'
p1621
I1
sS'APC'
p1622
I1
sS'AGIIL'
p1623
I1
sS'TRT'
p1624
I1
sS'TRW'
p1625
I1
sS'TRV'
p1626
I1
sS'SAVE'
p1627
I1
sS'HTA'
p1628
I1
sS'HTM'
p1629
I1
sS'ESE'
p1630
I1
sS'HTH'
p1631
I1
sS'LCUT'
p1632
I1
sS'HTS'
p1633
I0
sS'HTBI'
p1634
I1
sS'HTZ'
p1635
I1
sS'FMNB'
p1636
I1
sS'TNC'
p1637
I1
sS'GNRC'
p1638
I1
sS'FN'
p1639
I0
sS'FLDM'
p1640
I1
sS'BMTC'
p1641
I1
sS'NI'
p1642
I1
sS'NIHD'
p1643
I1
sS'NL'
p1644
I1
sS'ODP'
p1645
I1
sS'NC'
p1646
I1
sS'RRC'
p1647
I1
sS'NE'
p1648
I1
sS'UEC'
p1649
I1
sS'FMCC'
p1650
I1
sS'NX'
p1651
I1
sS'TECH'
p1652
I1
sS'MCRI'
p1653
I1
sS'TECD'
p1654
I1
sS'DMLP'
p1655
I1
sS'NR'
p1656
I1
sS'ODC'
p1657
I1
sS'NU'
p1658
I1
sS'DRAD'
p1659
I1
sS'BCOV'
p1660
I1
sS'ELY'
p1661
I1
sS'RDC'
p1662
I1
sS'PENN'
p1663
I1
sS'DRAM'
p1664
I1
sS'RDI'
p1665
I1
sS'NTIC'
p1666
I1
sS'ICON'
p1667
I1
sS'LEA'
p1668
I1
sS'FBP'
p1669
I1
sS'SMLP'
p1670
I1
sS'LEE'
p1671
I1
sS'FRME'
p1672
I1
sS'LEG'
p1673
I1
sS'LEI'
p1674
I1
sS'CLBH'
p1675
I1
sS'LEN'
p1676
I1
sS'FBC'
p1677
I1
sS'WEST'
p1678
I1
sS'NLNK'
p1679
I1
sS'CMTL'
p1680
I1
sS'USB'
p1681
I1
sS'CDII'
p1682
I1
sS'PAMT'
p1683
I0
sS'IILG'
p1684
I1
sS'LINTA'
p1685
I1
sS'USU'
p1686
I1
sS'GFIG'
p1687
I1
sS'MXIM'
p1688
I1
sS'ATMI'
p1689
I1
sS'SMTX'
p1690
I1
sS'AXTI'
p1691
I1
sS'PCAR'
p1692
I1
sS'OCLS'
p1693
I1
sS'SGY'
p1694
I1
sS'AMOT'
p1695
I1
sS'TTGT'
p1696
I1
sS'SGI'
p1697
I1
sS'SGA'
p1698
I1
sS'MCY'
p1699
I0
sS'SGC'
p1700
I1
sS'SGB'
p1701
I1
sS'PXD'
p1702
I1
sS'PBSK'
p1703
I1
sS'CNW'
p1704
I1
sS'ICH'
p1705
I1
sS'STFC'
p1706
I1
sS'CNS'
p1707
I1
sS'NLP'
p1708
I1
sS'FIRE'
p1709
I0
sS'FPO'
p1710
I1
sS'CWST'
p1711
I1
sS'CNX'
p1712
I1
sS'HTWR'
p1713
I1
sS'KYTH'
p1714
I1
sS'FPP'
p1715
I1
sS'CNA'
p1716
I1
sS'CNO'
p1717
I1
sS'CNL'
p1718
I1
sS'ANLY'
p1719
I0
sS'CNK'
p1720
I1
sS'AHPI'
p1721
I1
sS'PSMI'
p1722
I1
sS'MAXY'
p1723
I0
sS'PFE'
p1724
I1
sS'SOFO'
p1725
I1
sS'PFG'
p1726
I1
sS'AMTY'
p1727
I1
sS'AXE'
p1728
I1
sS'MRTN'
p1729
I1
sS'DXR'
p1730
I1
sS'THOR'
p1731
I1
sS'DXM'
p1732
I1
sS'INDB'
p1733
I1
sS'AMTG'
p1734
I1
sS'AMTD'
p1735
I1
sS'HIIQ'
p1736
I1
sS'PSMT'
p1737
I1
sS'PNRA'
p1738
I1
sS'FCZA'
p1739
I1
sS'BMI'
p1740
I1
sS'JBHT'
p1741
I1
sS'LSTR'
p1742
I1
sS'POPE'
p1743
I1
sS'ACEL'
p1744
I0
sS'SIX'
p1745
I1
sS'YUM'
p1746
I1
sS'GAIA'
p1747
I1
sS'EXAR'
p1748
I1
sS'TIGR'
p1749
I1
sS'ACET'
p1750
I1
sS'TAT'
p1751
I1
sS'WAT'
p1752
I1
sS'TAP'
p1753
I1
sS'VSAT'
p1754
I1
sS'RLGY'
p1755
I1
sS'BNCL'
p1756
I1
sS'AVAV'
p1757
I1
sS'QLGC'
p1758
I1
sS'RLGT'
p1759
I1
sS'TAX'
p1760
I1
sS'NGLS'
p1761
I1
sS'TAL'
p1762
I1
sS'TAM'
p1763
I1
sS'BODY'
p1764
I1
sS'FSGI'
p1765
I1
sS'RJET'
p1766
I1
sS'LIOX'
p1767
I1
sS'UFPT'
p1768
I1
sS'MJN'
p1769
I1
sS'GIG'
p1770
I1
sS'FLXS'
p1771
I1
sS'LION'
p1772
I1
sS'CMFO'
p1773
I1
sS'CSII'
p1774
I1
sS'AMZN'
p1775
I1
sS'AHC'
p1776
I1
sS'NPO'
p1777
I1
sS'PACW'
p1778
I1
sS'VTSS'
p1779
I1
sS'LOOK'
p1780
I1
sS'NPK'
p1781
I1
sS'MENT'
p1782
I1
sS'CTCT'
p1783
I1
sS'AHL'
p1784
I1
sS'ITRI'
p1785
I1
sS'AHS'
p1786
I1
sS'MNRK'
p1787
I1
sS'TLAB'
p1788
I0
sS'AHT'
p1789
I1
sS'AFOP'
p1790
I1
sS'ROIAK'
p1791
I1
sS'XYL'
p1792
I1
sS'ZOLT'
p1793
I0
sS'TSN'
p1794
I1
sS'AFL'
p1795
I1
sS'EMCI'
p1796
I1
sS'TSH'
p1797
I1
sS'AFM'
p1798
I1
sS'WBMD'
p1799
I1
sS'SBAC'
p1800
I1
sS'TSC'
p1801
I1
sS'LPTN'
p1802
I1
sS'CNQR'
p1803
I1
sS'ARDNA'
p1804
I0
sS'APOG'
p1805
I1
sS'AROW'
p1806
I1
sS'RNIN'
p1807
I1
sS'APOL'
p1808
I1
sS'UIHC'
p1809
I1
sS'NFG'
p1810
I1
sS'CGNX'
p1811
I1
sS'LOAN'
p1812
I1
sS'BCRX'
p1813
I1
sS'NSEC'
p1814
I1
sS'MSTR'
p1815
I1
sS'HCC'
p1816
I1
sS'RIMG'
p1817
I0
sS'FFIN'
p1818
I1
sS'BLK'
p1819
I1
sS'FFIC'
p1820
I1
sS'HCI'
p1821
I1
sS'NFX'
p1822
I1
sS'WAGE'
p1823
I1
sS'SLCA'
p1824
I1
sS'FFNW'
p1825
I1
sS'USMO'
p1826
I1
sS'LNBB'
p1827
I1
sS'PRGS'
p1828
I1
sS'LZB'
p1829
I1
sS'PRGX'
p1830
I1
sS'REX'
p1831
I1
sS'RES'
p1832
I1
sS'ABTL'
p1833
I1
sS'REN'
p1834
I1
sS'IDTI'
p1835
I1
sS'RBCN'
p1836
I1
sS'MKC'
p1837
I1
sS'EGOV'
p1838
I1
sS'TOFC'
p1839
I0
sS'FCS'
p1840
I1
sS'UBOH'
p1841
I1
sS'FRNK'
p1842
I1
sS'FCX'
p1843
I1
sS'ANDAW'
p1844
I1
sS'SMMF'
p1845
I1
sS'FCF'
p1846
I1
sS'BXP'
p1847
I1
sS'FCH'
p1848
I0
sS'GORO'
p1849
I1
sS'FICO'
p1850
I1
sS'FCN'
p1851
I0
sS'LTS'
p1852
I1
sS'LQDT'
p1853
I1
sS'MKL'
p1854
I1
sS'INSM'
p1855
I1
sS'SMCI'
p1856
I1
sS'BRKA'
p1857
I1
sS'FMD'
p1858
I1
sS'GSIG'
p1859
I1
sS'FMC'
p1860
I1
sS'LTM'
p1861
I1
sS'TSCO'
p1862
I1
sS'MNTX'
p1863
I1
sS'SR'
p1864
I1
sS'ISR'
p1865
I1
sS'ST'
p1866
I1
sS'UNFI'
p1867
I1
sS'SO'
p1868
I1
sS'SN'
p1869
I1
sS'SM'
p1870
I1
sS'MODN'
p1871
I1
sS'FSCI'
p1872
I1
sS'CSHB'
p1873
I1
sS'QNST'
p1874
I1
sS'SF'
p1875
I1
sS'SE'
p1876
I1
sS'SD'
p1877
I1
sS'STEC'
p1878
I0
sS'SWKS'
p1879
I1
sS'IBM'
p1880
I1
sS'OXBT'
p1881
I1
sS'CAS'
p1882
I1
sS'CAR'
p1883
I1
sS'STEI'
p1884
I0
sS'CAW'
p1885
I1
sS'WRD'
p1886
I1
sS'STEL'
p1887
I0
sS'STEM'
p1888
I1
sS'CAK'
p1889
I1
sS'CBMX'
p1890
I1
sS'CAH'
p1891
I1
sS'MGM'
p1892
I1
sS'CAM'
p1893
I1
sS'RFMD'
p1894
I1
sS'CAC'
p1895
I1
sS'CAB'
p1896
I1
sS'HMPR'
p1897
I1
sS'DATA'
p1898
I1
sS'DBLEP'
p1899
I0
sS'CXPO'
p1900
I0
sS'GNI'
p1901
I1
sS'PGC'
p1902
I1
sS'INCY'
p1903
I1
sS'ASIA'
p1904
I1
sS'PGI'
p1905
I1
sS'VAC'
p1906
I1
sS'DIS'
p1907
I1
sS'HZO'
p1908
I1
sS'FLEX'
p1909
I1
sS'AKRX'
p1910
I1
sS'ZION'
p1911
I1
sS'UNTY'
p1912
I1
sS'APRI'
p1913
I1
sS'MMSI'
p1914
I1
sS'MGT'
p1915
I1
sS'CWBC'
p1916
I1
sS'WCC'
p1917
I1
sS'SIMG'
p1918
I1
sS'UNTD'
p1919
I1
sS'WCG'
p1920
I1
sS'CACB'
p1921
I1
sS'CHYR'
p1922
I1
sS'UNTK'
p1923
I1
sS'CACI'
p1924
I1
sS'CACH'
p1925
I1
sS'WCN'
p1926
I1
sS'ARSD'
p1927
I1
sS'TWMC'
p1928
I1
sS'RSH'
p1929
I0
sS'ALKS'
p1930
I1
sS'RSE'
p1931
I1
sS'RSG'
p1932
I1
sS'LOGC'
p1933
I1
sS'CREE'
p1934
I1
sS'DRTX'
p1935
I1
sS'BLKB'
p1936
I1
sS'CDZI'
p1937
I1
sS'POZN'
p1938
I1
sS'WSTG'
p1939
I1
sS'WSTC'
p1940
I1
sS'PPO'
p1941
I1
sS'WSTL'
p1942
I1
sS'FSFG'
p1943
I1
sS'HDNG'
p1944
I1
sS'MIG'
p1945
I0
sS'RCII'
p1946
I1
sS'CSFL'
p1947
I1
sS'REED'
p1948
I1
sS'GPIC'
p1949
I1
sS'GHM'
p1950
I1
sS'LINE'
p1951
I1
sS'NWFL'
p1952
I1
sS'LINC'
p1953
I1
sS'BRLI'
p1954
I1
sS'FULT'
p1955
I1
sS'LUV'
p1956
I0
sS'XRAY'
p1957
I1
sS'AOL'
p1958
I1
sS'LMCA'
p1959
I1
sS'VIDE'
p1960
I1
sS'FIO'
p1961
I1
sS'CTBI'
p1962
I1
sS'OREX'
p1963
I1
sS'NGVC'
p1964
I1
sS'URG'
p1965
I1
sS'AYI'
p1966
I1
sS'URBN'
p1967
I1
sS'AEPI'
p1968
I1
sS'URI'
p1969
I1
sS'MAYS'
p1970
I1
sS'URS'
p1971
I1
sS'VIRC'
p1972
I1
sS'HAFC'
p1973
I1
sS'IPG'
p1974
I1
sS'NLSN'
p1975
I1
sS'IPI'
p1976
I1
sS'INOC'
p1977
I0
sS'UFCS'
p1978
I1
sS'FOXA'
p1979
I1
sS'CBI'
p1980
I1
sS'NLST'
p1981
I1
sS'PRXI'
p1982
I1
sS'SFG'
p1983
I1
sS'SFE'
p1984
I1
sS'HTBK'
p1985
I1
sS'ACTG'
p1986
I1
sS'TECUB'
p1987
I0
sS'BAMM'
p1988
I1
sS'TECUA'
p1989
I0
sS'NGL'
p1990
I1
sS'ISNS'
p1991
I1
sS'NGS'
p1992
I1
sS'ISH'
p1993
I1
sS'PAYX'
p1994
I1
sS'BMC'
p1995
I1
sS'ECYT'
p1996
I1
sS'LAYN'
p1997
I1
sS'MGAM'
p1998
I1
sS'TITN'
p1999
I1
sS'ADAT'
p2000
I1
sS'ADSK'
p2001
I1
sS'PPHM'
p2002
I1
sS'DENN'
p2003
I1
sS'LNCE'
p2004
I1
sS'IIIN'
p2005
I1
sS'BMY'
p2006
I1
sS'LNCO'
p2007
I1
sS'DTLK'
p2008
I1
sS'ED'
p2009
I1
sS'PMCS'
p2010
I1
sS'EA'
p2011
I1
sS'AFCB'
p2012
I1
sS'IT'
p2013
I0
sS'WAVX'
p2014
I1
sS'ACFC'
p2015
I1
sS'ACFN'
p2016
I1
sS'TDG'
p2017
I1
sS'POST'
p2018
I1
sS'EV'
p2019
I1
sS'BRKL'
p2020
I1
sS'AMIN'
p2021
I1
sS'APPY'
p2022
I1
sS'USTR'
p2023
I1
sS'AMID'
p2024
I1
sS'BBGI'
p2025
I1
sS'MGN'
p2026
I1
sS'AMIC'
p2027
I1
sS'NASB'
p2028
I1
sS'FNFG'
p2029
I1
sS'TXRH'
p2030
I1
sS'WWAV'
p2031
I1
sS'SIVB'
p2032
I1
sS'ISIG'
p2033
I1
sS'IRM'
p2034
I0
sS'CNBC'
p2035
I0
sS'MLAB'
p2036
I1
sS'ENZN'
p2037
I1
sS'STXS'
p2038
I1
sS'CLRX'
p2039
I1
sS'FOLD'
p2040
I1
sS'LUB'
p2041
I1
sS'ASPS'
p2042
I1
sS'OTEX'
p2043
I1
sS'CYCCP'
p2044
I1
sS'CLRO'
p2045
I1
sS'UTX'
p2046
I1
sS'ESSA'
p2047
I1
sS'TSBK'
p2048
I1
sS'WPX'
p2049
I1
sS'AFCE'
p2050
I0
sS'WPZ'
p2051
I1
sS'GNBT'
p2052
I1
sS'JCI'
p2053
I1
sS'EFOI'
p2054
I1
sS'DLLR'
p2055
I1
sS'IRF'
p2056
I0
sS'GEVO'
p2057
I1
sS'QTM'
p2058
I1
sS'PCP'
p2059
I1
sS'AIMC'
p2060
I1
sS'AVNW'
p2061
I1
sS'TLR'
p2062
I1
sS'IPHI'
p2063
I1
sS'ULGX'
p2064
I1
sS'TSPT'
p2065
I1
sS'GTI'
p2066
I0
sS'TFCO'
p2067
I0
sS'GTN'
p2068
I1
sS'ATML'
p2069
I1
sS'BFIN'
p2070
I1
sS'GTS'
p2071
I1
sS'TLF'
p2072
I1
sS'RAI'
p2073
I1
sS'ERII'
p2074
I1
sS'BIOL'
p2075
I1
sS'ARW'
p2076
I1
sS'NOVB'
p2077
I1
sS'ARNA'
p2078
I1
sS'HNRG'
p2079
I1
sS'BASI'
p2080
I1
sS'HVT'
p2081
I1
sS'DYII'
p2082
I1
sS'CWCO'
p2083
I1
sS'WBS'
p2084
I1
sS'TSLA'
p2085
I1
sS'SLXP'
p2086
I1
sS'CADX'
p2087
I0
sS'VLTR'
p2088
I0
sS'DWSN'
p2089
I1
sS'CADC'
p2090
I1
sS'ABIO'
p2091
I1
sS'ZINC'
p2092
I1
sS'CHKE'
p2093
I1
sS'VSCI'
p2094
I1
sS'AVNR'
p2095
I1
sS'RPT'
p2096
I1
sS'PNBK'
p2097
I1
sS'TEAR'
p2098
I1
sS'GALTU'
p2099
I1
sS'UVSP'
p2100
I1
sS'TUMI'
p2101
I1
sS'ARRS'
p2102
I0
sS'SREV'
p2103
I1
sS'RPM'
p2104
I1
sS'ARRY'
p2105
I1
sS'AKAM'
p2106
I1
sS'BEAV'
p2107
I1
sS'M'
p2108
I1
sS'XOMA'
p2109
I1
sS'HXL'
p2110
I1
sS'FEIC'
p2111
I1
sS'ALXN'
p2112
I1
sS'ARI'
p2113
I1
sS'ALXA'
p2114
I1
sS'ICAD'
p2115
I1
sS'TESO'
p2116
I1
sS'UBNK'
p2117
I1
sS'LGL'
p2118
I1
sS'ULTA'
p2119
I1
sS'BGMD'
p2120
I1
sS'LGF'
p2121
I1
sS'PHMD'
p2122
I1
sS'PBCT'
p2123
I1
sS'AMSWA'
p2124
I1
sS'COSI'
p2125
I1
sS'VTR'
p2126
I1
sS'FIBK'
p2127
I1
sS'LGP'
p2128
I1
sS'IMMR'
p2129
I1
sS'IMMU'
p2130
I1
sS'ROLL'
p2131
I1
sS'FES'
p2132
I1
sS'TESS'
p2133
I1
sS'AXR'
p2134
I1
sS'NSFC'
p2135
I1
sS'AXP'
p2136
I1
sS'NFLX'
p2137
I1
sS'CVCY'
p2138
I1
sS'PCCC'
p2139
I1
sS'BBX'
p2140
I1
sS'FNLC'
p2141
I1
sS'CVCO'
p2142
I1
sS'TRIT'
p2143
I0
sS'AXN'
p2144
I1
sS'OSIS'
p2145
I1
sS'CPSI'
p2146
I1
sS'THLD'
p2147
I1
sS'IRWD'
p2148
I1
sS'ACUR'
p2149
I1
sS'SNA'
p2150
I1
sS'DVCR'
p2151
I1
sS'ENSG'
p2152
I1
sS'CBL'
p2153
I1
sS'HTCH'
p2154
I1
sS'PZG'
p2155
I1
sS'HTCO'
p2156
I1
sS'CLNE'
p2157
I1
sS'IMCB'
p2158
I1
sS'EXEL'
p2159
I1
sS'FRAN'
p2160
I1
sS'FVE'
p2161
I1
sS'AWRE'
p2162
I1
sS'CLNT'
p2163
I1
sS'BGCP'
p2164
I1
sS'RDNT'
p2165
I1
sS'HAWK'
p2166
I1
sS'VALV'
p2167
I1
sS'CLNY'
p2168
I1
sS'BOH'
p2169
I1
sS'PHH'
p2170
I1
sS'ZIXI'
p2171
I1
sS'GMED'
p2172
I1
sS'PHX'
p2173
I1
sS'BRCM'
p2174
I1
sS'SHLM'
p2175
I1
sS'BRCD'
p2176
I1
sS'SKT'
p2177
I1
sS'ITIC'
p2178
I1
sS'CRMT'
p2179
I1
sS'SHLO'
p2180
I1
sS'PTGI'
p2181
I0
sS'SKX'
p2182
I1
sS'VMC'
p2183
I1
sS'CRMB'
p2184
I0
sS'CRMD'
p2185
I1
sS'CTAS'
p2186
I1
sS'TRST'
p2187
I1
sS'FAST'
p2188
I1
sS'SKH'
p2189
I0
sS'GES'
p2190
I1
sS'MFA'
p2191
I1
sS'IXYS'
p2192
I1
sS'MFI'
p2193
I1
sS'AMNB'
p2194
I1
sS'TCP'
p2195
I1
sS'TCO'
p2196
I1
sS'GEF'
p2197
I1
sS'TCI'
p2198
I1
sS'HWKN'
p2199
I1
sS'GEO'
p2200
I1
sS'INPH'
p2201
I1
sS'CCG'
p2202
I1
sS'MHK'
p2203
I1
sS'MHH'
p2204
I1
sS'IBKC'
p2205
I1
sS'DDS'
p2206
I1
sS'DDR'
p2207
I1
sS'CSGS'
p2208
I1
sS'LYV'
p2209
I1
sS'CSGP'
p2210
I1
sS'XL'
p2211
I1
sS'IBKR'
p2212
I1
sS'ABMD'
p2213
I1
sS'EBTC'
p2214
I1
sS'DDD'
p2215
I1
sS'ANF'
p2216
I1
sS'SPCHA'
p2217
I1
sS'NVR'
p2218
I1
sS'SPCHB'
p2219
I1
sS'ANN'
p2220
I1
sS'ANH'
p2221
I1
sS'MCHX'
p2222
I1
sS'CBIN'
p2223
I1
sS'MELI'
p2224
I1
sS'SGYP'
p2225
I1
sS'MCHP'
p2226
I1
sS'IGC'
p2227
I1
sS'MELA'
p2228
I1
sS'TMP'
p2229
I1
sS'MOLX'
p2230
I0
sS'IMGN'
p2231
I1
sS'HPOL'
p2232
I0
sS'REXI'
p2233
I1
sS'ATLO'
p2234
I1
sS'ABFS'
p2235
I0
sS'GWR'
p2236
I1
sS'TMH'
p2237
I1
sS'ATLC'
p2238
I1
sS'REXX'
p2239
I1
sS'APAM'
p2240
I1
sS'HWG'
p2241
I1
sS'CERS'
p2242
I1
sS'MXWL'
p2243
I1
sS'NJR'
p2244
I1
sS'NSIT'
p2245
I1
sS'HNSN'
p2246
I1
sS'CHUY'
p2247
I1
sS'MRIN'
p2248
I1
sS'CBB'
p2249
I1
sS'ATRC'
p2250
I1
sS'HES'
p2251
I1
sS'ATRI'
p2252
I1
sS'LOCK'
p2253
I1
sS'ATRM'
p2254
I1
sS'ATRO'
p2255
I1
sS'LOCM'
p2256
I1
sS'ATRS'
p2257
I1
sS'KRO'
p2258
I0
sS'HEB'
p2259
I1
sS'BMS'
p2260
I1
sS'BCPC'
p2261
I1
sS'KRA'
p2262
I1
sS'HEI'
p2263
I1
sS'MLNK'
p2264
I1
sS'TISI'
p2265
I1
sS'TRAK'
p2266
I1
sS'MLNX'
p2267
I1
sS'GNTX'
p2268
I1
sS'SON'
p2269
I1
sS'MBFI'
p2270
I1
sS'FFKY'
p2271
I1
sS'WVVI'
p2272
I1
sS'HF'
p2273
I1
sS'ARCW'
p2274
I1
sS'ARCP'
p2275
I1
sS'YONG'
p2276
I1
sS'OFED'
p2277
I1
sS'WSO'
p2278
I1
sS'RCL'
p2279
I1
sS'PJC'
p2280
I1
sS'EIG'
p2281
I1
sS'WTFC'
p2282
I1
sS'ARCI'
p2283
I1
sS'LTXC'
p2284
I0
sS'LEDS'
p2285
I1
sS'NAVG'
p2286
I1
sS'AWAY'
p2287
I1
sS'UHT'
p2288
I1
sS'ALCS'
p2289
I0
sS'ROCM'
p2290
I0
sS'INO'
p2291
I1
sS'FAC'
p2292
I1
sS'OWW'
p2293
I1
sS'FAF'
p2294
I1
sS'PDLI'
p2295
I1
sS'GOOG'
p2296
I1
sS'GOOD'
p2297
I1
sS'LVS'
p2298
I1
sS'CNMD'
p2299
I1
sS'VECO'
p2300
I1
sS'YOD'
p2301
I1
sS'ECTY'
p2302
I0
sS'SFLY'
p2303
I1
sS'RVSB'
p2304
I1
sS'ECTE'
p2305
I1
sS'RVLT'
p2306
I1
sS'ICPT'
p2307
I1
sS'EXXI'
p2308
I1
sS'MPAA'
p2309
I1
sS'MIDD'
p2310
I1
sS'MPAC'
p2311
I0
sS'GCOM'
p2312
I1
sS'LTC'
p2313
I0
sS'LLNW'
p2314
I1
sS'BOLT'
p2315
I1
sS'NFSB'
p2316
I0
sS'ANIK'
p2317
I1
sS'FRBK'
p2318
I1
sS'WLDN'
p2319
I1
sS'OAK'
p2320
I1
sS'BLIN'
p2321
I1
sS'HMNF'
p2322
I1
sS'CCO'
p2323
I1
sS'CCI'
p2324
I1
sS'CCK'
p2325
I1
sS'CCE'
p2326
I1
sS'FWV'
p2327
I1
sS'CCF'
p2328
I1
sS'CCC'
p2329
I1
sS'PII'
p2330
I1
sS'SVU'
p2331
I1
sS'CHMG'
p2332
I1
sS'HVB'
p2333
I1
sS'INAP'
p2334
I1
sS'FLIR'
p2335
I1
sS'AKR'
p2336
I1
sS'DMRC'
p2337
I1
sS'PIR'
p2338
I1
sS'MYE'
p2339
I1
sS'CHMP'
p2340
I1
sS'SYKE'
p2341
I1
sS'DWRE'
p2342
I1
sS'MRCY'
p2343
I1
sS'JJSF'
p2344
I1
sS'WMK'
p2345
I1
sS'APAGF'
p2346
I1
sS'WMB'
p2347
I1
sS'NXST'
p2348
I1
sS'UBP'
p2349
I1
sS'CDXS'
p2350
I1
sS'OC'
p2351
I1
sS'FB'
p2352
I1
sS'ARQL'
p2353
I1
sS'NTRS'
p2354
I1
sS'UCI'
p2355
I1
sS'URRE'
p2356
I1
sS'MWW'
p2357
I0
sS'EBIX'
p2358
I0
sS'ZLC'
p2359
I1
sS'CHCO'
p2360
I1
sS'CHCI'
p2361
I1
sS'REGN'
p2362
I1
sS'DEI'
p2363
I1
sS'MWA'
p2364
I0
sS'DEL'
p2365
I1
sS'THTI'
p2366
I1
sS'HOME'
p2367
I1
sS'DGLY'
p2368
I1
sS'FXCM'
p2369
I1
sS'OSTK'
p2370
I1
sS'SSFN'
p2371
I1
sS'CVLT'
p2372
I1
sS'GLT'
p2373
I1
sS'PCTI'
p2374
I1
sS'AME'
p2375
I1
sS'NWY'
p2376
I1
sS'CVLY'
p2377
I1
sS'DOW'
p2378
I1
sS'NWE'
p2379
I1
sS'LOPE'
p2380
I1
sS'PVTB'
p2381
I1
sS'MSFT'
p2382
I1
sS'AMP'
p2383
I1
sS'AMS'
p2384
I1
sS'BZH'
p2385
I1
sS'AMT'
p2386
I1
sS'LMAT'
p2387
I1
sS'LRCX'
p2388
I1
sS'UPL'
p2389
I1
sS'PCBS'
p2390
I0
sS'UPI'
p2391
I1
sS'VNTV'
p2392
I1
sS'ASH'
p2393
I1
sS'CFFN'
p2394
I1
sS'CFFI'
p2395
I1
sS'FNMA'
p2396
I1
sS'VBFC'
p2397
I1
sS'CVBK'
p2398
I0
sS'VITC'
p2399
I1
sS'SNHY'
p2400
I1
sS'WDAY'
p2401
I1
sS'UPS'
p2402
I1
sS'PCBK'
p2403
I1
sS'CVBF'
p2404
I1
sS'AHGP'
p2405
I1
sS'IVC'
p2406
I1
sS'WWW'
p2407
I1
sS'ANGO'
p2408
I1
sS'ANGI'
p2409
I1
sS'CYNO'
p2410
I1
sS'SCTY'
p2411
I1
sS'IVR'
p2412
I1
sS'CYNI'
p2413
I1
sS'HTLD'
p2414
I1
sS'HTLF'
p2415
I1
sS'IVZ'
p2416
I1
sS'NEN'
p2417
I1
sS'NEO'
p2418
I1
sS'NEM'
p2419
I1
sS'ACE'
p2420
I1
sS'RGEN'
p2421
I1
sS'ACI'
p2422
I1
sS'NEE'
p2423
I1
sS'ACO'
p2424
I1
sS'ACN'
p2425
I1
sS'ACM'
p2426
I1
sS'ACW'
p2427
I1
sS'ACU'
p2428
I1
sS'ACY'
p2429
I1
sS'NEU'
p2430
I1
sS'IGOI'
p2431
I1
sS'NES'
p2432
I1
sS'BKD'
p2433
I1
sS'BKE'
p2434
I1
sS'FDML'
p2435
I1
sS'MGCD'
p2436
I1
sS'BKH'
p2437
I1
sS'WABC'
p2438
I1
sS'BKJ'
p2439
I1
sS'SOHU'
p2440
I1
sS'PKE'
p2441
I1
sS'BKU'
p2442
I1
sS'BKW'
p2443
I1
sS'LSCC'
p2444
I1
sS'ADC'
p2445
I1
sS'BKS'
p2446
I1
sS'QBAK'
p2447
I1
sS'PRTS'
p2448
I1
sS'FLR'
p2449
I1
sS'GILD'
p2450
I1
sS'MDVN'
p2451
I1
sS'SJW'
p2452
I1
sS'CACGW'
p2453
I1
sS'CACGU'
p2454
I1
sS'SJI'
p2455
I1
sS'MEMP'
p2456
I1
sS'MEMS'
p2457
I0
sS'MSEX'
p2458
I1
sS'QUAD'
p2459
I1
sS'ACHC'
p2460
I1
sS'MBWM'
p2461
I1
sS'REIS'
p2462
I1
sS'EPIQ'
p2463
I1
sS'MEI'
p2464
I1
sS'EBAY'
p2465
I1
sS'SSTK'
p2466
I1
sS'BOOM'
p2467
I1
sS'BYLK'
p2468
I1
sS'TFSL'
p2469
I1
sS'CBMXW'
p2470
I1
sS'PTEK'
p2471
I1
sS'CPLA'
p2472
I1
sS'VHI'
p2473
I1
sS'PDCO'
p2474
I1
sS'SPNC'
p2475
I1
sS'PDCE'
p2476
I1
sS'VHC'
p2477
I1
sS'IMMY'
p2478
I1
sS'AFAM'
p2479
I1
sS'TXI'
p2480
I1
sS'TW'
p2481
I1
sS'TR'
p2482
I1
sS'VLY'
p2483
I1
sS'NKTR'
p2484
I1
sS'QSII'
p2485
I1
sS'TG'
p2486
I1
sS'DWCH'
p2487
I1
sS'TXT'
p2488
I1
sS'TC'
p2489
I1
sS'TA'
p2490
I1
sS'AA'
p2491
I1
sS'AB'
p2492
I1
sS'AE'
p2493
I1
sS'AF'
p2494
I1
sS'AI'
p2495
I1
sS'ATOS'
p2496
I1
sS'GVA'
p2497
I1
sS'AN'
p2498
I1
sS'AP'
p2499
I1
sS'HBHC'
p2500
I1
sS'TSRO'
p2501
I1
sS'TSRA'
p2502
I1
sS'AFSI'
p2503
I1
sS'AOSL'
p2504
I1
sS'HHS'
p2505
I1
sS'NKA'
p2506
I1
sS'UBNT'
p2507
I1
sS'NKE'
p2508
I1
sS'UAHC'
p2509
I1
sS'ARLP'
p2510
I1
sS'HHC'
p2511
I1
sS'NHI'
p2512
I1
sS'ENTA'
p2513
I1
sS'HMG'
p2514
I1
sS'CPN'
p2515
I1
sS'GCBC'
p2516
I1
sS'WLP'
p2517
I1
sS'RNWK'
p2518
I1
sS'CPB'
p2519
I1
sS'TQNT'
p2520
I1
sS'WLT'
p2521
I1
sS'CPE'
p2522
I1
sS'CPF'
p2523
I1
sS'WLH'
p2524
I1
sS'GNVC'
p2525
I1
sS'WLK'
p2526
I1
sS'WLL'
p2527
I1
sS'ZQK'
p2528
I1
sS'CAFI'
p2529
I1
sS'FALC'
p2530
I1
sS'UQM'
p2531
I1
sS'WLB'
p2532
I1
sS'CPT'
p2533
I1
sS'EFSC'
p2534
I1
sS'HEES'
p2535
I1
sS'WFBI'
p2536
I1
sS'NILE'
p2537
I1
sS'UAM'
p2538
I1
sS'UAL'
p2539
I1
sS'UAN'
p2540
I1
sS'MANH'
p2541
I1
sS'NTSC'
p2542
I0
sS'VOYA'
p2543
I1
sS'GLPW'
p2544
I1
sS'WRE'
p2545
I1
sS'XOOM'
p2546
I1
sS'TAYD'
p2547
I1
sS'NOBH'
p2548
I1
sS'DYSL'
p2549
I1
sS'TAYC'
p2550
I1
sS'WRI'
p2551
I1
sS'SMA'
p2552
I1
sS'BECN'
p2553
I1
sS'DORM'
p2554
I1
sS'UNIS'
p2555
I1
sS'ICCC'
p2556
I1
sS'PAA'
p2557
I1
sS'LAD'
p2558
I1
sS'NBBC'
p2559
I1
sS'HFFC'
p2560
I1
sS'MAKO'
p2561
I0
sS'FFG'
p2562
I1
sS'PLPC'
p2563
I1
sS'SEAS'
p2564
I1
sS'WHLR'
p2565
I1
sS'CSWC'
p2566
I1
sS'DTE'
p2567
I1
sS'CODI'
p2568
I1
sS'WMGI'
p2569
I1
sS'WRES'
p2570
I1
sS'SEAC'
p2571
I1
sS'DTV'
p2572
I1
sS'PEIX'
p2573
I1
sS'AAWW'
p2574
I1
sS'DCOM'
p2575
I1
sS'DVAX'
p2576
I1
sS'AXL'
p2577
I1
sS'MTOR'
p2578
I1
sS'CUNB'
p2579
I1
sS'VRML'
p2580
I1
sS'NBTB'
p2581
I1
sS'FTR'
p2582
I1
sS'JNPR'
p2583
I1
sS'NBTF'
p2584
I1
sS'CFNL'
p2585
I1
sS'STBA'
p2586
I1
sS'ASCMA'
p2587
I1
sS'FIVE'
p2588
I1
sS'IMAX'
p2589
I1
sS'LHCG'
p2590
I1
sS'FTI'
p2591
I1
sS'FTK'
p2592
I1
sS'LABL'
p2593
I1
sS'BKBK'
p2594
I0
sS'SBSA'
p2595
I1
sS'CBF'
p2596
I1
sS'CBG'
p2597
I1
sS'CHLN'
p2598
I1
sS'CBK'
p2599
I1
sS'SBSI'
p2600
I1
sS'CNBKA'
p2601
I1
sS'CBM'
p2602
I1
sS'CBR'
p2603
I1
sS'CBS'
p2604
I1
sS'MXL'
p2605
I1
sS'QUIK'
p2606
I1
sS'CBT'
p2607
I1
sS'CBU'
p2608
I1
sS'CBZ'
p2609
I1
sS'VVTV'
p2610
I0
sS'FR'
p2611
I1
sS'CIZN'
p2612
I1
sS'FU'
p2613
I0
sS'CROX'
p2614
I1
sS'ACIW'
p2615
I1
sS'CDNS'
p2616
I1
sS'HAIN'
p2617
I1
sS'MSFG'
p2618
I1
sS'SMP'
p2619
I1
sS'TTMI'
p2620
I1
sS'FC'
p2621
I1
sS'BZC'
p2622
I1
sS'FE'
p2623
I1
sS'FF'
p2624
I1
sS'SMG'
p2625
I1
sS'CYAN'
p2626
I1
sS'FL'
p2627
I1
sS'HOMB'
p2628
I1
sS'BAS'
p2629
I1
sS'TRR'
p2630
I1
sS'NATR'
p2631
I1
sS'CWT'
p2632
I1
sS'BONT'
p2633
I1
sS'NATI'
p2634
I1
sS'NATH'
p2635
I1
sS'BERK'
p2636
I1
sS'NATL'
p2637
I1
sS'KVHI'
p2638
I1
sS'RPXC'
p2639
I1
sS'MDP'
p2640
I1
sS'TJX'
p2641
I1
sS'MDW'
p2642
I1
sS'MDT'
p2643
I1
sS'MDU'
p2644
I1
sS'ESBF'
p2645
I1
sS'ZMH'
p2646
I1
sS'AWI'
p2647
I1
sS'DFZ'
p2648
I1
sS'DFT'
p2649
I1
sS'REFR'
p2650
I1
sS'IBIO'
p2651
I1
sS'DFS'
p2652
I1
sS'JEC'
p2653
I1
sS'ILMN'
p2654
I1
sS'CHBT'
p2655
I0
sS'OESX'
p2656
I1
sS'OTTR'
p2657
I1
sS'ALL'
p2658
I1
sS'ALJ'
p2659
I1
sS'ALK'
p2660
I1
sS'SUTR'
p2661
I1
sS'TRLG'
p2662
I0
sS'ALG'
p2663
I1
sS'NTS'
p2664
I1
sS'ALE'
p2665
I1
sS'ALB'
p2666
I1
sS'UEPS'
p2667
I1
sS'MARK'
p2668
I1
sS'NTI'
p2669
I1
sS'ALX'
p2670
I1
sS'NTN'
p2671
I1
sS'ALV'
p2672
I1
sS'ALR'
p2673
I1
sS'LYTS'
p2674
I1
sS'BAC'
p2675
I1
sS'USAK'
p2676
I1
sS'SIGA'
p2677
I1
sS'ADBE'
p2678
I1
sS'DECK'
p2679
I1
sS'HPAC'
p2680
I0
sS'MDXG'
p2681
I1
sS'MITL'
p2682
I1
sS'MITK'
p2683
I1
sS'TOL'
p2684
I1
sS'KOP'
p2685
I1
sS'XPLR'
p2686
I1
sS'USAP'
p2687
I1
sS'EPZM'
p2688
I1
sS'HBIO'
p2689
I1
sS'OFG'
p2690
I1
sS'BVSN'
p2691
I1
sS'NHC'
p2692
I1
sS'HIW'
p2693
I1
sS'STRZB'
p2694
I1
sS'TOF'
p2695
I1
sS'STRZA'
p2696
I1
sS'ISSI'
p2697
I1
sS'KFY'
p2698
I1
sS'HIG'
p2699
I0
sS'HII'
p2700
I1
sS'WVFC'
p2701
I1
sS'USAT'
p2702
I1
sS'HIL'
p2703
I1
sS'NSYS'
p2704
I1
sS'VLGEA'
p2705
I1
sS'ABC'
p2706
I1
sS'FTNT'
p2707
I1
sS'ABG'
p2708
I1
sS'SIGM'
p2709
I1
sS'PCYO'
p2710
I1
sS'HGR'
p2711
I1
sS'ABM'
p2712
I1
sS'Q'
p2713
I1
sS'ABR'
p2714
I1
sS'BANF'
p2715
I1
sS'CMLP'
p2716
I1
sS'BANC'
p2717
I1
sS'CMLS'
p2718
I1
sS'RGDX'
p2719
I1
sS'XOM'
p2720
I1
sS'CZFC'
p2721
I1
sS'BHI'
p2722
I1
sS'SSP'
p2723
I1
sS'ISSC'
p2724
I1
sS'RLH'
p2725
I1
sS'BHB'
p2726
I1
sS'BHE'
p2727
I1
sS'CRAY'
p2728
I1
sS'FFEX'
p2729
I0
sS'LSBI'
p2730
I1
sS'LSBK'
p2731
I1
sS'PRCP'
p2732
I1
sS'CRAI'
p2733
I1
sS'IGTE'
p2734
I1
sS'EGY'
p2735
I1
sS'ATNI'
p2736
I1
sS'ARAY'
p2737
I1
sS'XONE'
p2738
I1
sS'NYNY'
p2739
I1
sS'EGN'
p2740
I1
sS'EGL'
p2741
I1
sS'CLIR'
p2742
I1
sS'GLBZ'
p2743
I1
sS'BEBE'
p2744
I1
sS'GSBC'
p2745
I1
sS'RAD'
p2746
I1
sS'CNYD'
p2747
I1
sS'EXTR'
p2748
I1
sS'LBY'
p2749
I1
sS'FGP'
p2750
I0
sS'SMIT'
p2751
I1
sS'STSI'
p2752
I1
sS'RAS'
p2753
I1
sS'NBCB'
p2754
I0
sS'STSA'
p2755
I0
sS'RAX'
p2756
I1
sS'FBNK'
p2757
I1
sS'BFB'
p2758
I1
sS'LPX'
p2759
I0
sS'SHEN'
p2760
I1
sS'WST'
p2761
I1
sS'GMAN'
p2762
I1
sS'CAVM'
p2763
I1
sS'RMCF'
p2764
I1
sS'WLBPZ'
p2765
I1
sS'LPI'
p2766
I1
sS'SFNC'
p2767
I1
sS'TYL'
p2768
I1
sS'VIA'
p2769
I1
sS'ATNY'
p2770
I1
sS'VII'
p2771
I1
sS'TYC'
p2772
I1
sS'ROST'
p2773
I1
sS'IRDM'
p2774
I1
sS'IFT'
p2775
I1
sS'FUR'
p2776
I1
sS'NYCB'
p2777
I1
sS'OCC'
p2778
I1
sS'SLGN'
p2779
I1
sS'STAG'
p2780
I1
sS'IFF'
p2781
I1
sS'OCZ'
p2782
I0
sS'NVDA'
p2783
I1
sS'ELRC'
p2784
I1
sS'STAA'
p2785
I1
sS'CZWI'
p2786
I1
sS'FUL'
p2787
I1
sS'OCR'
p2788
I1
sS'CHSP'
p2789
I1
sS'CEB'
p2790
I1
sS'PKT'
p2791
I1
sS'BANR'
p2792
I1
sS'FLOW'
p2793
I1
sS'PULB'
p2794
I1
sS'HILL'
p2795
I1
sS'PKD'
p2796
I1
sS'CCUR'
p2797
I1
sS'CWTR'
p2798
I0
sS'PULS'
p2799
I1
sS'SYMC'
p2800
I1
sS'IBTX'
p2801
I1
sS'DARA'
p2802
I1
sS'CSH'
p2803
I1
sS'SYMM'
p2804
I0
sS'WOR'
p2805
I1
sS'IRBT'
p2806
I1
sS'LUNA'
p2807
I1
sS'JACK'
p2808
I1
sS'CST'
p2809
I1
sS'SYMX'
p2810
I1
sS'CSS'
p2811
I1
sS'VOXX'
p2812
I1
sS'CFX'
p2813
I1
sS'WIFI'
p2814
I1
sS'XOXO'
p2815
I1
sS'ALGT'
p2816
I1
sS'AGYS'
p2817
I1
sS'ALGN'
p2818
I1
sS'ABT'
p2819
I1
sS'ARWR'
p2820
I1
sS'ACXM'
p2821
I1
sS'RRD'
p2822
I1
sS'XNPT'
p2823
I1
sS'NURO'
p2824
I1
sS'OZM'
p2825
I1
sS'AMAG'
p2826
I1
sS'HFBC'
p2827
I1
sS'NWBI'
p2828
I1
sS'NWBO'
p2829
I1
sS'HIBB'
p2830
I1
sS'HGG'
p2831
I1
sS'JBL'
p2832
I1
sS'AGNCP'
p2833
I1
sS'MASC'
p2834
I0
sS'CMCO'
p2835
I1
sS'LRAD'
p2836
I1
sS'CSBK'
p2837
I1
sS'SNDK'
p2838
I1
sS'NUS'
p2839
I1
sS'MASI'
p2840
I1
sS'LORL'
p2841
I1
sS'DGX'
p2842
I1
sS'NUE'
p2843
I1
sS'UNP'
p2844
I1
sS'UNS'
p2845
I1
sS'HCA'
p2846
I1
sS'SKY'
p2847
I1
sS'QCRH'
p2848
I1
sS'EHTH'
p2849
I1
sS'NP'
p2850
I1
sS'UNB'
p2851
I1
sS'FSTR'
p2852
I1
sS'CDTI'
p2853
I1
sS'UNF'
p2854
I1
sS'UNH'
p2855
I1
sS'UNM'
p2856
I1
sS'AETI'
p2857
I1
sS'NS'
p2858
I1
sS'VSBN'
p2859
I1
sS'ITI'
p2860
I1
sS'ITG'
p2861
I1
sS'VRNT'
p2862
I1
sS'ANEN'
p2863
I0
sS'AEC'
p2864
I1
sS'VIVO'
p2865
I1
sS'MNGA'
p2866
I1
sS'VRNM'
p2867
I0
sS'ENPH'
p2868
I1
sS'NCQ'
p2869
I1
sS'GBR'
p2870
I1
sS'ITT'
p2871
I0
sS'PATR'
p2872
I1
sS'CVTI'
p2873
I1
sS'ISBC'
p2874
I1
sS'AAN'
p2875
I1
sS'LODE'
p2876
I1
sS'PROV'
p2877
I1
sS'AAT'
p2878
I1
sS'AAP'
p2879
I1
sS'HSTM'
p2880
I1
sS'PATH'
p2881
I0
sS'PATK'
p2882
I1
sS'SANW'
p2883
I1
sS'CYTK'
p2884
I1
sS'PTLA'
p2885
I1
sS'TCCO'
p2886
I1
sS'BIG'
p2887
I1
sS'KWK'
p2888
I1
sS'MGPI'
p2889
I1
sS'CYTX'
p2890
I1
sS'KWR'
p2891
I0
sS'TTPH'
p2892
I1
sS'AEO'
p2893
I1
sS'PNBC'
p2894
I1
sS'BHRT'
p2895
I1
sS'CYTR'
p2896
I1
sS'SANM'
p2897
I1
sS'TFX'
p2898
I1
sS'HOLX'
p2899
I1
sS'LULU'
p2900
I1
sS'CYBX'
p2901
I1
sS'TIBX'
p2902
I1
sS'SLP'
p2903
I1
sS'SLM'
p2904
I1
sS'TBIO'
p2905
I1
sS'HOLL'
p2906
I1
sS'SLH'
p2907
I1
sS'SLI'
p2908
I1
sS'CYBE'
p2909
I1
sS'SLG'
p2910
I1
sS'SLB'
p2911
I1
sS'MCO'
p2912
I1
sS'MCK'
p2913
I1
sS'MCF'
p2914
I1
sS'MCD'
p2915
I1
sS'ELX'
p2916
I1
sS'BDSI'
p2917
I1
sS'GFN'
p2918
I1
sS'MCZ'
p2919
I1
sS'PKOH'
p2920
I1
sS'GFF'
p2921
I0
sS'MCP'
p2922
I1
sS'BGC'
p2923
I1
sS'BCOR'
p2924
I1
sS'BGG'
p2925
I1
sS'EXH'
p2926
I1
sS'BGS'
p2927
I1
sS'EXR'
p2928
I1
sS'EXP'
p2929
I1
sS'IOSP'
p2930
I1
sS'CRRS'
p2931
I1
sS'IBCP'
p2932
I1
sS'VNDA'
p2933
I0
sS'VNO'
p2934
I1
sS'SPLK'
p2935
I1
sS'PWOD'
p2936
I1
sS'SPLP'
p2937
I1
sS'SPLS'
p2938
I1
sS'PICO'
p2939
I1
sS'PBIP'
p2940
I1
sS'HPTX'
p2941
I1
sS'MYRG'
p2942
I1
sS'DLPH'
p2943
I1
sS'FBHS'
p2944
I1
sS'SONA'
p2945
I1
sS'CETV'
p2946
I1
sS'SONC'
p2947
I1
sS'GPI'
p2948
I0
sS'THS'
p2949
I1
sS'THR'
p2950
I1
sS'GPC'
p2951
I1
sS'THO'
p2952
I1
sS'PRLB'
p2953
I1
sS'SONS'
p2954
I1
sS'SONT'
p2955
I1
sS'PNY'
p2956
I1
sS'TMHC'
p2957
I1
sS'THG'
p2958
I1
sS'MWIV'
p2959
I1
sS'XLNX'
p2960
I1
sS'IESC'
p2961
I1
sS'DSKX'
p2962
I1
sS'USBI'
p2963
I1
sS'EEFT'
p2964
I1
sS'AEGN'
p2965
I1
sS'SLTC'
p2966
I1
sS'SLTM'
p2967
I0
sS'TCB'
p2968
I1
sS'TAIT'
p2969
I1
sS'EOPN'
p2970
I1
sS'CRR'
p2971
I1
sS'CRS'
p2972
I1
sS'SYNM'
p2973
I1
sS'CRV'
p2974
I1
sS'MHO'
p2975
I1
sS'CRY'
p2976
I1
sS'SYNC'
p2977
I1
sS'FDO'
p2978
I1
sS'SYNA'
p2979
I1
sS'FDP'
p2980
I1
sS'FDS'
p2981
I1
sS'SBCF'
p2982
I1
sS'LWAY'
p2983
I1
sS'FDX'
p2984
I1
sS'CRL'
p2985
I1
sS'PNFP'
p2986
I1
sS'PQ'
p2987
I1
sS'PW'
p2988
I1
sS'FANG'
p2989
I1
sS'AEGR'
p2990
I1
sS'PX'
p2991
I1
sS'DRIV'
p2992
I1
sS'ABMC'
p2993
I1
sS'PB'
p2994
I1
sS'PF'
p2995
I1
sS'PG'
p2996
I1
sS'SGEN'
p2997
I1
sS'PL'
p2998
I1
sS'EFX'
p2999
I1
sS'AXS'
p3000
I1
sS'MKSI'
p3001
I1
sS'QCOR'
p3002
I1
sS'SIRO'
p3003
I1
sS'QCOM'
p3004
I1
sS'RP'
p3005
I1
sS'HLSS'
p3006
I1
sS'EFC'
p3007
I1
sS'SVBI'
p3008
I1
sS'MSO'
p3009
I1
sS'RNO'
p3010
I1
sS'RNN'
p3011
I1
sS'ALTI'
p3012
I1
sS'STRS'
p3013
I1
sS'SPRT'
p3014
I1
sS'RNF'
p3015
I1
sS'IDSA'
p3016
I1
sS'FINL'
p3017
I1
sS'STRI'
p3018
I1
sS'STRN'
p3019
I1
sS'STRM'
p3020
I1
sS'IDSY'
p3021
I1
sS'RNR'
p3022
I1
sS'STRA'
p3023
I1
sS'NTCT'
p3024
I1
sS'ALTR'
p3025
I1
sS'LCI'
p3026
I1
sS'ABCD'
p3027
I1
sS'USG'
p3028
I1
sS'DVN'
p3029
I1
sS'ABCB'
p3030
I1
sS'WDFC'
p3031
I1
sS'DVD'
p3032
I1
sS'ABCO'
p3033
I1
sS'DVA'
p3034
I1
sS'PEGA'
p3035
I1
sS'CMRO'
p3036
I1
sS'FNHC'
p3037
I1
sS'COVR'
p3038
I1
sS'UPIP'
p3039
I1
sS'TRGT'
p3040
I1
sS'APU'
p3041
I1
sS'DVR'
p3042
I1
sS'ZIOP'
p3043
I1
sS'GDOT'
p3044
I1
sS'ANDE'
p3045
I1
sS'AZO'
p3046
I1
sS'ANDA'
p3047
I1
sS'SCSC'
p3048
I1
sS'DDE'
p3049
I1
sS'ELGX'
p3050
I1
sS'JKHY'
p3051
I1
sS'SNFCA'
p3052
I1
sS'LIME'
p3053
I1
sS'HAYN'
p3054
I1
sS'IR'
p3055
I1
sS'IEX'
p3056
I1
sS'OCLR'
p3057
I1
sS'EXAM'
p3058
I1
sS'IEP'
p3059
I1
sS'IRET'
p3060
I1
sS'EXAC'
p3061
I1
sS'FRED'
p3062
I1
sS'NVEC'
p3063
I1
sS'WTI'
p3064
I1
sS'BLDR'
p3065
I1
sS'IEC'
p3066
I1
sS'EXAS'
p3067
I1
sS'HCKT'
p3068
I1
sS'SMTC'
p3069
I1
sS'CHRW'
p3070
I1
sS'CDE'
p3071
I1
sS'VCLK'
p3072
I0
sS'PLT'
p3073
I1
sS'CDI'
p3074
I1
sS'CCRN'
p3075
I1
sS'SBUX'
p3076
I1
sS'MOS'
p3077
I1
sS'MTSI'
p3078
I1
sS'CMCSK'
p3079
I1
sS'APH'
p3080
I1
sS'CDR'
p3081
I1
sS'SAPE'
p3082
I1
sS'SPSC'
p3083
I1
sS'UFPI'
p3084
I1
sS'CMCSA'
p3085
I1
sS'ASNA'
p3086
I1
sS'MNTA'
p3087
I1
sS'NECB'
p3088
I1
sS'BXS'
p3089
I1
sS'MNTG'
p3090
I1
sS'BELFB'
p3091
I1
sS'VTUS'
p3092
I0
sS'TBNK'
p3093
I1
sS'ZHNE'
p3094
I1
sS'NEWS'
p3095
I1
sS'PRSC'
p3096
I1
sS'BXC'
p3097
I1
sS'CYCC'
p3098
I1
sS'PPC'
p3099
I1
sS'TROVU'
p3100
I1
sS'PPG'
p3101
I1
sS'AMBT'
p3102
I0
sS'NRIM'
p3103
I1
sS'GAS'
p3104
I1
sS'NVE'
p3105
I0
sS'PPL'
p3106
I1
sS'PPS'
p3107
I1
sS'CNOB'
p3108
I1
sS'MBTF'
p3109
I1
sS'ASRV'
p3110
I1
sS'QKLS'
p3111
I1
sS'TZOO'
p3112
I1
sS'AMBA'
p3113
I1
sS'MTZ'
p3114
I1
sS'MTX'
p3115
I1
sS'JCP'
p3116
I1
sS'GRPN'
p3117
I1
sS'JCS'
p3118
I1
sS'IBOC'
p3119
I1
sS'MTW'
p3120
I1
sS'VCBI'
p3121
I0
sS'NHTB'
p3122
I1
sS'MTH'
p3123
I0
sS'MTN'
p3124
I0
sS'BBRG'
p3125
I1
sS'HLIT'
p3126
I1
sS'RCON'
p3127
I1
sS'MTD'
p3128
I1
sS'BRID'
p3129
I1
sS'ARP'
p3130
I1
sS'ARR'
p3131
I1
sS'CSCD'
p3132
I1
sS'ARX'
p3133
I1
sS'CSCO'
p3134
I1
sS'MFSF'
p3135
I1
sS'DAL'
p3136
I1
sS'SWFT'
p3137
I1
sS'ARE'
p3138
I1
sS'ARG'
p3139
I1
sS'TNGO'
p3140
I1
sS'TNGN'
p3141
I1
sS'VOCS'
p3142
I1
sS'ARL'
p3143
I1
sS'DAN'
p3144
I1
sS'ARO'
p3145
I1
sS'CPSL'
p3146
I1
sS'MPWR'
p3147
I1
sS'BG'
p3148
I1
sS'BA'
p3149
I1
sS'NCIT'
p3150
I1
sS'BC'
p3151
I1
sS'BBNK'
p3152
I1
sS'BH'
p3153
I1
sS'TIS'
p3154
I1
sS'BV'
p3155
I1
sS'GSE'
p3156
I0
sS'BR'
p3157
I1
sS'TIK'
p3158
I1
sS'CPST'
p3159
I1
sS'TIF'
p3160
I1
sS'GSM'
p3161
I1
sS'GLP'
p3162
I0
sS'RLOG'
p3163
I1
sS'NNN'
p3164
I1
sS'AVID'
p3165
I1
sS'NNI'
p3166
I1
sS'TRNO'
p3167
I1
sS'CHGS'
p3168
I1
sS'ATHN'
p3169
I1
sS'XBKS'
p3170
I1
sS'HSII'
p3171
I1
sS'APEI'
p3172
I1
sS'ATHX'
p3173
I1
sS'HSIC'
p3174
I1
sS'NAVB'
p3175
I1
sS'SENEA'
p3176
I1
sS'SENEB'
p3177
I1
sS'TLYS'
p3178
I1
sS'ORRF'
p3179
I1
sS'ISCA'
p3180
I1
sS'T'
p3181
I1
sS'LOGM'
p3182
I1
sS'LOGI'
p3183
I1
sS'VRSN'
p3184
I1
sS'VRSK'
p3185
I1
sS'CINF'
p3186
I1
sS'SCON'
p3187
I1
sS'BVX'
p3188
I1
sS'TREE'
p3189
I1
sS'PRAA'
p3190
I1
sS'TREX'
p3191
I1
sS'SQI'
p3192
I1
sS'SCOR'
p3193
I1
sS'ROSE'
p3194
I1
sS'ITMN'
p3195
I1
sS'BSET'
p3196
I1
sS'HNT'
p3197
I1
sS'CMRX'
p3198
I1
sS'OFIX'
p3199
I1
sS'GLUU'
p3200
I1
sS'EEI'
p3201
I1
sS'OSBC'
p3202
I1
sS'LLY'
p3203
I1
sS'ROK'
p3204
I1
sS'ROL'
p3205
I1
sS'RVBD'
p3206
I1
sS'ICFI'
p3207
I1
sS'IDRA'
p3208
I1
sS'WEYS'
p3209
I1
sS'PRSS'
p3210
I1
sS'ROC'
p3211
I1
sS'VALU'
p3212
I1
sS'ROG'
p3213
I1
sS'ROX'
p3214
I1
sS'OSK'
p3215
I1
sS'LLL'
p3216
I1
sS'ROP'
p3217
I1
sS'TMO'
p3218
I1
sS'BDE'
p3219
I1
sS'DHIL'
p3220
I1
sS'BDL'
p3221
I1
sS'BDN'
p3222
I1
sS'BERY'
p3223
I1
sS'PSBH'
p3224
I1
sS'CPAH'
p3225
I1
sS'ICE'
p3226
I1
sS'DSTI'
p3227
I1
sS'BDR'
p3228
I1
sS'CRUS'
p3229
I1
sS'BDX'
p3230
I1
sS'WAVE'
p3231
I0
sS'TSYS'
p3232
I0
sS'LRN'
p3233
I1
sS'MDLZ'
p3234
I1
sS'FBIZ'
p3235
I1
sS'GMCR'
p3236
I1
sS'LRY'
p3237
I1
sS'UG'
p3238
I1
sS'QLYS'
p3239
I1
sS'UA'
p3240
I1
sS'OABC'
p3241
I0
sS'FOSL'
p3242
I1
sS'FURX'
p3243
I1
sS'IDT'
p3244
I1
sS'IDN'
p3245
I1
sS'STON'
p3246
I1
sS'MPW'
p3247
I1
sS'TBI'
p3248
I1
sS'BGFV'
p3249
I1
sS'IDA'
p3250
I1
sS'CGI'
p3251
I1
sS'BIOC'
p3252
I1
sS'FCCO'
p3253
I1
sS'BIOF'
p3254
I0
sS'BIOD'
p3255
I1
sS'CGA'
p3256
I1
sS'MOSY'
p3257
I1
sS'BKOR'
p3258
I1
sS'RSYS'
p3259
I1
sS'PMC'
p3260
I1
sS'CAKE'
p3261
I1
sS'VSTM'
p3262
I1
sS'ZIGO'
p3263
I1
sS'SKYW'
p3264
I1
sS'ORLY'
p3265
I1
sS'MINI'
p3266
I1
sS'LLTC'
p3267
I1
sS'SBBX'
p3268
I1
sS'MIND'
p3269
I1
sS'CUZ'
p3270
I1
sS'DIET'
p3271
I0
sS'FET'
p3272
I1
sS'CUB'
p3273
I1
sS'CUO'
p3274
I1
sS'GCAP'
p3275
I1
sS'CUI'
p3276
I1
sS'CXDC'
p3277
I1
sS'MAMS'
p3278
I1
sS'ARUN'
p3279
I1
sS'NEWN'
p3280
I1
sS'CIM'
p3281
I1
sS'CATM'
p3282
I1
sS'XRSC'
p3283
I1
sS'CIR'
p3284
I1
sS'MSM'
p3285
I1
sS'MSL'
p3286
I1
sS'CLSN'
p3287
I1
sS'CIT'
p3288
I1
sS'MSG'
p3289
I1
sS'MTSC'
p3290
I1
sS'NEWP'
p3291
I1
sS'CIX'
p3292
I1
sS'NEWT'
p3293
I1
sS'AQQ'
p3294
I0
sS'PETM'
p3295
I1
sS'TNH'
p3296
I1
sS'SRE'
p3297
I1
sS'PFS'
p3298
I1
sS'AOS'
p3299
I1
sS'ORCL'
p3300
I1
sS'BPOP'
p3301
I1
sS'OAS'
p3302
I1
sS'DAR'
p3303
I1
sS'YDKN'
p3304
I1
sS'CFBK'
p3305
I1
sS'SNTS'
p3306
I1
sS'COKE'
p3307
I1
sS'THFF'
p3308
I1
sS'CELGZ'
p3309
I1
sS'CUBI'
p3310
I1
sS'MACE'
p3311
I1
sS'DWA'
p3312
I1
sS'BBBY'
p3313
I1
sS'SNTA'
p3314
I1
sS'CATY'
p3315
I1
sS'PLAB'
p3316
I1
sS'LFVN'
p3317
I1
sS'N'
p3318
I1
sS'MACK'
p3319
I1
sS'ANCI'
p3320
I1
sS'BBSI'
p3321
I1
sS'PNRG'
p3322
I1
sS'EQIX'
p3323
I1
sS'PTRY'
p3324
I1
sS'QDEL'
p3325
I1
sS'GSIT'
p3326
I1
sS'ANCB'
p3327
I1
sS'ANCX'
p3328
I1
sS'DCT'
p3329
I1
sS'IRIX'
p3330
I1
s.