(lp0
S"Insider Trading Activity AAON, Inc.   Insider Sold 1370 shares ... Market Exclusive - Mar 17, 2017 Rebecca Thompson , Insider of AAON, Inc.  reportedly Sold 1,370 shares of the company's stock at an average price of 36.5 for a total transaction amount of $50,005.00 SEC Form."
p1
aS"Insider Trading Activity AAON, Inc.   VP Sold 4500 shares of Stock Market Exclusive - Mar 13, 2017 Scott M Asbjornson , VP of AAON, Inc.  reportedly Sold 4,500 shares of the company's stock at an average price of 35.37 for a total transaction amount of $159,165.00 SEC Form.AAON, Inc.  VP Sells $159165.00 in Stock - Chaffey BreezeAaon Inc  Files Form 4 Insider Selling : Jerry R Levine Sells 20000 Shares - Energy Index"
p2
aS'AAON, Inc.  Misses Q4 EPS by 4c StreetInsider.com - Feb 23, 2017 AAON, Inc.  reported Q4 EPS of $0.21, $0.04 worse than the analyst estimate of $0.25. Revenue for the quarter came in at $91.7 million versus the consensus estimate of $100.08 million.AAON Inc.  Moves Higher on Volume Spike for February 24 - Equities.comAAON, Inc.  Receives Consensus Recommendation of Hold from Brokerages - Chaffey Breeze'
p3
aS'AAON, Inc.  VP Sam Neale Sells 1248 Shares of Stock Chaffey Breeze - Mar 16, 2017 AAON logo AAON, Inc.  VP Sam Neale sold 1,248 shares of the stock in a transaction that occurred on Tuesday, March 14th.The Insider Selling: AAON, Inc.  Director Sells $704600.00 in Stock - Petro Global News 24AAON, Inc.  Insider Rebecca Thompson Sells 1370 Shares - Sports Perspectives'
p4
aS'AAON: Diamond Among The Trash? Seeking Alpha - Nov 21, 2016 AAON inc.  is a small-cap manufacturing corporation that sells, heating, ventilating, and cooling equipment. They began operations in 1988, and since then have become a real contender in the commercial, and replacement markets.'
p5
aS"Form 4 AAON INC For: Mar 14 Filed by: Neale Sam StreetInsider.com - Feb 18, 2017 Get access to the best calls on Wall Street with StreetInsider.com's Ratings Insider Elite. Get your Free Trial here. FORM 4, UNITED STATES SECURITIES AND EXCHANGE COMMISSION Washington, D.C."
p6
aS'AAON Inc.  Breaks into New 52-Week High on March 15 Session Equities.com - Mar 15, 2017 Shares of AAON Inc.  broke into a new 52-week high yesterday, hitting a peak of $36.30. Shares closed at $36.20 after opening at $35.60 for a move of 2.4%.The AAON, Inc.  VP Scott M. Asbjornson Sells 4500 Shares of Stock - Petro Global News 24'
p7
aS'Top Picks 2017: Aaon Inc. Moneyshow.com  - Jan 26, 2017 Aaon Inc.  is an Oklahoma-based, family-owned and operated firm, with 23.54% insider ownership. It is an excellent business to own for the long term.'
p8
aS'AAON Inc.  Promotes Mikel Crews to Vice President of Operations StreetInsider.com - Feb 28, 2017 AAON, Inc.  today announced that the Board of Directors has promoted Mikel D. Crews to the position of Vice President of Operations.AAON Promotes Mikel Crews to Vice President of Operations - GlobeNewswire '
p9
aS"Insider Trading Activity AAON, Inc.   Director Sold 20000 shares ... Market Exclusive - Mar 11, 2017 Jerry R Levine , Director of AAON, Inc.  reportedly Sold 20,000 shares of the company's stock at an average price of 35.23 for a total transaction amount of $704,600.00 SEC Form."
p10
a.