(lp0
S'Ameris Bancorp Closes Subordinated Notes Offering PR Newswire  - Mar 7, 2017 MOULTRIE, Ga., March 13, 2017 /PRNewswire/ -- Ameris Bancorp  , the parent holding company of Ameris Bank , announced today the closing of its underwritten public offering of $75 million of its 5.75%&nbsp;...The 28000 Shares in Ameris Bancorp  Acquired by Royce &amp; Associates LP - Petro Global News 24'
p1
aS'Form 4 Ameris Bancorp For: Mar 15 Filed by: LEWIS CINDI H StreetInsider.com - Feb 23, 2017 Check this box if no longer subject to Section 16. Form 4 or Form 5 obligations may continue. See Instruction 1. 1. Name and Address of Reporting Person *. LEWIS CINDI H. , , . PO BOX 3668. . MOULTRIE, GA, 31776. &nbsp;...'
p2
aS'Ameris Bancorp Closes Common Stock Offering PR Newswire  - Mar 6, 2017 MOULTRIE, Ga., March 6, 2017 /PRNewswire/ -- Ameris Bancorp  , the parent holding company of Ameris Bank , announced today the closing of its underwritten public offering of 2,012,500 shares of the&nbsp;...Ameris Bancorp  Announces Commencement Of Subordinated Notes Offering - Journal TranscriptAmeris Bancorp Announces Pricing Of Subordinated Notes Offering - Yahoo Finance'
p3
aS'Ameris Bancorp Announces Highly Accretive Joint Venture With USPF and an ... PR Newswire  - Dec 19, 2016 19, 2016 /PRNewswire/ -- Ameris Bancorp   today announced that its wholly owned banking subsidiary, Ameris Bank, has entered into a joint venture with US Premium Finance  under which Ameris Bank will be the&nbsp;...'
p4
aS"Ameris Bancorp Announces 2016 Financial Results PR Newswire  - Jan 20, 2017 20, 2017 /PRNewswire/ -- Ameris Bancorp   today reported net income of $72.1 million, or $2.08 per share, for the year ended December 31, 2016, compared with $40.8 million, or $1.27 per share, for 2015.Ameris Bancorp's  CEO Ed Hortman on Q4 2016 Results - Earnings Call ... - Seeking Alpha"
p5
aS'Ameris Bancorp Signs Definitive Merger Agreement to Acquire Jacksonville ... PR Newswire  - Oct 1, 2015 MOULTRIE, Ga and JACKSONVILLE, Fla., Oct. 1, 2015 /PRNewswire/ -- Ameris Bancorp  , the parent company of Ameris Bank, announced today the signing of a definitive merger agreement under which Ameris will acquire&nbsp;...Ameris Bancorp to buy Jacksonville Bancorp - Florida Times-Union'
p6
aS"BRIEF-Ameris Bancorp announces commencement of subordinated notes offering Reuters - Mar 6, 2017 MEXICO CITY, March 6 Demand was double the availability of $1 billion in hedge contracts Mexico's central bank offered for the first time on Monday, but the auction failed to provide support for the peso."
p7
aS'Ameris Bancorp  Moves Higher on Volume Spike for March 15 Equities.com - Mar 15, 2017 Ameris Bancorp  traded on unusually high volume on Mar. 15, as the stock gained 0.65% to close at $46.80. On the day, Ameris Bancorp saw 389,910 shares trade hands on 4,485 trades. Considering that the stock averages only a daily volume of&nbsp;...In Volatile Markets Do Analysts Think You Should Buy Ameris Bancorp ? - The De Soto Edge'
p8
aS'BRIEF-Ameris Bancorp priced $75 million of 5.75% fixed-to-floating rate ... Reuters - Mar 7, 2017 HONG KONG, March 8 Asian stocks erased early losses and edged higher on Wednesday as strong China trade data bolstered bets of a recovering global economy, though gains were capped by caution ahead of a widely expected U.S.'
p9
aS"Ameris Bancorp will move 4 key positions to Jacksonville Moultrie Observer - Apr 23, 2015 Placing executives in Jacksonville is necessary to support our growth going forward, said Dan Jeter, chairman of Ameris Bancorp's board of directors. At the same time, the bank will continue to be strongly committed to Moultrie. We have deep roots ..."
p10
a.