(lp0
S'Why Acadia Healthcare Company Inc. Reported Lower Today Motley Fool - Oct 19, 2016 The press release started off well enough with a headline of &quot;Acadia Healthcare Signs Definitive Agreement for Sale of U.K.Acadia Healthcare  Stock Slumps on Preliminary Q3 Results - TheStreet.com'
p1
aS'Acadia Healthcare Company Inc.  Moves Lower on Volume Spike for March 16 Equities.com - Mar 16, 2017 Acadia Healthcare Company Inc.  traded on unusually high volume on Mar. 16, as the stock lost 0.26% to close at $42.00.Stock On the Run: Acadia Healthcare Company, Inc.  - HugoPressWatching the Numbers for Acadia Healthcare Company, Inc.  - Davidson Register'
p2
aS'Acadia Healthcare Announces Date for Fourth Quarter and Year-End 2016 Earnings ... GlobeNewswire  - Feb 10, 2017 FRANKLIN, Tenn., Feb. 10, 2017  -- Acadia Healthcare Company, Inc.   today announced that it will release its fourth quarter and yearend 2016 earnings on Thursday, February 23, 2017,&nbsp;...'
p3
aS'Acadia Healthcare Company Shares Cross Above 200 DMA Nasdaq - Feb 24, 2017 In trading on Friday, shares of Acadia Healthcare Company Inc.  crossed above their 200 day moving average of $46.67, changing hands as high as $47.39 per share.Acadia Healthcare  Tops Q4 Earnings, Gives 2017 View - Zacks.com'
p4
aS"What are Analyst's Indicators for CNO Financial Group, Inc. , Acadia ... The USA Commerce - Mar 17, 2017 While trading at volume above than average, Acadia Healthcare Company, Inc.  previous 52-week high was $65.00 and moved down -20.15% over the same period, trading at a volume of 1.73 million."
p5
aS'Analyst Activity  Citigroup Inc Raises Its Price Target On Acadia Healthcare ... Market Exclusive - Mar 6, 2017 Today, Citigroup Inc raised its price target on Acadia Healthcare Company  to $52.00 per share. There are 2 hold ratings, 8 buy ratings, 1 strong buy rating on the stock.Why to Keeping Eye on Oceaneering International, Inc. , Acadia Healthcare ... - StockNewsJournalOption Market: Acadia Healthcare Company Inc Risk Hits A Reduced Level - CML News'
p6
aS"Acadia Healthcare to Participate in the Raymond James 38th Annual ... Yahoo Finance - Mar 2, 2017 Acadia Healthcare Company, Inc.  today announced that the Company will participate in the Raymond James 38th Annual Institutional Investors Conference, which takes place March 6 - 8, 2017, in Orlando, Florida. In connection with the&nbsp;...Today Analysts Focus on Acadia Healthcare Company, Inc. , People's ... - StockNewsJournalAcadia Healthcare Company Inc  Forecasted to Post Q1 2017 Earnings of $0 ... - Chaffey Breeze"
p7
aS'The Zacks Analyst Blog Highlights: Acadia Healthcare, VCA, Universal Health ... Yahoo Finance - Mar 9, 2017 Stocks recently featured in the blog include Acadia Healthcare Company, Inc. , VCA Inc. , Universal Health Services, Inc.  and Mednax, Inc (NYSE: MD - Free&nbsp;...Obamacare Replacement: A Threat to Hospital Stocks? - Zacks.com'
p8
aS'Technical Trading: Focus on Shares of Acadia Healthcare Company Inc  Sherwood Daily - 16 hours ago Investors may be tracking certain levels on shares of Acadia Healthcare Company Inc . The current 50-day Moving Average is 40.54, the 200-day Moving Average is 45.56, and the 7-day is noted at 42.46.'
p9
aS"Buy or Sell? What Analysts Recommends: TEGNA Inc. , Acadia Healthcare ... StockNewsJournal - Mar 14, 2017 Acadia Healthcare Company, Inc. , maintained return on investment for the last twelve months at 0.09, higher than what Reuters data shows regarding industry's average.Analysts Near-Term outlook: Cara Therapeutics, Inc. , Acadia Healthcare ... - The USA CommerceAcadia Healthcare Company, Inc.  Files Form 4 Insider Selling : William ... - Energy Index"
p10
a.