(lp0
S'FBR Capital Reiterates Outperform on Arch Coal, Inc.  After Adjusting ... StreetInsider.com - Mar 17, 2017 FBR Capital reiterated an Outperform rating and $103.00 price target on Arch Coal, Inc.  after adjusting estimates.'
p1
aS'Arch Coal Increases Equity Ownership in Strategic Export Facility PR Newswire  - Mar 7, 2017 ST. LOUIS, March 7, 2017 /PRNewswire/ -- Arch Coal, Inc.  today announced that it has expanded its equity share in Dominion Terminal Associates , a coal export terminal in Newport News, Virginia.'
p2
aS'Arch Coal Exits Bankruptcy - An Analysis Seeking Alpha - Oct 10, 2016 A new Arch Coal Inc.  exited Ch.11  on Oct.5 and opened at $70 per share in trading. This is new stock.Top Analyst Upgrades and Downgrades: Arch Coal, Dow Chemical, Netflix, Mylan ... - 24/7 Wall St.'
p3
aS'Arch Coal, Inc. Reports Fourth Quarter 2016 Results PR Newswire  - Feb 8, 2017 ST. LOUIS, Feb. 8, 2017 /PRNewswire/ -- Arch Coal, Inc.  today reported fourth quarter 2016 net income of $33.4 million or $1.31 per diluted share.Arch Coal,Inc.  Files An 8-K Results of Operations and ... - Market ExclusiveArch Coal posts $33 million profit in 4Q - Gillette News Record'
p4
aS'Trump Will Not Help Arch Coal Seeking Alpha - Nov 17, 2016 At hundreds of campaign rallies throughout Appalachia and the industrial mid-west, Donald Trump espoused his plans to put millions of coal miners back to work. Cut regulations, rip up the Paris Climate agreement, and eliminate the EPA! Like most talk ...'
p5
aS'Arch Coal Successfully Completes Financial Restructuring and Emerges from ... PR Newswire  - Oct 5, 2016 ST. LOUIS, Oct. 5, 2016 /PRNewswire/ -- Arch Coal, Inc.  today announced that it has successfully completed its financial restructuring and emerged from court protection, with new equity that will trade on the New York Stock Exchange under&nbsp;...Arch Coal, owner of West Elk Mine in Colorado, emerges from bankruptcy - The Denver PostArch Coal emerges from bankruptcy with 93% less debt - St. Louis Business Journal'
p6
aS'Arch Coal, Inc. Announces Plans to Refinance Existing First Lien Term Loan ... PR Newswire  - Feb 15, 2017 ST. LOUIS, Feb. 15, 2017 /PRNewswire/ -- Arch Coal, Inc.  announced today that it is seeking to refinance its first lien term loan facility with the proceeds from a seven-year $250 million first lien term loan B facility and cash on hand.'
p7
aS'Arch Coal, Inc. Announces Successful Closing of $300 Million Senior Secured ... Yahoo Finance - Mar 7, 2017 LOUIS, March 7, 2017 /PRNewswire/ -- Arch Coal, Inc.  today announced that it has successfully refinanced its senior secured term loan and, in response to strong demand and very attractive rates, has upsized the term loan to $300 million from the&nbsp;...Insider Trading Activity Arch Coal, Inc. Class A   Insider Sold ... - Market ExclusiveArch Coal, Inc. Class A  VP Sells $47351.46 in Stock - The Cerbat Gem'
p8
aS'Arch Coal Inc : An Off-the-Radar Potential Winner Investorplace.com - Jan 13, 2017 It commonly happens in stock investing that investors miss the chance of buying winning stocks that they knew would stand out. Before they take the plunge, others get to know the hidden potential and enter into these stocks, pushing them out of reach.Arch Coal : An Off-the-Radar Potential Winner January 13, 2017 - Zacks.comArch Coal, Inc. Class A  Upgraded at Zacks Investment Research - Sports Perspectives'
p9
aS'Arch Coal Inc  Shareholders Need To Read This Now Insider Financial - Jul 25, 2016 Mid-June, Arch Coal Inc  announced it had filed an amended plan of reorganization, and that it would be restructuring under chapter 11.'
p10
a.