(lp0
S'Alliance Holdings GP, LP  Ex-Dividend Date Scheduled for February 08, 2017 Nasdaq - Feb 7, 2017 Alliance Holdings GP, L.P.  will begin trading ex-dividend on February 08, 2017. A cash dividend payment of $0.55 per share is scheduled to be paid on February 17, 2017.'
p1
aS'28.11 MarketWatch - Dec 22, 2009 Alliance Holdings GP L.P.. Watchlist CreateAHGPAlert. Closed. Last Updated: Mar 16, 2017 4:00 p.m.. $ 28.11. -0.16 -0.57%.'
p2
aS"3 Terrible Reasons to Sell Alliance Holdings GP, LP Motley Fool - Aug 25, 2016 Alliance Holdings GP, L.P.  is easy to hate, despite an over 9% distribution yield. But just because the partnership has some warts doesn't mean you should dump it.Maybe the Coal Market Isn't Dead After All - The motley Fool "
p3
aS'Dividend Spotlight on Alliance Holdings GP, LP  Business Review - Mar 17, 2017 Shares of Alliance Holdings GP, L.P.  currenty have a 10 year dividend growth rate of 0.07884. This number is calculated using the geometric average which provides the typical value of dividend growth over the specified period using the&nbsp;...'
p4
aS'Alliance Holdings GP, LP  Valuation By The Numbers Business Review - Mar 16, 2017 The ERP5 Rank is an investment tool that analysts use to discover undervalued companies. The ERP5 looks at the Price to Book ratio, Earnings Yield, ROIC and 5 year average ROIC.'
p5
aS'Why Alliance Resource Partners, LP, Alliance Holdings GP, LP, and Cloud Peak ... Motley Fool - Nov 7, 2016 And that helps explain why Alliance Resource Partners, L.P. , its general partner, Alliance Holdings GP, L.P. , and Cloud Peak Energy Inc.  have all seen significant revenue declines and, more important for&nbsp;...'
p6
aS"Here's What Alliance Holdings GP, LP's CEO Wants You to Know About Its Future Motley Fool - Nov 14, 2016 The past several years have been awful for coal companies. Sinking demand, high costs, and too much debt forced several top producers into bankruptcy."
p7
aS"These Are Alliance Holdings GP, LP's Smartest Moves of 2016 Motley Fool - Dec 1, 2016 The past few years have been rough for coal producers. Weak demand and oversupply issues pushed prices so low that several coal producers had to declare bankruptcy."
p8
aS"While Global Coal Prices Go Hyperbolic, Alliance Holdings GP, LP Will Be Left ... Motley Fool - Dec 13, 2016 Unfortunately, this massive rally in the coal market will elude coal company Alliance Holdings GP  and its coal-producing MLP Alliance Resource Partners . Here's why the global coal rally is leaving these producers in the&nbsp;..."
p9
aS'How Safe Are Alliance Holdings GP, LP and Its Dividend? Motley Fool - Oct 18, 2016 Alliance Holdings GP  and its MLP Alliance Resource Partners  pay their investors very generous quarterly distributions of 8% and 7.7%, respectively.'
p10
a.