(lp0
S'ALLIED HEALTHCARE PRODUCTS, INC.  Files An 8-K Material ... Market Exclusive - Dec 6, 2016 Allied Healthcare Products, Inc. manufactures a range of respiratory products used in the healthcare industry in a range of hospital and alternate site settings, including sub-acute care facilities, home healthcare and emergency medical care.'
p1
aS'Medical firm to undertake reverse stock split St. Louis Business Journal - Dec 6, 2016 Allied Healthcare stock closed at $1.28 a share Dec. 5. The company, which makes and sells respiratory products for use in the health care industry, posted a loss of $817,000 on sales of $8.5 million for the quarter ended Sept. 30. For its fiscal year ...'
p2
aS"Allied Healthcare Products gets Nasdaq warning St. Louis Business Journal - Oct 1, 2015 If Allied neither transfers its securities to the Nasdaq Capital Market nor regains compliance with the Nasdaq market value rule by March 28, 2016, Nasdaq will issue notice that Allied's shares are subject to delisting. The company then can appeal the ..."
p3
aS'Allied Healthcare gets another Nasdaq warning St. Louis Business Journal - Mar 1, 2016 St. Louis-based Allied Healthcare Products , led by President and CEO Earl Refsland, makes and markets respiratory products, including respiratory care products, medical gas equipment and emergency medical products.'
p4
aS'New York Appellate Court Rules Against Allied Healthcare Products in ... PR Newswire  - Apr 4, 2016 ST. LOUIS, April 4, 2016 /PRNewswire/ -- On March 31, 2016, the New York Supreme Court, Appellate Division, ruled against Allied Healthcare Products, Inc.   in ongoing litigation regarding covenants which Allied asserts entitle ...'
p5
aS'Stock Check: Viewing Levels for Allied Healthcare Products Inc  The Standard - Mar 17, 2017 Tracking stock levels, Allied Healthcare Products Inc  has a 14-day Commodity Channel Index  of -80.89. Even though the name contains the word commodity, CCI can be used on other investment tools such as stocks.'
p6
aS"Allied Healthcare Products Inc  Moves 2.14% Sherwood Daily - Mar 13, 2017 Now let's take a look at how the fundamentals are stacking up for Allied Healthcare Products Inc . Fundamental analysis takes into consideration market, industry and stock conditions to help determine if the shares are correctly valued."
p7
aS"Allied Healthcare proposes stock split St. Louis Business Journal - Sep 28, 2016 Allied Healthcare Products Inc.'s board has proposed a reverse stock split in an effort to keep the company's stock trading on the Nasdaq market."
p8
aS"Most Volatile Mover of Friday: Allied Healthcare Products, Inc.'s  stock ... WsNews 4investors - Feb 13, 2017 Allied Healthcare Products, Inc.'s  stock price escalated 1.87% to finalize at $2.18 throughout previous buying and selling session."
p9
aS'Allied Healthcare Products, Inc.  Registers a Net Consolidated ... Equities Focus - Feb 27, 2017 Allied Healthcare Products, Inc.  received diluted EPS of from the parent company amounting to $-0.5743 for the year ended on 2016-06-30.'
p10
a.