(lp0
S'ALLETE, Inc.  Signs 100MW Power Purchase Agreement for New North Dakota ... StreetInsider.com - Mar 16, 2017 ALLETE Clean Energy, a wholly-owned subsidiary of ALLETE Inc. , today announced its plan to build, own and operate a 100-megawatt wind farm in Morton and Mercer counties in North Dakota that will supply electricity to Xcel Energy under a&nbsp;...Allete Inc.: ALLETE Clean Energy, Xcel Energy Sign 100 MW Power Purchase ... - The Wall Street Transcript'
p1
aS'ALLETE, Inc.  CFO Role Handed to Bob Adams Following Retirement of Steve ... StreetInsider.com - Mar 3, 2017 Bob Adams assumes the role of Chief Financial Officer for ALLETE Inc.  effective March 4, 2017. He succeeds Steve DeVinck, who last fall announced his plan to retire in the spring of 2017.The Zacks Investment Research Downgrades Allete, Inc.  to Sell - DailyQuintStock Recent Trading Summary: Allete, Inc.  - Is stories'
p2
aS'ALLETE, Inc.  Unit Acquires Water &amp; Energy Systems Technology StreetInsider.com - Nov 18, 2016 ALLETE Inc.  announced that its wholly owned subsidiary U.S. Water Services has purchased Water &amp; Energy Systems Technology  Inc. WEST, based in Southern California, provides specialty chemicals and engineering services for&nbsp;...ALLETE Subsidiary Strengthens Presence in Southwestern US Water Market with ... - Business Wire '
p3
aS'ALLETE Inc  Downgraded to Sell at Zacks Investment Research The Cerbat Gem - 22 hours ago ALLETE Inc logo Zacks Investment Research cut shares of ALLETE Inc  from a hold rating to a sell rating in a research report released on Thursday.'
p4
aS'ALLETE, Inc. reports 2016 earnings of $3.14 per share BusinessNorth.com - Feb 15, 2017 ALLETE, Inc.  on Wednesday reported full year 2016 earnings of $3.14 per share on net income of $155.3 million and operating revenue of $1.34 billion.Allete profits up in 2016 - Duluth News TribuneAllete, Inc.  Releases Earnings Results, Beats Expectations By $0.16 EPS - BBNS'
p5
aS'ALLETE Inc Risk Points versus Industrials CML News - Mar 10, 2017 This is a scatter plot analysis of the critical risk points from the option market for ALLETE Inc  compared to its own past and the Industrials ETF.'
p6
aS'Allete Reaches Analyst Target Price Nasdaq - Mar 16, 2017 In recent trading, shares of Allete Inc.  have crossed above the average analyst 12-month target price of $66.12, changing hands for $66.90/share.'
p7
aS'Allete Inc.  Moves Higher on Volume Spike for February 24 Equities.com - Feb 24, 2017 Allete Inc.  traded on unusually high volume on Feb. 24, as the stock gained 0.55% to close at $67.13. On the day, Allete Inc. saw 564,246 shares trade hands on 4,315 trades. Considering that the stock averages only a daily volume of 212,618 ...Revenue Update on ALLETE Inc - Energy IndexAllete, Inc.  Stock Rating Lowered by Zacks Investment Research - Chaffey Breeze'
p8
aS'Stock Returns: ALLETE Inc  versus Portland General Electric Company ... CML News - Mar 16, 2017 This is a snapshot to compare the stock returns for ALLETE Inc  versus Portland General Electric Company  .'
p9
aS'VANGUARD GROUP INC is the biggest holder of ALLETE, Inc.  Post Analyst - Mar 16, 2017 ALLETE, Inc.  reached 29.51% versus a 1-year low price of $53.47. The stock was last seen 2.32% higher, reaching at $66.9 on Wednesday, March 15, 2017.The ALLETE Inc  Stock Rating Lowered by Zacks Investment Research - Petro Global News 24'
p10
a.