(lp0
S'ALASKA COMMUNICATIONS SYSTEMS GROUP, INC  Files An 8-K Results of ... Market Exclusive - Mar 14, 2017 Alaska Communications Systems Group, Inc. is a fiber broadband and managed information technology  services provider.'
p1
aS"Alaska Communications Systems Group, Inc.  Files An 8-K Entry ... Market Exclusive - Mar 15, 2017 The Company also provides telecommunication services to consumers across Alaska. The Company's facilities-based communications network extends across Alaska and connects to the contiguous states through its undersea fiber optic cable systems and&nbsp;...Zacks: Alaska Communications Systems Group Inc  Receives Average Rating ... - The Cerbat Gem"
p2
aS"BRIEF-Alaska Communications enters into new $195 mln senior credit facility Reuters - Mar 14, 2017 BOSTON, March 14 Valeant Pharmaceuticals Inc's stock price fell to its lowest level in eight years on Tuesday after the abrupt exit of its biggest supporter put renewed focus on the Canadian company's most pressing problem: raising capital to cut its ..."
p3
aS'Alaska Communications Announces Tender Offer for Outstanding 6.25% Convertible ... Yahoo Finance - Mar 17, 2017 Alaska Communications Systems Group, Inc.   today announced a tender offer  to purchase any and all of its outstanding 6.25% Convertible Notes due 2018 .'
p4
aS'Boosted by broadband, Alaska Communications posts net gain Alaskajournal.com - Mar 15, 2017 Alaska Communications Systems Group Inc. reported net income of nearly $2.4 million in 2016 and a $195 million credit and loan package that will help refinance existing debt, company officials said in a March 14 investor call.'
p5
aS"View the Stunning Stock of Alaska Communications Systems Group, Inc.'s (ALSK ... Hot Stocks Point - 4 hours ago Alaska Communications Systems Group, Inc. , a part of Technology sector and belongs to Telecom Services - Domestic industry; ended its day with gain 0.56% and finalized at the price of $1.81."
p6
aS"Insider Trading Activity Alaska Communications Systems Group Inc (NASDAQ:ALSK ... Market Exclusive - Feb 25, 2017 The Company also provides telecommunication services to consumers across Alaska. The Company's facilities-based communications network extends across Alaska and connects to the contiguous states through its undersea fiber optic cable systems and&nbsp;...Alaska Communications Systems Group Inc  Receives Average Rating of ... - Chaffey Breeze"
p7
aS"Alaska Communications Systems'  CEO Anand Vadapalli on Q1 2016 Results ... Seeking Alpha - May 9, 2016 Good day and welcome to the Alaska Communications' first quarter 2016 conference call. I'm Leonard Steinberg, Senior Vice President and General Counsel."
p8
aS'Alaska Communications: Better After The AWN Sale? Seeking Alpha - Dec 8, 2014 On December 4th, Alaska Communications Systems Group, Inc.  announced the sale of their 33% interest in Alaska Wireless Networks  to General Communication, Inc.  for $300mn in cash.'
p9
aS'Insider Trading Activity Alaska Communications Systems Group Inc (NASDAQ:ALSK ... Market Exclusive - Mar 10, 2017 On 3/8/2013 David W Karp, Director, bought 1,000 with an average share price of $1.63 per share and the total transaction amounting to $1,630.00.'
p10
a.