(lp0
S"Allison Transmission announces FuelSense 2.0 with DynActive Shifting PR Newswire  - Mar 14, 2017 INDIANAPOLIS, March 14, 2017 /PRNewswire/ -- Allison Transmission today announced FuelSense 2.0 featuring DynActive Shifting, delivering up to 6 percent additional fuel savings beyond the company's original FuelSense software."
p1
aS"Allison Transmission Holdings  Q4 2016 Results - Earnings Call Transcript Seeking Alpha - Feb 7, 2017 Welcome to Allison Transmission's Fourth Quarter 2016 Results Conference Call. My name is Melissa, and I'll be your conference operator today.3 Reasons Why Allison Transmission  is a Great Momentum Stock - Yahoo Finance"
p2
aS'Allison Transmission Holdings, Inc.  Ex-Dividend Date Scheduled for ... Nasdaq - Mar 1, 2017 Allison Transmission Holdings, Inc.  will begin trading ex-dividend on March 02, 2017. A cash dividend payment of $0.15 per share is scheduled to be paid on March 15, 2017.Allison Transmission Holdings Inc  to Issue Quarterly Dividend of $0.15 ... - Chaffey BreezeForward Dividend Yield of Allison Transmission Holdings, Inc.  - Highland Mirror'
p3
aS'Allison Transmission announces Stock Repurchase Agreement with ValueAct ... PR Newswire  - Feb 6, 2017 INDIANAPOLIS, Feb. 6, 2017 /PRNewswire/ -- Allison Transmission Holdings Inc.  today announced that it has entered into a Stock Repurchase Agreement with ValueAct Capital Master Fund, L.P.'
p4
aS"Why Allison Transmission Holdings  Could Be Positioned for a Surge ... Zacks.com - Mar 3, 2017 Allison Transmission Holdings, Inc.  is a Automotive - Original Equipment company that could be an interesting play for investors.What are Analyst's Indicators for Tesaro, Inc. , Allison Transmission ... - The USA Commerce"
p5
aS"Allison Transmission announces stock repurchase program PR Newswire  - Nov 16, 2016 INDIANAPOLIS, Nov. 16, 2016 /PRNewswire/ -- Allison Transmission Holdings Inc.  today announced that its board of directors recently concluded a review of the Company's business plan including product development and capital spending&nbsp;..."
p6
aS'Allison Transmission to present at Bank of America Merrill Lynch Global ... PR Newswire  - Mar 7, 2017 INDIANAPOLIS, March 7, 2017 /PRNewswire/ -- Allison Transmission Holdings Inc.  today announced that David S. Graziosi, President, Chief Financial Officer and Treasurer, and G. Frederick Bohley III, Vice President, Finance, will present at&nbsp;...Traders Secrets on Allison Transmission Holdings, Inc. , Ralph Lauren ... - StockNewsJournal'
p7
aS"Allison Transmission Declares Quarterly Dividend and Announces 2017 Annual ... PR Newswire  - Feb 23, 2017 INDIANAPOLIS, Feb. 23, 2017 /PRNewswire/ -- Allison Transmission Holdings Inc. , today announced that its board of directors has declared a cash dividend of $0.15 per share on the Company's common stock for the first quarter of 2017.ALLISON TRANSMISSION HOLDINGS, INC.  Files An 8-K Departure of ... - Market ExclusiveART Advisors LLC Invests $2108000 in Allison Transmission Holdings Inc  - Sports Perspectives"
p8
aS"Allison Transmission Holdings  Q3 2016 Results - Earnings Call Transcript Seeking Alpha - Oct 25, 2016 Welcome to Allison Transmission's Third Quarter 2016 Results Conference Call. My name is Rob, and I'll be your conference operator today.Allison Transmission Announces Third Quarter 2016 Results - PR Newswire "
p9
aS'Independent testing proves Allison 2500 transmission delivers 5 percent better ... PR Newswire  - Feb 22, 2017 INDIANAPOLIS, Feb. 22, 2017 /PRNewswire/ -- Allison Transmission today announced results of certified, third-party testing that proves its fully automatic Allison 2500 with FuelSense technology provides 5 percent better fuel economy than the Eaton&nbsp;...'
p10
a.