(lp0
S"5 Things You Didn't Know About Ambarella, Inc. Motley Fool - Mar 16, 2017 As a result, Ambarella's stock often rose and fell with GoPro's in the past. But over the past few quarters, Ambarella reduced its dependence on GoPro while increasing its presence in adjacent markets. That's why Ambarella's stock rallied more than 40 ...Can Ambarella Inc Survive Without GoPro? - Madison.comProblems for Ambarella Inc. As GoPro Is Going to Rely Less on Them - Highland Mirror"
p1
aS"Ambarella, Inc. Keeps Spreading Its Wings Motley Fool - Mar 3, 2017 Ambarella Inc.  released stronger-than-expected fiscal fourth-quarter 2017 results earlier this week, highlighted by the video processing chip specialist's continued diversification and success in penetrating new markets."
p2
aS'What You Need to Watch When Ambarella Inc Reports Fiscal 2017 Earnings Motley Fool - Feb 25, 2017 All things being equal, if Ambarella can show consistent revenue growth each quarter while GoPro becomes a smaller and smaller portion of total revenue, investors will be less inclined to punish Ambarella every time the action cam maker issues downward&nbsp;...'
p3
aS'Ambarella Inc  Stock Is Massively Overlooked Investorplace.com - Mar 13, 2017 Semiconductor company Ambarella Inc  recently released better than expected fourth-quarter results, its HD video chips are found in some of the hottest new gadgets and the firm grew its revenue by nearly 30% from the previous year.Ambarella Inc.  Soars 7.33% on March 13 - Equities.comStock Price of Ambarella, Inc.  Decreases -5.04% - Energy Index'
p4
aS'Insider Trading Activity Ambarella Inc   VP Sold 1193 shares of ... Market Exclusive - 12 hours ago On 1/10/2014 Didier Legall, EVP, sold 21,083 with an average share price of $29.98 per share and the total transaction amounting to $632,068.34.'
p5
aS'Ambarella, Inc. Announces Fourth Quarter and Fiscal Year 2017 Financial Results Yahoo Finance - Feb 28, 2017 28, 2017  -- Ambarella, Inc. , a leading developer of low-power, HD and Ultra HD video compression and image processing semiconductors, today announced financial results for its fourth quarter and fiscal year 2017 ended&nbsp;...'
p6
aS'Ambarella Inc  Given Buy Rating at Dougherty &amp; Co The Cerbat Gem - 22 hours ago Ambarella Inc logo Dougherty &amp; Co reissued their buy rating on shares of Ambarella Inc  in a research note published on Thursday morning.Ambarella Inc  Given Buy Rating at Canaccord Genuity - Chaffey BreezeInsider Trading at Ambarella Inc? - Sports Perspectives'
p7
aS'Ambarella, Inc.  Valuation By The Numbers Business Review - 16 hours ago Ambarella, Inc.  has an ERP5 rank of 3857. The ERP5 Rank is an investment tool that analysts use to discover undervalued companies.'
p8
aS'Analysts Lift Price Target on Apple Inc. , Trim on Ambarella Inc  Smarter Analyst - Feb 21, 2017 Morgan Stanley and Stifel are out with confident standpoints on Apple Inc.  and Ambarella Inc . However, while one analyst sees fit to boost the price target on Apple even amid rising apprehension regarding China&nbsp;...'
p9
aS"Ambarella And Life After GoPro Benzinga - Mar 15, 2017 Canaccord Genuity's Matthew Ramsay maintained his Buy rating on Ambarella Inc , saying that life after GoPro Inc  would be driven by its computer vision roadmap, with applications across security, drone and automotive&nbsp;...Ambarella Inc. : Sports Cameras - Life After GoPro Inc  - Smrt Stck NwsChristopher Day Sells 1071 Shares of Ambarella Inc  Stock - Chaffey Breeze"
p10
a.