(lp0
S"AMC Networks Inc. Focuses on Content Motley Fool - Feb 23, 2017 AMC Networks  released fourth-quarter earnings on Thursday morning. Investors were quick to embrace the reported numbers, sending AMC's share prices more than 17% higher in the morning's trading session. The stock was up just 3% at&nbsp;...AMC Networks Inc. Reports Full Year and Fourth Quarter 2016 Results - NasdaqAMC Networks  Beats Q4 Earnings and Revenues - Yahoo Finance"
p1
aS"Why Shares of AMC Networks, Inc. Fell 30% in 2016 Motley Fool - Jan 4, 2017 AMC's road up the stock charts was built out of zombies. The Walking Dead has been dominating the cable-viewership charts for most of its seven seasons, and is often cited by AMC executives as a key driver of both advertising and licensing revenues."
p2
aS'AMC Networks Inc. Earnings: Content Creation Pays Off Motley Fool - Nov 4, 2016 AMC Networks  reported results for the third quarter of fiscal year 2016 on Thursday morning. The report apparently left many investors scratching their heads as AMC shares bounced as much as 6.4% higher and 6.5% lower before the&nbsp;...'
p3
aS"AMC Networks: Ready To Roll In 2017 Seeking Alpha - Jan 13, 2017 Meanwhile, the other big loser in the media industry has been AMC Networks , down 27% in the last year. So, it's a real mixed bag of media stocks these days."
p4
aS"AMC Networks, Inc. Earnings: Zombies Breathe New Life Into Ad Sales Motley Fool - Aug 4, 2016 The Motley Fool owns shares of and recommends AMC Networks. Try any of our Foolish newsletter services free for 30 days. We Fools may not all hold the same opinions, but we all believe that considering a diverse range of insights makes us better&nbsp;...AMC Networks Appoints Christian Wymbs as Chief Accounting Officer - Yahoo FinanceEven 'The Walking Dead' Can't Help AMC Network's Earnings - TheStreet.com"
p5
aS"AMC Networks: Still Long, But Cautious Seeking Alpha - Nov 7, 2016 AMC's reliance on The Walking Dead continues to be an issue: Q3 seemed like a notable reversal of the company's recent growth."
p6
aS'AMC Networks Inc.  Moves Higher on Volume Spike for February 13 Equities.com - Feb 13, 2017 AMC Networks Inc.  traded on unusually high volume on Feb. 13, as the stock gained 0.54% to close at $55.50. On the day, AMC Networks Inc. saw 1.36 million shares trade hands on 8,548 trades. Considering that the stock averages only a daily&nbsp;...Can AMC Networks Inc.  Post EPS Target Of $1.33? - Markets DailyAMC Networks Inc.  Receives New Coverage from Analysts at Deutsche Bank AG - Sports Perspectives'
p7
aS'Market Update: Looking at the Levels for AMC Networks Inc.  Davidson Register - 21 hours ago AMC Networks Inc.  has a current Value Composite Score of 29. Using a scale from 0 to 100, a lower score would represent an undervalued company and a higher score would indicate an expensive or overvalued company.Reviewing the Numbers for AMC Networks Inc.  - Rives Journal'
p8
aS'AMC Networks Invests $65 Million in RLJ Entertainment Bloomberg - Oct 17, 2016 AMC Networks Inc. is investing $65 million in RLJ Entertainment, a company backed by the founder of Black Entertainment Television, creating a partnership aimed at reaching two niche audiences -- African-American viewers and fans of British programming&nbsp;...RLJ Entertainment and AMC Networks Form Strategic Partnership for Streaming ... - PR Newswire RLJ Entertainment  Stock Soars on AMC Networks Partnership - TheStreet.com'
p9
aS'AMC Networks  Q4 Earnings: Is Disappointment in Store? Yahoo Finance - Feb 21, 2017 AMC Networks Inc. AMCX is slated to report fourth-quarter 2016 financial numbers before the opening bell on Feb 23. Over the past three months, shares of AMC Networks returned 6.46% compared with the Zacks categorized Broadcast Radio and Television&nbsp;...'
p10
a.