(lp0
S'Top Institutional Investors That Own AMETEK, Inc.  Post Analyst - Mar 17, 2017 AMETEK, Inc.  reached 25.68% versus a 1-year low price of $43.28. The stock was last seen 0% lower, reaching at $54.1 on Thursday, March 16, 2017.Fundamentals in Focus for AMETEK, Inc.  - The Finance Registrar'
p1
aS"Revenue Approximations Analysis: Allergan plc , AMETEK, Inc.  StockNewsJournal - Mar 17, 2017 AMETEK, Inc. , maintained return on investment for the last twelve months at 8.67, higher than what Reuters data shows regarding industry's average."
p2
aS"Is It Time to go for AMETEK, Inc. , American Electric Power Company, Inc ... StockNewsJournal - Mar 15, 2017 Investors who are keeping close eye on the stock of AMETEK, Inc.  established that the company was able to keep return on investment at 8.67 in the trailing twelve month while Reuters data showed that industry's average stands at 9.72 and&nbsp;...Analyst Observation On 2 Stocks: American Electric Power Company, Inc. (AEP ... - Post Analyst2 Stocks Analyst Opinion Asks for Deeper Look: AMETEK, Inc. (NYSE:AME ... - The Voice Registrar"
p3
aS"What are Analyst's Indicators for AMETEK, Inc. , American Electric Power ... The USA Commerce - Mar 16, 2017 Shares of AMETEK, Inc.  surged 1.12% to $54.10. During the trading on 03/15/2017, Company's stock ranged from $53.60 to $54.26."
p4
aS"Revenue Approximations Analysis: National Oilwell Varco, Inc. , AMETEK ... StockNewsJournal - Mar 13, 2017 AMETEK, Inc. , maintained return on investment for the last twelve months at 8.67, higher than what Reuters data shows regarding industry's average."
p5
aS'Ex-Dividend Reminder: AMETEK, Western Union and Joy Global Nasdaq - Mar 13, 2017 Looking at the universe of stocks we cover at Dividend Channel , on 3/15/17, AMETEK, Inc. , Western Union Co , and Joy Global Inc  will all trade ex-dividend for their respective upcoming dividends.'
p6
aS"Just the Facts on AMETEK, Inc.  StockNewsJournal - Feb 22, 2017 AMETEK, Inc.  is an interesting player in the Industrial Goods space, with a focus on Diversified Machinery. The stock has been active on the tape, currently trading at $55.15, up from yesterday's close by 1.19%.Sell-Side Analyst's Predictions: AMETEK, Inc. , Zoetis Inc.  - The USA CommerceOverbuying Stock in Limelight: AMETEK, Inc.  - Post Registrar"
p7
aS"Analytical Guide for Paychex, Inc. , AMETEK, Inc.  Stakeholders The USA Commerce - Mar 14, 2017 Shares of Paychex, Inc.  surged 0.29% to $62.56. During the trading on 03/13/2017, Company's stock ranged from $62.10 to $62.63."
p8
aS'AMETEK, Inc. StreetInsider.com - Mar 7, 2017 Thomas A. Amato was appointed to the Board of Directors of AMETEK, Inc., or the &quot;Company,&quot; effective March 6, 2017, to serve as a Class II Director until the 2017 Annual Meeting.'
p9
aS'Inspecting more closely technicals of AMETEK, Inc.  USA Commerce Daily - Mar 17, 2017 With all other things going on, AMETEK, Inc.  has been on a run - rising 7.78 percent in just three months.'
p10
a.