(lp0
S'American Shared Hospital Services Announces Contract to Supply a Gamma Knife ... Yahoo Finance - Mar 2, 2017 AMERICAN SHARED HOSPITAL SERVICES , a leading provider of turnkey technology solutions for advanced radiosurgical and radiation therapy services, announced today that it has entered into a contract to supply a Gamma Knife&nbsp;...'
p1
aS"American Shared Hospital Services'  CEO Ernest Bates on Q2 2016 Results ... Seeking Alpha - Aug 10, 2016 Good morning everyone and welcome to the 2016 Second Quarter Financial Results Conference Call for American Shared Hospital Services. At this time, all participants are in a listen-only mode. Later, we will conduct a question-and-answer session."
p2
aS'American Shared Hospital Services Shares Wall Street Journal Article Regarding ... Business Wire  - May 18, 2016 SAN FRANCISCO----AMERICAN SHARED HOSPITAL SERVICES , a leading provider of turnkey technology solutions for advanced radiosurgical and radiation therapy services, today shared an article from the May 16,&nbsp;...'
p3
aS'American Shared Hospital Services Reports 2016 First Quarter Results Business Wire  - May 10, 2016 SAN FRANCISCO----AMERICAN SHARED HOSPITAL SERVICES , a leading provider of turnkey technology solutions for advanced radiosurgical and radiation therapy services, today announced financial results for the&nbsp;...'
p4
aS'American Shared Hospital Services Announces Proposed 2016 CMS Gamma Knife and ... Business Wire  - Jul 27, 2015 SAN FRANCISCO----AMERICAN SHARED HOSPITAL SERVICES , a leading provider of turnkey technology solutions for advanced radiosurgical and radiation therapy services, announced today that the Centers for&nbsp;...'
p5
aS'American Shared Hospital Services Announces Final 2015 CMS Gamma Knife and ... Business Wire  - Nov 3, 2014 SAN FRANCISCO----AMERICAN SHARED HOSPITAL SERVICES , a leading provider of turnkey technology solutions for advanced radiosurgical and radiation therapy services, announced today that the Centers for&nbsp;...'
p6
aS'Trading Sheet: Reviewing the Levels for American Shared Hospital Services ... Searcy News - Mar 15, 2017 American Shared Hospital Services  has a current EV or Enterprise Value of 53252. The EV displays how the market assigns value to a firm as a whole.'
p7
aS'In Memoriam: Mark Smoyer, Shared Hospital Services American Laundry News - Aug 4, 2014 TOPEKA, Kan. - Mark Ralph Smoyer, president of Shared Hospital Services, Portsmouth, Va., died July 27 at his home in Virginia Beach, Va.'
p8
aS'Proton-beam centers sprout despite evidence drought ModernHealthcare.com - Apr 12, 2014 In the interim, some hospitals are looking at installing less costly technology to supply proton-beam radiation. American Shared Hospital Services, a publicly owned company that leases medical equipment to hospitals, inked agreements for centers ...'
p9
aS'Advanced Medical Solutions Group  Got Lower Numis Securities Rating ... HuronReport - Mar 14, 2017 Analysts await American Shared Hospital Services  to report earnings on April, 4. Among 6 analysts covering Advanced Medical Solutions Group PLC , 2 have Buy rating, 0 Sell and 4 Hold.'
p10
a.