(lp0
S"Insider Trading Activity AutoNation, Inc.   EVP Sold 17000 shares of ... Market Exclusive - 15 hours ago Jonathan P Ferrando , EVP of AutoNation, Inc.  reportedly Sold 17,000 shares of the company's stock at an average price of 45.31 for a total transaction amount of $770,270.00 SEC Form.Insider Trading at AutoNation Inc.? - BBNSJonathan P. Ferrando Sells 110430 Shares of AutoNation, Inc.  Stock - The Cerbat Gem"
p1
aS'Shares in Focus: AutoNation, Inc.  Rives Journal - Mar 16, 2017 Individual investors might be studying multiple metrics in order to maximize returns. AutoNation, Inc.  presently has a Gross Margin  ratio of 0.329344.'
p2
aS'The Zacks Analyst Blog Highlights: Ford Motors, AutoNation, General Motors and ... Yahoo Finance - Mar 17, 2017 Stocks recently featured in the blog include Ford Motors Company , AutoNation, Inc. , General Motors Company  and Fiat Chrysler Automobiles N.V.'
p3
aS'Stock Tracker: Focusing on Shares of AutoNation, Inc.  Davidson Register - 23 hours ago AutoNation, Inc.  has a current Value Composite Score of 7. Using a scale from 0 to 100, a lower score would represent an undervalued company and a higher score would indicate an expensive or overvalued company.'
p4
aS'MA Watch on Shares of AutoNation Inc  Sherwood Daily - 16 hours ago Investors may be tracking certain levels on shares of AutoNation Inc . The current 50-day Moving Average is 48.7, the 200-day Moving Average is 48.08, and the 7-day is noted at 44.94.'
p5
aS'AutoNation Inc.  Moves Lower on Volume Spike for March 06 Equities.com - Mar 6, 2017 AutoNation Inc.  traded on unusually high volume on Mar. 06, as the stock lost 1.07% to close at $45.33. On the day, AutoNation Inc. saw 1.9 million shares trade hands on 11,487 trades. Considering that the stock averages only a daily volume of 1 ...TheStreet Downgrades AutoNation, Inc.  to C+ - BNB Daily AutoNation, Inc.  Valuation According To Analysts - UK Market News'
p6
aS"AutoNation Announces Retirement of Jon Ferrando, Executive Vice President ... PR Newswire  - Mar 7, 2017 FORT LAUDERDALE, Fla., March 7, 2017 /PRNewswire/ -- AutoNation, Inc. , America's largest automotive retailer, today announced that Jon Ferrando, Executive Vice President - General Counsel, Corporate Development and Human Resources&nbsp;...AutoNation  Confirms Retirement of Jon Ferrando, EVP and General Counsel - StreetInsider.com"
p7
aS"Insider Trading Activity AutoNation, Inc.   EVP Sold 110430 shares ... Market Exclusive - Mar 16, 2017 Jonathan P Ferrando , EVP of AutoNation, Inc.  reportedly Sold 110,430 shares of the company's stock at an average price of 44.86 for a total transaction amount of $4,953,889.80 SEC Form."
p8
aS"Analysts Take the Wheel on AutoNation, Inc.  Shares and Where They ... Aiken Advocate - 17 hours ago Investors and analysts will be looking ahead to AutoNation, Inc. 's next earnings report which is slated to be released sometime on or around 2017-04-28 for the period ending on 2017-03-31."
p9
aS"AutoNation CEO: 'Trump administration is absolutely doing the right thing' on ... South Florida Business Journal - Mar 15, 2017 AutoNation CEO Mike Jackson said the Trump administration is &quot;absolutely doing the right thing&quot; when it comes to rolling back environmental regulations from the Obama administration."
p10
a.