(lp0
S'American National Insurance Company  Moves Lower on Volume Spike for ... Equities.com - 17 hours ago American National Insurance Company  traded on unusually high volume on Mar. 17, as the stock lost 0.05% to close at $116.94.Next Weeks Broker Price Targets For American National Insurance Company ... - Fiscal Standard'
p1
aS'American National Insurance Company Announces Filing Extension for Form 10-K GlobeNewswire  - Mar 1, 2017 GALVESTON, Texas, March 01, 2017  -- American National Insurance Company   filed a Form 12b-25 Notification of Late Filing with the U.S.'
p2
aS'American National Insurance Company  Ex-Dividend Date Scheduled for ... Nasdaq - Mar 8, 2017 American National Insurance Company  will begin trading ex-dividend on March 09, 2017. A cash dividend payment of $0.82 per share is scheduled to be paid on March 17, 2017.American National Insurance Company  Posts Basic Consolidated EPS ... - Equities Focus'
p3
aS'American National Insurance posts 4Q profit Yahoo Finance - Feb 28, 2017 GALVESTON, Texas  _ American National Insurance Co.  on Monday reported fourth-quarter profit of $59.8 million. The Galveston, Texas-based company said it had profit of $2.22 per share.American National Insurance Company  Stock Technicals at Critical ... - CML News'
p4
aS'American National Insurance Co. TX Sells 18415 Shares of Texas Instruments ... Chaffey Breeze - Mar 17, 2017 Texas Instruments logo American National Insurance Co. TX cut its position in shares of Texas Instruments Incorporated  by 17.6% during the fourth quarter, according to its most recent 13F filing with the Securities and Exchange Commission&nbsp;...'
p5
aS'American National Insurance Company  Moves Lower on Volume Spike for ... Equities.com - Feb 24, 2017 American National Insurance Company  traded on unusually high volume on Feb. 24, as the stock lost 0.05% to close at $121.54.American National Insurance Company : A Low-Debt Company, But Is It ... - Simply Wall St'
p6
aS'Farm Family prepares for Winter Storm Stella with claims teams and emergency ... GlobeNewswire  - Mar 14, 2017 American National established a dedicated property and casualty division in 1973 with American National Property And Casualty Company, Springfield, MO. This company serves 38 states not including NY. To better serve the unique insurance needs of the&nbsp;...'
p7
aS'Farm Family offers tips to help policyholders after snow storm GlobeNewswire  - Mar 16, 2017 This company serves 38 states not including NY. To better serve the unique insurance needs of the agricultural market, American National acquired the Farm Family group of insurance companies based in NY in 2001. For corporate and investor relations&nbsp;...'
p8
aS'Successful Earnings Option Trading: American National Insurance Company ... CML News - Mar 16, 2017 As we look at American National Insurance Company we note that a short put is one of the most common implementations of an option strategy, but the analysis completed when employing the short put often times lacks the necessary rigor especially&nbsp;...'
p9
aS'Ford Motor Company  Position Held by American National Insurance Co. TX Sports Perspectives - 23 hours ago Ford Motor Company logo American National Insurance Co. TX held its stake in Ford Motor Company  during the fourth quarter, according to its most recent disclosure with the Securities and Exchange Commission.'
p10
a.