(lp0
S"Abercrombie &amp; Fitch earnings: Here's what may signal the company is out of ideas MarketWatch - Mar 1, 2017 Abercrombie &amp; Fitch is geared toward shoppers in their 20s, but analysts think merchandise missed the mark. Abercrombie &amp; Fitch Co. is expected to report fourth-quarter earnings on Thursday before the opening bell. The retailer ANF, +2.12% , whose ...Why Shares of Abercrombie &amp; Fitch Co. Are Surging Today - Motley Fool"
p1
aS'Earnings Reaction History: Abercrombie &amp; Fitch Co., 72.7% Follow-Through ... Nasdaq - Mar 2, 2017 Abercrombie &amp; Fitch Co.  is due to issue its quarterly earnings report in the upcoming extended-hours session. Given its history, traders can expect very active trading in the issue immediately following its quarterly earnings announcement ...'
p2
aS'Why Analysts put forward these two stocks: Abercrombie &amp; Fitch Co. , SLM ... The USA Commerce - Mar 17, 2017 Presently Abercrombie &amp; Fitch Co.  stock have an ABR of 3.53. This is built on a simplified 1 to 5 scale where 1 represents a Strong Buy and 5 a Strong Sell.Fmr LLC Has $71820000 Position in Abercrombie &amp; Fitch Co.  - Chaffey BreezeInvestor Research Report on Abercrombie &amp; Fitch Co.  - FactsReporter'
p3
aS"Analyst Activity  FBR &amp; Co Reiterates Hold on Abercrombie &amp; Fitch Co.  Market Exclusive - Mar 4, 2017 Abercrombie &amp; Fitch Co.  is a specialty retailer that operates stores and direct-to-consumer operations. Through these channels, the Company sells products, including casual sportswear apparel, including knit tops and woven shirts, graphic t ...Analyst's Predictions on Amyris, Inc. , Abercrombie &amp; Fitch Co.  - StockNewsJournalTrader's Watch List: Abercrombie &amp; Fitch Co.  - TopChronicle"
p4
aS'Dividend Growth &amp; Technical Update on Abercrombie &amp; Fitch Co.  Business Review - Mar 17, 2017 Shares of Abercrombie &amp; Fitch Co.  currenty have a 10 year dividend growth rate of 0.01344. This number is calculated using the geometric average which provides the typical value of dividend growth over the specified period using the product ...'
p5
aS'Mid-Morning Market Update: Markets Edge Lower; Abercrombie &amp; Fitch Earnings ... Nasdaq - Mar 2, 2017 Abercrombie &amp; Fitch Co.  reported weaker-than-expected earnings for its fourth quarter on Thursday. Abercrombie &amp; Fitch reported Q4 earnings of $0.71 per share on revenue of $1.04 billion.'
p6
aS"Abercrombie &amp; Fitch Co.'s  stock price is Worth at $12.06 while ends ... Hot Stocks Point - 23 hours ago Abercrombie &amp; Fitch Co.  stock price ended its day with gain 2.12% and finalized at the price of $12.06. During its last trading session, Stock traded with the total exchanged volume of 2.86 million shares."
p7
aS'Abercrombie &amp; Fitch Co.  Makes It Very Clear Through These Technicals NY Stock News - Mar 14, 2017 The technicals for Abercrombie &amp; Fitch Co.  has spoken via its technical chart and the message is loud and clear. Based on that message, this is the relevant information necessary to make sense of that current setup.'
p8
aS"The Must-Know Technicals As They Stand For Abercrombie &amp; Fitch Co.  NY Stock News - Mar 15, 2017 Abercrombie &amp; Fitch Co.  has presented a rich pool of technical data in recent sessions. These are the trends we've been tracking and how we feel they should be played in the current environment."
p9
aS'The Technicals For Abercrombie &amp; Fitch Co.  Tell An Interesting Tale NY Stock News - Mar 13, 2017 The technicals for Abercrombie &amp; Fitch Co.  have taken shape, and with them a comprehensive picture has emerged. This is the current state of play as presented by the current technical setup.'
p10
a.