(lp0
S'*Taken from Approach Resources Seeking Alpha - Mar 13, 2017 Fortunately, management has changed some things around. As you can see in the image below, the amount of hedging for natural gas has remained the same , keeping output hedged at 85% of production for this year.KLR Group Reaffirms Buy Rating for Approach Resources Inc.  - BNB Daily Active Volume Stock: Approach Resources, Inc.  - HugoPress'
p1
aS'SHAREHOLDER ALERT: Purcell Julie &amp; Lefkowitz LLP Is Investigating Approach ... PR Newswire  - Mar 10, 2017 NEW YORK, March 10, 2017 /PRNewswire/ -- Purcell Julie &amp; Lefkowitz LLP, a class action law firm dedicated to representing shareholders nationwide, is investigating a potential breach of fiduciary duty claim involving the board of directors of Approach&nbsp;...'
p2
aS'Approach Resources - Q4 Earnings Preview And Summary Valuation Thoughts Seeking Alpha - Mar 9, 2017 9, 2017, AREX posted a corporate presentation on the company website related to the Jan. 26 special vote of shareholders to approve the initial debt for equity exchange.APPROACH RESOURCES INC.  Files An 8-K Results of Operations and ... - Market ExclusiveApproach Resources Inc.  News Impact Score At 57 - Stock Observer'
p3
aS'Approach Resources Inc Realized Volatility Hits An Elevated Level CML News - Mar 16, 2017 This is a proprietary realized volatility rating created by Capital Market Laboratories  based on a large number of data interactions for Approach Resources Inc  . We examine the little used gem of daily stock volatility over a 20 ...'
p4
aS'Approach Resources Inc.  Earns Buy Rating from KLR Group Chaffey Breeze - Mar 17, 2017 Approach Resources Inc. logo KLR Group reiterated their buy rating on shares of Approach Resources Inc.  in a report released on Tuesday morning.Investors Targeted Stock: Approach Resources Inc.  - Is storiesZacks Rank on Approach Resources Inc.  based on Estimated Earnings - Highland Mirror'
p5
aS"Approach Resources Inc. Reports 2016 Fourth Quarter and Full-Year Financial ... Yahoo Finance - Mar 9, 2017 Ross Craft, Approach's Chairman and CEO commented, In 2016, we delivered exceptional operational results while maintaining our focus on reducing costs and increasing operating efficiencies."
p6
aS"What are Analyst's Indicators for Global Blood Therapeutics, Inc. (GBT ... The USA Commerce - Mar 15, 2017 Shares of Global Blood Therapeutics, Inc.  dropped -3.45% to $36.40. During the trading on 03/14/2017, Company's stock ranged from $35.25 to $37.30. The relative strength index or RSI highlights overbought  and oversold (below&nbsp;..."
p7
aS'The Technicals For Approach Resources, Inc. , An Important Analysis NY Stock News - Mar 13, 2017 The technicals for Approach Resources, Inc.  have taken shape, and with them a comprehensive picture has emerged.'
p8
aS"Approach Resources  CEO Ross Craft on Q4 2016 Results - Earnings Call ... Seeking Alpha - Mar 10, 2017 Good day ladies and gentlemen and welcome to the Approach Resources Inc. Q4 2016 Earnings Conference Call. [Operator Instructions] I would now like to introduce your host for today's conference."
p9
aS"What Type of Consensus Views Analysts Say about Approach Resources, Inc.'s ... Hot Stocks Point - Mar 17, 2017 Approach Resources, Inc.  stock price ended its day with gain 6.90% and finalized at the value of $2.48. During its last trading session, Stock traded with the total exchanged volume of 1.37 million shares."
p10
a.