(lp0
S'American Railcar Industries, Inc.  Ex-Dividend Date Scheduled for March ... Nasdaq - Mar 14, 2017 American Railcar Industries, Inc.  will begin trading ex-dividend on March 15, 2017. A cash dividend payment of $0.4 per share is scheduled to be paid on March 24, 2017.American Railcar Industries, Inc.  Downgraded by TheStreet - Chaffey BreezeThe American Railcar Industries, Inc.  To Go Ex-Dividend on March 15th - Petro Global News 24'
p1
aS"American Railcar Industries' [ARII] CEO Jeff Hollister on Q4 2016 Results ... Seeking Alpha - Feb 24, 2017 Good day, ladies and gentlemen, and welcome to the American Railcar Industries' Inc., Q4 2016 Earnings Conference Call.American Railcar Industries, Inc. Reports Results for 2016 - GlobeNewswire American Railcar Industries Inc.  Soars 7.99% on February 24 - Equities.com"
p2
aS'Cowen Talks American Railcar Industries Move And The Rail Run Benzinga - Dec 20, 2016 American Railcar Industries, Inc. , in which Icahn has a controlling 61 percent stake, also rose strongly, with the markets initially construing the deal as related to the company.Carl Icahn selling St. Charles railcar leasing firm for up to $3.4 billion - STLtoday.comIcahn to Sell Rail Lessor to Sumitomo in $2.8 Billion Deal - Bloomberg'
p3
aS"American Railcar makes CFO appointment permanent St. Louis Business Journal - Feb 15, 2017 American Railcar Industries Inc. named Luke Williams senior vice president, chief financial officer and treasurer, all roles he's held on an interim basis for over a year.American Railcar Industries, Inc.  Scheduled to Post Earnings on Thursday - Sports Perspectives"
p4
aS"American Railcar Industries Derailed in September -- Here's Why Motley Fool - Oct 2, 2015 Shares of American Railcar Industries , a small-cap manufacturer and lessor of hopper railcars, which carry dry bulk goods, and tank railcars, which are primarily responsible for carrying liquids and gases, tumbled 13% in September based ..."
p5
aS'American Railcar Industries: Icahn, Energy, Leasing Seeking Alpha - May 15, 2015 American Railcar Industries   is the third largest manufacturers of railcars in the US. ARI is owned and controlled via a 56% stake by famed activist investor Carl Icahn. Icahn last purchased shares in 2011 at around the ...'
p6
aS'Is American Railcar Industries, Inc.  Undervalued? Business Review - 14 hours ago American Railcar Industries, Inc.  has an ERP5 rank of 2299. The ERP5 Rank is an investment tool that analysts use to discover undervalued companies.'
p7
aS"Icahn's American Railcar suing federal regulators St. Louis Business Journal - Dec 23, 2016 American Railcar Industries Inc. is suing federal railroad safety regulators following an order requiring that hundreds of tank cars manufactured by the company be tested for leaks."
p8
aS"Will American Railcar Derail Again? Seeking Alpha - Jul 29, 2016 The company's bread and butter is the shipment of railcars. Rail traffic is in decline, which means railroads might have less demand for railcars. For the first 28 weeks of 2016 cumulative U.S. carloads fell 12% Y/Y. Meanwhile, Q1 railcar orders for ...American Railcar's profit off 40% as manufacturing demand falls - St. Louis Business Journal"
p9
aS"American Railcar Industries'  CEO Jeff Hollister on Q3 2016 Results ... Seeking Alpha - Oct 28, 2016 Good day, ladies and gentlemen, and welcome to the Q3 2016 American Railcar Industries' Inc., Earnings Conference Call."
p10
a.