(lp0
S'33.44 MarketWatch - Dec 22, 2009 Artesian Resources Corp. Cl A. Artesian Resources Corp. is a holding company that engages in the provision of water resource management.'
p1
aS'Artesian Resources Corporation Class A Non-Voting  Moves Higher on ... Equities.com - Mar 15, 2017 Artesian Resources Corporation Class A Non-Voting  traded on unusually high volume on Mar. 15, as the stock gained 4.24% to close at $33.91.Artesian Resources Corporation  expected to move 1% in response to its ... - Post AnalystArtesian Resources Corporation  Upside Stock Technicals at ... - CML News'
p2
aS'Artesian Resources Corporation Class A Non-Voting  Moves Higher on ... Equities.com - Mar 1, 2017 Artesian Resources Corporation Class A Non-Voting  traded on unusually high volume on Mar. 01, as the stock gained 2.43% to close at $33.75.'
p3
aS"Is Water Utility Artesian Resources A Buy? Seeking Alpha  - Jan 23, 2015 We had briefly touched on Artesian Resources Corp  on our website recently and wanted to revisit it with a bit more 'meat on the bone."
p4
aS'Artesian Resources: Small Company, Big Dividends Seeking Alpha - Dec 15, 2014 Water is essential and companies that provide it often enjoy stable revenues and earnings. Artesian Resources  is one such provider of water and water-related services.'
p5
aS"Artesian Resources' net income jumped 14.6% in 2014 The News Journal - Mar 17, 2015 Improved water sales revenue and a decline in legal fees helped Artesian Resources Corporation boost its net income by nearly 15 percent in 2014."
p6
aS'Stock Review: Tracking the Numbers for Artesian Resources Corporation (NASDAQ ... BVN - 18 hours ago The 12 month stock volatility for Artesian Resources Corporation  is currently 29.749400. The 6 month volatility is 30.489100, and the 3 month is seen at 28.379900.'
p7
aS'Bessemer Group Inc. Has $521000 Stake in Artesian Resources Corporation  BNB Daily  - Feb 26, 2017 Artesian Resources Corporation logo Bessemer Group Inc. increased its position in Artesian Resources Corporation  by 15.6% during the fourth quarter, according to its most recent 13F filing with the SEC.Artesian Resources Corporation  Stock Technicals Hit Strength - CML News'
p8
aS'Artesian Water Company, Inc. Enters Into Agreement to purchase water assets of ... GlobeNewswire  - Feb 28, 2017 NEWARK, Del., Feb. 28, 2017  -- Artesian Resources Corporation , a leading provider of water, wastewater services and related services on the Delmarva Peninsula, today announced that it has entered into an&nbsp;...'
p9
aS'Artesian Water Maryland Inducted Into the Cecil County Maryland Chamber of ... GlobeNewswire  - Oct 29, 2015 NEWARK, Del., Oct. 29, 2015  -- Artesian Resources Corporation  announced today that Artesian Water Maryland, Inc., a wholly-owned subsidiary, was inducted into the Cecil County, Maryland Chamber of Commerce&nbsp;...'
p10
a.