(lp0
S"HP to Buy Aruba Networks for $2.7 Billion Wall Street Journal - Mar 2, 2015 Hewlett-Packard Co. agreed to acquire wireless-networking company Aruba Networks Inc. in a deal valued at roughly $2.7 billion, expanding H-P's capabilities in the mobile market.HP To Buy WiFi Provider Aruba Networks For $3 Billion - Forbes"
p1
aS'HP in Talks to Buy Aruba Networks for Wi-Fi Infrastructure Bloomberg - Feb 25, 2015 Hewlett-Packard Co. is in talks to acquire Aruba Networks Inc., a maker of wireless-network infrastructure used by hotels, universities and shopping malls, people with knowledge of the matter said.Why Aruba Networks Inc. Stock Skyrocketed Wednesday - Motley Fool'
p2
aS"Aruba Networks says Portland office is prototype for new Silicon Valley campus OregonLive.com - Apr 22, 2015 Keerti Melkote , founder and Chief Technology Officer of Aruba Networks, helped celebrated the move into the company's new office in the 300 Block building in downtown Portland on Apr. 22, 2015.Cool Spaces: Visit an office of the future at Aruba's airy Portland space  - Portland Business Journal "
p3
aS'Earnings Preview: Aruba Networks Seeking Alpha - Aug 16, 2012 Aruba Networks, Inc.  is scheduled to report its Q4 2012 results on August 23, 2012, after the bell. The street expects EPS and revenue of $0.17 and $136.84M, respectively.'
p4
aS"Why HP Needs to Make its $3 Billion Aruba Networks Deal Worthwhile Motley Fool - Mar 17, 2015 The company announced that it's agreed to buy wireless networking specialist Aruba Networks  for a total of around $3 billion."
p5
aS"Aruba Networks Replaces Cisco in Starbucks Light Reading - Aug 29, 2013 Another community member, alexboone40, pointed out that Aruba Networks CEO Dominic Orr confirmed its partnership with Google on the company's fourth-quarter earnings call last Thursday."
p6
aS'Aruba Networks targets SME market, expands Aruba PartnerEdge TechTarget - Oct 17, 2014 Having already experienced growth in the SME market with its Aruba Central cloud management solution and Instant controller-less access, Aruba said its recently announced 200 series -- a set of introductory level dual radio APs -- and the 210 Series AP&nbsp;...'
p7
aS"Aruba Networks Advances Mobile Collaboration for the Digital Workplace With ... Business Wire  - May 27, 2015 As an Aruba Wave 2 beta customer, Netflix Inc., the world's leading Internet television network with over 62 million members in over 50 countries, is closely tracking the advancements in 802.11ac technology to support the bandwidth and capacity&nbsp;...Aruba brings 320 series access points with MU-MIMO grouping - Infotech Lead  Aruba Announces 802.11ac Wave 2 Wireless Access Points - eWeek"
p8
aS"Aruba Networks Delivers Secure Wi-Fi Infrastructure Protecting Thousands of ... Business Wire  - Aug 15, 2014 BUSINESS WIRE)--Aruba Networks, Inc.  successfully designed, deployed and operated a secure wireless LAN  for the Black Hat USA 2014 Conference held in Las Vegas, August 2-7, protecting thousands of attendees' laptops and&nbsp;..."
p9
aS'Aruba Networks targets SMBs with new channel program Computer Dealer News - Oct 14, 2014 Network gear vendor Aruba Networks Inc. is lining up a set of new products and a new channel team to help its partners meet the needs of small and medium sized businesses.'
p10
a.