(lp0
S'Azz Inc. Reports Another Weak Quarter Motley Fool - Jan 9, 2017 The market has been merrily pricing in a recovery in industrial market conditions, most notably in oil and gas-related spending, but the latest results from galvanizing and specialty electrical equipment company Azz Inc  suggest the recovery ...'
p1
aS'59.05 MarketWatch - Oct 8, 2010 AZZ Inc. Watchlist CreateAZZAlert. After Hours. Last Updated: Mar 16, 2017 4:49 p.m.. $ 59.05. 0.00 0.00%. After Hours Volume: 5.8K.'
p2
aS'AZZ Inc. and Westinghouse Electric Company Announce Teaming Agreement ... PR Newswire  - Jan 20, 2017 FORT WORTH, Texas, Jan. 20, 2017 /PRNewswire/ -- AZZ Inc. , a global provider of galvanizing, welding solutions, specialty electrical equipment and highly engineered services to the power generation, transmission, distribution and industrial&nbsp;...AZZ Inc. To Retain Nuclear Logistics - Nuclear Street - Nuclear Power Plant News, Jobs, and Careers  '
p3
aS"AZZ Inc. Reports Financial Results for the Third Quarter of Fiscal Year 2017 PR Newswire  - Jan 6, 2017 Tom Ferguson, president and chief executive officer of AZZ Inc., commented, &quot;Our overall third quarter financial performance was disappointing as we continued to feel the effects of depressed markets in oil and gas, petrochemical, and solar for our&nbsp;...AZZ's  CEO Tom Ferguson on Q3 2017 Results - Earnings Call Transcript - Seeking Alpha"
p4
aS'UPDATE: Stifel Downgrades AZZ Inc.  to Sell StreetInsider.com - Dec 8, 2016 Stifel downgraded AZZ Inc.  from Hold to Sell with a price target of $57. Analyst Noelle C. Dilts thinks volume challenges will continue in F3Q and valuation has run ahead of fundamentals.'
p5
aS"AZZ Inc.: Here's What A Real Moat Looks Like Seeking Alpha - Dec 22, 2015 My first encounter with AZZ  happened in July, 2015 at their newly acquired galvanizing facility in San Antonio, Texas."
p6
aS'AZZ Inc  Stake Lowered by Putnam Investments LLC The Cerbat Gem - Mar 16, 2017 AZZ logo Putnam Investments LLC lowered its position in AZZ Inc  by 1.0% during the fourth quarter, according to its most recent Form 13F filing with the SEC.'
p7
aS"AZZ Incorporated Earnings: Margin Expansion on Its Way Motley Fool - Apr 22, 2016 AZZ Incorporated  stock has had a strong year, with notable outperformance compared to the S&amp;P 500 index. It's in large part due to the successful resolution of operating inefficiencies plus completing previously delayed shipments in its ..."
p8
aS'AZZ Incorporated Continues to Grow but Cuts Guidance Motley Fool - Jan 11, 2016 In what is likely to become a recurring theme with industrial stocks during earnings season, galvanizing and electrical products company AZZ Incorporated  reported results affected by weaker end demand. On the other hand, AZZ managed to&nbsp;...'
p9
aS"AZZ Incorporated Feels the Heat From Oil and Gas Motley Fool - Oct 6, 2016 As management explained on the earnings call, galvanizing is a business that doesn't operate with long lead times, so any kind of downturn  will be felt quickly in AZZ revenues. The impact was negative in the current quarter, and investors ..."
p10
a.