(lp0
S'Baxter International Inc.  Ex-Dividend Date Scheduled for March 01, 2017 Nasdaq - Feb 28, 2017 Baxter International Inc.  will begin trading ex-dividend on March 01, 2017. A cash dividend payment of $0.13 per share is scheduled to be paid on April 03, 2017.Third Point is Buying Baxter International Inc.  Shares - Small Cap Exclusive Buy, Sell or Hold? Analysts Approach: Baxter International Inc. , Invesco ... - The USA Commerce'
p1
aS'Top Institutional Investors That Own Baxter International Inc.  Post Analyst - 20 hours ago Baxter International Inc.  reached 32.41% versus a 1-year low price of $39.56. The stock was last seen -1.4% lower, reaching at $51.43 on Thursday, March 16, 2017.Why Investors remained confident on Arconic Inc. , Baxter International ... - StockNewsJournalBaxter International Inc.  EPS Anticipation At $0.6675 - Markets Daily'
p2
aS'Baxter Celebrates World Kidney Day Business Wire  - Mar 9, 2017 DEERFIELD, Ill.----Baxter International Inc. , a global innovator in renal care for more than 60 years, is a proud supporter of World Kidney Day, an education campaign focused on reducing the frequency and impact of kidney&nbsp;...'
p3
aS"Loeb's Third Point LLC Trims Stake in Baxter International Inc.  to 8.5% StreetInsider.com - Mar 1, 2017 In a 13D filing on Baxter International Inc. , Dan Loeb's hedge fund Third Point LLC disclosed a 8.5%, or 46,008,080 share, stake in the company."
p4
aS'Why Investors remained confident on Sysco Corporation , Baxter ... StockNewsJournal - Mar 13, 2017 Baxter International Inc. , at its latest closing price of $52.01, it has a price-to-book ratio of 3.39, compared to an industry average at 4.52.'
p5
aS"How Does Baxter International Inc.  Stack Up Right Now? StockNewsJournal - Mar 10, 2017 Baxter International Inc.  is an interesting player in the Healthcare space, with a focus on Medical Instruments &amp; Supplies.Baxter International Inc.  Moves Higher on Volume Spike for March 09 - Equities.comBaxter  Hits a 52-Week High: What's Driving the Stock? - Yahoo Finance"
p6
aS'Ex-Dividend Reminder: Teleflex, Baxter International and Weyerhaeuser Nasdaq - Feb 27, 2017 Looking at the universe of stocks we cover at Dividend Channel , on 3/1/17, Teleflex Incorporated , Baxter International Inc. , and Weyerhaeuser Co  will all trade ex-dividend for their respective upcoming dividends.'
p7
aS'Changes to Broker Targets on: Baxter International Inc  Post Registrar - Mar 13, 2017 Baxter International Inc  plunged -0.23% during previous trade, a total of 2.32M shares exchanged hands compared with its average trading volume of 3.04M shares whereas its relative volume is 0.81.Why Analysts put forward these two stocks: Baxter International Inc. (BAX ... - The USA CommerceShares of Baxter International Inc.  Sees Large Outflow of Money - Energy Index'
p8
aS"Baxter International Inc.: Baxter Declares Quarterly Dividend The Wall Street Transcript - Feb 21, 2017 The company's global footprint and the critical nature of its products and services play a key role in expanding access to healthcare in emerging and developed countries."
p9
aS'Baxter teams up with ScinoPharm to develop cancer drugs Seeking Alpha - Feb 28, 2017 Baxter International  enters into a strategic partnership with ScinoPharm Taiwan, Ltd. to develop, manufacture and commercialize five injectable drugs used to treat a range of cancers and chemo-induced nausea and vomiting.Baxter and ScinoPharm Announce Exclusive Strategic Partnership for Generic ... - Yahoo Finance'
p10
a.