(lp0
S"Brandywine Realty Trust Announces Executive Promotions PR Newswire  - Mar 13, 2017 RADNOR, Pa., March 13, 2017 /PRNewswire/ -- Brandywine Realty Trust  announced today that it has promoted Paul J. Commito to Senior Vice President of Development and Gina Alm-Myers to Vice President of Human Resources and Diversity&nbsp;...Textron Inc.  Forms $47.72 Double Top, Brandywine Realty Trust 's ... - HuronReportNext Weeks Broker Price Targets For Brandywine Realty Trust  - Fiscal Standard"
p1
aS'Brandywine Realty Trust Names Jennifer Matthews Rice Senior Vice President and ... PR Newswire  - Mar 8, 2017 RADNOR, Pa., March 8, 2017 /PRNewswire/ -- Brandywine Realty Trust   announced today that Jennifer Matthews Rice has been promoted to Senior Vice President and General Counsel.Notable Two Hundred Day Moving Average Cross  BDN - satPRnews '
p2
aS'Brandywine Realty Trust: Building Trophies Seeking Alpha - Jan 13, 2017 This trophy was brought to you by Brandywine Realty Trust . Over the last couple of years, Brandywine has sold over $1 billion in assets, and most of its acquisitions have been vacant land.'
p3
aS'Brandywine Realty Trust Announces Quarterly Dividends and Confirms First ... PR Newswire  - Mar 1, 2017 RADNOR, Pa., March 1, 2017 /PRNewswire/ -- Brandywine Realty Trust  announced today that our Board of Trustees has declared a quarterly cash dividend of $0.16 per common share, payable on April 19, 2017 to holders of record on April 5,&nbsp;...Brandywine Realty Trust to Present at the Citi 2017 Global Property CEO Conference - Yahoo FinanceInsider Trading Activity Brandywine Realty Trust   CEO Sold 20000 ... - Market Exclusive'
p4
aS'Brandywine Realty Trust to Redeem All Outstanding Shares of its 6.90% Series E ... PR Newswire  - Mar 10, 2017 RADNOR, Pa., March 10, 2017 /PRNewswire/ -- Brandywine Realty Trust  announced today that it intends to redeem all of its outstanding 4,000,000 shares of 6.90% Series E Cumulative Redeemable Preferred Shares  (the&nbsp;...'
p5
aS"Brandywine Realty Trust Announces Changes to Board of Trustees PR Newswire  - Feb 23, 2017 RADNOR, Pa., Feb. 23, 2017 /PRNewswire/ -- Brandywine Realty Trust  announced today changes to the composition of its Board of Trustees .Stock Returns: Corporate Office Properties Trust  is Beating ... - CML NewsAnalysts Price Target Update: Brandywine Realty Trust's  finishes with -0 ... - Hot Stocks Point"
p6
aS'Brandywine Realty Trust Announces 24799 Square Feet Lease with FreedomPay, Inc ... PR Newswire  - Dec 15, 2016 RADNOR, Pa., Dec. 15, 2016 /PRNewswire/ -- Brandywine Realty Trust  announced today that it has signed a long term lease with FreedomPay, Inc., a global leader in payment and commerce technologies, to lease 24,799 square feet at&nbsp;...Radnor company moving its HQ to Cira Centre South in Philadelphia - Philadelphia Business JournalFreedomPay Relocates Headquarters To FMC Tower In Philadelphia, Pennsylvania - Area Development Online'
p7
aS"Drexel and Brandywine Realty Trust Partner on Schuylkill Yards Innovation ... DrexelNow - Mar 2, 2016 Drexel University and Brandywine Realty Trust  made history today as they announced their partnership and unveiled plans for Philadelphia's Schuylkill Yards innovation development, a 14-acre master planned community.Drexel partners with Brandywine Realty Trust on visionary Schuylkill Yards project - PhillyVoice.comDrexel, Brandywine to develop new $3.5B neighborhood called Schuylkill Yards - Philadelphia Business Journal"
p8
aS'Brandywine Realty has big year with sales, sees lease up at FMC Tower Philadelphia Business Journal - Feb 2, 2017 Brandywine Realty Trust ended its year selling $860 million in properties - handily exceeding its original target of unloading $450 million - and reaching a leasing milestone at FMC Tower, which is now 96 percent occupied.'
p9
aS"Brandywine completes $400M sale Philadelphia Business Journal - Feb 5, 2016 Brandywine Realty Trust has completed a nearly $400 million sale of 58 office properties that essentially finishes a multi-year effort to exit certain markets that don't fit into its overall strategy to focus on urban areas and town centers."
p10
a.