(lp0
S'BSB Bancorp Inc.  Moves Higher on Volume Spike for March 16 Equities.com - Mar 16, 2017 BSB Bancorp Inc.  traded on unusually high volume on Mar. 16, as the stock gained 2.58% to close at $27.80. On the day, BSB Bancorp Inc. saw 39,660 shares trade hands on 197 trades. Considering that the stock averages only a daily volume of&nbsp;...BSB Bancorp Inc  Insider Christopher Y. Downs Sells 8274 Shares - Chaffey Breeze'
p1
aS'BSB Bancorp, Inc. Reports Fourth Quarter Results - Year Over Year Earnings ... PR Newswire  - Feb 9, 2017 9, 2017 /PRNewswire/ -- BSB Bancorp, Inc.  , the holding company for Belmont Savings Bank , a state-chartered savings bank headquartered in Belmont, Massachusetts, today reported net income of $3.31 million&nbsp;...BSB BANCORP, INC.  Files An 8-K Departure of Directors or Certain ... - Market ExclusiveStock Returns: Southern Missouri Bancorp Inc  is Beating BSB ... - CML News'
p2
aS"Insider Trading Activity BSB Bancorp Inc   insider Sold 8274 ... Market Exclusive - Mar 15, 2017 Christopher Y. Downs , insider of BSB Bancorp Inc  reportedly Sold 8,274 shares of the company's stock at an average price of 27.42 for a total transaction amount of $226,873.08 SEC Form."
p3
aS'BSB Bancorp, Inc. Reports Fourth Quarter Results - Year Over Year Earnings ... PR Newswire  - Feb 11, 2016 BELMONT, Mass., Feb. 11, 2016 /PRNewswire/ -- BSB Bancorp, Inc.  , the holding company for Belmont Savings Bank , a state-chartered savings bank headquartered in Belmont, Massachusetts, today reported&nbsp;...'
p4
aS"Insider Trading at BSB Bancorp Inc? Chaffey Breeze - Mar 15, 2017 BSB Bancorp logo BSB Bancorp Inc  insider Christopher Y. Downs sold 500 shares of the business's stock in a transaction that occurred on Thursday, March 9th.The BSB Bancorp Inc  Insider Christopher Y. Downs Sells 500 Shares - Petro Global News 24BSB Bancorp 's Insider Christopher Downs Unloaded 8274 Shares of the ... - HuronReport"
p5
aS'BSB Bancorp Inc.  Moves Lower on Volume Spike for February 15 Equities.com - Feb 15, 2017 BSB Bancorp Inc.  traded on unusually high volume on Feb. 15, as the stock lost 0.71% to close at $27.80. On the day, BSB Bancorp Inc. saw 19,611 shares trade hands on 186 trades. Considering that the stock averages only a daily volume of 12,048&nbsp;...'
p6
aS'Bsb Bancorp, Inc.  Files Form 4 Insider Selling : Christopher Y Downs ... Energy Index - Mar 16, 2017 Bsb Bancorp, Inc. : Christopher Y Downs , Executive Vice President of Bsb Bancorp, Inc. sold 8,274 shares on Mar 13, 2017.'
p7
aS"Insider Trading Activity BSB Bancorp Inc   insider Sold 3800 ... Market Exclusive - Mar 3, 2017 Christopher Y. Downs , insider of BSB Bancorp Inc  reportedly Sold 3,800 shares of the company's stock at an average price of 28 for a total transaction amount of $106,400.00 SEC Form.Christopher Y. Downs Sells 3800 Shares of BSB Bancorp Inc  Stock - Sports Perspectives"
p8
aS'Stock Returns: Charter Financial Corporation  is Beating BSB ... CML News - Mar 14, 2017 This is a snapshot to compare the stock returns for BSB Bancorp Inc   versus Charter Financial Corporation  .'
p9
aS'Bsb Bancorp, Inc.  Files Form 4 Insider Selling : Christopher Y Downs ... Energy Index - Mar 7, 2017 Bsb Bancorp, Inc. : Christopher Y Downs , Executive Vice President of Bsb Bancorp, Inc. sold 3,800 shares on Mar 1, 2017.Stock Returns: BSB Bancorp Inc   is Beating ... - CML News'
p10
a.