(lp0
S'SIERRA BANCORP  Files An 8-K Departure of Directors or Certain ... Market Exclusive - Mar 17, 2017 Sierra Bancorp is a bank holding company for Bank of the Sierra . The Bank is a state-chartered bank, which offers a range of retail and commercial banking services.'
p1
aS"How Risky Is Sierra Bancorp? Motley Fool - Dec 30, 2016 I've pointed out the stunning decrease in Sierra Bancorp's  non-performing loan percentage before. This important risk metric shows that Bank of the Sierra's loan balance sheet improved, but a statistic in isolation doesn't explain the ..."
p2
aS"Understanding Sierra Bancorp in 3 Charts Motley Fool - Dec 5, 2016 Because of poor performance a few years ago, many investors have written off Sierra Bancorp . But recent changes in the type of loans they pursue has greatly increased Sierra Bancorp's loan quality. Once investors focused on banks again,&nbsp;..."
p3
aS'Sierra Bancorp Completes Acquisition of Coast Bancorp of San Luis Obispo County PR Newswire  - Jul 9, 2016 PORTERVILLE, Calif., July 8, 2016 /PRNewswire/ -- Sierra Bancorp , the holding company of Bank of the Sierra, announced today the completion of its acquisition of Coast Bancorp  of San Luis Obispo County, California&nbsp;...'
p4
aS'Sierra Bancorp reaches $2 billion in assets in 2016 Fresno Bee - Jan 23, 2017 Sierra Bancorp, the Porterville-based parent company of Bank of the Sierra, reported a fourth-quarter profit of $5.5 million in 2016, when it reached the $2 billion mark in total assets.'
p5
aS"Sierra Bancorp Announces Agreement to Acquire Coast Bancorp of San Luis Obispo ... PR Newswire  - Jan 5, 2016 4, 2016 /PRNewswire/ -- Sierra Bancorp , the holding company of Bank of the Sierra, announced the signing of a definitive agreement to acquire Coast Bancorp  of San Luis Obispo County, California.Porterville's Sierra Bancorp to acquire San Luis Obispo bank - Fresno BeeCoast National Bank parent in San Luis Obispo is being sold to Sierra Bancorp ... - The Tribune"
p6
aS'Sierra Bancorp  Moves Higher on Volume Spike for March 15 Equities.com - Mar 15, 2017 Sierra Bancorp  traded on unusually high volume on Mar. 15, as the stock gained 0.92% to close at $27.47. On the day, Sierra Bancorp saw 97,389 shares trade hands on 613 trades. Considering that the stock averages only a daily volume of 50,596&nbsp;...Sierra Bancorp  Reviewed By Analysts - The De Soto Edge'
p7
aS'Sierra Bancorp  Ex-Dividend Date Scheduled for January 31, 2017 Nasdaq - Jan 30, 2017 Sierra Bancorp  will begin trading ex-dividend on January 31, 2017. A cash dividend payment of $0.14 per share is scheduled to be paid on February 16, 2017.'
p8
aS"Analyst rating score stands at 3.00 while Sierra Bancorp's  stock price ... Hot Stocks Point - 7 hours ago Sierra Bancorp  stock price ended its day with loss -0.29% and finalized at the value of $27.38. During its last trading session, Stock traded with the total exchanged volume of 0.09 million shares."
p9
aS'Sierra Bancorp  Moves Higher on Volume Spike for March 03 Equities.com - Mar 3, 2017 Sierra Bancorp  traded on unusually high volume on Mar. 03, as the stock gained 0.07% to close at $28.06. On the day, Sierra Bancorp saw 110,405 shares trade hands on 508 trades. Considering that the stock averages only a daily volume of 49,969&nbsp;...Should You Buy Or Sell Sierra Bancorp  On Analyst Concensus? - NewsDenLatest Stocks: First Trust Advisors LP Has $353000 Stake in Sierra Bancorp  - Petro Global News 24'
p10
a.