(lp0
S'Career Education Corporation: Multibagger Opportunity In The Near Term Seeking Alpha - Feb 28, 2017 Arguably, the most burdensome of the rules the Department of Education passed. These rules prohibited companies from providing incentive compensation based around student enrollment.Stock Returns: Bridgepoint Education Inc  versus Career Education ... - CML NewsThe Western Standard LLC Takes Position in Career Education Corporation  - DailyQuint'
p1
aS'Career Education Corporation - ROE 49.57%, One-Third Of Pure Cash, And No Debt Seeking Alpha - Feb 17, 2017 Career Education Corporation has an outstanding balance sheet with no debt and tons of cash and impressive net income generation.Career Education Corporation  Moves Higher on Volume Spike for February 17 - Equities.comStock Returns: Career Education Corporation  versus K12 Inc (NYSE ... - CML News'
p2
aS"Career Education Corporation  Moves Higher on Volume Spike for March 15 Equities.com - Mar 15, 2017 Career Education Corporation  traded on unusually high volume on Mar. 15, as the stock gained 2.89% to close at $8.18.Which insiders are trading Career Education Corporation ? - Post AnalystShares in the Trader Spotlight: Career Education Corporation's  stock ... - Hot Stocks Point"
p3
aS'Career Education Corporation Schedules Fourth Quarter and Full Year Earnings ... Yahoo Finance - Feb 9, 2017 Career Education Corporation , a provider of postsecondary education programs, today announced it will report fourth quarter and full year financial results after the market closes on Thursday, February 23, 2017.'
p4
aS'Career Education Corporation  Files An 8-K Departure of Directors ... Market Exclusive - Feb 20, 2017 On February 13, 2017, the Compensation Committee  of the Board of Directors of Career Education Corporation  approved the 2017 Annual Incentive Award Program  to the Career Education Corporation&nbsp;...'
p5
aS'Career Education Corporation  Moves Lower on Volume Spike for March 14 Equities.com - Mar 14, 2017 Career Education Corporation  traded on unusually high volume on Mar. 14, as the stock lost 2.21% to close at $7.95. On the day, Career Education Corporation saw 751,754 shares trade hands on 5,143 trades. Considering that the stock averages&nbsp;...The 19657 Shares in Career Education Corp.  Acquired by Marshall Wace LLP - Petro Global News 24'
p6
aS'Career Education Corporation Reports Results for Third Quarter 2016 Business Wire  - Nov 3, 2016 Career Education Corporation revised its outlook for 2016 and 2017 consolidated adjusted EBITDA and year end cash, cash equivalents, restricted cash and short-term investments, net of borrowings, in order to incorporate recent stronger than expected&nbsp;...'
p7
aS'Career Education Corporation Reports Results for Fourth Quarter and Full Year 2016 Business Wire  - Feb 23, 2017 Career Education Corporation will host a conference call on Thursday, February 23, 2017 at 5:30 p.m. Eastern time to discuss its fourth quarter and full year 2016 results.Career Education Corporation  Moves Lower on Volume Spike for February 24 - Equities.comCareer Education Corp.  Releases Earnings Results, Misses Expectations ... - Chaffey Breeze'
p8
aS'Career Education Corporation  Moves Higher on Volume Spike for March 03 Equities.com - Mar 3, 2017 Career Education Corporation  traded on unusually high volume on Mar. 03, as the stock gained 1.69% to close at $8.44.Deferred Tax Assets Of Career Education Corporation  At $3.606 ... - RealistInvestor.comToday The Analysts Anticipate Career Education Corp.  to Post ($0.06 ... - DailyQuint'
p9
aS'A Look at the valuation of Career Education Corporation  Business Review - 14 hours ago Career Education Corporation  has an ERP5 rank of 10085. The ERP5 Rank is an investment tool that analysts use to discover undervalued companies.'
p10
a.