(lp0
S"Form 4 Chefs' Warehouse, Inc. For: Mar 07 Filed by: Aldous Alexandros StreetInsider.com - Feb 14, 2017 Find out which companies are about to raise their dividend well before the news hits the Street with StreetInsider.com's Dividend Insider Elite."
p1
aS"The Chefs' Warehouse, Inc.  Valuation in Focus Business Review - 13 hours ago The Chefs' Warehouse, Inc.  has an ERP5 rank of 1787. The ERP5 Rank is an investment tool that analysts use to discover undervalued companies."
p2
aS"Chefs' Warehouse posts 4Q profit Yahoo Finance - Feb 21, 2017  _ The Chefs' Warehouse Inc.  on Tuesday reported fourth-quarter earnings of $9.1 million. The Ridgefield, Connecticut-based company said it had net income of 34 cents per share.Chefs' Warehouse  Tops Q4 EPS by 2c - StreetInsider.comChefs' Warehouse Faces More Bottom-Line Pressure - Motley Fool"
p3
aS"Why The Chefs' Warehouse Inc. Shares Plummeted 21% Last Month The motley Fool  - Jun 10, 2016 So what: As the chart above shows, shares of The Chefs' Warehouse plunged 17% on May 4 as the company fell short of expectations."
p4
aS"The Chefs' Warehouse, Inc  PT Raised to $16 at BMO Capital Following 4Q StreetInsider.com - Feb 24, 2017 BMO Capital raised its price target on The Chefs' Warehouse, Inc  to $16.00  while maintaining a Market Perform rating.Analyst Activity  BMO Capital Markets Raises Its Price Target On The Chefs ... - Market ExclusiveBarclays PLC Increases The Chefs Warehouse, Inc  Price Target to $14.00 - The Cerbat Gem"
p5
aS"The Chefs' Warehouse Reports Third Quarter 2016 Financial Results GlobeNewswire  - Nov 2, 2016 RIDGEFIELD, Conn., Nov. 02, 2016  -- The Chefs' Warehouse, Inc. , a premier distributor of specialty food products in the United States and Canada, today reported financial results for its third quarter ended September&nbsp;...Chefs' Warehouse Sees Earnings Take a Hit - Motley FoolChefs' Warehouse's  CEO Chris Pappas on Q3 2016 Results - Earnings Call ... - Seeking Alpha"
p6
aS"Investor Toolkit: ERP5 update on The Chefs' Warehouse, Inc.  Business Review - Mar 16, 2017 The Chefs' Warehouse, Inc.  has an ERP5 rank of 1843. The ERP5 Rank is an investment tool that analysts use to discover undervalued companies."
p7
aS'BRIEF-Legion Partners Asset Management purchases Chefs Warehouse shares Reuters - Jan 26, 2017  By Trevor Hunnicutt NEW YORK, March 16 Investors recoiled from debt issued by low-rated companies during the latest week, pulling the most cash since August 2014 from U.S.'
p8
aS"EPS Projection Of The Chefs' Warehouse, Inc.  At $0.185 RealistInvestor.com - 18 hours ago The Chefs' Warehouse, Inc.  is likely to account earnings of $0.185 for latest quarter, which can come on 2017-05-02."
p9
aS"Here's Who Just Picked Up Chefs' Warehouse Inc.  Shares Small Cap Exclusive  - Jan 27, 2017 In a just published Form 13, filed with the US Securities and Exchange Commission , Chefs' Warehouse Inc.  reported that Legion Partners Asset Management, Llc."
p10
a.