(lp0
S'Cigna CEO Received $21.9 Million in 2016 Hartford Courant - 13 hours ago ... awards, and the value of perquisites, such as the 401 match and use of corporate aircraft. As a result of Obamacare, Cigna is not allowed to deduct the salaries, bonuses, stock awards and option awards it grants employees of any amount past $500 ...'
p1
aS"341 hedge funds sold their entire positions in Cigna Corporation  Post Analyst - 19 hours ago Cigna Corporation  reached 31.99% versus a 1-year low price of $115.03. The stock was last seen -1.44% lower, reaching at $151.79 on Thursday, March 16, 2017.Earnings Clues on Cigna Corporation , Deere &amp; Company  Analyst's ... - StockNewsJournalZacks Rank on Cigna Corporation  based on Estimated Earnings - Highland Mirror"
p2
aS'Cigna Corporation Risk Points versus Health Care CML News - Mar 15, 2017 This is a scatter plot analysis of the critical risk points from the option market for Cigna Corporation  compared to its own past and the Health Care ETF.'
p3
aS'Cigna Corporation  Files An 8-K Regulation FD Disclosure Market Exclusive - Mar 1, 2017 Cigna Corporation  previously announced its intention to host an Investor Day on March 29, 2017. In light of the recently announced schedule in the appeal of the U.S.Today Analysts Focus on Cigna Corporation , Motorola Solutions, Inc.  - StockNewsJournalTwo Sigma Investments LP Has $153209000 Position in Cigna Corporation  - The Cerbat Gem'
p4
aS"Promising stocks in today's market: Cigna Corporation  The News Journal - 22 hours ago Based on the aggregate value of the company over its current share price and the total amount of outstanding stocks, the market cap of Cigna Corporation is presently reeling at 39090.48. Acting as the blue chip in today's trade, Cigna Corporation's ..."
p5
aS'Cigna Corporation  Technicals Are Painting A Bleak Picture USA Commerce Daily - 18 hours ago With all other things going on, Cigna Corporation  has been on a run - rising 12.83 percent in just three months. It looks like traders are happy with the stock.'
p6
aS'Lookout for Price Target? Omnicom Group Inc. , Cigna Corporation  StockNewsJournal - Mar 15, 2017 Cigna Corporation , at its latest closing price of $153.54, it has a price-to-book ratio of 2.87, compared to an industry average at 3.14.'
p7
aS'Analyst Upgrades  Cigna Corporation  Stock Gets Upgraded By RBC ... Market Exclusive - Feb 16, 2017 Today, Cigna Corporation  stock received an upgrade by RBC Capital Markets from Sector Perform to Outperform with a price target of $172.00.Cigna Corporation  Upgraded by RBC Capital Markets to Outperform - Sports PerspectivesStreet Is Expecting Cigna Corporation  To Post $2.45 - Markets Daily'
p8
aS"Analyst's Indicator Review for Cigna Corporation , VMware, Inc.  The USA Commerce - Mar 16, 2017 Shares of Cigna Corporation  surged 0.30% to $154.00. During the trading on 03/15/2017, Company's stock ranged from $153.49 to $154.83."
p9
aS"Why to Keeping Eye on Cigna Corporation , Akamai Technologies, Inc. ? StockNewsJournal - Mar 13, 2017 Investors who are keeping close eye on the stock of Cigna Corporation  established that the company was able to keep return on investment at - in the trailing twelve month while Reuters data showed that industry's average stands at 0.02 and&nbsp;..."
p10
a.