(lp0
S'Is Cumulus Media Inc  Really As Financially Strong As Its Balance Sheet ... Simply Wall St - Mar 16, 2017 Cumulus Media Inc , which has zero-debt on its balance sheet, can maximize capital returns by increasing debt.CUMULUS MEDIA INC.  Files An 8-K Regulation FD Disclosure - Market ExclusiveCumulus Media  Posts Q4 Loss of $18.57/Share - StreetInsider.com'
p1
aS'Cumulus Media Inc. Announces Conference Call To Discuss Fourth Quarter and ... GlobeNewswire  - Mar 8, 2017 ATLANTA, March 08, 2017  -- Cumulus Media Inc.  will host a conference call on Thursday, March 16th at 4:30 PM EDT to discuss its fourth quarter and full year 2016 operating results. A press release containing a&nbsp;...'
p2
aS'Cumulus Media improves, but still in the red in 2016 Atlanta Business Chronicle - Mar 17, 2017 Troubled radio giant Cumulus Media Inc.  showed improvement in 2016, but remained deep in the red. Annual revenue was down 2.3 percent to $1.14 billion.Cumulus Media Inc.  Broker Price Targets For The Coming Week - Fiscal StandardInside the Numbers for Cumulus Media Inc.  - Searcy News'
p3
aS"With court rejection, Cumulus Media terminates note exchange Seeking Alpha - Mar 10, 2017 Cumulus Media  has terminated its private exchange offer for its 7.75% senior notes due 2019, expecting the conditions for the exchange can't be satisfied due to court action.Cumulus Announces Termination of Private Exchange Offer - GlobeNewswire Cumulus Media Inc.  Receives An Update From Brokers - The De Soto Edge"
p4
aS"Cumulus Media -25% as judge rejects debt refinancing plans Seeking Alpha - Feb 24, 2017 Cumulus Media  is now down 25% and stabilizing a bit after a sudden midday drop following a judge's rejection of the company's refinancing plan."
p5
aS'Cumulus Media extends debt exchange offer Seeking Alpha - Jan 11, 2017 Cumulus Media  extended the expiration for its debt exchange offer, orginally set to end yesterday. The end date for an offer to exchange any and all of its 7.75% senior notes due 2019 has been moved to March 13, and the early tender date&nbsp;...'
p6
aS'Cumulus Media: A Highly Speculative Equity Stub Seeking Alpha - Nov 15, 2016 Cumulus is a radio broadcasting company. It is the largest pure-play radio broadcaster in the United States. Cumulus combines high-quality local programming with iconic, nationally syndicated media, sports and entertainment brands to deliver premium&nbsp;...'
p7
aS'Cumulus Media Inc. Announces Conference Call To Discuss Third Quarter 2016 ... GlobeNewswire  - Oct 24, 2016 ATLANTA, Oct. 24, 2016  -- Cumulus Media Inc.  will host a conference call on Tuesday, November 8th at 4:30 PM EST to discuss its third quarter 2016 operating results. A press release containing a summary of these&nbsp;...'
p8
aS'CUMULUS MEDIA INC.  Files An 8-K Termination of a Material ... Market Exclusive - Mar 13, 2017 Cumulus Media Inc.  is a radio broadcasting company. The Company is also a provider of country music and lifestyle content through its NASH brand, which serves through radio programming, NASH Country Weekly magazine and live events.Stock Returns: Beasley Broadcast Group Inc  is Beating Cumulus ... - CML NewsCumulus Media Inc  Set to Announce Earnings on Thursday - Community Financial News'
p9
aS"Cumulus Media, #1 for Country, Launches NASH Next 2016, National and ... PR Newswire  - Jul 11, 2016 By launching this competition with record-breaking support from our stations and affiliates, we are further signaling to listeners, advertisers and business partners that Cumulus is #1 for country,&quot; said Mary G. Berner, president and CEO, Cumulus Media ...Country's Biggest Stars Kick Off Search For America's Newest Hitmaker - Huffington Post"
p10
a.