(lp0
S"Xura to buy Mitel Mobility PE Hub   - Dec 19, 2016 Xura Inc, a portfolio company of Siris Capital, said Dec. 19 that it agreed to buy Mitel Mobility Inc, a division of Mitel Networks Corp and Ranzure Networks Inc. Financial terms weren't announced although press reports valued the deal at $385 million.Xura buys Mitel Mobility for $385M and Ranzure to double down on 5G - TechCrunchXura To Buy Mitel Mobile, Ranzure Networks; Names Pardeep Kohli CEO - Nasdaq"
p1
aS'New York private equity firm agrees to buy Xura Inc. for $643 million The Boston Globe - May 23, 2016 Wakefield technology firm Xura, Inc. is being acquired by a private equity firm for $643 million. Siris Capital Group, a New York investment firm that owns a number of technology businesses, will pay $25 a share for Xuma, which the companies said ...Why Shares of Xura Inc. Jumped Today - Motley FoolXura Announces Agreement to be Acquired by Affiliates of Siris Capital Group ... - GlobeNewswire '
p2
aS"Comverse  Will Change Name to 'Xura, Inc.' StreetInsider.com - Sep 8, 2015 On September 8, 2015, Comverse, Inc.  disclosed that it would change its name to Xura, Inc. The Company filed a Certificate of Amendment to its Amended and Restated Certificate of Incorporation  with the&nbsp;..."
p3
aS'Xura, Inc. Acquisition May Not Be in the Best Interests of MESG Shareholders PR Newswire  - Jun 3, 2016 NEW YORK, June 3, 2016 /PRNewswire/ -- WeissLaw LLP is investigating possible breaches of fiduciary duty and other violations of law by the Board of Directors of Xura, Inc.  in connection with the proposed acquisition of the&nbsp;...'
p4
aS'Xura Provides Preliminary Unaudited Fourth Quarter and Year End 2015 Results ... GlobeNewswire  - Apr 15, 2016 WAKEFIELD, Mass., April 15, 2016  -- Xura, Inc.   today announced its preliminary estimated unaudited results for the fourth fiscal quarter and fiscal year ended January 31, 2016 and disclosed that its&nbsp;...'
p5
aS"BRIEF-Mitel to divest mobile business Xura Inc's parent company Reuters - Dec 19, 2016 March 11 Puerto Rico's governor said on Saturday he has delivered a revised fiscal turnaround plan to the U.S. territory's financial oversight board that includes $262 million in additional revenue and changes to healthcare funding."
p6
aS'CLX adquiere Xura Secure Communications GmbH PR Newswire  - Feb 21, 2017 CLX Communications AB , , un proveedor global lder de servicios de comunicacin basados en la nube, anuncia que ha adquirido Xura Secure Communications GmbH , una filial de Xura Inc.,&nbsp;...'
p7
aS"Xura Says It's In Talks To Sell Company At $25 Per Share Benzinga - Apr 16, 2016 Xura Inc , a provider of digital services solutions, announced that it is in talks for the potential sale of the company for $25 a share, representing a premium of 26 percent over Thursday's close."
p8
aS"Siris Capital Takes Xura Private in $643M Deal Light Reading - Aug 23, 2016 There's never a dull moment where the company now known as Xura is involved: Following a few years of selling and buying various assets, it's been acquired by Siris Capital Group for $643 million."
p9
aS"Sidley Guides Siris Capital's $643M Acquisition Of Xura Law360  - May 23, 2016 Law360, New York  -- Sidley Austin LLP has represented private equity firm Siris Capital Group LLC in an all-cash deal to acquire digital communications services provider Xura Inc. for $643 million, the companies announced&nbsp;..."
p10
a.