(lp0
S'Insider Trading Activity CoBiz Financial Inc   Director Sold ... Market Exclusive - Mar 17, 2017 On 5/30/2013 David Pass, EVP, sold 8,693 with an average share price of $8.83 per share and the total transaction amounting to $76,759.19.'
p1
aS'Form 4 COBIZ FINANCIAL INC For: Mar 17 Filed by: White Mary M StreetInsider.com - Feb 20, 2017 Check this box if no longer subject to Section 16. Form 4 or Form 5 obligations may continue. See Instruction 1. 1. Name and Address of Reporting Person *. White Mary M. , , . 1401 LAWRENCE ST., STE.1200. . DENVER, CO&nbsp;...'
p2
aS'Price Alert: CoBiz Financial Inc  Stock Approaches Resistance ... CML News - 18 hours ago Price Alert: CoBiz Financial Inc  has now crossed into technical strength -- watch the technical oscillators for momentum gaps.'
p3
aS"Form 4 COBIZ FINANCIAL INC For: Mar 15 Filed by: White Mary M StreetInsider.com - Feb 23, 2017 Find out which companies are about to raise their dividend well before the news hits the Street with StreetInsider.com's Dividend Insider Elite."
p4
aS'CoBiz Financial Inc.  Moves Higher on Volume Spike for March 10 Equities.com - Mar 10, 2017 CoBiz Financial Inc.  traded on unusually high volume on Mar. 10, as the stock gained 0.3% to close at $16.69. On the day, CoBiz Financial Inc. saw 162,344 shares trade hands on 1,488 trades. Considering that the stock averages only a daily ...Analyst Upgrades  CoBiz Financial  Stock Gets Upgraded By Hovde ... - Market ExclusiveStock Returns: CoBiz Financial Inc  is Beating Bridge Bancorp Inc ... - CML News'
p5
aS'The CoBiz Financial Inc  Lifted to Outperform at Hovde Group Petro Global News 24 - Mar 15, 2017 Hovde Group upgraded shares of CoBiz Financial Inc  from a market perform rating to an outperform rating in a report released on Friday.Mary M. White Sells 1008 Shares of CoBiz Financial Inc  Stock - The Cerbat Gem'
p6
aS"CoBiz Financial Inc  ATR Trending Higher Business Review - Mar 14, 2017 Now we'll take a look at how the fundamentals are stacking up for CoBiz Financial Inc . Fundamental analysis takes into consideration market, industry and stock conditions to help determine if the shares are correctly valued."
p7
aS'CoBiz Financial Inc.  Moves Lower on Volume Spike for March 08 Equities.com - Mar 8, 2017 CoBiz Financial Inc.  traded on unusually high volume on Mar. 08, as the stock lost 2.53% to close at $16.56. On the day, CoBiz Financial Inc. saw 120,211 shares trade hands on 1,434 trades. Considering that the stock averages only a daily volume ...The Russell Investments Group Ltd. Takes Position in CoBiz Financial Inc  - DailyQuintWhich Analysts Are Watching CoBiz Financial Inc. ? - Fiscal Standard'
p8
aS'Stock Returns: CoBiz Financial Inc  is Beating Financial ... CML News - Feb 18, 2017 This is a snapshot to compare the stock returns for CoBiz Financial Inc  versus Financial Institutions Inc  .'
p9
aS'Stock Returns: CoBiz Financial Inc  is Beating Equity Bancshares ... CML News - Feb 24, 2017 This is a snapshot to compare the stock returns for CoBiz Financial Inc  versus Equity Bancshares Inc  .CoBiz Financial Inc.  Registers a Net Consolidated EPS Of $0.8531 - Equities Focus'
p10
a.