(lp0
S'Insider Trading Activity CenterState Banks Inc   Insider Sold ... Market Exclusive - 14 hours ago On 5/2/2013 CenterState Banks Inc announced a quarterly dividend of $0.01 0.5% with an ex dividend date of 6/12/2013 which will be payable on 6/28/2013.'
p1
aS'Dimensional Fund Advisors LP Raises Position in CenterState Banks Inc  BNB Daily  - 5 hours ago CenterState Banks logo Dimensional Fund Advisors LP raised its stake in CenterState Banks Inc  by 6.7% during the fourth quarter, Holdings Channel reports.CenterState Banks, Inc.   Latest Broker Consensus - NewsDen'
p2
aS'Insider Trading Activity CenterState Banks Inc   Insider Sold ... Market Exclusive - Mar 15, 2017 On 2/5/2013 Joshua A Snively, Director, bought 8,500 with an average share price of $8.77 per share and the total transaction amounting to $74,545.00.'
p3
aS"CenterState Banks, Inc. buys Gateway Financial Ocala - Dec 1, 2016 Winter Haven-based CenterState Banks, Inc. announced Wednesday that it is buying Gateway Financial Holdings of Florida, parent company of Gateway Bank in Ocala and Gainesville, for $132 million.CenterState Banks'  CEO John Corbett on Acquisition of Gateway Financial ... - Seeking AlphaGateway Bank parent bought by Winter Haven's CenterState - Sarasota Herald-Tribune"
p4
aS'CenterState Banks Inc.  Breaks into New 52-Week High on March 16 Session Equities.com - Mar 16, 2017 Shares of CenterState Banks Inc.  broke into a new 52-week high yesterday, hitting a peak of $26.46. Shares closed at $26.33 after opening at $26.29 for a move of 0.84%.'
p5
aS'Why a top Tampa Bay bank picked a theme park for its shareholders meeting Tampa Bay Business Journal - Mar 6, 2017 Two deals are pending that will push CenterState further into the Tampa Bay area - the $84 million acquisition of Platinum Bank in Brandon and a $132 million acquisition of Gateway Financial Holdings of Florida Inc. CenterState has made unconventional&nbsp;...The Russell Investments Group Ltd. Takes Position in CenterState Banks, Inc ... - DailyQuint'
p6
aS"CenterState's latest acquisition takes it to a new metro in the Tampa Bay market Tampa Bay Business Journal - Dec 1, 2016 It's the second deal in two months for CenterState , which announced in October it would buy Platinum Bank Holding Co. in Brandon for $83.9 million. Gateway Financial, founded in 2006, is the parent company of Gateway Bank of Southwest&nbsp;..."
p7
aS"John E. Tranter Sells 26877 Shares of CenterState Banks Inc  Stock Chaffey Breeze - 21 hours ago CenterState Banks logo CenterState Banks Inc  insider John E. Tranter sold 26,877 shares of the business's stock in a transaction on Friday, March 17th.The CenterState Banks Inc  Insider John C. Corbett Sells 40000 Shares - Petro Global News 24CenterState Banks Inc.  Breaks into New 52-Week High on March 15 Session - Equities.com"
p8
aS'Acquisitions, innovation bump up CenterState Banks stock Tampa Bay Business Journal - Dec 27, 2016 CenterState Banks Inc. posted one of the largest gains in stock price among Tampa Bay companies in 2016, as the Winter Haven-based financial institution made deals and looked for new ways of doing business.'
p9
aS'CenterState Banks Inc.  Moves Higher on Volume Spike for March 13 Equities.com - Mar 13, 2017 CenterState Banks Inc.  traded on unusually high volume on Mar. 13, as the stock gained 0.89% to close at $25.54. On the day, CenterState Banks Inc. saw 385,645 shares trade hands on 3,311 trades. Considering that the stock averages only a daily&nbsp;...Stock Returns: BankUnited Inc  versus CenterState Banks Inc (NASDAQ ... - CML News'
p10
a.