(lp0
S'Commercial Vehicle Group Announces Fourth Quarter and Fiscal Year 2016 Results PR Newswire  - Mar 9, 2017 NEW ALBANY, Ohio, March 9, 2017 /PRNewswire/ -- Commercial Vehicle Group, Inc.   today reported financial results for the fourth quarter and fiscal year ended December 31, 2016.Commercial Vehicle Group, Inc.  Issues Quarterly Earnings Results - BNB Daily '
p1
aS"Commercial Vehicle Group Announces Intent To Refinance 7.875% Senior Secured Notes PR Newswire  - Mar 13, 2017 NEW ALBANY, Ohio, March 13, 2017 /PRNewswire/ -- Commercial Vehicle Group, Inc.   today announced its intention to refinance the Company's $235 million 7.875% notes due April 2019  with&nbsp;...Commercial Vehicle Group, Inc.  Receives An Update From Brokers - The De Soto Edge"
p2
aS'Commercial Vehicle Group  Participates In SIMA, International ... PR Newswire  - Feb 27, 2017 NEW ALBANY, Ohio, Feb. 27, 2017 /PRNewswire/ -- Commercial Vehicle Group, Inc. , , a leading supplier of fully-integrated system solutions for the global commercial vehicle market, announced today that it will&nbsp;...'
p3
aS'Commercial Vehicle Group  Participates In CONEXPO-CON/AGG 2017 Show In ... PR Newswire  - Mar 6, 2017 NEW ALBANY, Ohio, March 6, 2017 /PRNewswire/ -- Commercial Vehicle Group, Inc. , , a leading supplier of fully-integrated system solutions for the global commercial vehicle market, announced today that it will&nbsp;...'
p4
aS'Commercial Vehicle Group, Inc.  Files An 8-K Departure of ... Market Exclusive - Mar 14, 2017 On March 9, 2017, the Compensation Committee of the Board of Directors of Commercial Vehicle Group, Inc.  approved the Commercial Vehicle Group, Inc. 2017 Annual Incentive Plan . Each executive officer is eligible&nbsp;...'
p5
aS"View the Stunning Stock of Commercial Vehicle Group, Inc.'s  stock price ... Hot Stocks Point - 6 hours ago Commercial Vehicle Group, Inc. , a part of Services sector and belongs to Auto Parts Wholesale industry; ended its day with loss -3.24% and finalized at the price of $5.68.Commercial Vehicle Group, Inc.  Reaches $5.61 After 8.00% Down Move, 8 ... - Wolcott DailyNext Weeks Broker Price Targets For Commercial Vehicle Group, Inc.  - Fiscal Standard"
p6
aS'Commercial Vehicle Group, Inc.  By The Numbers: Valuation in Focus Business Review - 14 hours ago Commercial Vehicle Group, Inc.  has an ERP5 rank of 5637. The ERP5 Rank is an investment tool that analysts use to discover undervalued companies.'
p7
aS"BRIEF-Commercial Vehicle Group announces intent to refinance 7.875% senior ... Ward's Auto - Mar 13, 2017 March 13  - Commercial Vehicle Group Inc * Commercial Vehicle Group announces intent to refinance 7.875% senior secured notes * Commercial Vehicle Group Inc - company expects to close refinancing after redemption premium on 7.875% notes&nbsp;..."
p8
aS'Commercial Vehicle Group earns recognition as John Deere &quot;Partner-level Supplier&quot; PR Newswire  - Jan 4, 2017 NEW ALBANY, Ohio, Jan. 4, 2017 /PRNewswire/ -- Commercial Vehicle Group, Inc.   a leading supplier of fully-integrated system solutions for the global commercial vehicle market, today announced that its wire harness ...'
p9
aS'Commercial Vehicle Group Inc. Plant in Shadyside to Close, Eliminating 172 Jobs Wheeling Intelligencer - Jul 22, 2016 Officials with Commercial Vehicle Group Inc. announced it will close its Shadyside plant next year, eliminating 172 jobs. SHADYSIDE - The Upper Ohio Valley will lose yet another industrial plant, as officials with Commercial Vehicle Group Inc ...'
p10
a.