(lp0
S"CALIFORNIA WATER SERVICE GROUP  Files An 8-K Regulation FD Disclosure Market Exclusive - 17 hours ago On September 29, 2016, California Water Service Company , the largest subsidiary of California Water Service Group , entered into a 50-year agreement with the U.S. Department of Defense to acquire the water distribution ...California Water Service Group  Given Consensus Recommendation of Hold ... - Chaffey BreezeAnalyst rating score stands at 3.30 while California Water Service Group's ... - Hot Stocks Point"
p1
aS'California Water Service Group posts 4Q profit Yahoo Finance - Feb 23, 2017  _ California Water Service Group Holding  on Thursday reported fourth-quarter earnings of $15.1 million. The San Jose, California-based company said it had profit of 31 cents per share.California Water Service Group Holding Q4 Earnings Advance 78% - NasdaqCalifornia Water Service Group  Moves Higher on Volume Spike for February 23 - Equities.com'
p2
aS'California Water Service Group  Moves Lower on Volume Spike for March 16 Equities.com - Mar 16, 2017 California Water Service Group  traded on unusually high volume on Mar. 16, as the stock lost 1.29% to close at $34.45.California Water Service Group Holding  Broker Price Targets For The ... - Fiscal Standard'
p3
aS'Cal Water President &amp; CEO Testifies Before House Energy and Commerce ... Marketwired  - 13 hours ago SAN JOSE, CA-- - Martin A. Kropelnicki, President &amp; Chief Executive Officer of California Water Service Group  , testified yesterday on behalf of the National Association of Water Companies &nbsp;...'
p4
aS'Dividend Kings In Focus: California Water Service Group ValueWalk - Feb 13, 2017 Even in the direst of economic climates, people simply cannot live without water. This is why so many publicly-traded water utilities have paidand raisedtheir dividends for decades on end.'
p5
aS'California Water Service Group  Moves Higher on Volume Spike for February 17 Equities.com - Feb 17, 2017 California Water Service Group  traded on unusually high volume on Feb. 17, as the stock gained 0.87% to close at $34.90.EPS Prediction At $0.19 For California Water Service Group Holding  - Markets Daily'
p6
aS'California Water Service Group  Moves Higher on Volume Spike for March 01 Equities.com - Mar 1, 2017 California Water Service Group  traded on unusually high volume on Mar. 01, as the stock gained 0.68% to close at $37.00.California Water Service Group Holding  PEG Ratio At 3.87 - Equities Focus'
p7
aS'Common Share Dividend Yield of California Water Service Group Holding  Energy Index - Mar 15, 2017 The dividend growth rate of California Water Service Group Holding calculated based on 20 historical quarterly dividends is 2.22% while the R-Squared dividend growth rate regression is 0.94.California Water Service Group  Stake Lowered by Dimensional Fund Advisors LP - BNB Daily The California Water Service Group  Given Consensus Recommendation of ... - Petro Global News 24'
p8
aS'California Water Service Group: California Water Service Partners With ... The Wall Street Transcript - Feb 24, 2017 OROVILLE, CA-- - When recent storms and increased outflow from the Oroville Dam spillway raised the turbidity of the water at the Feather River Fish Hatchery, the Department of Fish and Wildlife  needed immediate&nbsp;...'
p9
aS"Settlement reached in California Water Service's 2015 general rate case WaterWorld - Sep 6, 2016 SAN JOSE, CA, SEPTEMBER 6, 2016 -- California Water Service , the largest subsidiary of California Water Service Group, announced that it formally filed a settlement agreement among Cal Water, the California Public Utilities Commission's&nbsp;...California Water Service's Approved to Increase Rates, Invest Millions - And Now U Know"
p10
a.