(lp0
S"DigitalGlobe, Inc. Finds a Worthy Suitor Motley Fool - Feb 27, 2017 DigitalGlobe has agreed to let Canadian satellite company MacDonald Dettwiler &amp; Associates  acquire it in a cash and stock deal worth $35 per share, representing an 18% premium to DigitalGlobe's unaffected price as of Feb. 16, the day before&nbsp;...DigitalGlobe Inc  Moves Higher on Volume Spike for February 27 - Equities.comDigitalGlobe, Inc  Shares Gap Down on Disappointing Earnings - BNB Daily "
p1
aS'Why DigitalGlobe, Inc. Stock Popped Today Motley Fool - Feb 17, 2017 According to a report  from The Wall Street Journal this afternoon, which cited &quot;people familiar with the matter,&quot; DigitalGlobe has fielded interest from a &quot;number of possible buyers.&quot; But now, the sources say, the company is ...DigitalGlobe in buyout talks with Canadian satellite company MacDonald Dettwiler - MarketWatch'
p2
aS"Canada's MacDonald Dettwiler to buy satellite imagery firm DigitalGlobe Reuters - Feb 24, 2017 TO) said it would buy U.S.-based satellite imagery provider DigitalGlobe Inc  for about C$3.10 billion , the biggest deal yet in a fast-consolidating earth-imaging satellite market.MacDonald Dettwiler Buying DigitalGlobe for $2.4 Billion - Bloomberg"
p3
aS'MacDonald Dettwiler &amp; Associates should expect competing bids for DigitalGlobe Financial Post - Feb 22, 2017 If MacDonald Dettwiler &amp; Associates Ltd. acquires DigitalGlobe Inc., the Canadian satellite company will more than double in size, add a major player in satellite imagery, and extend its reach in the lucrative earth observation market.DigitalGlobe Inc.  Surged To A New High On Reports Of Takeover Talks - RTT NewsDigital Globe, Inc.  Subject of Take-Over Rumors - StockNewsUnion'
p4
aS'DigitalGlobe, Inc.  By The Numbers: Valuation in Focus Business Review - Mar 17, 2017 DigitalGlobe, Inc.  has an ERP5 rank of 8836. The ERP5 Rank is an investment tool that analysts use to discover undervalued companies.'
p5
aS'DIGITALGLOBE, INC. SHAREHOLDER ALERT: Former SEC Attorney Willie Briscoe ... Yahoo Finance - Mar 1, 2017 Former United States Securities and Exchange Commission attorney Willie Briscoe is investigating potential claims against the Board of Directors of DigitalGlobe, Inc.   concerning the acquisition by MacDonald, Dettwiler and ...'
p6
aS"What are Research Firms Saying About DigitalGlobe, Inc ? Aiken Advocate - 19 hours ago Investors and analysts will be looking ahead to DigitalGlobe, Inc 's next earnings report which is slated to be released sometime on or around 2017-04-26 for the period ending on 2017-03-31."
p7
aS'Form 425 DIGITALGLOBE, INC. Filed by: DIGITALGLOBE, INC. StreetInsider.com - Feb 25, 2017 The following is an article regarding the potential transaction that was distributed by DigitalGlobe, Inc. on March 13, 2017.'
p8
aS"State Board of Administration of Florida Retirement System Maintains Position ... The Cerbat Gem - Mar 16, 2017 DigitalGlobe logo State Board of Administration of Florida Retirement System continued to hold its stake in DigitalGlobe Inc  during the fourth quarter, according to its most recent Form 13F filing with the SEC. The institutional investor ...$0.00 EPS Expected for Eagle Energy , Digitalglobe 's Sentiment Is 1.1 - Wolcott Daily"
p9
aS'DIGITALGLOBE INVESTOR ALERT BY THE FORMER ATTORNEY GENERAL OF LOUISIANA: Kahn ... Yahoo Finance - Feb 28, 2017 27, 2017 /PRNewswire/ -- Former Attorney General of Louisiana Charles C. Foti, Jr., Esq. and the law firm of Kahn Swick &amp; Foti, LLC  are investigating the proposed sale of DigitalGlobe, Inc.   to MacDonald,&nbsp;...'
p10
a.