(lp0
S'Why Dolby Laboratories, Inc. Stock Rose 14% Motley Fool - Apr 28, 2016 So what: Dolby Laboratories, a company specializing in audio, imaging, and voice technologies, reported revenue and non-GAAP EPS of $274 million and $0.82, respectively.'
p1
aS'Stock Returns: Dolby Laboratories Inc  versus Corning Incorporated ... CML News - 18 hours ago This is a snapshot to compare the stock returns for Dolby Laboratories Inc  versus Corning Incorporated  .'
p2
aS"Dolby Laboratories, Inc. Serves Up a Mix Motley Fool - Oct 24, 2015 Similar to last quarter, however, Dolby's bottom line was well above expectations, albeit thanks mostly to a positive $0.16-per-share contribution from the sale of real estate during the quarter."
p3
aS"Dolby Laboratories: An Impressive Q1, But Price And Dilution Remain Concerns Seeking Alpha - Jan 26, 2017 DLB's Q1 came in well ahead of both guidance and consensus, though there was some help in terms of timing and recoveries. Guidance for the rest of the year still implies relatively slow growth, and Dolby remains heavily reliant on new, unproven ...Dolby Laboratories  Releases Earnings Results, Beats Expectations By $0 ... - Highland MirrorPiper Jaffray Companies Reaffirms Hold Rating for Dolby Laboratories  - Sports Perspectives"
p4
aS'Dolby Laboratories  Q4 2016 Results - Earnings Call Transcript Seeking Alpha - Oct 27, 2016 Welcome to the Dolby Laboratories Conference Call discussing Fiscal Fourth Quarter Results. During the presentation, all participants will be in a listen-only mode.'
p5
aS'Market Update: Looking at the Levels for Dolby Laboratories, Inc.  Davidson Register - Mar 17, 2017 Dolby Laboratories, Inc.  has a current Value Composite Score of 48. Using a scale from 0 to 100, a lower score would represent an undervalued company and a higher score would indicate an expensive or overvalued company.'
p6
aS'Dolby: An Overlooked Growth Story With Catalysts Seeking Alpha - Jan 5, 2017 Dolby Laboratories  is a compelling growth story. The stock is currently hovering around $46, but new growth drivers can send it above $60 this year.'
p7
aS'Dolby Laboratories and LG Electronics Announce First Smartphone to Support ... Yahoo Finance - Feb 26, 2017 Dolby Laboratories, Inc.  and LG Electronics , today announced that the LG G6 smartphone will be the first mobile phone to support Dolby Vision high dynamic range  technology.'
p8
aS"Dolby Laboratories Among Fast Company's Most Innovative Companies in Consumer ... Business Wire  - Feb 13, 2017 SAN FRANCISCO----Dolby Laboratories, Inc.  has been featured in Fast Company's Most Innovative Companies in Consumer Electronics."
p9
aS'Ex-Dividend Reminder: Intel, Apple, and Dolby Laboratories Forbes - Nov 1, 2016 Looking at the universe of stocks we cover at Dividend Channel, on 11/3/16, Intel Corp , Apple Inc , and Dolby Laboratories Inc  will all trade ex-dividend for their respective upcoming dividends. Intel Corp will pay ...'
p10
a.