(lp0
S'Analyst Activity  Royal Bank of Canada Raises Its Price Target On Delphi ... Market Exclusive - Mar 17, 2017 Today, Royal Bank of Canada raised its price target on Delphi Automotive PLC  to $93.00 per share. There are 2 sell ratings, 2 hold ratings, 13 buy ratings on the stock.Delphi Automotive PLC  Price Target Raised to $93.00 at Royal Bank of Canada - The Cerbat GemRBC Capital Mkts Just Issued Outperform Rating on Delphi Automotive PLC  - Highland Mirror'
p1
aS"Delphi One of World's Most Ethical Companies for Fifth Straight Year PR Newswire  - Mar 13, 2017 Delphi Automotive PLC is a high-technology company that integrates safer, greener and more connected solutions for automotive and transportation sectors."
p2
aS'Delphi Automotive PLC  PT Raised to $95 at Evercore ISI StreetInsider.com - Mar 13, 2017 Evercore ISI analyst Chris McNally raised his price target on Delphi Automotive PLC  to $95.00  while maintaining a Outperform rating, saying they see the company as the company is a clear winner, as the Tier 1 closest to both&nbsp;...'
p3
aS'Analyst Activity  Barclays PLC Raises Its Price Target On Delphi Automotive ... Market Exclusive - Mar 13, 2017 Today, Barclays PLC raised its price target on Delphi Automotive PLC  to per share. There are 2 sell ratings, 2 hold ratings, 13 buy ratings on the stock.Delphi Automotive PLC  Adding Value Over Past Week - Business Review'
p4
aS'De Vos Named Delphi Chief Technology Officer and Senior Vice President PR Newswire  - Jan 20, 2017 20, 2017 /PRNewswire/ -- Delphi Automotive PLC  announced today it has named Glen De Vos as chief technology officer  and senior vice president, effective March 1, 2017.Delphi Automotive PLC  Lifted to Hold at Zacks Investment Research - Sports PerspectivesKlingenstein Fields &amp; Co. LLC Takes Position in Delphi Automotive PLC  - The Cerbat Gem'
p5
aS'Patten Group, Inc. Buys Delphi Automotive PLC, Vanguard Total Stock Market ... Nasdaq - Feb 11, 2017 Patten Group, Inc. added to the holdings in Delphi Automotive PLC by 3372.00%. The purchase prices were between $63.23 and $71.77, with an estimated average price of $67.15.'
p6
aS"Why Is Delphi Automotive  Up 5% Since the Last Earnings Report? Yahoo Finance - Mar 6, 2017 A month has gone by since the last earnings report for Delphi Automotive PLC DLPH. Shares have added nearly 5% in that time frame, outperforming the market.Today's Brokerage Rating: Delphi Automotive PLC , Centene Corporation  - StockNewsJournal"
p7
aS'Delphi Automotive plc  Rises 4.03% for March 13 Equities.com - Mar 13, 2017 Among the biggest risers on the S&amp;P 500 on Monday March 13 was Delphi Automotive plc , popping some 4.03% to a price of $80.20 a share with some 3.91 million shares trading hands.'
p8
aS'Delphi Automotive PLC : Is The Stock Undervalued? Business Review - Mar 16, 2017 Delphi Automotive PLC  has an ERP5 rank of 4163. The ERP5 Rank is an investment tool that analysts use to discover undervalued companies.'
p9
aS'Delphi Automotive PLC  Files An 8-K Departure of Directors or ... Market Exclusive - Feb 21, 2017 Delphi Automotive PLC is a vehicle components manufacturer. The Company operates through three segments: Electrical/Electronic Architecture; Powertrain Systems, and Electronics and Safety.Hot Stock Overview: Delphi Automotive PLC  - HugoPressShares of Delphi Automotive plc  Sees Large Outflow of Money - Energy Index'
p10
a.