(lp0
S"Why Dun &amp; Bradstreet Corporation Stock Is Tumbling Motley Fool - Feb 9, 2017 Dun &amp; Bradstreet  saw its stock fall as much as 18% on Thursday following the business intelligence company's fourth-quarter earnings report."
p1
aS'Should You Get Rid of Dun &amp; Bradstreet Corp.  Now? Nasdaq - Feb 23, 2017 One such stock that you may want to consider dropping is The Dun &amp; Bradstreet CorporationDNB , which has witnessed a significant price decline in the past four weeks, and it has seen negative earnings estimate revisions for the current quarter and the&nbsp;...'
p2
aS'Dun &amp; Bradstreet Corporation  Ex-Dividend Date Scheduled for February 21 ... Nasdaq - Feb 20, 2017 Dun &amp; Bradstreet Corporation  will begin trading ex-dividend on February 21, 2017. A cash dividend payment of $0.502 per share is scheduled to be paid on March 10, 2017.Dun &amp; Bradstreet Corporation   Stake Raised by Employees Retirement ... - BNB Daily Dun &amp; Bradstreet Corporation   Position Lowered by Franklin ... - Sports Perspectives'
p3
aS'Renaissance Technologies LLC Sells 206100 Shares of Dun &amp; Bradstreet Corp  Sports Perspectives - 2 hours ago Dun &amp; Bradstreet Corp logo Renaissance Technologies LLC reduced its stake in Dun &amp; Bradstreet Corp  by 66.4% during the fourth quarter, according to its most recent 13F filing with the Securities and Exchange Commission.The Comerica Bank Has $2069000 Position in Dun &amp; Bradstreet Corp  - Petro Global News 24Dun &amp; Bradstreet Corporation   Broker Price Targets For The ... - Fiscal Standard'
p4
aS'Dun &amp; Bradstreet Tests Blockchain For Trade Finance Wall Street Journal  - Oct 14, 2016 Dun &amp; Bradstreet Corp. is testing a blockchain distributed ledger for offering its proprietary corporate data to business customers.'
p5
aS'Dun &amp; Bradstreet: Storied History, But Better Investment Choices Out There Seeking Alpha - Mar 9, 2016 Dun &amp; Bradstreet Corporation  is a unique technology play that really combines the SaaS  and DaaS  markets.'
p6
aS'Watching the Numbers for The Dun &amp; Bradstreet Corporation  Davidson Register - 21 hours ago Investors may be tracking fundamental and technical data for The Dun &amp; Bradstreet Corporation . The company has a current Value Composite Score of 54.Investors are Following Shares of The Dun &amp; Bradstreet Corporation  - Rives Journal'
p7
aS"Dun &amp; Bradstreet  Q3 2016 Results - Earnings Call Transcript Seeking Alpha - Nov 2, 2016 Good morning and welcome to Dun &amp; Bradstreet's 2016 Third Quarter Teleconference. This conference is being recorded at the request of Dun &amp; Bradstreet. If you have any objections, you may disconnect at this time. All participants will be in a listen ..."
p8
aS'Dun &amp; Bradstreet grows sales, profits in mixed Q4 Seeking Alpha - Feb 8, 2017 Dun &amp; Bradstreet  saw revenue and profits increase in a mixed Q4 earnings report where the bottom line missed analyst consensus.Dun &amp; Bradstreet Reports 2016 Results - Business Wire Dun &amp; Bradstreet Corporation   Announces Quarterly Earnings Results - Sports Perspectives'
p9
aS'A Look at the valuation of The Dun &amp; Bradstreet Corporation  Business Review - Mar 17, 2017 The ERP5 Rank is an investment tool that analysts use to discover undervalued companies. The ERP5 looks at the Price to Book ratio, Earnings Yield, ROIC and 5 year average ROIC.'
p10
a.