(lp0
S'MOVIT Media Corp. Annual Meeting Results and Share Consolidation Marketwired  - Jan 18, 2017 VANCOUVER, BC-- - MOVIT Media Corp.   wishes to announce the results of its Annual General and Special Meeting  held on December 30, 2016.'
p1
aS'Movit Media Corp. Corporate Update Marketwired  - Dec 7, 2016 The Company wishes to announce that Messrs Chris Lang and Fraser Clarke have resigned from the Board of Directors of Movit, taking effect from May 4, 2016 and October 24, 2016 respectively.'
p2
aS'Needle Action Activity Spotted in Movit Media Corp  Sherwood Daily - 21 hours ago Needle moving action has been spotted in Movit Media Corp  as shares are moving today on volatility 7.14% or $0.01 from the open.'
p3
aS"How MOVIT Media Corp  Delivered A Better ROE Than Its Industry? Simply Wall St - Feb 24, 2017 While MOVIT Media Corp's  993.7% ROE was above the industry average of 19.35%, the role of leverage must also be considered."
p4
aS'Movit to Convert Almost $400000 in Debt Into Units Marketwired  - Mar 3, 2017 VANCOUVER, BC-- - Movit Media Corp.   wishes to announce that it has reached an agreement with a number of unsecured creditors of the Company to convert their indebtedness,&nbsp;...'
p5
aS'Digital Shelf Space Closes Acquisition of MOVIT Media Mobile Application Suite Marketwired  - Apr 21, 2015 VANCOUVER, BC-- - Digital Shelf Space Corp.    is pleased to announce it has completed the definitive agreement with Intregen Holdings Pte.'
p6
aS'Digital Shelf Space Launches Beta Version of Its MOVIT Mobile App Marketwired  - Apr 23, 2015 VANCOUVER, BC-- - Digital Shelf Space Corp.    announces the initial beta launch of its newly acquired MOVIT mobile app .'
p7
aS"Indian cenbank keeps policy rate on hold for 2nd meeting in a row Nasdaq - Feb 8, 2017 MUMBAI, Feb 8  - India's central bank kept its repo rate &lt;INREPO=ECI&gt; on hold at 6.25 percent for a second straight policy meeting, opting to wait for more clarity on inflation trends and on how a radical crackdown on &quot;black money&quot; is ..."
p8
aS'France, Italy bond yield spreads over Germany hit fresh multi-year highs Nasdaq - Feb 8, 2017 LONDON, Feb 8  - Italian and French 10-year government bond yield spreads over Germany hit fresh multi-year highs on Wednesday as investors continued to fret about political risks in Europe.'
p9
aS"Trump Seen Paying Off for Putin With Sanctions Relief Coming Bloomberg - Dec 20, 2016 ... his hand by planning to stack his administration with officials supportive of closer cooperation with the Kremlin, from Michael Flynn, the president-elect's national security adviser, to Exxon Mobil Corp. chief Rex Tillerson, a candidate for ...Donald Trump seen paying off for Vladimir Putin with sanctions relief coming - Livemint"
p10
a.