(lp0
S'SHAREHOLDER ALERT: Levi &amp; Korsinsky, LLP Reminds Shareholders of DaVita Inc ... Yahoo Finance - Mar 17, 2017 To: All persons or entities who purchased or otherwise acquired securities of DaVita Inc.   between August 5, 2015 and October 21, 2016.'
p1
aS'Honor World Kidney Day with DaVita PR Newswire  - Mar 9, 2017 ATLANTA, March 9, 2017 /PRNewswire/ -- DaVita Kidney Care, a division of DaVita Inc.  and a leading provider of kidney care services in the United States, today supports World Kidney Day by asking people to take a short risk quiz to help&nbsp;...Connect with Your Kidneys: DaVita Kicks Off National Kidney Month - The San Bernardino American News'
p2
aS'SHAREHOLDER REMINDER: Deadline in Class Action Lawsuit Filed Against DaVita ... Yahoo Finance - Mar 14, 2017 RADNOR, PA / ACCESSWIRE / March 14, 2017 / The law firm of Kessler Topaz Meltzer &amp; Check, LLP reminds DaVita Inc.   shareholders that a class action lawsuit has been filed against DaVita on behalf of purchasers of the&nbsp;...'
p3
aS"DaVita Inc. 4th Quarter 2016 Results PR Newswire  - Feb 16, 2017 The Company's adjusted net income attributable to DaVita Inc., adjusted diluted net income per share, adjusted operating income, adjusted effective income tax rate attributable to DaVita Inc. and free cash flow discussed above and below (collectively ...After successful 2016, DaVita predicts income drop in 2017 - Denver Business JournalUPDATE 1-Dialysis service provider DaVita's profit beats estimates - Daily Mail"
p4
aS'DaVita Appoints Chief Medical Officer for Integrated Kidney Care PR Newswire  - Feb 23, 2017 DENVER, Feb. 23, 2017 /PRNewswire/ -- DaVita Inc. , a leading independent medical group in America and leading provider of kidney care services, has selected Bryan Becker, M.D.'
p5
aS'IMPORTANT INVESTOR ALERT: JFJN LAW Announces Securities Class Action Lawsuit ... Business Wire  - Mar 16, 2017 GARDEN CITY, N.Y.----JFJN Law  announces the filing of a class action lawsuit against DaVita Inc.  . Investors who purchased or otherwise acquired shares between August 5, 2015 and&nbsp;...DaVita Kidney Care hires chief medical officer - Healthcare Risk Management Review'
p6
aS'DVA ALERT: Rosen Law Firm Reminds DaVita Inc. Investors of Important Deadline ... Yahoo Finance - Mar 13, 2017 NEW YORK, March 13, 2017  -- Rosen Law Firm, a global investor rights law firm, reminds purchasers of DaVita Inc. securities  from August 5, 2015 through October 21, 2016, inclusive  of the important April 3,&nbsp;...ALERT: Rosen Law Firm Reminds ReWalk Robotics Ltd. Investors of Important ... - GlobeNewswire '
p7
aS'INVESTOR ALERT: Levi &amp; Korsinsky, LLP Reminds Shareholders of DaVita Inc. of a ... Yahoo Finance - Mar 3, 2017 To: All persons or entities who purchased or otherwise acquired securities of DaVita Inc.   between August 5, 2015 and October 21, 2016.'
p8
aS'Which insiders are trading DaVita Inc. ? Post Analyst - 20 hours ago DaVita Inc.  reached 24.29% versus a 1-year low price of $54.5. The stock was last seen -1.87% lower, reaching at $67.74 on Thursday, March 16, 2017.Davita Inc  Sees Significant Decline in Short Interest - BBNSZacks Rank on DaVita Inc.  based on Estimated Earnings - Energy Index'
p9
aS'Important Deadline for DaVita Inc. Shareholders GlobeNewswire  - Feb 21, 2017 RADNOR, Pa., Feb. 21, 2017  -- The law firm of Kessler Topaz Meltzer &amp; Check, LLP reminds DaVita Inc.   shareholders that a class action lawsuit has been filed in the United States District Court&nbsp;...'
p10
a.