(lp0
S"Why DXP Enterprises, Inc.'s Shares Popped 51% Today Motley Fool - Aug 10, 2016 What: Shares of industrial distributor DXP Enterprises, Inc.  jumped as much as 51% today after reporting better-than-expected second-quarter earnings."
p1
aS'Stock Volatility Risk Alert: DXP Enterprises Inc Stock Volatility Hits A ... CML News - 16 hours ago Before we cover the full analysis we make a quick alert here that DXP Enterprises Inc  has seen its stock price whip around at an unsually high level.'
p2
aS'DXP Enterprises Inc. DXPE  Wall Street Journal - Feb 11, 2011 DXP Enterprises Inc. DXPE . search. View All companies. AT CLOSE 4:00 PM EST 03/09/17. $31.37 USD; -1.21 -3.71%.'
p3
aS"DXP Enterprises'  CEO David Little on Q2 2016 Results - Earnings Call ... Seeking Alpha - Aug 10, 2016 Good day and welcome to the DXP Enterprises Incorporated Second Quarter Conference Call. Today's conference is being recorded."
p4
aS"DXP Enterprises'  CEO David Little on Q3 2016 Results - Earnings Call ... Seeking Alpha - Nov 15, 2016 Good day and welcome to the DXP Enterprises Inc. Third Quarter Conference Call. As a reminder, today's conference is being recorded."
p5
aS'DXP Enterprises, Inc.  Valuation By The Numbers Business Review - 13 hours ago The ERP5 Rank is an investment tool that analysts use to discover undervalued companies. The ERP5 looks at the Price to Book ratio, Earnings Yield, ROIC and 5 year average ROIC.'
p6
aS"What Investors Should Know About DXP Enterprises Inc's  Financial Strength? Simply Wall St - Feb 24, 2017 DXP Enterprises Inc  is a small-cap-stock with a market capitalization of USD $605 Million. While investors primarily focus on the growth potential and competitive landscape of the small-cap companies, they end up ignoring a key aspect,&nbsp;..."
p7
aS'DXP Enterprises, Inc. Announces Definitive Agreement to Purchase B27, LLC Business Wire  - Dec 9, 2013 HOUSTON----DXP Enterprises, Inc.  and B27, LLC, principally controlled by Champlain Capital Partners, L.P.'
p8
aS"Houston Wire &amp; Cable Acquires Vertex From DXP Enterprises Industrial Distribution - Oct 7, 2016 HOUSTON, TX Houston Wire &amp; Cable Company recently announced that it has purchased Vertex Corporate Holdings, Inc. and its subsidiaries from DXP Enterprises, Inc. - No. 19 on Industrial Distribution's 2016 Big 50 List. Vertex is a master distributor ..."
p9
aS"DXP Enterprises'  CEO David Little on Q1 2016 Results - Earnings Call ... Seeking Alpha - May 13, 2016 Good day and welcome to the DXP Enterprises Incorporated First Quarter Conference Call. Today's conference is being recorded.DXP Enterprises Announces 2016 First Quarter Results - Yahoo Finance UK"
p10
a.