(lp0
S'Dynegy Inc.  Moves Higher on Volume Spike for March 16 Equities.com - Mar 16, 2017 Dynegy Inc.  traded on unusually high volume on Mar. 16, as the stock gained 2.74% to close at $7.51. On the day, Dynegy Inc. saw 5.22 million shares trade hands on 15,171 trades. Considering that the stock averages only a daily volume of 3.38&nbsp;...Dynegy Inc.  Downgraded to Hold at Zacks Investment Research - BNB Daily The Royal Bank of Canada Reiterates Hold Rating for Dynegy Inc.  - Petro Global News 24'
p1
aS"BRIEF-Dynegy Inc reports qtrly net loss $180 million Reuters - Feb 23, 2017 NEW YORK, March 15 Bank of America Corp Chairman and Chief Executive Brian Moynihan will once again face a shareholder vote on whether he should maintain both roles, according to the bank's proxy filing on Wednesday."
p2
aS'Dynegy Inc.  Bond Prices Rise 2.4% The Cerbat Gem - 2 hours ago Dynegy logo An issue of Dynegy Inc.  bonds rose 2.4% as a percentage of their face value during trading on Thursday.Analysts Set Dynegy Inc.  Price Target at $12.25 - Sports PerspectivesNext Weeks Broker Price Targets For Dynegy Inc.  - Fiscal Standard'
p3
aS'Average Brokerage Rating Of Dynegy Inc. , Williams-Sonoma, Inc.  The USA Commerce - Mar 17, 2017 Dynegy Inc.  share price increased in the last trading session with a previous 52-week high of $22.01. The stock was trading on above-average volume.'
p4
aS"What Type of Consensus Opinions Analysts hold about Dynegy Inc.'s  while ... Hot Stocks Point - 22 hours ago Dynegy Inc.  stock price ended its day with gain 2.74% and finalized at the price of $7.51. During its last trading session, Stock traded with the total exchanged volume of 5.22 million shares."
p5
aS'Lookout for Price Target? Dynegy Inc. , Threshold Pharmaceuticals, Inc ... StockNewsJournal - Mar 14, 2017 Dynegy Inc.  have shown a high EPS growth of 53.20% in the last 5 years and has earnings decline of 75.10% yoy. Analysts have a mean recommendation of 2.20 on this stock (A rating of less than 2 means buy, hold within the 3 range, sell within ...'
p6
aS"Hot Stock Overview: Dynegy Inc.  HugoPress - Mar 13, 2017 Deutsche Bank Downgrades Dynegy Inc. 's stock to Sell with no specific Price Target. This rating was issued on 2/09/17."
p7
aS'Dynegy Inc.  Is Making A Strong Argument Through Its Technicals NY Stock News - 21 hours ago The technicals for Dynegy Inc.  has spoken via its technical chart and the message is loud and clear. Based on that message, this is the relevant information necessary to make sense of that current setup.'
p8
aS'Energy Capital Partners is Buying Dynegy Inc.  Shares Small Cap Exclusive  - Feb 17, 2017 For those not familiar with the company, Dynegy Inc. is an electric company based in Houston, Texas, in the United States. It owns and operates a number of power stations in the U.S.Earnings Reaction History of Dynegy Inc.  - FactsReporterDynegy Inc.  Consensus EPS Outlook - TWN'
p9
aS"Breaking Down: Dynegy Inc  Stock Has Droppped Through Support ... CML News - Mar 16, 2017 Dynegy Inc has a one bull  technical rating because it's trading below the 10 day, 50 day and 200 day simple moving averages while the 10-day moving average is below the 50-day moving average and the 50-day moving average is&nbsp;..."
p10
a.