(lp0
S"8x8, Inc.  Acquires Sameroom StreetInsider.com - Mar 8, 2017 8x8, Inc. , the world's first Communications Cloud, announced today its acquisition of LeChat, Inc., the maker of Sameroom, an interoperability platform that enables cross-team messaging and collaboration in the enterprise.8x8 Introduces the World's First Communications Cloud to Usher in a New Era of ... - Business Wire "
p1
aS"How 8x8, Inc. Gained 27% in 2016 Motley Fool - Jan 12, 2017 8X8 beat Wall Street's earnings and sales estimates handily in each one of the year's quarterly reports, citing strong organic revenue growth among larger customers along the way."
p2
aS'How 8x8, Inc. Gained 12.6% in May Motley Fool - Jun 9, 2016 What: Shares of 8x8, Inc.  rose 12.6% in last month, according to data from S&amp;P Global Market Intelligence.'
p3
aS'Exclusive: Business communications services provider 8x8 explores sale - sources Reuters - Feb 24, 2017 8x8 Inc , a U.S. provider of internet-based voice and communication services to businesses, is exploring a potential sale of the company, people familiar with the matter said on Friday.8x8 Inc  Breaks into New 52-Week High on February 24 Session - Equities.comBusiness communications services provider 8x8 explores sale -sources - Times of India'
p4
aS'Why 8x8, Inc. Rose 12.7% in April Motley Fool - May 7, 2016 What: Shares of 8x8  gained 12.7% in April 2016, according to data from S&amp;P Global Market Intelligence. By the end of the month, the networked communications specialist had offered its shareholders a market-beating 28% 52-week return.'
p5
aS"Here's Who Just Picked Up 8X8 Inc.  Shares Small Cap Exclusive  - Feb 10, 2017 In a just published Form 13, filed with the US Securities and Exchange Commission , 8X8 Inc.  reported that Vanguard Group Inc. has picked up 4,438,712 of common stock as of 2017-02-09."
p6
aS"8x8: Shares Greatly Overvalued Seeking Alpha - Aug 23, 2016 8x8's economic earnings have declined from $1 million in 2011 to -$16 million in 2016 and to -$18 million TTM. 8x8's return on invested capital  has fallen from 12% in 2011 to a bottom quintile -3% TTM. Meanwhile, EGHT is up 20% YTD without a&nbsp;..."
p7
aS'Price Alert: 8x8 Inc  Stock Approaches Resistance -- Technicals ... CML News - 19 hours ago Price Alert: 8x8 Inc  has now crossed into technical strength -- watch the technical oscillators for momentum gaps.'
p8
aS'8x8 Inc  Moves Lower on Volume Spike for February 16 Equities.com - Feb 16, 2017 8x8 Inc  traded on unusually high volume on Feb. 16, as the stock lost 2.36% to close at $14.50. On the day, 8x8 Inc saw 1.12 million shares trade hands on 6,929 trades. Considering that the stock averages only a daily volume of 724,939 shares a ...'
p9
aS'Stock Returns: Paycom Software Inc  is Beating 8x8 Inc  CML News - Mar 15, 2017 This is a snapshot to compare the stock returns for 8x8 Inc  versus Paycom Software Inc  . The stock return points we compare look at the last three-months, six-months and twelve-months.'
p10
a.