(lp0
S"Enanta: Half Cash, All Upside Seeking Alpha - Feb 28, 2017 Investors have likely been disappointed in the past year and three years, but the company's early stage pipeline could breathe new life into shares.Enanta Pharmaceuticals Inc.  Moves Lower on Volume Spike for February 28 - Equities.com"
p1
aS"Enanta Pharmaceuticals Inc. ENTA  Wall Street Journal - Mar 22, 2013 News Enanta Pharmaceuticals Inc.ENTA. Significant News Only. 02/27/17; Press Release. Enanta Announces CHMP Grants Positive Opinion for an Eight-Week Treatment Option with AbbVie's VIEKIRAX  +&nbsp;..."
p2
aS'Enanta Pharmaceuticals Inc. MarketWatch - Mar 25, 2013 Enanta Pharmaceuticals Inc. NASDAQ: ENTA. GO. Set Alerts &middot; Find a Broker &middot; Join TD Ameritrade &middot; Market Index &middot; Overview Profile News Charts Financials Historical Quotes Analyst Estimates Options SEC Filings Insiders.'
p3
aS'Enanta Pharmaceuticals, Inc. Common Stock Quote &amp; Summary Data Nasdaq - Nov 8, 2012 We are a research and development-focused biotechnology company that uses our robust, chemistry-driven approach and drug discovery capabilities to create small molecule drugs primarily for the treatment of viral infections and liver diseases.'
p4
aS'Why Enanta Pharmaceuticals Inc. Shares Shot Higher Motley Fool - Dec 10, 2013 What: Shares of Enanta Pharmaceuticals , a small-molecule drug developer targeted at infectious disease, soared as much as 20% after clinical partner AbbVie  reported positive results from its second phase 3 trial of six&nbsp;...AbbVie oral hep C drugs cure 96 percent in late stage trial - Reuters'
p5
aS'A Fundamental Perspective On Enanta Pharmaceuticals Seeking Alpha - Nov 20, 2015 The FDA warning is related to the only approved drugs related to Enanta, thus makes this a very risky investment. Competition from GILD, JNJ and MRK is ... From my continuous market screening, one of the stocks that ticked the right boxes was Enanta ...'
p6
aS"Enanta Pharmaceuticals, Inc.'s  stock price is Worth at $28.57 while ... Hot Stocks Point - 4 hours ago Enanta Pharmaceuticals, Inc. , a part of Healthcare sector and belongs to Biotechnology industry; ended its day with loss -0.73% and finalized at the price of $28.57."
p7
aS"Enanta Pharmaceuticals'  CEO Jay Luly on Q2 2016 Results - Earnings Call ... Seeking Alpha - May 9, 2016 Good afternoon, ladies and gentlemen. Welcome to the Enanta Pharmaceuticals Second Quarter Financial Results Conference Call."
p8
aS'Enanta Pharma  Announces Japanese MHLW Grants Priority Review for AbbVie ... StreetInsider.com - Mar 14, 2017 Enanta Pharmaceuticals, Inc. , a research and development-focused biotechnology company dedicated to creating small molecule drugs for viral infections and liver diseases, today announced that priority review has been granted by the&nbsp;...Enanta Announces Japanese Ministry of Health, Labour and Welfare Grants ... - Business Wire '
p9
aS"Enanta Pharmaceuticals'  CEO Jay Luly on Q4 2016 Results - Earnings Call ... Seeking Alpha - Nov 22, 2016 I am pleased to report on Enanta's financial results and to update you on the company's progress and outlook for the upcoming year."
p10
a.