(lp0
S"Zacks.com featured highlights: Visteon, Micron Technology, Heidrick ... Yahoo Finance - Mar 17, 2017 Chicago, IL - March 17, 2017 - Stocks in this week's article include Visteon Corp. , Micron Technology Inc. , Heidrick &amp; Struggles International Inc. , Evercore Partners Inc."
p1
aS'Evercore Partners Inc  Ex-Dividend Date Scheduled for February 22, 2017 Nasdaq - Feb 21, 2017 Evercore Partners Inc  will begin trading ex-dividend on February 22, 2017. A cash dividend payment of $0.34 per share is scheduled to be paid on March 10, 2017.'
p2
aS"Evercore Said to Win Advisory Role on Record Aramco IPO Bloomberg - Mar 10, 2017 Evercore Partners Inc., the U.S. bank founded by Roger Altman, won a role to advise on the planned initial public offering of Saudi Arabian Oil Co.Evercore, Moelis Aramco's Advisors during the Company's IPO - Asharq Al-awsat English"
p3
aS'4 Reasons to Buy Evercore Partners  Stock Right Now Yahoo Finance - Mar 16, 2017 At a time when financial stocks are in the spotlight following an improving economy and the Fed rate hike, adding few such stocks to your investment portfolio will be a wise decision.5 Best Stocks Boasting Impressive Relative Price Strength - Nasdaq'
p4
aS'Evercore Plans Dubai Office, Hiring Amid Aramco IPO Talks Bloomberg - Feb 23, 2017 Evercore Partners Inc., the investment bank founded by Roger Altman, is planning to open an office in Dubai as it seeks new business in the region, including a role on Saudi Arabian Oil Co.'
p5
aS'The Zacks Analyst Blog Highlights: Old Republic International, Evercore ... Nasdaq - Mar 16, 2017 Every day the Zacks Equity Research analysts discuss the latest news and events impacting stocks and the financial markets. Stocks recently featured in the blog include Old Republic International Corp.'
p6
aS'Evercore Partners Inc Class A  Breaks into New 52-Week High on March 13 ... Equities.com - Mar 13, 2017 Shares of Evercore Partners Inc Class A  broke into a new 52-week high yesterday, hitting a peak of $82.85. Shares closed at $82.30 after opening at $81.80 for a move of 0.61%.Evercore Partners Inc Price Volatility Hits An Elevated Level - CML NewsEvercore Partners Inc.  Reaches $82.70 High on Mar, 13, Counterpath (CPAH ... - Herald KS'
p7
aS'Evercore Partners Inc.: Pedro Aspe Retires as Chairman of Evercore Partners Mexico The Wall Street Transcript - Feb 28, 2017 Dr. Aspe said, &quot;I am very proud of the business that we have built at Evercore in Mexico and around the world. I am confident that Augusto and partners will continue to serve our clients with distinction, sustaining the values of excellence and ...'
p8
aS'Stock Returns: Evercore Partners Inc  is Beating Interactive Brokers ... CML News - Mar 12, 2017 This is a snapshot to compare the stock returns for Evercore Partners Inc  versus Interactive Brokers Group Inc  .Interactive Brokers to Stop Options Market-Making Activities - Nasdaq'
p9
aS'Evercore Partners : Strong Industry, Solid Earnings Estimate Revisions ... Zacks.com - Feb 22, 2017 One stock that might be an intriguing choice for investors right now is Evercore Partners Inc.  . This is because this security in the Financial-Investment Bank space is seeing solid earnings estimate revision activity, and is in ...'
p10
a.