(lp0
S"Extra Space Storage Inc. to Present at Citi 2017 Global Property CEO Conference PR Newswire  - Feb 27, 2017 SALT LAKE CITY, Feb. 27, 2017 /PRNewswire/ -- Extra Space Storage Inc.   announced today that the Company's Chief Executive Officer, Joseph D. Margolis, is scheduled to participate in a roundtable presentation at the Citi&nbsp;..."
p1
aS"Extra Space Storage: A Self-Storage REIT Offering High Yield And Fast Dividend ... Seeking Alpha - Feb 2, 2017 Extra Space Storage  is one of the best blue chip storage space REITs, with a great track record of growing investors' income and wealth over the long term.Extra Space Storage Named Top Dividend Stock With Insider Buying and 4.34 ... - ForbesExtra Space Storage Inc  Director Spencer Kirk Sells 20000 Shares of Stock - The Cerbat Gem"
p2
aS"Jefferies Group Comments on Extra Space Storage, Inc.'s Q1 2017 Earnings  The Cerbat Gem - 3 hours ago Extra Space Storage logo Extra Space Storage, Inc.  - Research analysts at Jefferies Group issued their Q1 2017 earnings per share estimates for Extra Space Storage in a research note issued on Tuesday.Jefferies Group Weighs in on Extra Space Storage, Inc.'s FY2017 Earnings  - Chaffey Breeze"
p3
aS'Extra Space Storage Inc  Ex-Dividend Date Scheduled for March 13, 2017 Nasdaq - Mar 10, 2017 Extra Space Storage Inc  will begin trading ex-dividend on March 13, 2017. A cash dividend payment of $0.78 per share is scheduled to be paid on March 31, 2017.'
p4
aS'Extra Space Storage Inc. Reports 2016 Fourth Quarter and Year-End Results PR Newswire  - Feb 21, 2017 SALT LAKE CITY, Feb. 21, 2017 /PRNewswire/ -- Extra Space Storage Inc.  , a leading owner and operator of self-storage facilities in the United States, announced operating results for the three months and year ended December&nbsp;...Extra Space Storage guides for about 9% AFFO growth this year - Seeking Alpha'
p5
aS"Extra Space Storage: What Should Shareholders Expect Going Forward? Seeking Alpha - Mar 10, 2017 Extra Space Storage has been the top-performing REIT across all sectors over the past 10 years for total return performance.Today's Brokerage Rating: Seattle Genetics, Inc. , Extra Space Storage ... - StockNewsJournalExtra Space Storage Inc  Dips 3.04% for March 09 - Equities.com"
p6
aS"Extra Space Storage Inc. Announces Tax Reporting Information for 2016 ... PR Newswire  - Jan 19, 2017 SALT LAKE CITY, Jan. 26, 2017 /PRNewswire/ -- Extra Space Storage Inc.   announced today the tax allocations of the Company's 2016 dividend distributions on its common stock."
p7
aS"Extra Space Storage Inc. Announces First Quarter 2017 Dividend PR Newswire  - Feb 16, 2017 SALT LAKE CITY, Feb. 16, 2017 /PRNewswire/ -- Extra Space Storage Inc.   announced today that the Company's board of directors has declared a quarterly dividend of $0.78 per share on the common stock of the Company for&nbsp;...Extra Space Storage Inc : How fast will it grow? - Simply Wall StExtra Space Storage Inc  Moves Higher on Volume Spike for February 17 - Equities.com"
p8
aS'Extra Space Storage Inc. Completes $1.15 Billion Senior Unsecured Credit Facility PR Newswire  - Oct 17, 2016 SALT LAKE CITY, Oct. 17, 2016 /PRNewswire/ -- Extra Space Storage Inc.   announced today that the Company completed $1.15 billion in unsecured bank financing through a senior unsecured credit facility consisting of a $500.0&nbsp;...'
p9
aS'Extra Space Storage  Shares Cross Above 200 DMA Nasdaq - Mar 2, 2017 In trading on Thursday, shares of Extra Space Storage Inc  crossed above their 200 day moving average of $80.17, changing hands as high as $80.36 per share.Why Extra Space Storage is a Top Stock: A Dividend That Skyrocketed 680% - Income InvestorsStock Returns: Extra Space Storage Inc  versus Public Storage  - CML News'
p10
a.