(lp0
S"This Week's Fuel-Cell Energy Earnings Investopedia - Mar 10, 2017 Shares of clean energy solutions provider Plug Power traded down about 10.4% on Thursday, closing at a price of $0.95 per share and bringing its market capitalization to about $181 million.FuelCell Energy reports 1Q loss - Yahoo FinanceFuelCell Energy Inc.  Plunges 6.67% on March 09 - Equities.com"
p1
aS"Trading Options During Earnings in FuelCell Energy Inc  CML News - 12 hours ago We're going to examine buying and selling out of the money strangles in FuelCell Energy Inc and find out once and for all what the winning trades have been during earnings releases."
p2
aS'FuelCell Energy Announces Approval by the Connecticut Green Bank of Financing ... Yahoo Finance - Mar 14, 2017 DANBURY, Conn., March 14, 2017  -- FuelCell Energy, Inc. , a global leader in delivering clean, innovative and affordable fuel cell solutions for the supply, recovery and storage of energy, today announced the approval of a $5&nbsp;...'
p3
aS'FuelCell Energy Makes A Comeback Seeking Alpha - Feb 13, 2017 Carbon capture will be on of the most important products in the energy space long term. The ability to literally clean coal and gas-fired power plants cannot be undersold.FuelCell Energy Inc.  Soars 10% on February 13 - Equities.comEPS Predictions Review: FuelCell Energy, Inc.  - TWN'
p4
aS'Danbury-based FuelCell Energy announces 96 layoffs Danbury News Times - Dec 1, 2016 We are streamlining our business and cost structure as we reduce our production levels to meet the backlog we have today while positioning the company for long-term success, Chip Bottone, president and CEO of FuelCell Energy, said in a statement.FuelCell Energy Announces 96 Layoffs - Hartford CourantFuelCell Energy Provides Business Update - GlobeNewswire '
p5
aS'FuelCell Energy  Posts Wider-than-Expected Q1 Loss Yahoo Finance - Mar 10, 2017 FuelCell Energy Inc. FCEL reported an adjusted loss of 35 cents per share in the first quarter of fiscal 2017, wider than the Zacks Consensus Estimate of a loss of 34 cents.'
p6
aS'3 Ways FuelCell Energy Is Charging Ahead Motley Fool - Jul 9, 2016 Founded in 1969, FuelCell Energy  has been dealing in advanced energy projects for nearly half a century. Although the company has proved that it can generate electricity with much, much lower levels of harmful emissions than traditional&nbsp;...'
p7
aS'3 Things to Look for When FuelCell Energy Reports Q4 Earnings Motley Fool - Jan 11, 2017 However, the company has continuously failed to capitalize on these opportunities. According to Morningstar, FuelCell Energy has reported declining revenue from fiscal 2013, when it reported $188 million, through fiscal 2015, when it reported $163 million.'
p8
aS"3 Takeaways From FuelCell Energy's Q3 Earnings Motley Fool - Sep 19, 2016 FuelCell Energy  recently reported Q3 earnings. Failing to meet analysts' expectations by $0.01, the company reported a $0.38 loss per share. But there's much more to a company's quarterly performance than just one number, so let's dig in&nbsp;...Europe's first megawatt industrial fuel cell power plant officially in operation - PennEnergy"
p9
aS'FuelCell Energy pushes industry forward Danbury News Times - Feb 5, 2017 FuelCell Energy, a publicly traded company, makes the fuel cells, fuel cell stacks and modules at its manufacturing facility in Torrington.'
p10
a.