(lp0
S'First Defiance Financial Corp.  Moves Higher on Volume Spike for March 16 Equities.com - Mar 16, 2017 First Defiance Financial Corp.  traded on unusually high volume on Mar. 16, as the stock gained 1.06% to close at $50.45.The First Defiance Financial  Shares Bought by Renaissance Technologies LLC - Petro Global News 24First Defiance Financial  Shares Bought by Renaissance Technologies LLC - Chaffey Breeze'
p1
aS'First Defiance Financial Corp. and Commercial Bancshares, Inc. Announce ... Business Wire  - Aug 23, 2016 DEFIANCE, Ohio &amp; UPPER SANDUSKY, Ohio----First Defiance Financial Corp.   and Commercial Bancshares, Inc.   jointly announced today the signing&nbsp;...'
p2
aS"First Defiance Financial Corp's  CEO Don Hileman on Q4 2016 Results ... Seeking Alpha - Jan 24, 2017 Before we begin, I'd like to remind you that during the conference call today, including during the question-and-answer period, you may hear forward-looking statements related to future financial results and business operations for First Defiance ..."
p3
aS'First Defiance Financial Corp. to Release Third Quarter Earnings on October 17 ... Business Wire  - Sep 22, 2016 DEFIANCE, Ohio----First Defiance Financial Corp.  announced today that it intends to report third quarter results on Monday, October 17, 2016 after the close of the market.'
p4
aS'First Defiance Financial Corp.  Moves Lower on Volume Spike for March 10 Equities.com - Mar 10, 2017 First Defiance Financial Corp.  traded on unusually high volume on Mar. 10, as the stock lost 0.06% to close at $49.43.Analysts Set $46.00 Target Price for First Defiance Financial  - Chaffey BreezeStock Returns: LendingTree Inc  is Beating First Defiance ... - CML News'
p5
aS"First Defiance Financial Corp. Announces Election of Thomas A. Reineke to Its ... Business Wire  - May 3, 2016 DEFIANCE, Ohio----First Defiance Financial Corp. , the holding company for First Federal Bank of the Midwest and First Insurance Group, today announced that Thomas A. Reineke was elected to the Company's Board of&nbsp;..."
p6
aS'Stock Returns: First Defiance Financial Corp.  versus Greene ... CML News - Mar 9, 2017 This is a snapshot to compare the stock returns for First Defiance Financial Corp.  versus Greene County Bancorp Inc  .'
p7
aS'Stock Returns: First Defiance Financial Corp.  versus Northfield ... CML News - Mar 14, 2017 This is a snapshot to compare the stock returns for First Defiance Financial Corp.  versus Northfield Bancorp Inc   .'
p8
aS'Form 4 FIRST DEFIANCE FINANCIAL For: Feb 24 Filed by: Beach Robert E StreetInsider.com - Mar 13, 2017 Check this box if no longer subject to Section 16. Form 4 or Form 5 obligations may continue. See Instruction 1. 1. Name and Address of Reporting Person *. Beach Robert E. , , . 601 CLINTON STREET. . DEFIANCE, OH, 43512&nbsp;...'
p9
aS'Stock Returns: First Defiance Financial Corp.  versus Territorial ... CML News - Mar 1, 2017 This is a snapshot to compare the stock returns for First Defiance Financial Corp.  versus Territorial Bancorp Inc  .'
p10
a.