(lp0
S'First Financial Bancorp.  Moves Higher on Volume Spike for March 17 Equities.com - 17 hours ago First Financial Bancorp.  traded on unusually high volume on Mar. 17, as the stock gained 0.35% to close at $28.75. On the day, First Financial Bancorp. saw 848,915 shares trade hands on 3,094 trades. Considering that the stock averages only a ...'
p1
aS'Ex-Dividend Reminder: Teva Pharmaceutical Industries, First Financial Bancorp ... Nasdaq - Feb 24, 2017 Looking at the universe of stocks we cover at Dividend Channel , on 2/28/17, Teva Pharmaceutical Industries Ltd , First Financial Bancorp , and FNB Corp  will all trade ex-dividend for their respective upcoming&nbsp;...Read this before buying First Financial Bancorp  for its upcoming $0.17 ... - Simply Wall StFirst Financial Bancorp.  Moves Lower on Volume Spike for February 23 - Equities.com'
p2
aS'First Financial Bancorp.  Ex-Dividend Date Scheduled for February 28, 2017 Nasdaq - Feb 27, 2017 First Financial Bancorp.  will begin trading ex-dividend on February 28, 2017. A cash dividend payment of $0.17 per share is scheduled to be paid on April 03, 2017.Stock Returns: First Commonwealth Financial Corporation  versus ... - CML News'
p3
aS"First Financial expands to new market Cincinnati Business Courier - Nov 15, 2016 First Financial Bank's expansion into Gary is an investment in our community, market president Michael Schneider said."
p4
aS"First Financial Bancorp.  Moves Higher on Volume Spike for March 15 Equities.com - Mar 15, 2017 First Financial Bancorp.  traded on unusually high volume on Mar. 15, as the stock gained 0.54% to close at $28.05. On the day, First Financial Bancorp. saw 365,131 shares trade hands on 3,630 trades. Considering that the stock averages only a ...Next Weeks Broker Price Targets For First Financial Bancorp.  - Fiscal StandardAnalyst's Proposition on First Bancorp , Astoria Financial Corporation  - The USA Commerce"
p5
aS'First Financial Launches At-The-Market Equity Offering Program PR Newswire  - Mar 3, 2017 CINCINNATI, March 3, 2017 /PRNewswire/ -- First Financial Bancorp.   announced the initiation of an up to $100 million &quot;at-the-market&quot; equity offering program through the filing of a prospectus ...FIRST FINANCIAL BANCORP.  Files An 8-K Entry into a Material ... - Market ExclusiveFirst Financial Bancorp.  Upgrade at the Zacks Investment Research - Petro Global News 24'
p6
aS'Decision Time: First Financial Bancorp.  Stock Technicals Have ... CML News - 19 hours ago Decision Time: First Financial Bancorp.  now sits in the perhaps the most difficult technical position -- the stock has no urgency in its direction and that has left it at an inflection point.'
p7
aS"First Financial changes charter Cincinnati Business Courier - Jan 4, 2017 The only other notable change is that the Federal Reserve now is serves as First Financial's regulator. The bank is now a member of the Federal Reserve System."
p8
aS'Zacks Investment Research Lowers First Financial Bancorp  to Hold Chaffey Breeze - Mar 16, 2017 First Financial Bancorp logo Zacks Investment Research lowered shares of First Financial Bancorp  from a buy rating to a hold rating in a report published on Monday.First Financial Bancorp  Receives Consensus Recommendation of Hold ... - The Cerbat GemThe Zacks Investment Research Downgrades First Financial Bancorp  to Hold - Petro Global News 24'
p9
aS'The First Financial Bancorp  Receives Consensus Recommendation of Hold ... Petro Global News 24 - Mar 16, 2017 Shares of First Financial Bancorp  have received a consensus rating of Hold from the eight brokerages that are covering the firm.First Financial Bancorp.  Dividend Disbursement At $0.17 - Equities FocusBrokerage Firm Target Update on First Financial Bancorp.  - Rockville Register'
p10
a.