(lp0
S'Fifth Third Bancorp to Announce First Quarter 2017 Results, Host Conference ... Yahoo Finance - Mar 16, 2017 Fifth Third Bancorp  is scheduled to report first quarter 2017 financial results on April 25, 2017. The announcement will be available at www.53.Fifth Third Bancorp Increases Its Prime Rate to 4 Percent - Business Wire '
p1
aS'Fifth Third Bancorp to Attend the Barclays Emerging Payments Forum Yahoo Finance - Mar 9, 2017 Fifth Third Bancorp  will present at the Barclays Emerging Payments Forum in New York City on March 14, 2017 at approximately 11:20 AM ET.'
p2
aS"Fifth Third adds a new member to its C-suite Cincinnati Business Courier - Mar 1, 2017 Fifth Third Bancorp has added a member to its top executive team by promoting a 15-year employee. Fifth Third , Cincinnati's largest locally based bank and the nation's 13th biggest, named Bob Shaffer its chief human resources officer ...Analyst Downgrades  Fifth Third Bancorp  Stock Gets Downgraded ... - Market ExclusiveFifth Third Bank Boosts Commercial Equipment Financing Support Across the Country - Yahoo Finance"
p3
aS"BRIEF-Fifth Third Bancorp reports acquisition of RG McGraw Insurance Agency Reuters - Feb 27, 2017 SANTIAGO, March 11 The striking union at BHP Billiton's Escondida copper mine in Chile, the world's largest, said on Saturday it will not accept the company's offer to return to the negotiating table, and called on BHP to clarify its negotiating positions."
p4
aS"Fifth Third Bancorp  Strong Open After Announcing RG McGraw Acquisition StreetInsider.com - Feb 27, 2017 &quot;This acquisition represents a compelling opportunity to further build Fifth Third's insurance capability and deliver best-in-class risk management solutions for our customers, said Howard McClure, president of Insurance Services, Fifth Third Bancorp.Robert Shaffer Named Fifth Third Bancorp's Chief Human Resources Officer - Yahoo FinanceFifth Third buys one of Cincinnati's biggest agencies in first insurance ... - Cincinnati Business Courier"
p5
aS'Fifth Third Bancorp  Shares Cross 2% Yield Mark Nasdaq - Mar 2, 2017 Looking at the universe of stocks we cover at Dividend Channel , in trading on Thursday, shares of Fifth Third Bancorp  were yielding above the 2% mark based on its quarterly dividend , with the stock changing hands ...'
p6
aS'Fifth Third wins $4 million judgment Cincinnati Business Courier - Mar 9, 2017 Fifth Third Bancorp has won a $4 million court judgment against a well-known Greater Cincinnati funeral home operator. Fifth Third  won the judgment against Green-Hall and Jordan Memorial Chapel in Hamilton, Katherine Jordan and other&nbsp;...'
p7
aS'BRIEF-Fifth Third Bancorp announces redemption of senior bank notes due June 1 Reuters - Mar 9, 2017 BRIEF-Rent-A-Center says on March 2 Board designated Steven L. Pepper as lead independent director. * On March 2 board designated Steven L. Pepper as lead independent director of board effective immediately - SEC filing&nbsp;...'
p8
aS"How Does the Chart Look for Fifth Third Bancorp  ? The USA Commerce - 23 hours ago We have gathered the technical data on Fifth Third Bancorp , and see some interesting trends in the stock's behavior of late."
p9
aS'Average True Range Check on Fifth Third Bancorp  Rives Journal - 18 hours ago Traders may be focusing in on the ATR or Average True Range indicator when performing stock analysis. At the time of writing, Fifth Third Bancorp  has a 14-day ATR of 0.44. The average true range indicator was developed by J. Welles Wilder in ...'
p10
a.