(lp0
S'Shares Of National Beverage Corp. Continue To Bubble Up, Plenty Of Runway Ahead Benzinga - Mar 10, 2017 National Beverage Corp.  reported robust third-quarter results ahead of the estimates on both sales and profit.National Beverage Is A Buy - Seeking AlphaEarnings Double in Winter Quarter . . . National Beverage Corp. Shareholders Gain - Yahoo Finance'
p1
aS'Why National Beverage Corp. Bubbled Up Another 10% in April Motley Fool - May 16, 2016 What: During the month of April, stock in National Beverage Corp.  added another 10.4% to an uptrend that began in February, according to S&amp;P Global Market Intelligence.'
p2
aS'Philly Soda Tax Is A Win For National Beverage Corp. Seeking Alpha - Feb 24, 2017 Over the past year, the city of Philadelphia has been in a heated battle with the American Beverage Association over the newly implemented &quot;soda tax.'
p3
aS"National Beverage Corp Stock: How Sparkling Water Produced Eye-Popping Returns ... Motley Fool - Dec 8, 2016 If you want results that differ substantially from the market, you must be willing to do things, um, differently. National Beverage Corp  provides a great example of that maxim at work. The soda company's stock has trounced rivals with a ..."
p4
aS'LaCroix Leads National Beverage Corp To Historic Quarter Benzinga - Aug 24, 2016 National Beverage Corp.  is up big after historic Q1 results. The company is capitalizing on a shift in American consumers tastes, opting for more healthy alternatives, especially when it comes to drinks.'
p5
aS"National Beverage Corp. Stock Hit Hard By Fraud Accusations Motley Fool - Sep 28, 2016 Glaucus Research Group published a report on Wednesday which raised questions about National Beverage. Glaucus accused the company of manipulating its earnings, pointing out that National Beverage manages lower gross margin than its larger peers&nbsp;...National Beverage Shares Fall on Short Seller Report - Wall Street JournalNational Beverage Corp.  Responds to 'False Report' from Short Sellers - StreetInsider.com"
p6
aS"National Beverage Corp. Fights Back Seeking Alpha - Nov 20, 2016 I'm not sure how legal or feasible this actually is, but it is representative of the unconventional thinking that is embodied by the National Beverage Corp. management team. Why now? While providing Caporella with some cash is an obvious motivation, I ..."
p7
aS'National Beverage Corp. Dominates In Q2 Seeking Alpha - Dec 1, 2016 Much to the surprise of many investors, myself included, National Beverage Corp.  posted outstanding FY17 Q2 results during the middle of trading on Wednesday.'
p8
aS'Why I Sold My Position In National Beverage Seeking Alpha - Jul 4, 2016 National Beverage saw its net income and free cash flow increase by double-digit percentages in the first nine months of the current financial year.'
p9
aS'National Beverage Corp. CEO Releases Letter to Shareholders BevNET.com - Jan 27, 2017 FORT LAUDERDALE, FL - National Beverage Corp. today paid its seventh special cash dividend and released the following letter to shareholders written by Nick A. Caporella, Chairman and Chief Executive Officer: -.'
p10
a.