(lp0
S'Full House Resorts Announces Proposed Rights Offering GlobeNewswire  - Aug 15, 2016 LAS VEGAS, Aug. 15, 2016  -- Full House Resorts, Inc.  announced today that it has filed a registration statement on Form S-3 with the Securities and Exchange Commission for a proposed $5,000,000 rights offering.Full House Resorts announces rights offering - Seeking Alpha'
p1
aS'Full House Resorts 2016 Results Support Our Long-Time Bullish Outlook Seeking Alpha - Mar 10, 2017 On April 21, 2016, now about a year ago, we posted on SA about Full House Resorts, Inc. . That day the shares were trading at $1.50.'
p2
aS'Full House Resorts Announces Second Quarter Earnings Release Date GlobeNewswire  - Aug 10, 2016 LAS VEGAS, Aug. 10, 2016  -- Full House Resorts  announced today that it will report its second quarter 2016 financial results before the markets open on Monday, August 15, 2016, followed by a conference call at 10:00&nbsp;...'
p3
aS"Full House Resorts Announces Completion of Bronco Billy's Acquisition and ... GlobeNewswire  - May 13, 2016 LAS VEGAS, May 13, 2016  -- Full House Resorts  announced today that it has completed its acquisition of Bronco Billy's Casino and Hotel in Cripple Creek, Colorado for $30.0 million, exclusive of working capital and&nbsp;...Bronco Billy's Casino and Hotel bought by Vegas company - Colorado Springs Gazette"
p4
aS"Full House Resorts'  CEO Dan Lee on Q3 2016 Results - Earnings Call ... Seeking Alpha - Nov 6, 2016 Good day, and welcome to the Full House Resorts' Third Quarter 2016 Earnings Call. Today's conference is being recorded."
p5
aS"Full House Resorts: Proposed Rights Offering Isn't Dilutive: It Pays To Take A ... Seeking Alpha - Sep 8, 2016 Last April 21, we took a look at Full House Resorts , for House Edge subscribers first. It is a small regional gaming operator that had changed hands after a proxy fight bringing an industry friend of many years to the CEO post and with ..."
p6
aS"Full House Resorts: Our Bargain In Hiding Has Come Out To Play Seeking Alpha - Jun 21, 2016 On April 21 we called readers' attention to the little-known, small, domestic gaming company Full House Resorts. While we normally don't cover small-cap, low-priced, thinly traded gaming operators, in this particular case, we saw opportunity hiding in ..."
p7
aS'Next Weeks Broker Price Targets For Full House Resorts, Inc.  Fiscal Standard - 10 hours ago Stock market analysts and brokers have recently amended their target prices on shares of Full House Resorts, Inc. .Full House Resorts, Inc.  Reaches $2.49 After 8.00% Up Move, Christopher ... - Wolcott DailyGage L Patrick Purchased $82370 of Tetraphase Pharmaceuticals , Full ... - HuronReport'
p8
aS'Full House Resorts Announces Strong Fourth Quarter and Full Year 2015 Results Business Wire  - Mar 21, 2016 &quot;Led by our Rising Star and Silver Slipper properties, we once again delivered strong growth,&quot; said Daniel R. Lee, President and Chief Executive Officer of Full House Resorts. &quot;For the fourth ... In exchange for $1 million of capital improvements, the ...'
p9
aS'Investor Center: Technical Focus on Full House Resorts Inc  The Standard - 23 hours ago Full House Resorts Inc  presently has a 14-day Commodity Channel Index  of 114.41. The CCI was created to typically stay within the reading of -100 to +100.'
p10
a.