(lp0
S'Financial Engines, Inc.  Ex-Dividend Date Scheduled for March 20, 2017 Nasdaq - Mar 17, 2017 Financial Engines, Inc.  will begin trading ex-dividend on March 20, 2017. A cash dividend payment of $0.07 per share is scheduled to be paid on April 05, 2017.Financial Engines Inc.  Moves Lower on Volume Spike for March 17 - Equities.comFinancial Engines Inc  Stake Maintained by New York State Teachers ... - The Cerbat Gem'
p1
aS'Ex-Dividend Reminder: Cincinnati Financial, EastGroup Properties and Financial ... Nasdaq - Mar 16, 2017 Looking at the universe of stocks we cover at Dividend Channel , on 3/20/17, Cincinnati Financial Corp. , EastGroup Properties Inc , and Financial Engines Inc  will all trade ex-dividend for their respective&nbsp;...'
p2
aS'Financial Engines Inc.  is Attracting Smart Money Small Cap Exclusive  - Mar 8, 2017 In a just published Form 13, filed with the US Securities and Exchange Commission , Financial Engines Inc.  reported that Warburg Pincus Private Equity X, L.p.Financial Engines, Inc.  Files An 8-K Other Events - Market ExclusiveFinancial Engines, Inc. - StreetInsider.com'
p3
aS'Financial Engines Inc.  Breaks into New 52-Week High on February 10 Session Equities.com - Feb 10, 2017 Shares of Financial Engines Inc.  broke into a new 52-week high yesterday, hitting a peak of $39.99. Shares closed at $39.50 after opening at $39.55 for a move of 0.25%.'
p4
aS"Financial Engines Inc.  Moves Higher on Volume Spike for March 01 Equities.com - Mar 1, 2017 Financial Engines Inc.  traded on unusually high volume on Mar. 01, as the stock gained 2.14% to close at $45.25. On the day, Financial Engines Inc. saw 839,119 shares trade hands on 4,923 trades. Considering that the stock averages only a daily&nbsp;...Insider Trading Activity Financial Engines, Inc.   CAO Sold 8739 ... - Market ExclusiveFinancial Engines, Inc.'s  stock price is Worth at $45.40 while finishes ... - Hot Stocks Point"
p5
aS'Financial Engines Inc.  Moves Higher on Volume Spike for March 15 Equities.com - Mar 15, 2017 Financial Engines Inc.  traded on unusually high volume on Mar. 15, as the stock gained 2.92% to close at $42.25. On the day, Financial Engines Inc. saw 692,628 shares trade hands on 5,097 trades. Considering that the stock averages only a daily&nbsp;...Financial Engines, Inc.  loses confidence of 18 hedge fund managers - Post AnalystThe Financial Engines Inc  Stake Increased by Comerica Bank - Petro Global News 24'
p6
aS'Will Financial Engines  Continue to Surge Higher? Yahoo Finance - Feb 28, 2017 As of late, it has definitely been a great time to be an investor in Financial Engines, Inc. FNGN. The stock has moved higher by 14.7% in the past month, while it is also above its 20 Day SMA too.'
p7
aS'Financial Engines, Inc.  Files An 8-K Entry into a Material ... Market Exclusive - Mar 10, 2017 Financial Engines, Inc. provides independent, technology-enabled portfolio management services, investment advice and retirement income services to participants in employer-sponsored defined contribution plans, such as 401 plans.Financial Engines Inc  Downgraded by Zacks Investment Research - The Cerbat Gem'
p8
aS'Financial Engines Inc.  Breaks into New 52-Week High on February 28 Session Equities.com - Feb 28, 2017 Shares of Financial Engines Inc.  broke into a new 52-week high yesterday, hitting a peak of $44.60. Shares closed at $44.30 after opening at $42.90 for a move of 0.17%.'
p9
aS"Another 401 record keeper sued over 'pay to play' scheme with Financial Engines InvestmentNews - Nov 11, 2016 Xerox HR Solutions, one of the largest record keepers for defined contribution plans, has been sued over an alleged pay-to-play scheme with managed-account provider Financial Engines Inc., following similar lawsuits filed recently against other ..."
p10
a.