(lp0
S'Cedar Fair, LP  Ex-Dividend Date Scheduled for March 01, 2017 Nasdaq - Feb 28, 2017 Cedar Fair, L.P.  will begin trading ex-dividend on March 01, 2017. A cash dividend payment of $0.855 per share is scheduled to be paid on March 15, 2017.Cedar Fair to launch season drink plan - Toledo BladeRevenue Update on Cedar Fair LP - Energy Index'
p1
aS'Cedar Fair 2016 K-1 Tax Packages Now Available PR Newswire  - Mar 3, 2017 SANDUSKY, Ohio, March 3, 2017 /PRNewswire/ -- Cedar Fair, L.P.  a leader in regional amusement parks, water parks and active entertainment, today announced that their 2016 tax packages, including Schedule K-1, are now available online&nbsp;...Cedar Fair, LP  Given Consensus Rating of Buy by Analysts - Chaffey Breeze'
p2
aS'Cedar Fair Price Moves Higher Following Earnings Seeking Alpha - Mar 9, 2017 When Cedar Fair Entertainment Company  reported results for 2016, records were set for revenue, customers and average revenue per customer.'
p3
aS"Record Attendance Drives Cedar Fair, LP Earnings Higher Motley Fool - Feb 17, 2017 Cedar Fair, L.P.  reported full-year results on Feb. 15. The country's third-largest amusement park operator enjoyed record sales and profits as its rides and attractions delighted millions of thrill-seekers.Analyst Activity  Wedbush Raises Its Price Target On Cedar Fair, LP  to - Market Exclusive"
p4
aS"Cedar Fair CEO Reveals Future Strategy  Investopedia - Dec 7, 2016 recently revealed the company's strategy moving forward, and it's not what you would think. In addition to traditional competition from other amusement parks, Cedar Fair is also facing competition from sport-related activities, which is why it is ..."
p5
aS'Ex-Dividend Reminder: Cedar Fair, Regal Entertainment Group and Office Depot Nasdaq - Feb 27, 2017 Looking at the universe of stocks we cover at Dividend Channel , on 3/1/17, Cedar Fair LP , Regal Entertainment Group , and Office Depot, Inc.  will all trade ex-dividend for their respective upcoming dividends.'
p6
aS'Why Cedar Fair, LP Stock Gained 15% Last Year Motley Fool - Jan 19, 2017 Share of theme-park operator Cedar Fair, L.P.  rose 15% last year, according to data from S&amp;P Global Market Intelligence.'
p7
aS'Cedar Fair, LP  Dividend Growth in Focus Business Review - 14 hours ago Shares of Cedar Fair, L.P.  currenty have a 10 year dividend growth rate of 0.05799. This number is calculated using the geometric average which provides the typical value of dividend growth over the specified period using the product of ...'
p8
aS'Cedar Fair Reports Record Start To 2016 PR Newswire  - May 4, 2016 SANDUSKY, Ohio, May 4, 2016 /PRNewswire/ -- Cedar Fair Entertainment Company , a leader in regional amusement parks, water parks and active entertainment, today announced positive results for the first quarter ended March 27, 2016.'
p9
aS'Checking the Numbers for Cedar Fair, LP  Davidson Register - Mar 15, 2017 Cedar Fair, L.P.  has a current Value Composite Score of 40. Using a scale from 0 to 100, a lower score would represent an undervalued company and a higher score would indicate an expensive or overvalued company.Company Stock in Focus: Cedar Fair, LP  - Rives Journal'
p10
a.