(lp0
S'Guaranty Federal Bancshares, Inc. Announces the Retirement of Chief Lending ... GlobeNewswire  - Mar 18, 2016 SPRINGFIELD, Mo., March 18, 2016  -- Guaranty Federal Bancshares, Inc., , the holding company  for Guaranty Bank , today announced that H. Michael Mattson, Executive Vice President&nbsp;...'
p1
aS'Guaranty Federal Bancshares, Inc. Announces Preliminary Second Quarter 2016 ... GlobeNewswire  - Jul 18, 2016 SPRINGFIELD, Mo., July 18, 2016  -- Guaranty Federal Bancshares, Inc., , the holding company  for Guaranty Bank , today announces the following preliminary results for its second quarter&nbsp;...'
p2
aS'Guaranty Federal Bancshares, Inc. Board of Directors Elects James R. Batten as ... GlobeNewswire  - May 11, 2016 SPRINGFIELD, Mo., May 11, 2016  -- The Board of Directors of Guaranty Federal Bancshares, Inc.  today announced the election of James R. Batten to the position of Chairman of the Board and John F. Griesemer to the&nbsp;...'
p3
aS'Guaranty Bank Announces the Hiring of New Chief Lending Officer H. Charles ... GlobeNewswire  - Jun 27, 2016 SPRINGFIELD, Mo., June 27, 2016  -- Guaranty Federal Bancshares, Inc.  announced today that its subsidiary, Guaranty Bank , hired H. Charles Charley Puls to serve as Executive Vice President, Chief&nbsp;...'
p4
aS'Guaranty Bank to Open Loan Production Office in Joplin GlobeNewswire  - Apr 11, 2016 SPRINGFIELD, Mo., April 11, 2016  -- Guaranty Bank announced today it is opening a loan production office in Joplin, Mo.'
p5
aS'Guaranty signs on for final Farmers Park building Springfield Business Journal - Jul 25, 2016 Springfield-based Guaranty Federal Bancshares Inc.  signed on to take over more than half of the fifth and final building under development at Farmers Park.'
p6
aS'Top Ranked Value Stocks to Buy for January 24th Zacks.com - Jan 24, 2017 Worthington Industries, Inc.  : This leading diversified metal processing company,which carries a Zacks Rank #2 , has seen the Zacks Consensus Estimate for its current year earnings increasing 1.9% over the last 60 days.'
p7
aS'Goldman, Deutsche Escape $2.1B Guaranty Bank MBS Suit Law360  - Aug 19, 2014 Law360, New York  -- Goldman Sachs &amp; Co., Deutsche Bank Securities Inc. and several other banks on Monday dodged the remnants of a lawsuit brought in Texas federal court by the Federal Deposit Insurance Corp. on&nbsp;...'
p8
aS"Guaranty Bank fails San Antonio Express - Aug 22, 2009 Late in the afternoon, the U.S. Treasury Department's Office of Thrift Supervision announced it had closed the bank and put it into the hands of the Federal Deposit Insurance Corp., which then sold it to BBVA Compass. Deposits in Guaranty are insured ...BBVA Compass Acquires the Banking Operations of Guaranty Bank - PR Newswire BBVA Compass buys failed Guaranty Bank - Bizjournals.com"
p9
aS"Form 4 GUARANTY FEDERAL BANCSHA For: Feb 23 Filed by: HORTON GREG ALAN StreetInsider.com - Feb 14, 2017 Scotia Capital Starts Keane Group  at Sector Perform &middot; Charles River Laboratories  Tops Q4 EPS by 10c, Guides FY17 E Ionis Pharma's  IONIS-FXI Advances at Bayer, Earning $75M M Form 4 FireEye, Inc. For: Feb 09 Filed by: Mandia&nbsp;..."
p10
a.