(lp0
S'G-III APPAREL GROUP, LTD.  Files An 8-K Entry into a Material ... Market Exclusive - 18 hours ago G-III Apparel Group, Ltd. designs, manufactures and markets a range of apparel products. The Company operates through two segments: wholesale operations and retail operations.G-III Apparel Group LTD.  Moves Lower on Volume Spike for March 17 - Equities.comG-III Apparel Group, Ltd.  Reaches $24.26 After 4.00% Down Move; Joho ... - MoneyMakingArticles'
p1
aS'G-III Apparel Group Announces Date for Fourth Quarter and Full Year 2017 Results Business Wire  - Mar 16, 2017 NEW YORK----G-III Apparel Group, Ltd.  announced today that it will release its fourth quarter and full year fiscal 2017 earnings before the market opens on Monday, March 27, 2017.G-III Apparel Group LTD.  Moves Higher on Volume Spike for March 15 - Equities.comThe Zacks Investment Research Upgrades G-III Apparel Group, Ltd.  to Hold - Petro Global News 24'
p2
aS"G-III Apparel Group, Ltd. Names Barbara Kennedy President-Wholesale-Design ... Business Wire  - Jan 17, 2017 Morris Goldfarb, Chairman and Chief Executive Officer of G-III Apparel Group commented, Barbara is one of the top women's apparel executives in our industry and we are thrilled to have her join us to lead the development of the Donna Karan and DKNY&nbsp;..."
p3
aS'Stock Valuation in Focus for G-III Apparel Group, Ltd.  Business Review - 13 hours ago G-III Apparel Group, Ltd.  has an ERP5 rank of 859. The ERP5 Rank is an investment tool that analysts use to discover undervalued companies.'
p4
aS"G-III Apparel Group Closes Acquisition of Donna Karan International Business Wire  - Dec 1, 2016 NEW YORK----G-III Apparel Group, Ltd.  announced today that it has completed its acquisition of Donna Karan International, Inc., parent of the Donna Karan and DKNY brands.G-III Apparel Group's  CEO Morris Goldfarb on Q3 2017 Results - Earnings ... - Seeking AlphaDKNY CEO and creative directors depart - The Industry London"
p5
aS'Why G-III Apparel Group Ltd. Lost 33% Last Year Motley Fool - Jan 18, 2017 Shares of G-III Apparel Group  were coming undone last year, falling 33% according to data from S&amp;P Global Market Intelligence.Swiss National Bank Cuts Stake in G-III Apparel Group, LTD.  - Sports PerspectivesSuffolk Capital Management LLC Decreases Position in G-III Apparel Group, LTD ... - The Cerbat Gem'
p6
aS'G-III Apparel Group LTD.  Settles Into New 52-Week Low on March 13 Session Equities.com - Mar 13, 2017 Shares of G-III Apparel Group LTD.  sank into a new 52-week low yesterday, and could be a company to watch at the open.'
p7
aS'G-III Apparel Group, Ltd. Announces Third Quarter Fiscal 2017 Results Business Wire  - Dec 1, 2016 For the third quarter ended October 31, 2016, G-III reported that net sales were $883 million as compared to $910 million in the year-ago period.'
p8
aS'G-III Apparel Group, Ltd. Updates Fourth Quarter and Full Fiscal Year 2017 ... Business Wire  - Jan 5, 2017 NEW YORK----G-III Apparel Group, Ltd.  today announced an update to its fourth quarter and full fiscal year ended January 31, 2017 net sales and net income estimates.G-III Apparel cuts FY 2017 sales, profit guidance - Seeking AlphaG-III Apparel Group, LTD.  Updates FY17 Earnings Guidance - Sports Perspectives'
p9
aS'Why G-III Apparel Group, Ltd. Stock Plunged Today Motley Fool - Aug 30, 2016 G-III saw outerwear brand deliveries fall this quarter. Image source: G-III Apparel Group, Ltd. What: Shares of G-III Apparel Group Ltd.  closed down 20.7% Tuesday after the company released weaker-than-expected fiscal second-quarter 2017&nbsp;...G-III Apparel says off-price is a bright spot in otherwise gloomy outerwear ... - MarketWatch'
p10
a.