(lp0
S'Form 3 GULFPORT ENERGY CORP For: Mar 07 Filed by: Malone Mark StreetInsider.com - 17 hours ago 1. Amount includes 43,001 unvested restricted stock units granted under the equity incentive plan of Gulfport Energy Corporation  prior to Mr. Malone becoming an executive officer of the Issuer. Of these restricted stock units, 4,000 ...'
p1
aS"Drilling Down Into the Charts for Gulfport Energy Corporation  The USA Commerce - Mar 16, 2017 We have gathered the technical data on Gulfport Energy Corporation , and see some interesting trends in the stock's behavior of late."
p2
aS'Taking a Fresh Look at Gulfport Energy Corporation  StockNewsJournal - 19 hours ago Gulfport Energy Corporation  is an interesting player in the Basic Materials space, with a focus on Independent Oil &amp; Gas.Gulfport Energy Corporation  Moves Lower on Volume Spike for March 13 - Equities.comHot Stock Overview: Gulfport Energy Corp.  - HugoPress'
p3
aS'Commit To Purchase Gulfport Energy Corp. At $15, Earn 8.3% Annualized Using ... Nasdaq - Feb 24, 2017 Investors considering a purchase of Gulfport Energy Corp.  stock, but cautious about paying the going market price of $18.41/share, might benefit from considering selling puts among the alternative strategies at their disposal.'
p4
aS"What are Analyst's Indicators for SM Energy Company , Gulfport Energy ... The USA Commerce - Mar 17, 2017 While trading at volume below than average, Gulfport Energy Corporation  previous 52-week high was $34.67 and moved down -41.85% over the same period, trading at a volume of 2.98 million."
p5
aS"What are Analyst's Indicators for Square, Inc. , Gulfport Energy ... The USA Commerce - Mar 13, 2017 Shares of Square, Inc.  dropped -0.94% to $16.91. During the trading on 03/10/2017, Company's stock ranged from $16.83 to $17.18."
p6
aS"Here's Who Just Picked Up Gulfport Energy Corp  Shares Small Cap Exclusive  - Feb 28, 2017 For those not familiar with the company, Gulfport Energy Corporation is an oil and natural gas exploration and production company.Gulfport Energy Corporation  Moves Lower on Volume Spike for February 28 - Equities.comINC Research Holdings, Inc. , Gulfport Energy Corp.  Stock Eyes ... - The USA Commerce"
p7
aS'Gulfport Energy Corporation  Has Revealed It All In Its Chart NY Stock News - 22 hours ago The technicals for Gulfport Energy Corporation  have taken shape, and with them a comprehensive picture has emerged. This is the current state of play as presented by the current technical setup.'
p8
aS"Analyst Activity  Barclays PLC Lowers Its Price Target On Gulfport Energy ... Market Exclusive - Feb 16, 2017 Today, Barclays PLC lowered its price target on Gulfport Energy Corporation  to $30.00 per share. There are 8 hold ratings, 26 buy ratings on the stock.Q1 2017 EPS Estimates for Gulfport Energy Corporation  Lowered by KeyCorp - The Cerbat GemLet's Get Complex With Gulfport Energy Corp.  - Post Analyst"
p9
aS"Checking Out the Technicals for Gulfport Energy Corporation  The USA Commerce - Mar 14, 2017 We have gathered the technical data on Gulfport Energy Corporation , and see some interesting trends in the stock's behavior of late."
p10
a.