(lp0
S'Equiteq advises McKinney Rogers on its sale to GP Strategies Corp  RealWire  - Feb 7, 2017 February, 2017  - Equiteq, a global leader in providing strategic and M&amp;A advisory services to knowledge-intensive services firms, is pleased to announce that it has advised McKinney Rogers , a results-driven&nbsp;...'
p1
aS'24.30 MarketWatch - Oct 13, 2010 GP Strategies Corp. Watchlist CreateGPXAlert. After Hours. Last Updated: Mar 16, 2017 4:49 p.m.. $ 24.30. 0.00 0.00%.'
p2
aS'GP Strategies to Report Fourth Quarter 2016 Results on February 28, 2017 PR Newswire  - Feb 17, 2017 COLUMBIA, Md., Feb. 17, 2017 /PRNewswire/ -- Global performance improvement solutions provider GP Strategies Corporation  announced that it will release its financial results for the fourth quarter ended December 31, 2016 on Tuesday,&nbsp;...'
p3
aS"GP Strategies to Present at 29th Annual ROTH Conference PR Newswire  - Mar 7, 2017 COLUMBIA, Md., March 7, 2017 /PRNewswire/ -- Global performance improvement solutions provider GP Strategies Corporation  announced that it will participate in the 29th Annual ROTH Conference, an investor conference featuring&nbsp;...The Barrington Research Comments on GP Strategies Corp's Q1 2017 Earnings  - DailyQuint"
p4
aS'GP Strategies Acquires Jencal Training and B2B Engage PR Newswire  - Mar 2, 2016 COLUMBIA, Md., March 2, 2016 /PRNewswire/ -- Global performance improvement solutions provider GP Strategies Corporation  announced that its wholly-owned subsidiary, GP Strategies Training Limited, has acquired the entire share capital&nbsp;...'
p5
aS'Form 8-K GP STRATEGIES CORP For: Aug 05 StreetInsider.com - Aug 9, 2016 On August 5, 2016, Daniel M. Friedberg resigned as a member of the Board of Directors of GP Strategies Corporation .'
p6
aS'Stock Returns: Kforce Inc  is Beating GP Strategies Corporation ... CML News - 17 hours ago This is a snapshot to compare the stock returns for GP Strategies Corporation  versus Kforce Inc  . The stock return points we compare look at the last three-months, six-months and twelve-months.'
p7
aS'GP Strategies Reports Fourth Quarter 2016 Earnings of $0.40 Per Share PR Newswire  - Feb 28, 2017 GP Strategies Corporation  is a global performance improvement solutions provider of sales and technical training, eLearning solutions, management consulting and engineering services.GP Strategies Corporation  Moves Lower on Volume Spike for February 27 - Equities.com'
p8
aS'Brokerage Analyst Buys: Idera Pharmaceuticals, Inc.  GP ... Davidson Register - 18 hours ago Sell-side analysts are offering a consensus Buy rating on shares of Idera Pharmaceuticals, Inc. . Using the following ratings scale: 1.0 Strong Buy, 2.0 Buy, 3.0 Hold, 4.0 Sell and 5.0 Strong Sell, analysts have an average recommendation ...'
p9
aS'GP Strategies Awarded Contract With the US Department of Defense PR Newswire  - Dec 8, 2015 COLUMBIA, Md., Dec. 8, 2015 /PRNewswire/ -- Global performance improvement solutions provider GP Strategies Corporation  has been awarded a $29.6 million cost-plus-fixed-fee contract to provide technical and professional support to the&nbsp;...'
p10
a.