(lp0
S'WR Grace &amp; Co.  Ex-Dividend Date Scheduled for February 27, 2017 Nasdaq - Feb 24, 2017 W.R. Grace &amp; Co.  will begin trading ex-dividend on February 27, 2017. A cash dividend payment of $0.21 per share is scheduled to be paid on March 23, 2017.'
p1
aS'Insider Trading Activity WR Grace &amp; Co   VP Bought 3750 shares of Stock Market Exclusive - Mar 8, 2017 On 5/9/2013 William C Dockman, VP, sold 7,210 with an average share price of $79.09 per share and the total transaction amounting to $570,238.90.'
p2
aS'WR Grace &amp; Co.  Q4 2016 Results - Earnings Call Transcript Seeking Alpha - Feb 8, 2017 Good day, ladies and gentlemen, and welcome to the W. R. Grace &amp; Company Fourth Quarter 2016 Earnings Conference Call. At this time, all participants are in a listen-only mode.'
p3
aS'WR Grace &amp; Co.  Announces $250M Stock Buyback StreetInsider.com - Feb 8, 2017 W. R. Grace &amp; Co.  announced that its Board of Directors has authorized a new share repurchase program of up to $250 million expected to be completed over the next 24 to 36 months at the discretion of management.Grace to Increase Dividend 24 Percent Effective in the First Quarter 2017 - GlobeNewswire WR Grace fourth-quarter earnings beat estimates - Baltimore Business Journal'
p4
aS'WR Grace &amp; Co.  Q3 2016 Results - Earnings Call Transcript Seeking Alpha - Oct 26, 2016 Good day, ladies and gentlemen, and welcome to the W.R. Grace &amp; Company Third Quarter Earnings Conference Call. At this time, all participants are in a listen-only mode.WR Grace earnings soar, beat Wall Street estimates - Baltimore Business Journal'
p5
aS"WR Grace &amp; Co. finalizes acquisition of BASF polyolefin catalyst business Baltimore Sun - Jul 1, 2016 W. R. Grace &amp; Co. announced Friday it has finalized its acquisition of German chemical giant BASF's polyolefin catalysts business.Grace Completes Purchase of BASF Polyolefin Catalysts Business - GlobeNewswire "
p6
aS"UPDATE: Goldman Sachs Upgrades WR Grace &amp; Co.  to Buy StreetInsider.com - Dec 12, 2016 Goldman Sachs upgraded W.R. Grace &amp; Co.  from Neutral to Buy with a price target of $83.00 . Analyst Robert Koort noted the stock's discounted valuation."
p7
aS"Grace to License UNIPOL PP Process Technology to Dongguan Grand Resources, China GlobeNewswire  - Feb 13, 2017 COLUMBIA, Md., Feb. 13, 2017  -- W. R. Grace &amp; Co. , the world's leading supplier of polyolefin catalyst technology and polypropylene  process technology, in the fourth quarter of 2016 contracted to license its UNIPOL&nbsp;..."
p8
aS"Veritiv  Reaches $51.75 After 7.00% Down Move, WR Grace &amp; Company (GRA ... MoneyMakingArticles - 19 hours ago WR Grace &amp; Company  had a decrease of 5.17% in short interest. GRA's SI was 1.40M shares in March as released by FINRA."
p9
aS"Grace Elects Julie Fasone Holder to Board of Directors GlobeNewswire  - Nov 3, 2016 Built on talent, technology, and trust, Grace is a leading global supplier of catalysts and engineered materials. The company's two industry-leading business segmentsCatalysts Technologies and Materials Technologiesprovide innovative products,&nbsp;..."
p10
a.