(lp0
S"Joey Levin To Help Revamp Groupon Inc , Sources Say Journal Transcript - Mar 17, 2017 Lefkofsky highly appreciated the deep background in the digital space that the incoming official was pulling along into its operations.What are Analyst's Indicators for Groupon, Inc. , ON Semiconductor ... - The USA CommerceGroupon Inc  Now Under Fave - WallStreetPR"
p1
aS"Groupon Inc : Room To Grow? Simply Wall St - Mar 14, 2017 Groupon Inc's  business model has evolved in recent years from primarily an email-based push model with a limited number of deals offered at any given time, to more extensive online pull marketplaces, where customers can come to&nbsp;...Form 8-K Groupon, Inc. For: Mar 13 - StreetInsider.comMarket Sentiment Bullish for Groupon Inc  - The Oracle Dispatch"
p2
aS"Today's Brokerage Rating: Finisar Corporation , Groupon, Inc.  StockNewsJournal - Mar 16, 2017 Groupon, Inc. , maintained return on investment for the last twelve months at -32.18, higher than what Reuters data shows regarding industry's average."
p3
aS"Technicals in Focus for Groupon, Inc.  The USA Commerce - Mar 16, 2017 We have gathered the technical data on Groupon, Inc. , and see some interesting trends in the stock's behavior of late."
p4
aS"Thursday's Vital Data: Apple Inc. , Groupon Inc  and Bristol-Myers ... Nasdaq - Feb 16, 2017 Thursday&amp;rsquo;s Vital Data: Apple Inc. , Groupon Inc ( As a result, futures on the S&amp;P 500 are down 0.17% heading into the open, followed by Dow Jones Industrial Average futures, off 0.15%, and Nasdaq-100 futures, which have shed a mere 0.02%&nbsp;..."
p5
aS"Groupon to lay off last 95 LivingSocial staffers, close DC office Washington Business Journal - Mar 8, 2017 Groupon to lay off last 95 LivingSocial staffers, close D.C. office. Mar 8, 2017, 3:01pm EST Updated ... now Groupon has filed a more. The move follows Groupon's acquisition of the D.C. daily deals company, without paying anything out of pocket, in ..."
p6
aS'Why Investors Should Be Excited About Groupon Inc ? Journal Transcript - Mar 2, 2017 Groupon Inc  has been in improvement mode since long, and the existing quarter validates that at least a bottom is in.'
p7
aS"What Analysts are Predicting For Groupon, Inc. , Corindus Vascular ... The USA Commerce - Mar 15, 2017 Shares of Groupon, Inc.  dropped -1.01% to $3.93. During the trading on 03/14/2017, Company's stock ranged from $3.86 to $3.98."
p8
aS'Groupon to lay off remaining LivingSocial staffers, will close DC office Chicago Business Journal - Mar 9, 2017 Deal-of-the-day company Groupon Inc. will lay off the remaining 95 LivingSocial Inc. employees on its staff following the October acquisition of the Washington, D.C.'
p9
aS'Stock Tracker: Focusing on Shares of Groupon, Inc.  Davidson Register - Mar 17, 2017 Groupon, Inc.  has a current Value Composite Score of 52. Using a scale from 0 to 100, a lower score would represent an undervalued company and a higher score would indicate an expensive or overvalued company.'
p10
a.