(lp0
S'Triple-S Management Corporation Class B  Moves Lower on Volume Spike for ... Equities.com - 17 hours ago Triple-S Management Corporation Class B  traded on unusually high volume on Mar. 17, as the stock lost 0.23% to close at $17.18.'
p1
aS'Triple-S Management Corporation Reports Fourth Quarter 2016 Results PR Newswire  - Mar 2, 2017 SAN JUAN, Puerto Rico, March 2, 2017 /PRNewswire/ -- Triple-S Management Corporation , a leading managed care company in Puerto Rico, today announced quarterly consolidated revenues of $730.7 million and net income of $12.0 million,&nbsp;...Triple-S Management posts 4Q profit - Yahoo FinanceTRIPLE-S MANAGEMENT CORPORATION  Files An 8-K Results of Operations ... - Market Exclusive'
p2
aS"BRIEF-Triple-S Management Corp Q4 earnings per share $0.50 Reuters - Mar 2, 2017 Reuters is the news and media division of Thomson Reuters. Thomson Reuters is the world's largest international multimedia news agency, providing investing news, world news, business news, technology news, headline news, small business news, news&nbsp;..."
p3
aS'Triple-S Management Corporation Announces the Retirement of Ramon Ruiz-Comas ... PR Newswire  - May 18, 2015 SAN JUAN, Puerto Rico, May 18, 2015 /PRNewswire/ -- Triple-S Management Corporation , the leading managed care company in Puerto Rico, today announced the retirement of Ramon Ruiz-Comas, its President and Chief Executive Officer,&nbsp;...'
p4
aS'Triple-S Management Corporation Awarded Four-Star Rating For Its HMO Offerings PR Newswire  - Oct 13, 2016 SAN JUAN, Puerto Rico, Oct. 13, 2016 /PRNewswire/ -- Triple-S Management Corporation , a leading managed care company in Puerto Rico, today announced the star ratings for its Medicare Advantage plans from the Centers of Medicare and&nbsp;...'
p5
aS'Triple-S Management Corporation Reports Third Quarter 2016 Results PR Newswire  - Nov 3, 2016 3, 2016 /PRNewswire/ -- Triple-S Management Corporation , a leading managed care company in Puerto Rico, today announced consolidated revenues of $744.7 million and a net loss of $1.9 million, or $ per diluted share, versus net&nbsp;...'
p6
aS'News Triple-S Management Corp. Cl BGTS Wall Street Journal - Feb 1, 2001 Triple-S Management Corp. Cl B GTS . search. View All companies. AT CLOSE 4:02 PM EST 03/10/17. $17.17 USD; 0.49 2.94%.'
p7
aS'Triple-S Management Corporation Class B  Soars 5.65% on February 03 Equities.com - Feb 3, 2017 Triple-S Management Corporation Class B  had a good day on the market for Friday February 03 as shares jumped 5.65% to close at $20.00.'
p8
aS'Triple-S Management Corporation Announces Management Changes PR Newswire  - Jan 8, 2016 SAN JUAN, Puerto Rico, Jan. 8, 2016 /PRNewswire/ -- Triple-S Management Corporation , one of the leading managed care companies in Puerto Rico, today announced several changes within its executive staff.'
p9
aS'Triple-S Management Corporation Class B  Soars 5.14% on March 15 Equities.com - Mar 15, 2017 Triple-S Management Corporation Class B  had a good day on the market for Wednesday March 15 as shares jumped 5.14% to close at $18.00.'
p10
a.