(lp0
S'Blackhawk Network Holdings, Inc. Announces Dates for Fourth Quarter 2016 ... GlobeNewswire  - Jan 6, 2017 PLEASANTON, Calif., Jan. 06, 2017  -- Blackhawk Network Holdings, Inc.  will announce its fourth quarter 2016 earnings results on Wednesday, February 15, 2017.'
p1
aS'Blackhawk Network Holdings - Poised To Benefit From Activist Investors Seeking Alpha - Dec 21, 2016 Started as a subsidiary of Safeway Inc.  in 2001, Blackhawk was spun-off in 2013. Leveraging its network of grocery, convenience, specialty, and online stores, the company has grown from offering seven brands at one retailer to 600+ brands at&nbsp;...'
p2
aS'Blackhawk Network Holdings, Inc. Announces Pricing of $460 Million of ... PR Newswire  - Jul 22, 2016 PLEASANTON, Calif., July 22, 2016 /PRNewswire/ -- Blackhawk Network Holdings, Inc.   announced today the pricing of its offering of $460 million aggregate principal amount of its 1.50% Convertible Senior Notes due 2022&nbsp;...'
p3
aS'Blackhawk Network Holdings Inc  Upgraded by Zacks Investment Research to ... The Cerbat Gem - 22 hours ago Zacks Investment Research upgraded shares of Blackhawk Network Holdings Inc  from a sell rating to a hold rating in a research note released on Thursday morning.Analyst Advice And Earnings Insight: Blackhawk Network Holdings, Inc. (HAWK ... - Post AnalystThe Dimensional Fund Advisors LP Has $53491000 Position in Blackhawk Network ... - Petro Global News 24'
p4
aS'Blackhawk Network Holdings, Inc. Announces Offering of $425 Million of ... PR Newswire  - Jul 20, 2016 PLEASANTON, Calif., July 20, 2016 /PRNewswire/ -- Blackhawk Network Holdings, Inc.   announced today that it intends to offer $425 million aggregate principal amount of convertible senior notes due 2022 through a&nbsp;...'
p5
aS'Blackhawk Network Holdings Inc.  Moves Higher on Volume Spike for ... Equities.com - Feb 17, 2017 Blackhawk Network Holdings Inc.  traded on unusually high volume on Feb. 17, as the stock gained 5.88% to close at $36.00.Blackhawk Network Holdings, Inc.  Trading Down 9% on Disappointing Earnings - Chaffey Breeze'
p6
aS"Blackhawk Network Holdings  CEO Talbott Roche on Q3 2016 Results ... Seeking Alpha - Oct 12, 2016 Welcome to Blackhawk Network's Third Quarter 2016 Earnings Conference Call. For those on the audio-only dial-in, your lines have been placed on listen-only until the question-and-answer session.Blackhawk Network Appoints David Tate to Senior Vice President, US Retail - PR Newswire Why Blackhawk Network Holdings Inc  Is Ticking Up - Scibility Media"
p7
aS'Blackhawk Network Acquires Extrameasures PR Newswire  - Mar 31, 2016 Blackhawk Network Holdings, Inc.  is a leading prepaid and payments global company, which supports the program management and distribution of gift cards, prepaid telecom products and financial service products in a number of different&nbsp;...'
p8
aS"Blackhawk Network Holdings Inc.  Moves Higher on Volume Spike for ... Equities.com - Feb 23, 2017 Blackhawk Network Holdings Inc.  traded on unusually high volume on Feb. 23, as the stock gained 1.2% to close at $37.90.Analyst's Predictions on Blackhawk Network Holdings, Inc. , US Foods ... - StockNewsJournalShares of Blackhawk Network Holdings, Inc.  Sees Large Outflow of Money - Energy Index"
p9
aS"Blackhawk Network: Headwinds Gaining Strength Seeking Alpha - Jul 27, 2016 Easy benefits expected out of the spin-off are gone; investors in 'show me' mode might wait for more clarity on growth and profitability before getting excited."
p10
a.