(lp0
S'Home Bancorp Inc.  Moves Higher on Volume Spike for March 17 Equities.com - 17 hours ago Home Bancorp Inc.  traded on unusually high volume on Mar. 17, as the stock gained 0.69% to close at $34.84. On the day, Home Bancorp Inc. saw 12,902 shares trade hands on 49 trades. Considering that the stock averages only a daily volume of&nbsp;...Next Weeks Broker Price Targets For Republic First Bancorp, Inc.  - Fiscal Standard'
p1
aS'Home Bancorp, Inc.  Ex-Dividend Date Scheduled for February 02, 2017 Nasdaq - Jul 13, 2016 Home Bancorp, Inc.  will begin trading ex-dividend on February 02, 2017. A cash dividend payment of $0.13 per share is scheduled to be paid on February 17, 2017.'
p2
aS'Home Bancorp Inc.  Moves Higher on Volume Spike for March 01 Equities.com - Mar 1, 2017 Home Bancorp Inc.  traded on unusually high volume on Mar. 01, as the stock gained 1.25% to close at $36.45. On the day, Home Bancorp Inc. saw 16,886 shares trade hands on 145 trades. Considering that the stock averages only a daily volume of&nbsp;...'
p3
aS"Is Home Bancorp a Great Stock for Value Investors? Yahoo Finance - Feb 27, 2017 Home Bancorp, Inc. Price and Consensus | Home Bancorp, Inc. Quote. However the company's earnings estimate for next year is not favorable.Is Home Bancorp a Great Stock for Value Investors? February 27, 2017 - Zacks.com"
p4
aS'The Brokerages Anticipate Home Bancorp, Inc.  to Post $0.57 EPS Petro Global News 24 - Mar 15, 2017 Home Bancorp, Inc.  has received a consensus broker rating score of 2.50  from the two analysts that cover the stock, Zacks Investment Research reports.Brokerages Anticipate Home Bancorp, Inc.  to Post $0.57 EPS - Chaffey Breeze'
p5
aS'Stock Returns: Home Bancorp Inc  is Beating ESSA Bancorp Inc ... CML News - Feb 10, 2017 This is a snapshot to compare the stock returns for ESSA Bancorp Inc  versus Home Bancorp Inc  . The stock return points we compare look at the last three-months, six-months and twelve-months.'
p6
aS'Home Bancorp, Inc.  Files Form 4 Insider Selling : Marc W Judice Sells 1 ... Energy Index - Mar 9, 2017 Home Bancorp, Inc. : Marc W Judice , director of Home Bancorp, Inc. sold 1 shares on Mar 2, 2017. The Insider selling transaction was reported by the company on Mar 6, 2017 to the Securities and Exchange Commission.Zacks: Home Bancorp, Inc.  Given $39.50 Consensus Target Price by Brokerages - The Cerbat Gem'
p7
aS'Home Bancorp, Inc.  Shares Bought by Raymond James Financial Services ... BNB Daily  - Feb 19, 2017 Home Bancorp logo Raymond James Financial Services Advisors Inc. increased its position in Home Bancorp, Inc.  by 0.1% during the fourth quarter, according to its most recent disclosure with the Securities and Exchange Commission&nbsp;...Home Bancorp, Inc.  Downgraded by Zacks Investment Research to Hold - Chaffey BreezeTerritorial Bancorp Inc.  Downgraded by Zacks Investment Research - The Cerbat Gem'
p8
aS'Stock Returns: Southern Missouri Bancorp Inc  is Beating Home ... CML News - Mar 3, 2017 This is a snapshot to compare the stock returns for Home Bancorp Inc  versus Southern Missouri Bancorp Inc  .'
p9
aS'Stock Returns: Greene County Bancorp Inc  versus Home Bancorp Inc ... CML News - Mar 1, 2017 This is a snapshot to compare the stock returns for Greene County Bancorp Inc  versus Home Bancorp Inc  .The Maltese Capital Management LLC Has $1274000 Position in Home Bancorp, Inc ... - DailyQuint'
p10
a.