(lp0
S'HFF Inc. Class A  Moves Higher on Volume Spike for March 17 Equities.com - 18 hours ago HFF Inc. Class A  traded on unusually high volume on Mar. 17, as the stock gained 1.55% to close at $30.82. On the day, HFF Inc. Class A saw 395,424 shares trade hands on 1,526 trades. Considering that the stock averages only a daily volume of&nbsp;...HFF, Inc.  Downgraded by Morgan Stanley to Underweight - The Cerbat GemBroker Outlook For The Week Ahead HFF, Inc.  - Fiscal Standard'
p1
aS'Hff, Inc.  Arranges $108M in JV Equity for Acquisition, Recapitalization ... StreetInsider.com - Feb 9, 2017 Holliday Fenoglio Fowler, L.P.  announced today that it has arranged a joint venture equity partnership and represented the partnership in the acquisition of a six-property industrial portfolio along with the recapitalization of an additional ...'
p2
aS'HFF Announces Launch of UK Operations Through Proposed Acquisition of Leon ... Business Wire  - Nov 1, 2016 DALLAS----HFF, Inc.   announced today that it expects to launch its U.K. operations through the proposed acquisition of Leon Partners Limited , a London-based independent real estate advisory firm focusing&nbsp;...'
p3
aS"BRIEF-HFF Inc has arranged $350 mln in combined financing Reuters - Mar 6, 2017 March 11 Puerto Rico's governor said on Saturday he has delivered a revised fiscal turnaround plan to the U.S. territory's financial oversight board that includes $262 million in additional revenue and changes to healthcare funding."
p4
aS'Dividend Darling in Focus: HFF, Inc.  Business Review - 14 hours ago HFF, Inc.  currently has a 10 year dividend growth rate of 0.00000. This number is calculated using the geometric average which provides the typical value of dividend growth over the specified period using the product of their values.'
p5
aS'HFF Completes Acquisition of Leon Partners in London Business Wire  - Jan 19, 2017 DALLAS----HFF, Inc.   announced today that it has successfully launched its U.K. operations with the completed acquisition of Leon Partners Limited , a London-based independent real estate advisory firm&nbsp;...'
p6
aS'BRIEF-HFF Inc Q4 earnings per share $0.70 Reuters - Feb 23, 2017 March 10 Bank shares have been the runaway winners of the post-election U.S. stock market boom as investors wagered that higher interest rates, lighter regulation, lower taxes and faster economic growth would boost profits for lenders.'
p7
aS'HFF Inc.: HFF Closes $368 Million Sale of 6-Property, Class A Office Portfolio ... The Wall Street Transcript - Mar 16, 2017 FLORHAM PARK, N.J.----Mar. 16, 2017-- Holliday Fenoglio Fowler, L.P.  announced today that it has closed the $368 million sale of a portfolio of six, Class A office properties totaling 1.1 million square feet in Northern New Jersey.'
p8
aS'HFF, Inc. Reports Fourth Quarter and Full Year 2016 Financial and Transaction ... Business Wire  - Feb 23, 2017 DALLAS----HFF, Inc.   reported today its financial and production volume results for the fourth quarter of 2016.'
p9
aS'HFF, Inc. Declares Special Cash Dividend for Shareholders of Record as of ... Business Wire  - Jan 24, 2017 DALLAS----HFF, Inc.  announced today that its Board of Directors has declared a special cash dividend of $1.57 per Common Share, payable February 21, 2017 to shareholders of record on February 9, 2017.'
p10
a.