(lp0
S'Is Hill-Rom Holdings Inc  In Sound Financial Health? Simply Wall St - 1 hour ago Out of the three major stock categories based on market capitalization, mid-cap stocks such as Hill-Rom Holdings Inc  with a market capitalization of USD $4,500 Million are the least popular among investors.Hill-Rom Holdings, Inc. : How technical indicators have come out? - Post AnalystHill-Rom Holdings In.  Moves Higher on Volume Spike for March 17 - Equities.com'
p1
aS"Hill-Rom Holdings, Inc., Nominates Mary Garrett and Nancy M. Schlichting To ... PR Newswire  - Jan 5, 2017 CHICAGO, Jan. 5, 2017 /PRNewswire/ -- The board of directors of Hill-Rom Holdings, Inc.,   has nominated Mary Garrett and Nancy M. Schlichting to stand for election as directors at the company's Annual Meeting of Shareholders on&nbsp;..."
p2
aS'Hill-Rom to Present at the Barclays Global Healthcare Conference PR Newswire  - Mar 1, 2017 CHICAGO, March 1, 2017 /PRNewswire/ -- Hill-Rom Holdings, Inc. , will present at the Barclays Global Healthcare Conference on Wednesday, March 15, 2017, in Miami, Florida.Successful Earnings Option Trading: Hill-Rom Holdings Inc  - CML NewsHill-Rom Holdings, Inc.  has been downgraded to Hold in a statement ... - Breaking Finance News'
p3
aS'Checking the Numbers for Hill-Rom Holdings, Inc.  Davidson Register - 22 hours ago Hill-Rom Holdings, Inc.  has a current Value Composite Score of 46. Using a scale from 0 to 100, a lower score would represent an undervalued company and a higher score would indicate an expensive or overvalued company.Stock in Focus: Hill-Rom Holdings, Inc.  - Rives Journal'
p4
aS'Form 4 Hill-Rom Holdings, Inc. For: Mar 14 Filed by: CLASSON ROLF A StreetInsider.com - Mar 16, 2017 Check this box if no longer subject to Section 16. Form 4 or Form 5 obligations may continue. See Instruction 1. 1. Name and Address of Reporting Person *. CLASSON ROLF A. , , . TWO PRUDENTIAL PLAZA, SUITE 4100. 180 NORTH&nbsp;...'
p5
aS'Hill-Rom To Acquire Mortara Instrument, Inc., A Leader In Diagnostic ... PR Newswire  - Jan 10, 2017 CHICAGO and MILWAUKEE, Jan. 10, 2017 /PRNewswire/ -- Hill-Rom Holdings, Inc.  , today announced that it has signed a definitive agreement to acquire Mortara Instrument, Inc. , a privately held leader in diagnostic&nbsp;...Hill-Rom Holdings  to Acquire Mortara Instrument for $330M - StreetInsider.com'
p6
aS'Hill-Rom Announces Launch Of $300 Million Private Placement PR Newswire  - Feb 9, 2017 CHICAGO, Feb. 9, 2017 /PRNewswire/ -- Hill-Rom Holdings, Inc.   today announced the planned private offering, subject to market and other conditions, of $300 million in aggregate principal amount of senior&nbsp;...'
p7
aS"Hill-Rom Enhances Surgical Solutions Portfolio with Launch of New Mobile ... PR Newswire  - Jan 30, 2017 PUCHHEIM, Germany, Jan. 30, 2017 /PRNewswire/ -- In response to hospitals' need to equip operating rooms with quality medical devices at a reasonable cost, Hill-Rom designed and developed the new TruSystem 3000 Mobile Operating Table."
p8
aS'Hill-Rom Holdings acquires Mortara Instruments for $330M Greater Milwaukee Today - Feb 1, 2017 In early January, Mortara Instruments was acquired by Hill-Rom Holdings Inc. for $330 million in cash. A tax benefit is expected to reduce to the price to $290 million.'
p9
aS'Hill-Rom Completes Acquisition Of Mortara Instrument PR Newswire  - Feb 14, 2017 CHICAGO and MILWAUKEE, Feb. 14, 2017 /PRNewswire/ -- Hill-Rom Holdings, Inc.  , has completed its acquisition of Mortara Instrument, Inc. , for $330 million in cash, primarily financed through a private offering of $300&nbsp;...Hill-Rom Holdings Inc  Research Coverage Started at Barclays PLC - Sports PerspectivesAnalysts Set Hill-Rom Holdings Inc  PT at $64.17 - The Cerbat Gem'
p10
a.