(lp0
S'HRG Group, Inc. Announces Sale of its Oil and Gas Business PR Newswire  - Jul 5, 2016 NEW YORK, July 5, 2016 /PRNewswire/ -- HRG Group, Inc.  today announced that its wholly-owned subsidiary, HGI Energy Holdings, LLC , has entered into an agreement to sell 100% of its equity interest&nbsp;...HRG Group  Unit to Sell Compass Production Partners in $145M Deal - StreetInsider.com'
p1
aS"Drilling Down Into HRG Group, Inc.  StockNewsJournal - 21 hours ago HRG Group, Inc.  is an interesting player in the Conglomerates space, with a focus on Conglomerates. The stock has been active on the tape, currently trading at $19.39, up from yesterday's close by 1.89%.Stock On the Run: HRG Group, Inc.  - HugoPressTrading Overview of Stock: HRG Group, Inc.  - Is stories"
p2
aS'HRG Group, Inc. Reports First Quarter Results PR Newswire  - Feb 7, 2017 7, 2017 /PRNewswire/ -- HRG Group, Inc. , a holding company that conducts its operations principally through its operating subsidiaries, today announced its consolidated results for the first quarter of Fiscal 2017 ...'
p3
aS'HRG GROUP, INC.  Files An 8-K Other Events Market Exclusive - Mar 16, 2017 On March 16, 2017, Spectrum Brands, Inc. , an indirect majority owned subsidiary of HRG Group, Inc. , launched a repricing transaction which, if successful, would replace all of its U.S.Featured Stock Update: HRG Group, Inc.  - HugoPressAnalysts Near-Term outlook: HRG Group, Inc. , Antero Resources ... - The USA Commerce'
p4
aS'HRG Group  CEO Omar Asali to Step Down; Company to Explore Strategic ... StreetInsider.com - Nov 17, 2016 HRG Group, Inc. , a holding company that conducts its operations principally through Spectrum Brands Holdings, Inc. , a branded consumer products company, and Fidelity &amp; Guaranty Life , a life insurance and annuity&nbsp;...HRG Group says it explores possible sale, CEO Asali plans exit - Seeking Alpha'
p5
aS"Analyst's Indicator Review for HRG Group, Inc. , Valley National Bancorp ... The USA Commerce - Mar 17, 2017 Presently HRG Group, Inc.  stock have an ABR of NA. This is built on a simplified 1 to 5 scale where 1 represents a Strong Buy and 5 a Strong Sell."
p6
aS"Checking the Overall Picture for HRG Group, Inc.  StockNewsJournal - Mar 15, 2017 HRG Group, Inc.  is an interesting player in the Conglomerates space, with a focus on Conglomerates. The stock has been active on the tape, currently trading at $18.72, up from yesterday's close by 0.92%.HRG Group Inc.  Moves Higher on Volume Spike for March 14 - Equities.comMake a note of Analyst's Recommendations: HRG Group, Inc. , DR Horton Inc ... - TRA"
p7
aS'HRG Group Inc.  Breaks into New 52-Week High on March 14 Session Equities.com - Mar 14, 2017 Shares of HRG Group Inc.  broke into a new 52-week high yesterday, hitting a peak of $18.89. Shares closed at $18.72 after opening at $18.48 for a move of 0.92%.'
p8
aS"HRG Group Inc.  Breaks into New 52-Week High on February 22 Session Equities.com - Feb 22, 2017 Shares of HRG Group Inc.  broke into a new 52-week high yesterday, hitting a peak of $18.34. Shares closed at $18.34 after opening at $18.14 for a move of 1.05%.Analyst's Predictions on AGNC Investment Corp. , HRG Group, Inc.  - StockNewsJournalHRG Group, Inc.  Analyst Estimates - The Independent Republic"
p9
aS"Shares Observed in Overbought Territory: HRG Group, Inc.  Aiken Advocate - 2 hours ago HRG Group, Inc. 's 14-day RSI reading has moved the stock into overbought range, reaching 81.81 after yesterday's close."
p10
a.