(lp0
S'IBERIABANK Corporation  Moves Lower on Volume Spike for March 17 Equities.com - 18 hours ago IBERIABANK Corporation  traded on unusually high volume on Mar. 17, as the stock lost 0.49% to close at $80.80. On the day, IBERIABANK Corporation saw 1.22 million shares trade hands on 7,261 trades. Considering that the stock averages only a&nbsp;...State Board of Administration of Florida Retirement System Has $1509000 ... - BBNS'
p1
aS'Iberia Bank Corporation to acquire Sabadell United Bank The Daily Advertiser - Mar 6, 2017 Iberia Bank Corporation, holding company of 129-year-old Iberia Bank, announced the signing of a definitive agreement under which Iberia will acquire Sabadell United Bank, headquartered in Miami, from Banco de Sabadell in a stock and cash transaction&nbsp;...'
p2
aS'Sabadell to be acquired for $1 billion South Florida Business Journal - Mar 1, 2017 IberiaBank Corp. announced its acquiring Miami-based Sabadell United Bank in a stock and cash deal valued at about $1.025 billion.'
p3
aS'Technical Indicator Review on Shares of IBERIABANK Corp  Rives Journal - 20 hours ago Traders may be focusing in on the ATR or Average True Range indicator when performing stock analysis. At the time of writing, IBERIABANK Corp  has a 14-day ATR of 0.48. The average true range indicator was developed by J. Welles Wilder in&nbsp;...'
p4
aS"Analyst Upgrades  IBERIABANK Corp  Stock Gets Upgraded By JMP ... Market Exclusive - Mar 10, 2017 Today, IBERIABANK Corp  stock received an upgrade by JMP Securities from Market Perform to Outperform. There are 3 hold ratings, 6 buy ratings on the stock.IBERIABANK Corporation  Moves Higher on Volume Spike for March 10 - Equities.comJefferies Group Weighs in on Iberiabank Corp.'s Q1 2017 Earnings  - Petro Global News 24"
p5
aS"IberiaBank strikes $1B deal to buy one of Florida's biggest banks Tampa Bay Business Journal - Feb 28, 2017 Kyle Keith was named Sabadell's market executive for Tampa Bay in 2015. IberiaBank will buy Sabadell for $803 million in cash and about 2.61 million Iberia shares, valued at $222 million.IBERIABANK Corporation  Moves Higher on Volume Spike for March 03 - Equities.comIberiaBank buys Sabadell for $1 billion - Sarasota Herald-Tribune"
p6
aS'Metropolitan Life Insurance Co. NY Boosts Position in IBERIABANK Corp  Chaffey Breeze - Mar 16, 2017 IBERIABANK Corp logo Metropolitan Life Insurance Co. NY boosted its stake in shares of IBERIABANK Corp  by 4.8% during the fourth quarter, according to its most recent disclosure with the Securities and Exchange Commission.IBERIABANK Corp  Upgraded to Outperform by JMP Securities - BNB Daily Common Share Dividend Yield of IBERIABANK Corporation  - Energy Index'
p7
aS'The IBERIABANK Corp  Upgraded to Outperform by JMP Securities Petro Global News 24 - Mar 16, 2017 JMP Securities upgraded shares of IBERIABANK Corp  from a market perform rating to an outperform rating in a research report released on Friday.'
p8
aS'Philip Morris International Inc.  Stake Decreased by Iberiabank Corp Sports Perspectives - 4 hours ago Philip Morris International logo Iberiabank Corp decreased its stake in Philip Morris International Inc.  by 57.3% during the fourth quarter, according to its most recent disclosure with the Securities and Exchange Commission.'
p9
aS'IBERIABANK Corporation  Moves Lower on Volume Spike for March 06 Equities.com - Mar 6, 2017 IBERIABANK Corporation  traded on unusually high volume on Mar. 06, as the stock lost 0.72% to close at $82.75. On the day, IBERIABANK Corporation saw 840,427 shares trade hands on 7,699 trades. Considering that the stock averages only a daily&nbsp;...IBERIABANK Corp  to Post Q1 2017 Earnings of $0.99 Per Share, SunTrust ... - Chaffey BreezeThe IBERIABANK Corp  Downgraded by Piper Jaffray Companies - DailyQuint'
p10
a.