(lp0
S"Why Immunomedics, Inc. Jumped Higher Today Motley Fool - Mar 9, 2017 The stock price going up after the deal was temporarily blocked may seem counterintuitive considering the deal for IMMU-132 was pretty solid, with Immunomedics getting $250 million upfront plus other milestone payments that could make the deal worth&nbsp;...Immunomedics Inc : Here's What's Happening - Insider Financial"
p1
aS'Immunomedics Outlines Revised Settlement Offer Rejected By venBio; Announces ... PR Newswire  - Mar 2, 2017 MORRIS PLAINS, N.J., March 2, 2017 /PRNewswire/ -- Immunomedics, Inc.   today announced that the Company offered venBio Select Advisor, LLC  a revised settlement proposal in connection&nbsp;...venBio Encourages Stockholders to Vote for Change at Immunomedics  - StreetInsider.com'
p2
aS'Immunomedics, Inc.  PT Set at $8.00 by Jefferies Group LLC BNB Daily  - Mar 17, 2017 Immunomedics logo Immunomedics, Inc.  has been given a $8.00 price target by investment analysts at Jefferies Group LLC in a note issued to investors on Thursday.Immunomedics, Inc.  Given a $8.00 Price Target at Jefferies Group LLC - Chaffey BreezeImmunomedics,Inc.  Files An 8-K Submission of Matters to a Vote ... - Market Exclusive'
p3
aS'Immunomedics Inc.  Soars 5.49% on March 10 Equities.com - Mar 10, 2017 Immunomedics Inc.  had a good day on the market for Friday March 10 as shares jumped 5.49% to close at $6.34. About 6.76 million shares traded hands on 25,042 trades for the day, compared with an average daily volume of 2.96 million shares out&nbsp;...'
p4
aS'Immunomedics Inc - Product Pipeline Review - 2016 PR Newswire  - Mar 7, 2017 The report provides comprehensive information on the therapeutics under development by Immunomedics Inc, complete with analysis by stage of development, drug target, mechanism of action , route of administration  and molecule type.'
p5
aS'Immunomedics Inc.  Soars 19.48% on March 09 Equities.com - Mar 9, 2017 Immunomedics Inc.  had a good day on the market for Thursday March 09 as shares jumped 19.48% to close at $6.01. About 17.48 million shares traded hands on 47,024 trades for the day, compared with an average daily volume of 2.79 million&nbsp;...'
p6
aS'Immunomedics Inc.  Breaks into New 52-Week High on March 14 Session Equities.com - Mar 14, 2017 Shares of Immunomedics Inc.  broke into a new 52-week high yesterday, hitting a peak of $6.65. Shares closed at $6.39 after opening at $6.37 for a move of 0.31%.'
p7
aS"Immunomedics sues venBio in attempt to thwart takeover of board Seeking Alpha - Feb 21, 2017 Immunomedics  comes out swinging ahead of its showdown with venBio Select Advisor LLC at its March 3 shareholders meeting.Immunomedics, Inc. : What's the Story? - StockNewsJournal"
p8
aS"Analyst's Proposition on Immunomedics, Inc. , Tailored Brands, Inc.  The USA Commerce - Mar 17, 2017 Presently Immunomedics, Inc.  stock have an ABR of 2.00. This is built on a simplified 1 to 5 scale where 1 represents a Strong Buy and 5 a Strong Sell."
p9
aS"Here's What's Moving Immunomedics, Inc.  and Ocera Therapeutics ... Market Exclusive - Mar 10, 2017 The company jumped on the back of some news relating to a deal with biotech company Seattle Genetics, Inc. . The latter had agreed to pick up the rights to Immunomedics' lead asset, a drug called IMMU-132, in exchange for a $250 million&nbsp;...Here's What's Moving Immunomedics, Inc.  And Ocera Therapeutics Inc  - Insider Monkey Biotechnology Volatile Stocks: Ocera Therapeutics, Inc. (NASDAQ:OCRX ... - Benchmark Monitor"
p10
a.