(lp0
S"Identiv Partners With DNP to Provide UHF RFID Tags for Infrastructure ... GlobeNewswire  - Mar 16, 2017 FREMONT, Calif., March 16, 2017  -- Identiv, Inc.  today announced that the company's ultra high-frequency  radio frequency identification  tags have been incorporated into a new system that monitors critical&nbsp;..."
p1
aS"Identiv Inc. INVE  Wall Street Journal - Feb 11, 2011 P/E Ratio : The Price to Earnings  ratio, a key valuation measure, is calculated by dividing the stock's most recent closing price by the sum of the diluted earnings per share from continuing operations for the trailing 12 month period ..."
p2
aS'Identiv Granted ISO 14001:2015 and ISO 9001:2015 Certification GlobeNewswire  - Mar 15, 2017 FREMONT, Calif., March 15, 2017  -- Identiv, Inc.  today announced that it has been awarded the sustainable, environmentally responsible ISO 14001:2015 standard and the new quality management ISO 9001:2015.'
p3
aS'Hot Stocks Report: Identiv, Inc. , Cancer Genetics, Inc.  Post Analyst - 22 hours ago Identiv, Inc. has a consensus outperform rating from 2 Wall Street analysts, and the number of shares currently sold short amount to at least 1.63% of shares outstanding.'
p4
aS'Is Identiv Inc  Finding its Groove? Business Review - Mar 15, 2017 Over the past five sessions, Identiv Inc  has pulled in nice gains, moving higher 14.60% over the past five sessions.'
p5
aS'Identiv Inc  Raised to Buy at Zacks Investment Research The Cerbat Gem - Mar 16, 2017 Identiv Inc logo Zacks Investment Research upgraded shares of Identiv Inc  from a hold rating to a buy rating in a research note issued to investors on Monday.The Identiv Inc  Upgraded to Buy by Zacks Investment Research - Petro Global News 24How has Identiv, Inc. performed recently? - The Daily Leicester'
p6
aS"What Investors Should Know About Identiv Inc's  Financial Strength? Simply Wall St - Mar 8, 2017 Investors are always looking for growth in small-cap stocks like Identiv Inc  with its market cap of USD $54 Million."
p7
aS'Zacks Investment Research Upgrades Identiv Inc  to Buy Chaffey Breeze - Mar 15, 2017 Identiv logo Identiv Inc  was upgraded by Zacks Investment Research from a hold rating to a buy rating in a note issued to investors on Monday.'
p8
aS'Identiv Appoints Sandra Wallach as Chief Financial Officer GlobeNewswire  - Feb 16, 2017 FREMONT, Calif., Feb. 16, 2017  -- Identiv, Inc.  today announced that effective February 16, 2017, Sandra Wallach has been appointed Chief Financial Officer  of Identiv.Sandra Wallach has been appoint as CFO of Identiv  - KC Register'
p9
aS'Identiv and Cisco to Provide Next-Generation Physical Access Solutions for the ... GlobeNewswire  - Apr 15, 2015 FREMONT, Calif., April 15, 2015  -- Identiv, Inc.  today announced that it has entered into an agreement with Cisco Systems Inc.  to provide solutions for the Internet of Everything .INVE, CSCO: Identiv Inc Stocks Soars on Cisco Systems, Inc. Deal - Investorplace.com'
p10
a.