(lp0
S'Investors Bancorp Inc.  Moves Higher on Volume Spike for March 17 Equities.com - 18 hours ago Investors Bancorp Inc.  traded on unusually high volume on Mar. 17, as the stock gained 0.97% to close at $14.59. On the day, Investors Bancorp Inc. saw 3.16 million shares trade hands on 13,039 trades. Considering that the stock averages only a&nbsp;...'
p1
aS"Notable Buzzer of Last Trading Day: Investors Bancorp, Inc.  Is stories - Mar 17, 2017 Investors Bancorp, Inc.'s  witnessed a gain of 0.63% in recent trading period with closing price of $ 14.45. The company's last traded volume of 1.52 million shares as compared to it's an average volume of 1.99 million shares.Analytical Guide for TripAdvisor, Inc. , Investors Bancorp, Inc. (ISBC ... - The USA CommerceZacks Rank on Investors Bancorp, Inc.  based on Estimated Earnings - Highland Mirror"
p2
aS'Price Alert: Investors Bancorp Inc  Stock Approaches Resistance ... CML News - 21 hours ago Price Alert: Investors Bancorp Inc  has now crossed into technical strength -- watch the technical oscillators for momentum gaps.'
p3
aS"Analyst's Predictions on Investors Bancorp, Inc. , BorgWarner Inc.  StockNewsJournal - Mar 16, 2017 Investors Bancorp, Inc.  have shown a high EPS growth of 17.40% in the last 5 years and has earnings decline of 17.10% yoy."
p4
aS"Investors Bancorp, Inc.  VP Richard Spengler Sells 60000 Shares of Stock Chaffey Breeze - Mar 14, 2017 Investors Bancorp logo Investors Bancorp, Inc.  VP Richard Spengler sold 60,000 shares of the company's stock in a transaction dated Monday, March 13th.Revenue Approximations Analysis: Five Below, Inc. , Investors Bancorp ... - StockNewsJournalBasic Consolidated EPS Of Investors Bancorp, Inc.  At $0.6456 - Equities Focus"
p5
aS'Stock Returns: Chemical Financial Corporation  versus Investors ... CML News - Mar 16, 2017 This is a snapshot to compare the stock returns for Chemical Financial Corporation  versus Investors Bancorp Inc  . The stock return points we compare look at the last three-months, six-months and twelve-months. At the end&nbsp;...'
p6
aS"Investors Bancorp Inc.  HugoPress - Mar 16, 2017 Barclays Downgrades Investors Bancorp Inc. 's stock to Underweight with no specific Price Target. This rating was issued on 12/06/16.The Richard Spengler Sells 60000 Shares of Investors Bancorp, Inc.  Stock - Petro Global News 24Insider Selling: Investors Bancorp, Inc.  VP Sells $872400.00 in Stock - The Cerbat Gem"
p7
aS"Analyst's Indicator Review for Diamondback Energy, Inc. , Investors ... The USA Commerce - Mar 13, 2017 Shares of Diamondback Energy, Inc.  dropped -0.02% to $101.46. During the trading on 03/10/2017, Company's stock ranged from $100.83 to $102.93."
p8
aS"Analyst's Proposition on Investors Bancorp, Inc. , AECOM  The USA Commerce - Feb 27, 2017 Shares of Investors Bancorp, Inc.  dropped -1.14% to $14.75. During the trading on 02/24/2017, Company's stock ranged from $14.66 to $14.81.Shares of Investors Bancorp, Inc.  Plunge -1.01% - Energy Index"
p9
aS"Traders Secrets on Investors Bancorp, Inc. , BWX Technologies, Inc.  StockNewsJournal - Mar 6, 2017 Investors who are keeping close eye on the stock of Investors Bancorp, Inc.  established that the company was able to keep return on investment at - in the trailing twelve month while Reuters data showed that industry's average stands at 0 ..."
p10
a.