(lp0
S'John B. Sanfilippo &amp; Son, Inc. Receives Graphic Design Awards for Innovative ... Business Wire  - Feb 22, 2017 ELGIN, Ill.----John B. Sanfilippo &amp; Son, Inc. , in partnership with Damen Jackson, announced today that it has received two Certificates of Excellence from the 2016 American Graphic Design Awards on behalf of its Fisher and&nbsp;...'
p1
aS'Is Growth on the Docket For John B. Sanfilippo &amp; Son, Inc. ? Business Review - Mar 17, 2017 John B. Sanfilippo &amp; Son, Inc.  currently has a 10-year dividend growth rate of -0.90830. This number is calculated using the geometric average which provides the typical value of dividend growth over the specified period using the ...'
p2
aS'John B. Sanfilippo &amp; Son, Inc. Voluntarily Recalls Snack Mix and Cashew ... FDA.gov - Mar 19, 2010 FOR IMMEDIATE RELEASE - March 19, 2010 - Elgin, IL - As a follow up to the voluntary recall of black pepper from Mincing Overseas Spice Company announced on March 5, 2010, John B. Sanfilippo &amp; Son, Inc.   announced&nbsp;...'
p3
aS'John B. Sanfilippo &amp; Son, Inc.  Ex-Dividend Date Scheduled for July 19, 2016 Nasdaq - Jul 18, 2016 John B. Sanfilippo &amp; Son, Inc.  will begin trading ex-dividend on July 19, 2016. A cash dividend payment of $2.5 per share is scheduled to be paid on August 04, 2016.'
p4
aS"News John B. Sanfilippo &amp; Son Inc.JBSS Wall Street Journal - Feb 11, 2011 P/E Ratio : The Price to Earnings  ratio, a key valuation measure, is calculated by dividing the stock's most recent closing price by the sum of the diluted earnings per share from continuing operations for the trailing 12 month period ..."
p5
aS'John B. Sanfilippo &amp; Son Inc.  Moves Higher on Volume Spike for March 09 Equities.com - Mar 9, 2017 John B. Sanfilippo &amp; Son Inc.  traded on unusually high volume on Mar. 09, as the stock gained 1.34% to close at $64.15.'
p6
aS'Stock Returns: John B. Sanfilippo &amp; Son Inc  versus Seneca Foods ... CML News - Feb 28, 2017 This is a snapshot to compare the stock returns for John B. Sanfilippo &amp; Son Inc  versus Seneca Foods Corporation  .'
p7
aS'John B. Sanfilippo &amp; Son: Nuts For A Bargain Seeking Alpha - Oct 25, 2012 In the 12 months since June 2011, in its 90th year of business, John B. Sanfilippo &amp; Son, Inc.  earned $17.1m.'
p8
aS'John B. Sanfilippo &amp; Son: Crazy For A Nuts Company Seeking Alpha - Oct 28, 2011 John B. Sanfilippo &amp; Son, Inc.  has been aggressively making changes to its business that we expect to have a material positive impact on shareholder value.'
p9
aS'Maker of Fisher Nuts, John B. Sanfilippo &amp; Son, Inc., Celebrates its 90th ... PR Newswire  - Mar 5, 2012 CHICAGO, March 5, 2012 /PRNewswire/ -- In 1922, Italian immigrant John B. Sanfilippo began a small pecan shelling company out of a rented store front on Larrabee Street in Chicago. He eventually joined his father, Gaspare, to open a small factory on&nbsp;...'
p10
a.