(lp0
S'Libbey Inc. Announces Appointment Of James C. Burmeister As Chief Financial ... PR Newswire  - Mar 17, 2017 TOLEDO, Ohio, March 17, 2017 /PRNewswire/ -- Libbey Inc., one of the largest glass tableware manufacturers in the world, today announced the appointment of James C.  Burmeister to the position of vice president, chief financial&nbsp;...'
p1
aS"Libbey's CFO pick has been VP at Andersons Toledo Blade - 11 hours ago Libbey Inc. has lured an executive from The Andersons Inc. to be its next chief financial officer. The Toledo table glass maker announced Friday that James Burmeister, 49, will take over the role March 30."
p2
aS'Libbey Inc.  Moves Higher on Volume Spike for March 17 Equities.com - 18 hours ago Libbey Inc.  traded on unusually high volume on Mar. 17, as the stock gained 3.58% to close at $14.18. On the day, Libbey Inc. saw 239,767 shares trade hands on 1,091 trades. Considering that the stock averages only a daily volume of 143,198 ...'
p3
aS'Third union OKs agreement with Libbey Inc. Toledo Blade - Oct 23, 2016 Members of International Association of Machinists Local 105 voted today to approve a deal with Toledo glassmaker Libbey Inc. IAM Local 105 went on strike Oct. 12, at the same time as the Glass Molders Plastics Local 59, while two other unions, United&nbsp;...'
p4
aS'Libbey Inc. Announces Departure Of Chief Financial Officer PR Newswire  - Dec 8, 2016 TOLEDO, Ohio, Dec. 8, 2016 /PRNewswire/ -- Libbey Inc., one of the largest glass tableware manufacturers in the world, today announced that Sherry Buck, vice president, chief financial officer, will be leaving the Company effective&nbsp;...New CFO named at Waters - Worcester Business JournalWaters Corporation names Sherry Buck as CFO - Seeking Alpha'
p5
aS'Libbey Inc. suddenly replaces its CEO with a board member Toledo Blade - Jan 13, 2016 John C. Orr, a director of Libbey since 2008 and former chief executive officer of Myers Industries Inc., has been named lead director.Libbey  Appoints New CEO; Issue Prelim. FY15 Sales Results - StreetInsider.com'
p6
aS'Libbey, Inc.  Ex-Dividend Date Scheduled for February 24, 2017 Nasdaq - Feb 23, 2017 Libbey, Inc.  will begin trading ex-dividend on February 24, 2017. A cash dividend payment of $0.117 per share is scheduled to be paid on March 14, 2017.'
p7
aS'Libbey Inc. Announces Third Quarter 2016 Financial Results PR Newswire  - Nov 3, 2016 Based in Toledo, Ohio, Libbey Inc. is one of the largest glass tableware manufacturers in the world. Libbey Inc. operates manufacturing plants in the U.S.'
p8
aS"New Libbey CEO to keep strategy Toledo Blade - Jan 14, 2016 The circumstances behind Stephanie Streeter's abrupt decision to resign her post as chief executive officer of Libbey Inc. remain cloudy, but the man tapped to succeed her said he expects to largely stay the course with the strategic plan she developed."
p9
aS'Libbey Inc.  Valuation in Focus Business Review - Mar 17, 2017 Libbey Inc.  has an ERP5 rank of 3672. The ERP5 Rank is an investment tool that analysts use to discover undervalued companies.'
p10
a.