(lp0
S'LaSalle Hotel Properties Declares Dividend for the First Quarter 2017 Yahoo Finance - Mar 15, 2017 LaSalle Hotel Properties  today declared a quarterly dividend of $0.45 per common share of beneficial interest for the quarter ending March 31, 2017.Shares of LaSalle Hotel Properties  Sees Large Outflow of Money - Energy Index'
p1
aS'LaSalle Hotel Properties  Moves Lower on Volume Spike for February 28 Equities.com - Feb 28, 2017 LaSalle Hotel Properties  traded on unusually high volume on Feb. 28, as the stock lost 2.46% to close at $28.90. On the day, LaSalle Hotel Properties saw 2.35 million shares trade hands on 12,722 trades. Considering that the stock averages only a&nbsp;...'
p2
aS"LaSalle Hotel Properties'  CEO Mike Barnello on Q4 2016 Results ... Seeking Alpha - Feb 24, 2017 Good afternoon, everyone and welcome to the fourth quarter 2016 earnings call and webcast for LaSalle Hotel Properties. I'm here today with Mike Barnello, our President and CEO and Ken Fuller, our CFO.How Does LaSalle Hotel Properties  Stack Up Right Now? - StockNewsJournalEarnings Guidance on LaSalle Hotel Properties - Energy Index"
p3
aS"Lookout for Price Target? Kite Pharma, Inc. , LaSalle Hotel Properties  StockNewsJournal - Mar 16, 2017 LaSalle Hotel Properties , maintained return on investment for the last twelve months at 3.94, higher than what Reuters data shows regarding industry's average.Stock Showing Surging Activity: LaSalle Hotel Properties  - HugoPressLaSalle Hotel Properties  Announces Quarterly Dividend of $0.45 - Chaffey Breeze"
p4
aS'Analytical Guide for LaSalle Hotel Properties , KBR, Inc.  Stakeholders Normangee Star - 10 hours ago Independent Portfolio Consultants Inc. boosted its position in shares of LaSalle Hotel Properties by 5.0% in the third quarter.Are Traders Stacks up now on Summit Hotel Properties, Inc.  - ClickLancashire'
p5
aS'Traders Secrets on LaSalle Hotel Properties , Clovis Oncology, Inc.  StockNewsJournal - Mar 14, 2017 LaSalle Hotel Properties  have shown a high EPS growth of 50.70% in the last 5 years and has earnings decline of 5.00% yoy.'
p6
aS'Stock Price of LaSalle Hotel Properties  Decreases -0.83% Energy Index - Mar 13, 2017 LaSalle Hotel Properties s trend and data analysis indicates that the stock price has dropped -5.65% in the past 12 Weeks , but analyzing the 6 month charts for the stock , the price continues to stay positive and keep the rally at 14.57% .'
p7
aS'LaSalle Hotel Properties Reports Fourth Quarter 2016 Results Business Wire  - Feb 22, 2017 LaSalle Hotel Properties is a leading multi-operator real estate investment trust. The Company owns 45 properties, which are upscale, full-service hotels, totaling approximately 11,300 guest rooms in 13 markets in nine states and the District of Columbia.'
p8
aS'LaSalle Hotel Properties Announces Sale of Hotel Deca in Seattle, WA Yahoo Finance - Feb 1, 2017 LaSalle Hotel Properties  today announced it has sold Hotel Deca in Seattle, Washington for $55.0 million to an affiliate of AJ Capital Partners.'
p9
aS"LaSalle Hotel Properties'  CEO Mike Barnello on Q3 2016 Results ... Seeking Alpha - Oct 20, 2016 Thank you, David. Good morning, everyone and welcome to the third quarter 2016 earnings call and webcast for LaSalle Hotel Properties. I am here today with Mike Barnello, our President and CEO and Ken Fuller, our CFO. Mike will discuss our third ..."
p10
a.