(lp0
S'Why Limelight Networks, Inc. Stock Popped Today Motley Fool - Mar 17, 2017 Shares of Limelight Networks, Inc.  jumped 15.4% today, after the company announced it had set a new peak online traffic record across its global content delivery network.Limelight Networks  Shares Up 10%, Sets New Online Traffic Delivery Record - StreetInsider.comLimelight Networks Inc.  Soars 15.45% on March 16 - Equities.com'
p1
aS'Limelight Networks Inc.  Moves Higher on Volume Spike for March 17 Equities.com - 18 hours ago Limelight Networks Inc.  traded on unusually high volume on Mar. 17, as the stock gained 1.97% to close at $2.59. On the day, Limelight Networks Inc. saw 911,658 shares trade hands on 2,696 trades. Considering that the stock averages only a daily&nbsp;...Can Limelight Networks, Inc.  Grab Upward Traction? - Morgan Research'
p2
aS'LIMELIGHT NETWORKS, INC.  Files An 8-K Other Events Market Exclusive - Mar 15, 2017 Limelight Networks, Inc. provides content delivery network services to deliver content over Internet. The Company operates a globally distributed, computing platform and provides services under the Orchestrate Platform, which include content delivery ...'
p3
aS'Why Limelight Networks, Inc. Stock Popped 18.9% in December Motley Fool - Jan 3, 2017 What happened. Shares of Limelight Networks Inc.  rose 18.9% in December, according to data provided by S&amp;P Global Market Intelligence, after the digital content delivery specialist detailed record traffic and issued strong 2017 guidance.'
p4
aS'How Limelight Networks, Inc. Gained 75% in 2016 Motley Fool - Jan 17, 2017 The content delivery network operator enjoyed a revival in 2016. The ever-volatile stock took a hit in July, as a patent dispute with rival Akamai Technologies  reached its end after eight years of court proceedings and appeals.'
p5
aS"Can We Learn Anything From The Technical Chart of Limelight Networks, Inc. ? NY Stock News - Mar 17, 2017 Limelight Networks, Inc.  has presented a rich pool of technical data in recent sessions. These are the trends we've been tracking and how we feel they should be played in the current environment."
p6
aS'Limelight Networks, Inc. to Issue Fourth Quarter 2016 Financial Results on ... Business Wire  - Dec 27, 2016 TEMPE, Ariz.----Limelight Networks, Inc.  will report financial results for the fourth quarter 2016 on Wednesday, February 8, 2017 at 4:00 p.m.Limelight Networks Inc.  Stock Rating Lowered by Zacks Investment Research - Sports Perspectives'
p7
aS'LimeLight Networks ends year with $73.9M loss Phoenix Business Journal - Feb 8, 2017 Limelight  reported a net loss of $3.9 million, or 4 cents per basic share for the fourth quarter of 2016, compared to a net loss of $4.1 million, or 4 cents per basic share in the fourth quarter of 2015.Limelight Networks Inc : Financial Strength Analysis - Simply Wall StLimelight Networks Reports Financial Results for the Fourth Quarter and Full ... - Business Wire '
p8
aS"MultiTV Selects Limelight Networks' Content Delivery Network to Simplify ... Business Wire  - Mar 7, 2017 TEMPE, Ariz.----Limelight Networks, Inc. , a global leader in digital content delivery, today announced that MultiTV is using Limelight's Orchestrate Platform to bring high-quality online video to more than 40 million ..."
p9
aS'Limelight Networks Inc.  Moves Higher on Volume Spike for February 23 Equities.com - Feb 23, 2017 Limelight Networks Inc.  traded on unusually high volume on Feb. 23, as the stock gained 1.22% to close at $2.49. On the day, Limelight Networks Inc. saw 1.14 million shares trade hands on 1,987 trades. Considering that the stock averages only a&nbsp;...Limelight Networks, Inc.  hit its 52 Week low of $1.17 on May 19 ... - The Newburgh PressEarnings Analysis: Limelight Networks, Inc.  - The Oracle Examiner'
p10
a.