(lp0
S'Comstock Mining Presenting at the 2017 MicroCap Conference GlobeNewswire  - Mar 16, 2017 VIRGINIA CITY, Nev., March 16, 2017  -- Comstock Mining Inc.   is pleased to announce that Corrado De Gasperis, Executive Chairman and CEO, will attend and present at the 2017 MicroCap&nbsp;...'
p1
aS'Comstock Mining Inc. MarketWatch - Apr 13, 2011 Check out the returns on our 8 Lazy Portfolios that are made up of low-cost buy-and-hold index funds.  How to create your own Lazy Portfolio.'
p2
aS'Comstock Mining reports 4Q loss Yahoo Finance - Mar 9, 2017  _ Comstock Mining Inc.  on Thursday reported a loss of $3.9 million in its fourth quarter. On a per-share basis, the Virginia City, Nevada-based company said it had a loss of 2 cents.Comstock Mining Inc  Short Interest Up 9.5% in February - The Cerbat Gem'
p3
aS'Comstock Mining Inc  Short Interest Update Chaffey Breeze - Mar 16, 2017 Comstock Mining logo Comstock Mining Inc  was the target of a large growth in short interest in the month of February.'
p4
aS'GoldSpring Announces Name Change to Comstock Mining Inc. PR Newswire  - Jul 21, 2010 VIRGINIA CITY, Nev., July 21 /PRNewswire-FirstCall/ -- Comstock Mining Inc. , formerly known as GoldSpring, Inc.  announced today that it has changed its name from GoldSpring, Inc. to Comstock&nbsp;...'
p5
aS'Comstock Mining Announces Board Change GlobeNewswire  - Nov 3, 2016 Comstock Mining Inc. is a Nevada-based, gold and silver mining company with extensive, contiguous property in the Comstock District and is an emerging leader in sustainable, responsible mining.'
p6
aS'Revenue Update on Comstock Mining Inc Energy Index - Mar 14, 2017 Comstock Mining Inc announced the earnings results for Fiscal Year 2016 and Q4. The results came in during Pre-Market on Mar 9, 2017.The Short Interest in Comstock Mining Inc  Expands By 9.5% - Petro Global News 24Next Weeks Broker Price Targets For Comstock Mining, Inc.  - Fiscal Standard'
p7
aS'Comstock Mining Inc  Pulls in Gains For the Week Business Review - Mar 15, 2017 Pushing higher over the last five sessions are shares of Comstock Mining Inc . The stock has risen 6.52% over that span, yielding profits for savvy traders.'
p8
aS"Silver City, Comstock Mining at odds over zoning Reno Gazette Journal - Mar 1, 2017 While Comstock Mining Inc. expressed support of the Nevada Supreme Court's recent affirmation of the Third Judicial Court's decision on the Lyon County Commission's master plan amendment regarding Silver City, local citizens group Comstock Residents&nbsp;..."
p9
aS"Mover of Friday: Comstock Mining Inc.'s  stock price finalizes at $0.25 ... WsNews 4investors - 8 hours ago Comstock Mining Inc.  stock price tumbled -1.88% to finalize at $0.25 throughout previous buying and selling session."
p10
a.