(lp0
S"SeeThruEquity Issues Update on Lantronix, Inc. , Increasing ... Yahoo Finance - Mar 13, 2017 NEW YORK, NY / ACCESSWIRE / March 13, 2017 / SeeThruEquity, a leading independent equity research and corporate access firm focused on small-cap and micro-cap public companies, today announced it has issued an update on Lantronix, Inc. .Lantronix to Preview Industry's Smallest Embedded IoT Gateway, xPico 250 at ... - GlobeNewswire "
p1
aS"Lantronix - Microcap 'Internet Of Things' Stock Primed For Growth Seeking Alpha - Mar 13, 2017 The Internet of things  sector is projected to see tremendous growth in the next several years. Lantronix is a microcap IoT stock that is poised to capitalize on IoT growth in the industrial sector."
p2
aS'Howe Kevin C Picked Up Lantronix Inc.  Shares Small Cap Exclusive  - Feb 24, 2017 In a just published Form 13, filed with the US Securities and Exchange Commission , Lantronix Inc.  reported that Howe Kevin C has picked up 727,766 of common stock as of 2017-02-24.Lantronix, Inc.  Reviewed By Analysts - The De Soto Edge'
p3
aS'Lantronix, Inc.  in-depth technical analysis Post Analyst - Mar 16, 2017 Lantronix, Inc.  traded at an unexpectedly high level on 03/15/2017 when the stock experienced a 4.47 gain to a closing price of $3.04.Notable Stock Preview: Lantronix, Inc.  - Is stories'
p4
aS'Zacks: Brokerages Set $2.50 Target Price for Lantronix Inc  Chaffey Breeze - Mar 7, 2017 Lantronix logo Lantronix Inc  has been given an average broker rating score of 1.00  from the one analysts that provide coverage for the company, Zacks Investment Research reports.'
p5
aS"Lantronix: Left For Dead, This M2M/IoT Firm Sees 45% Upside Seeking Alpha - May 9, 2016 Lantronix hasn't made a net profit in years. Predictably, investors have left the Company for dead, with shares trading just around book."
p6
aS'Lantronix  Reaches $2.94 After 9.00% Up Move; Fmr Boosted Amgen (AMGN ... HuronReport - Mar 14, 2017 The stock of Lantronix Inc  is a huge mover today! About 148,599 shares traded. Lantronix Inc  has risen 129.75% since August 5, 2016 and is uptrending.Should You Sell Lantronix, Inc. Based On Current Broker Views? - NewsDen'
p7
aS'Lantronix Adding Investor Martin Hale Jr. to Board of Directors Marketwired  - Jun 16, 2016 IRVINE, CA-- - Lantronix, Inc.  , a specialized networking company providing smart IoT and M2M solutions, today announced that technology investor Martin Hale Jr.'
p8
aS'Lantronix  Catches Eye: Stock Adds 7.3% in Session Yahoo Finance - Mar 3, 2017 Lantronix, Inc. LTRX was a big mover last session, as its shares rose over 7% on the day. The move came on solid volume too with far more shares changing hands than in a normal session.'
p9
aS'CEO, CFO of Lantronix Step Down Orange County Business Journal - Jun 27, 2011 The chief executive and chief financial officer of Irvine networking gear maker Lantronix Inc. have stepped down over protracted tensions stemming from a board battle last year.'
p10
a.