(lp0
S"With Sales Sliding, Macy's Inc Explores New Frontiers Motley Fool - Mar 7, 2017 In this episode of Industry Focus: Consumer Goods, the team looks at the company's fourth quarter results and its plans for the future."
p1
aS"Macy's, Inc.'s Real-Estate Cash Machine Takes Off Motley Fool - Feb 24, 2017 For more than a year, Macy's  has been talking about monetizing some of its underutilized real estate. However, it wasn't until last quarter that Macy's started to generate large amounts of cash from real-estate sales. Many investors seem to be&nbsp;..."
p2
aS"What Did Macy's, Inc. Do With All Its Cash Last Quarter? Motley Fool - Feb 18, 2017 Profitability has been eroding at an alarming rate at Macy's  in the past two years, as shoppers have turned away from department stores as a whole."
p3
aS"Macy's - The Bull Case Seeking Alpha - Mar 13, 2017 Macy's is trading at or near the lowest multiples of the last 5-6 years due to the recent weakness. In this article, I present a value case for the stock, which I think is an attractive long at the current levels."
p4
aS"Macy's Inc  Ex-Dividend Date Scheduled for March 13, 2017 Nasdaq - Mar 10, 2017 Macy's Inc  will begin trading ex-dividend on March 13, 2017. A cash dividend payment of $0.377 per share is scheduled to be paid on April 03, 2017."
p5
aS"Macy's, Inc. Reports Weak Q4 Earnings, but Dillard's Earnings Were Even Worse Motley Fool - Feb 22, 2017 On Tuesday morning, Macy's  and Dillard's  kicked off earnings season for the department-store sector."
p6
aS"Hudson's Bay Co.: Is it a Buy Without Macy's Inc.? The Motley Fool Canada - Mar 7, 2017 News came out March 3 that Hudson's Bay Co.  couldn't line up the financing to buy Macy's Inc. , which sent HBC stock down almost 6%."
p7
aS"Macy's, Inc. Reports Fourth Quarter and FY2016 Results Yahoo Finance - Feb 21, 2017 Macy's, Inc.  today reported fiscal 2016 earnings per diluted share of $1.99, or $3.11 per diluted share excluding certain items discussed below.Macy's Inc  Earnings Beat Is Another Head Fake - Investorplace.comMacy's Q4 EPS Beats Estimates, Expects Sales Drop To Continue - Benzinga"
p8
aS"Macy's, Inc. Completes Sale of Downtown Minneapolis Property Yahoo Finance - Mar 1, 2017 Macy's, Inc.  today announced the completion of the sale of its downtown Minneapolis property located at 700 Nicollet Mall.Macy's Completes Sale of Downtown Minneapolis Location - KSTP.comNew owner lines up local firms for Macy's redo - Finance and Commerce"
p9
aS"Macy's Inc. Wants More Than Hudson's Bay Co. Can Afford. Now What? The Motley Fool Canada - Mar 9, 2017 Last month, we revealed that Hudson's Bay Co.  was considering acquiring Macy's Inc. , a company more than five times its size."
p10
a.