(lp0
S'MDC Holdings Inc.  Moves Lower on Volume Spike for March 17 Equities.com - 17 hours ago M.D.C. Holdings Inc.  traded on unusually high volume on Mar. 17, as the stock lost 2.55% to close at $30.21. On the day, M.D.C. Holdings Inc. saw 1.16 million shares trade hands on 5,995 trades. Considering that the stock averages only a daily&nbsp;...MDC Holdings, Inc.  Cut to Sector Perform at FBN Securities - The Cerbat GemInsider Trading at MDC Holdings Inc.? - BBNS'
p1
aS'MDC Holdings Inc.  Breaks into New 52-Week High on March 16 Session Equities.com - Mar 16, 2017 Shares of M.D.C. Holdings Inc.  broke into a new 52-week high yesterday, hitting a peak of $31.24. Shares closed at $31.00 after opening at $30.22 for a move of 3.02%.'
p2
aS"National Homebuilder Celebrates 40th Anniversary PR Newswire  - Feb 2, 2017 Though we've built thousands of homes over the years, we've tried to keep every experience personal,&quot; David D. Mandarich, President &amp; COO, M.D.C. Holdings, Inc. About M.D.C. Holdings, Inc. M.D.C. Holdings, Inc. was founded in 1972. MDC's homebuilding&nbsp;...MDC Holdings, Inc.  Stock Rating Upgraded by Zacks Investment Research - Sports PerspectivesMDC Holdings, Inc.  Issues Quarterly Earnings Results - The Cerbat Gem"
p3
aS"Insider Trading Activity MDC Holdings, Inc.   Director Sold 4400 ... Market Exclusive - Mar 9, 2017 Michael A. Berman , Director of M.D.C. Holdings, Inc.  reportedly Sold 4,400 shares of the company's stock at an average price of 29.88 for a total transaction amount of $131,472.00 SEC Form.MDC Holdings Inc.  Breaks into New 52-Week High on March 08 Session - Equities.comFmr LLC Buys 322344 Shares of MDC Holdings, Inc.  - Sports Perspectives"
p4
aS'MDC Holdings Inc.  Moves Higher on Volume Spike for February 10 Equities.com - Feb 10, 2017 M.D.C. Holdings Inc.  traded on unusually high volume on Feb. 10, as the stock gained 4.39% to close at $28.09. On the day, M.D.C. Holdings Inc. saw 937,699 shares trade hands on 6,803 trades. Considering that the stock averages only a daily&nbsp;...'
p5
aS'New York State Teachers Retirement System Has $2649000 Position in MDC ... The Cerbat Gem - 3 hours ago M.D.C. Holdings logo New York State Teachers Retirement System raised its stake in shares of M.D.C. Holdings, Inc.  by 5.0% during the fourth quarter, according to its most recent filing with the Securities and Exchange Commission .'
p6
aS"Richmond American's Seasons Collection Brings Price-Friendly Homes To Florida PR Newswire  - Dec 14, 2016 JACKSONVILLE, Fla., Dec. 14, 2016 /PRNewswire/ -- The Jacksonville Division of Richmond American Homes of Florida, Inc., a subsidiary of M.D.C. Holdings, Inc. , is pleased to announce the introduction of the Seasons Collection to the&nbsp;..."
p7
aS"MDC Holdings, Inc.  Director Sells $131472.00 in Stock BNB Daily  - Mar 14, 2017 M.D.C. Holdings logo M.D.C. Holdings, Inc.  Director Michael A. Berman sold 4,400 shares of the business's stock in a transaction that occurred on Wednesday, March 8th.MDC Holdings, Inc.  Director Herbert T. Buchwald Sells 4400 Shares - Chaffey BreezeMdc Holdings Inc  Files Form 4 Insider Selling : Herbert T Buchwald Sells ... - Energy Index"
p8
aS"Las Vegas Design Center Wins National Association of Home Builders' Silver Award PR Newswire  - Dec 13, 2016 LAS VEGAS, Dec. 13, 2016 /PRNewswire/ -- M.D.C. Holdings, Inc. , is pleased to announce that its Richmond American Homes of Nevada, Inc. subsidiary received the National Association of Home Builders'  prestigious Silver Award for&nbsp;..."
p9
aS"Insider Trading Activity MDC Holdings, Inc.   Director Sold 16250 ... Market Exclusive - Feb 25, 2017 David E. Blackford , Director of M.D.C. Holdings, Inc.  reportedly Sold 16,250 shares of the company's stock at an average price of 29.49 for a total transaction amount of $479,212.50 SEC Form.MDC Holdings, Inc.  Director Sells $292900.00 in Stock - BNB Daily David E. Blackford Sells 16250 Shares of MDC Holdings, Inc.  Stock - Community Financial News"
p10
a.