(lp0
S'MDU Resources Group Inc.  Moves Higher on Volume Spike for March 17 Equities.com - 18 hours ago MDU Resources Group Inc.  traded on unusually high volume on Mar. 17, as the stock gained 0.85% to close at $27.26. On the day, MDU Resources Group Inc. saw 3.08 million shares trade hands on 6,466 trades. Considering that the stock averages&nbsp;...MDU Resources Postpones Analyst Seminar Due to Inclement Weather - PR Newswire '
p1
aS'MDU Resources Group, Inc.  Ex-Dividend Date Scheduled for March 07, 2017 Nasdaq - Mar 6, 2017 MDU Resources Group, Inc.  will begin trading ex-dividend on March 07, 2017. A cash dividend payment of $0.192 per share is scheduled to be paid on April 01, 2017.MDU Resources Group Inc.: MDU Resources Announces Webcast of Analyst Seminar - The Wall Street TranscriptCompany Performance of MDU Resources Group, Inc.  Decreases -0.52% - Times Money'
p2
aS'MDU Resources Group Inc.  Moves Lower on Volume Spike for February 02 Equities.com - Feb 2, 2017 MDU Resources Group Inc.  traded on unusually high volume on Feb. 02, as the stock lost 5.03% to close at $26.42. On the day, MDU Resources Group Inc. saw 3.33 million shares trade hands on 21,890 trades. Considering that the stock averages&nbsp;...MDU Resources Group  Q4 2016 Results - Earnings Call Transcript - Seeking Alpha'
p3
aS"MDU Resources Group, Inc.  Files An 8-K Departure of Directors ... Market Exclusive - Feb 21, 2017 MDU Resources Group, Inc. is a diversified natural resource company. The Company's segments include Electric, Natural Gas Distribution, Pipeline and Midstream, Construction Materials and Contracting, Construction Services and Refining."
p4
aS'Stock Alert: MDU Resources Group Inc Price Volatility Hits A Substantially ... CML News - 17 hours ago Before we cover the full analysis we make a quick alert here that MDU Resources Group Inc  has seen its stock price move at a depressed level.'
p5
aS'Investor Update on Shares of MDU Resources Group, Inc.  Davidson Register - Mar 17, 2017 Investors may be tracking fundamental and technical data for MDU Resources Group, Inc. . The company has a current Value Composite Score of 33.'
p6
aS'MDU Resources Subsidiary Sells Large Nevada Community Solar Project PR Newswire  - Jan 24, 2017 BISMARCK, N.D., Jan. 24, 2017 /PRNewswire/ -- MDU Resources Group, Inc.  announced today that subsidiary MDU Construction Services Group Inc. recently sold its membership interests in Nevada Valley Solar Solutions II LLC to an affiliate&nbsp;...'
p7
aS'Reading the Numbers on Shares of MDU Resources Group, Inc.  Rives Journal - Mar 16, 2017 MDU Resources Group, Inc.  currently has a Gross Margin  ratio of 0.124046. Robert Novy-Marx has provided investors with insights on finding high-quality value stocks.'
p8
aS"MDU Resources Increases Dividend for 26th Consecutive Year PR Newswire  - Nov 17, 2016 BISMARCK, N.D., Nov. 17, 2016 /PRNewswire/ -- The MDU Resources Group  board of directors today increased the company's quarterly common stock dividend to 19.25 cents per share, for an annualized dividend of 77 cents per share."
p9
aS"Read this before buying MDU Resources Group Inc  for its upcoming $0.19 ... Simply Wall St - Mar 3, 2017 On the Sat 01 Apr 2017, MDU Resources Group  will pay shareholders of record a dividend of $0.19 per share, but investors must have settled ownership of the company's stock by the Tue 07 Mar 2017, in order to qualify. That means you have&nbsp;...The Martingale Asset Management LP Decreases Stake in MDU Resources Group Inc ... - DailyQuintTop Analysts Research on MDU Resources Group, Inc.  - Money Flow Index & Trends"
p10
a.