(lp0
S'MFA Financial, Inc.: High Yield Dividend Investors Should Consider This mREIT ... Seeking Alpha - Feb 20, 2017 Long-term investors of MFA Financial, Inc.  have been treated very well by this Mortgage REIT, yet there has only been three articles written about them on Seeking Alpha in the last fourteen months.Analyst EPS Forecast Coverage: MFA Financial, Inc.  - TWN'
p1
aS"Analyst's Predictions on RPC, Inc. , MFA Financial, Inc.  StockNewsJournal - Mar 16, 2017 MFA Financial, Inc. , maintained return on investment for the last twelve months at 8.64, higher than what Reuters data shows regarding industry's average.Active Volume Stock: MFA Financial, Inc.  - HugoPressThe Guggenheim Capital LLC Has $5392000 Stake in MFA Financial, Inc.  - Petro Global News 24"
p2
aS'Risk Malaise Alert in Option Market: MFA Financial Inc Implied Price Swing ... CML News - 18 hours ago Before we dive into any analysis we simply note that MFA Financial Inc  risk is actually priced pretty low by the option market as of right now.'
p3
aS"MFA Financial, Inc.  : How Do the Technicals Stack Up? The USA Commerce - Mar 16, 2017 We have gathered the technical data on MFA Financial, Inc. , and see some interesting trends in the stock's behavior of late."
p4
aS"MFA Financial, Inc. : From Top to Bottom StockNewsJournal - Mar 15, 2017 MFA Financial, Inc.  is an interesting player in the Financial space, with a focus on REIT - Diversified. The stock has been active on the tape, currently trading at $7.90, down from yesterday's close by -0.63%.Active Volume Stock Update: MFA Financial, Inc.  - HugoPressNoteworthy Stock: MFA Financial, Inc.  - Is stories"
p5
aS"Sell-Side Analyst's Predictions: MFA Financial, Inc. , Lumentum Holdings ... The USA Commerce - Mar 15, 2017 Shares of MFA Financial, Inc.  dropped -0.63% to $7.90. During the trading on 03/14/2017, Company's stock ranged from $7.89 to $7.97."
p6
aS"Today Analysts Focus on Kate Spade &amp; Company , MFA Financial, Inc.  StockNewsJournal - Mar 14, 2017 MFA Financial, Inc. , maintained return on investment for the last twelve months at 8.64, higher than what Reuters data shows regarding industry's average."
p7
aS'Consensus Earnings Estimate for MFA Financial, Inc. Energy Index - Mar 10, 2017 MFA Financial, Inc. Indepth Earnings, EPS and Estimated Revenue Guidance give detailed picture on the performance.'
p8
aS'Stock Returns: MFA Financial Inc  versus Starwood Property Trust Inc ... CML News - Mar 16, 2017 This is a snapshot to compare the stock returns for MFA Financial Inc  versus Starwood Property Trust Inc  .'
p9
aS'Zacks Rank on MFA Financial, Inc.  based on Estimated Earnings Highland Mirror - Mar 17, 2017 MFA Financial, Inc.  is a hold, according to the latest average broker rating of 3.4. The number of analysts in this rating is 5. Research Analysts at Zacks has the stock a rating of 3, which implies that the firms recommendation is Neutral ...Market Cap Of MFA Financial, Inc.  Of $2.99B - Equities FocusNews Recap: MFA Financial, Inc.  , Sanofi  - NYSE Journal '
p10
a.