(lp0
S'MGC Diagnostics Corporation to Report First Quarter Fiscal Year 2017 Financial ... PR Newswire  - Mar 1, 2017 SAINT PAUL, Minn., March 1, 2017 /PRNewswire/ -- MGC Diagnostics Corporation , a global medical technology company, today scheduled a conference call to discuss its financial results for the first quarter fiscal year 2017, ended&nbsp;...'
p1
aS"MGC Diagnostics Corporation Reports Fiscal 2017 First Quarter Results PR Newswire  - Mar 7, 2017 MGC Diagnostics Corporation , is a global medical technology company dedicated to cardiorespiratory health solutions.MGC Diagnostics'  CEO Todd Austin on Q1 2017 Results - Earnings Call ... - Seeking Alpha"
p2
aS"MGC Diagnostics Corporation  Files An 8-K Departure of Directors ... Market Exclusive - Mar 17, 2017 Effective March 16, 2017, Wesley W. Winnekins is no longer serving as Chief Financial Officer or an employee of MGC Diagnostics Corporation . The Company's Board of Directors has appointed Jill Burchill as Interim Chief Financial Officer&nbsp;..."
p3
aS'MGC Diagnostics Corporation Receives FDA 510 Clearance for Resmon PRO ... PR Newswire  - Jun 28, 2016 SAINT PAUL, Minn., June 28, 2016 /PRNewswire/ -- MGC Diagnostics Corporation , a global medical technology company, today announced that the U.S.'
p4
aS"MGC Diagnostics Corporation Declares $0.70 Per Share Special Cash Dividend and ... PR Newswire  - Jan 25, 2017 SAINT PAUL, Minn., Jan. 25, 2017 /PRNewswire/ -- MGC Diagnostics Corporation , a global medical technology company, announced today that its Board of Directors approved a special cash dividend of $0.70 per share on its&nbsp;...MGC Diagnostics'  CEO Todd Austin on Q4 2016 Results - Earnings Call ... - Seeking Alpha"
p5
aS'News MGC Diagnostics Corp.MGCD Wall Street Journal - Aug 21, 2012 News MGC Diagnostics Corp.MGCD. Significant News Only. 03/07/17; Press Release. MGC Diagnostics Corporation Reports Fiscal 2017 First Quarter Results.'
p6
aS'MGC Diagnostics Corporation Forms Distinguished Scientific Advisory Committee Yahoo Finance - Jul 14, 2016 SAINT PAUL, Minn., July 14, 2016 /PRNewswire/ -- MGC Diagnostics Corporation , a global medical technology company, announced today it has formed a scientific advisory committee comprised of physicians and scientists to assist in providing&nbsp;...'
p7
aS'Consensus Buys According to Analysts: MGC Diagnostics Corporation (NASDAQ:MGCD ... Sherwood Daily - 1 hour ago Sell-side analysts are offering a consensus Buy rating on shares of MGC Diagnostics Corporation . Using the following ratings scale: 1.0 Strong Buy, 2.0 Buy, 3.0 Hold, 4.0 Sell and 5.0 Strong Sell, analysts have an average&nbsp;...'
p8
aS'MGC Diagnostics Corporation Completes Acquisition of MediSoft SA PR Newswire  - Aug 1, 2014 1, 2014 /PRNewswire/ -- MGC Diagnostics Corporation , a leading global medical technologies company, announced today that it has completed its acquisition of MediSoft SA, a privately held manufacturer of cardiorespiratory diagnostic&nbsp;...'
p9
aS'MGC Diagnostics Corporation Completes Agreement to Acquire Medisoft SA PR Newswire  - Jul 14, 2014 SAINT PAUL, Minn., July 14, 2014 /PRNewswire/ -- MGC Diagnostics Corporation , a leading global medical technologies company, today announced that it has completed a stock purchase agreement to acquire Medisoft SA, a Sorinnes,&nbsp;...'
p10
a.