(lp0
S'MITEL NETWORKS CORPORATION  Files An 8-K Departure of Directors ... Market Exclusive - Mar 15, 2017 On March 10, 2017, upon the recommendation of the Nominating and Corporate Governance Committee of the Board of Directors  of Mitel Networks Corporation , Martha Bejar was appointed to the Board to a written resolution of&nbsp;...'
p1
aS'Mitel Networks Corp. downgraded after it exits mobile business Financial Post - Dec 20, 2016 Mitel Networks Corp. has been downgraded to sector perform at RBC Capital Markets after the Ottawa-based company said it was divesting its mobile division.Mitel UCaaS business to benefit from mobile division sale - TechTargetMitel Networks Corp.  Downgraded by Royal Bank Of Canada to Sector Perform - Sports Perspectives'
p2
aS'Insider Trading Activity Mitel Networks Corp   Insider Sold 2613 ... Market Exclusive - Mar 13, 2017 On 3/1/2017 Terence H Matthews, Chairman, sold 254,699 with an average share price of $6.64 per share and the total transaction amounting to $1,691,201.36.'
p3
aS"Is Mitel Networks Corporation's $2 Billion Purchase Good for Mitel Stock? The Motley Fool Canada - Apr 28, 2016 A couple of weeks has passed since Mitel Networks Corporation  announced it was buying California video-conferencing expert Polycom Inc.  for $2 billion."
p4
aS'Mitel - An Old Company Trying To Grow New Spots Seeking Alpha - Jan 9, 2017 Three weeks ago, Mitel announced that it was selling its mobility division at a significant loss. The mobility division had not produced the results that had been expected and had not really created the synergies that would be necessary to justify the ...'
p5
aS'Insider Trading Activity Mitel Networks Corp   Director Sold 513 ... Market Exclusive - Mar 3, 2017 On 3/1/2017 Sudhakar Ramakrishna, Director Sell, 513 $6.67 with an average share price of $3,421.71 View SEC Filing 3/1/2017 per share and the total transaction amounting to Terence H Matthews.'
p6
aS'Mitel Networks Corporation  Rises 5.33% for March 08 Equities.com - Mar 8, 2017 March 08 was a positive day for Mitel Networks Corporation  as its stock finished the day having gained 5.33% to hit a price of $9.29 a share.Stock Price of Mitel Networks Corporation  Increases 7.69% - Energy IndexMitel Networks Corp  Short Interest Up 99.6% in February - BNB Daily '
p7
aS"Why Mitel Networks, Inc. Stock Plunged Today Motley Fool - Apr 15, 2016 So what: Specifically, Polycom investors will receive $3.12 in cash and 1.31 shares of Mitel common stock for each share of Polycom they own.Mitel to buy Polycom for $1.96 billion following Elliott pressure - ReutersOttawa's Mitel Networks to buy Polycom video conference business for US$1.96 ... - Financial Post"
p8
aS'Mitel Networks Corporation: Mitel Completes Sale of Mobile Business The Wall Street Transcript - Feb 28, 2017 28, 2017  -- Mitel  , a global leader in real-time business communications, today announced the completion of the sale of its Mobile Division announced on December 19, 2016 to the parent company of Xura,&nbsp;...MITEL NETWORKS CORPORATION  Files An 8-K Completion of ... - Market ExclusiveMitel Networks Corp  Chairman Sells $1691201.36 in Stock - Sports Perspectives'
p9
aS'Stock Returns: Mitel Networks Corporation  versus NETGEAR Inc ... CML News - 18 hours ago This is a snapshot to compare the stock returns for Mitel Networks Corporation  versus NETGEAR Inc  .'
p10
a.