(lp0
S'MidWestOne Financial Group, Inc. Announces Pricing of Public Offering of ... Yahoo Finance - Mar 17, 2017 IOWA CITY, Iowa, March 17, 2017 /PRNewswire/ -- MidWestOne Financial Group, Inc.  , the parent company of MidWestOne Bank, announced today the pricing of an underwritten public offering of a total of 2,500,000 shares of its&nbsp;...MidWestOne Financial Group Inc.  Moves Lower on Volume Spike for March 17 - Equities.comMidWestOne Financial Group  Prices 2.5M Common Stock Offering at $34.25 ... - StreetInsider.com'
p1
aS'MidWestOne Financial Group, Inc. Announces Launch of Public Offering of Common ... PR Newswire  - Mar 16, 2017 IOWA CITY, Iowa, March 16, 2017 /PRNewswire/ -- MidWestOne Financial Group, Inc.  , the parent company of MidWestOne Bank, announced today the launch of an underwritten public offering of shares of its common stock&nbsp;...MidWestOne Financial Group, Inc.  Broker Price Targets For The ... - Fiscal StandardAnalysts Release Average Price Target Of 30.65 On MidWestOne Financial Group ... - UK Market News'
p2
aS'MidWestOne Financial Group Inc.  Moves Higher on Volume Spike for March 15 Equities.com - Mar 15, 2017 MidWestOne Financial Group Inc.  traded on unusually high volume on Mar. 15, as the stock gained 0.14% to close at $36.93.The Analysts Expect MidWestOne Financial Group, Inc.  to Announce $0.56 ... - Petro Global News 24Stock Returns: Horizon Bancorp  is Beating MidWestOne Financial ... - CML News'
p3
aS'MidWestOne Financial Group, Inc.  Ex-Dividend Date Scheduled for ... Nasdaq - Feb 24, 2017 MidWestOne Financial Group, Inc.  will begin trading ex-dividend on February 27, 2017. A cash dividend payment of $0.165 per share is scheduled to be paid on March 15, 2017.Analysts Set $38.67 Target Price for MidWestOne Financial Group, Inc.  - Sports PerspectivesMidWestOne Financial Group Inc  Upside Stock Technicals at ... - CML News'
p4
aS'Analysts Anticipate MidWestOne Financial Group, Inc.  to Post $0.56 ... Chaffey Breeze - Mar 16, 2017 MidWestOne Financial Group logo MidWestOne Financial Group, Inc.  has been assigned an average broker rating score of 2.00  from the three brokers that cover the stock, Zacks Investment Research reports.'
p5
aS'MidWestOne Financial Group Inc.  Moves Higher on Volume Spike for March 14 Equities.com - Mar 14, 2017 MidWestOne Financial Group Inc.  traded on unusually high volume on Mar. 14, as the stock gained 2.44% to close at $36.88.Median Target Of MidWestOne Financial Group, Inc.  At $38 - Markets DailyConsensus Review &amp; Target Check on MidWestOne Financial Group, Inc.  - Rockville Register'
p6
aS'MidWestOne Financial Group announces merger Iowa City Press Citizen - Nov 21, 2014 From a press release this morning: MidWestOne Financial Group, Inc., parent of MidWestOne Bank, headquartered in Iowa City, Iowa, and Central Bancshares, Inc., parent of Central Bank, headquartered in Golden Valley, Minnesota, have announced the&nbsp;...MidWestOne to acquire Minnesota-based bank system - Waterloo Cedar Falls CourierCentral Bank to be sold to MidWestOne Financial - Minneapolis / St. Paul Business Journal '
p7
aS"The Zacks Analyst Blog Highlights: MidWestOne Financial Group, Brooks ... Yahoo Finance - Feb 14, 2017 Every day the Zacks Equity Research analysts discuss the latest news and events impacting stocks and the financial markets. Stocks recently featured in the blog include MidWestOne Financial Group, Inc. , Brooks Automation,&nbsp;...5 Stocks to Buy as Trump Chalks Out 'Phenomenal' Tax Plan - Zacks.com"
p8
aS"MidWestOne Financial Group's  CEO Charles Funk on Q4 2016 Results ... Seeking Alpha - Jan 27, 2017 Hello and welcome to the MidWestOne Financial Group Inc. 2016 Fourth Quarter Earnings Conference Call. All participants will be in listen-only mode."
p9
aS'MidWestOne Financial Group Inc.  Moves Lower on Volume Spike for March 08 Equities.com - Mar 8, 2017 MidWestOne Financial Group Inc.  traded on unusually high volume on Mar. 08, as the stock lost 0.27% to close at $36.70.'
p10
a.