(lp0
S'Mercury Systems Inc  Moves Higher on Volume Spike for March 17 Equities.com - 18 hours ago Mercury Systems Inc  traded on unusually high volume on Mar. 17, as the stock gained 1.87% to close at $39.82. On the day, Mercury Systems Inc saw 1.01 million shares trade hands on 4,229 trades. Considering that the stock averages only a daily&nbsp;...Insider Trading at Mercury Systems Inc? - Chaffey Breeze98717 Shares in Mercury Systems Inc  Acquired by Russell Investments ... - Sports Perspectives'
p1
aS'Mercury Systems Receives $4.1M Order for High-Resolution Imaging Application GlobeNewswire  - Feb 7, 2017 CHELMSFORD, Mass., Feb. 07, 2017  -- Mercury Systems, Inc.  , announced it received a $4.1 million follow-on order from a leading defense prime contractor for wideband millimeter wave transceivers&nbsp;...Mercury Systems Inc  Stake Lowered by Barrow Hanley Mewhinney &amp; Strauss LLC - Sports Perspectives'
p2
aS'Mercury Systems Receives 2016 Enterprise Supplier Recognition Award from ... GlobeNewswire  - Feb 27, 2017 CHELMSFORD, Mass., Feb. 27, 2017  -- Mercury Systems, Inc.  , announced it received a 2016 Enterprise Supplier Recognition Award from Northrop Grumman.Mercury Systems Inc  Receives Consensus Rating of Buy from Analysts - Community Financial News'
p3
aS"Mercury Systems Announces Defense Industry's First DDR4 High Density Secure ... GlobeNewswire  - Mar 2, 2017 CHELMSFORD, Mass., March 02, 2017  -- Mercury Systems, Inc.  , announced the latest development in its high density secure memory product line, integrating double data rate fourth-generation&nbsp;...Mercury Systems Inc  Receives $31.75 Average Price Target from Analysts - The Cerbat Gem"
p4
aS'Stock Returns: Mercury Systems Inc  is Beating National Presto ... CML News - 18 hours ago This is a snapshot to compare the stock returns for Mercury Systems Inc  versus National Presto Industries Inc  .'
p5
aS'Mercury Systems Launches Mission Computing Product Line GlobeNewswire  - Feb 23, 2017 CHELMSFORD, Mass., Feb. 23, 2017  -- Mercury Systems, Inc.  , announced that it has launched the Mercury Mission Systems  product line to address the immediate needs for safety-critical&nbsp;...Mark Aslett Sells 9600 Shares of Mercury Systems Inc  Stock - The Cerbat Gem'
p6
aS'Mercury Systems Inc  Breaks into New 52-Week High on March 16 Session Equities.com - Mar 16, 2017 Shares of Mercury Systems Inc  broke into a new 52-week high yesterday, hitting a peak of $39.65. Shares closed at $39.09 after opening at $39.38 for a move of -0.33%.'
p7
aS'Mercury Systems to Acquire Mission Computing Company Creative Electronic Systems GlobeNewswire  - Nov 3, 2016 CHELMSFORD, Mass., Nov. 03, 2016  -- Mercury Systems, Inc.  , today announced that it has signed a definitive agreement to acquire CES Creative Electronic Systems, S.A.Mercury Systems  to Acquire CES in ~$38M Deal - StreetInsider.comMercury to Purchase CES for $38M in Defense Tech &amp; C4I Market Strategy - GovConWire'
p8
aS'Microsemi Announces Definitive Agreement to Divest Business to Mercury Systems ... PR Newswire  - Mar 23, 2016 ALISO VIEJO, Calif., March 23, 2016 /PRNewswire/ -- Microsemi Corporation , a leading provider of semiconductor solutions differentiated by power, security, reliability and performance, today announced it has entered into a definitive&nbsp;...Mercury acquisition embeds its presence in military systems - Defense SystemsMercury Computer Systems  to Acquire Three Business Units from Microsemi ... - StreetInsider.com'
p9
aS"Mercury Systems' Independent Chairman of the Board Vince Vitto Receives ... GlobeNewswire  - Nov 14, 2016 CHELMSFORD, Mass., Nov. 14, 2016  -- Mercury Systems, Inc.  , today announced that its Independent Chairman of the Board Vince Vitto was recently awarded the 2016 Eugene G. Fubini Award for&nbsp;..."
p10
a.