(lp0
S'IBM Buying Merge Healthcare For $1B To Bring Medical Image Analysis To Watson ... TechCrunch - Aug 6, 2015 IBM announced a huge deal today, agreeing to pay a billion dollars for Merge Healthcare, a medical imaging company it plans to fold into the Watson Health unit.IBM  to Acquire Merge Healthcare  in $1B Deal - StreetInsider.comIBM to Buy Merge for $1 Billion for Medical Imaging Tech - Bloomberg'
p1
aS"Merge Healthcare replaces CEO Crain's Chicago Business - Aug 9, 2013 Merge Healthcare Inc. announced today that its CEO resigned as Chairman Michael W. Ferro Jr. apologized for the company's very disappointing second-quarter results.Merge Healthcare CEO resigns - Chicago TribuneMerge CEO resigns over 'disappointing' sales - ModernHealthcare.com"
p2
aS"Chancery Won't Halt Suit Over $1B IBM Merge Healthcare Buy Law360  - Oct 27, 2015 Law360, Wilmington  -- A Delaware Chancery judge declined Tuesday to put a lawsuit challenging IBM's $1 billion takeover of Merge Healthcare Inc. on hold while similar litigation goes forward in Illinois, saying the case&nbsp;..."
p3
aS'Merge Healthcare Says $1B Sale To IBM Passes Muster Law360  - Sep 27, 2016 Law360, Wilmington  -- The former directors of Merge Healthcare Inc. told a Delaware Chancery Court judge Tuesday that its $1 billion sale to IBM in 2015 is compatible with state law, arguing that an investor suit&nbsp;...'
p4
aS"Shareholder sues to block Merge Healthcare sale to IBM, says deal not best ... Cook County Record - Aug 31, 2015 In his lawsuit, Savu claims Merge's value to IBM is worth far more than shareholders were offered. He also pointed to the company's financial statements, which indicate it has not only experienced substantial revenue growth in recent quarters, but is ..."
p5
aS'IBM Buys Merge Healthcare for $1B to Enhance Watson Unit Zacks.com - Oct 15, 2015 International Business Machines Corporation  recently declared that it has acquired leading medical imaging company, Merge Healthcare Inc. for about $1 billion. The acquisition is aimed at adding more capabilities to its growing ...'
p6
aS'UPDATE -- Merge Healthcare and AIM Specialty Health Join Forces to Support a ... GlobeNewswire  - Nov 24, 2015 CHICAGO, Nov. 24, 2015  -- Merge Healthcare, an IBM Company, has entered into an agreement with AIM Specialty Health  that intends to streamline the process providers undertake to obtain imaging study prior authorizations&nbsp;...'
p7
aS'IBM Closes Deal to Acquire Merge Healthcare PR Newswire  - Oct 13, 2015 ARMONK, N.Y. and CHICAGO, Oct. 13, 2015 /PRNewswire/ -- IBM  today announced that it has completed the acquisition of Merge Healthcare Incorporated, a leading provider of medical image handling and processing, interoperability and clinical ...'
p8
aS'Merge Healthcare and Greenway Health Collaborate to Automate the Medical ... GlobeNewswire  - Dec 16, 2015 CHICAGO, Dec. 16, 2015  -- Merge Healthcare, an IBM Company  and leading provider of clinical systems and innovations that seek to transform healthcare, today announced an agreement with Greenway Health which aims&nbsp;...'
p9
aS'Merge Healthcare Revenues Top, Earnings Rise Y/Y in Q1 Zacks.com - Apr 29, 2015 Merge Healthcare Incorporated reported first-quarter 2015 adjusted net income per share of 4 cents, a penny higher than the year-ago quarter.'
p10
a.