(lp0
S"Vail Resorts Inc.  Moves Higher on Volume Spike for March 17 Equities.com - 17 hours ago Vail Resorts Inc.  traded on unusually high volume on Mar. 17, as the stock gained 1.49% to close at $189.00. On the day, Vail Resorts Inc. saw 634,068 shares trade hands on 4,739 trades. Considering that the stock averages only a daily volume of&nbsp;...Vail Resorts, Inc.  Price Target Raised to $205.00 - Chaffey BreezeThe Brokers Set Expectations for Vail Resorts, Inc.'s Q4 2017 Earnings  - Petro Global News 24"
p1
aS"Vail Resorts: Seriously Why Don't You Want A Double Bagger? Seeking Alpha - Mar 10, 2017 For the past year and a half I have urged you, I have pounded the table on, and opined extensively on Vail Resorts, Inc. . Yet volume remains relatively light and the stock isn't anywhere near on most of your radars. This is a well-known ..."
p2
aS'Vail Resorts Inc.  Has Broken Out To A New High On Q2 Results Nasdaq - Mar 10, 2017  - Vail Resorts Inc.  reported second quarter EPS of $3.63 Friday morning, up from $3.14 in the prior year.Vail Resorts, Inc.  Files An 8-K Regulation FD Disclosure - Market ExclusiveVail Resorts Inc.  Climbed To A New High After Q2 Earnings Beat - RTT News'
p3
aS'Vail Resorts heads east to acquire Stowe Seeking Alpha - Feb 21, 2017 Vail Resorts  announces that it entered an agreement to acquire Stowe Mountain Resort from AIG subsidiary Mt. Mansfield Company for a purchase price of $50M.Vail Resorts to Buy Stowe Mountain Resort Operations From AIG - Wall Street Journal '
p4
aS'Vail Resorts, Inc.  Files An 8-K Entry into a Material Definitive ... Market Exclusive - Feb 27, 2017 Vail Resorts, Inc. is a holding company. The Company operates through three segments: Mountain, Lodging and Real Estate.Vail Resorts Announces Renewal Of Whistler Blackcomb Master Development Agreements - PR Newswire Zacks Investment Research Upgrades Vail Resorts, Inc.  to Hold - BNB Daily '
p5
aS'BRIEF-Vail Resorts to acquire Stowe Mountain resort for $50 mln Reuters - Feb 21, 2017 Feb 21 Vail Resorts Inc: * Vail resorts to acquire Stowe Mountain Resort in Stowe, Vermont. * Deal for purchase price of $50 million.'
p6
aS'Vail Resorts Reports Second Quarter Results First Tracks - Mar 14, 2017 Net income attributable to Vail Resorts, Inc. was $149.2 million for the second fiscal quarter of 2017, an increase of 27.5% compared to net income of $117.0 million for the second fiscal quarter of 2016.'
p7
aS"Form 3 VAIL RESORTS INC For: Mar 09 Filed by: O'Donnell James C. StreetInsider.com - Mar 17, 2017 Get instant alerts when news breaks on your stocks. Claim your 2-week free trial to StreetInsider Premium here. FORM 3, UNITED STATES SECURITIES AND EXCHANGE COMMISSION Washington, D.C."
p8
aS'Vail Resort stock climbs 3% as earnings blow past estimates, company raises ... MarketWatch - Mar 10, 2017 Shares of ski operator Vail Resorts Inc. MTN, -0.67% rose 3% in premarket trade Friday, after the company blew past earnings estimates for its latest quarter and said it is raising its dividend.'
p9
aS'Better Buy: Wynn Resorts Ltd. vs. Vail Resorts Motley Fool - Feb 27, 2017 For Wynn Resorts , fun means casino gaming, live entertainment, shopping, fine dining, and outdoor activities like golf and swimming.'
p10
a.