(lp0
S'Meritor Earns Top 20 Product Award from Heavy Duty Trucking Magazine for MFS ... PR Newswire  - Feb 28, 2017 Meritor, Inc. is a leading global supplier of drivetrain, mobility, braking and aftermarket solutions for commercial vehicle and industrial markets.'
p1
aS'Meritor Announces 14X HE  Tandem Drive Axle for North ... PR Newswire  - Feb 27, 2017 Meritor, Inc. is a leading global supplier of drivetrain, mobility, braking and aftermarket solutions for commercial vehicle and industrial markets.Meritor, Inc.  Receives $13.71 Average Price Target from Analysts - The Cerbat Gem'
p2
aS'Meritor Inc.  Breaks into New 52-Week High on March 16 Session Equities.com - Mar 16, 2017 Shares of Meritor Inc.  broke into a new 52-week high yesterday, hitting a peak of $17.04. Shares closed at $17.03 after opening at $16.93 for a move of 1.13%.'
p3
aS'A Look at the valuation of Meritor, Inc.  Business Review - 13 hours ago The ERP5 Rank is an investment tool that analysts use to discover undervalued companies. The ERP5 looks at the Price to Book ratio, Earnings Yield, ROIC and 5 year average ROIC.'
p4
aS'Meritor Virtual Reality App Showcases Advanced Product Solutions from Meritor PR Newswire  - Jan 24, 2017 Meritor, Inc. is a leading global supplier of drivetrain, mobility, braking and aftermarket solutions for commercial vehicle and industrial markets.Meritor Inc.  Upgraded at Zacks Investment Research - Sports Perspectives'
p5
aS'Meritor Expands FastSet No-Ream King Pin Kit Product Line PR Newswire  - Jan 24, 2017 Meritor, Inc. is a leading global supplier of drivetrain, mobility, braking and aftermarket solutions for commercial vehicle and industrial markets.'
p6
aS"Meritor Earns Diamond Supplier Award from Navistar PR Newswire  - Feb 20, 2017 TROY, Mich., Feb. 20, 2017 /PRNewswire/ -- Meritor, Inc.  announced today that it was among 34 suppliers to earn Navistar's Diamond Supplier Award, which recognizes the top 2 percent of Navistar's supply chain."
p7
aS"Meritor Launches New Global Brand Identity as Company Focuses on Strategic Growth PR Newswire  - Oct 3, 2016 TROY, Mich., Oct. 3, 2016 /PRNewswire/ -- Meritor, Inc.  today announced the launch of its new brand identity &quot;Run With The Bull,&quot; which reinforces the company's increased emphasis on sustainable growth."
p8
aS'Meritor Reports First-Quarter Fiscal Year 2017 Results PR Newswire  - Feb 1, 2017 Meritor, Inc. is a leading global supplier of drivetrain, mobility, braking and aftermarket solutions for commercial vehicle and industrial markets.'
p9
aS'Meritor Reports Fourth-Quarter and Fiscal Year 2016 Results PR Newswire  - Nov 16, 2016 Net income attributable to Meritor was $452 million, or $5.10 per diluted share, compared with a net loss of $21 million, or $0.22 per diluted share, in the prior year.'
p10
a.