(lp0
S'Maxwell Technologies Inc.  Moves Higher on Volume Spike for March 17 Equities.com - 18 hours ago Maxwell Technologies Inc.  traded on unusually high volume on Mar. 17, as the stock gained 9.47% to close at $5.78. On the day, Maxwell Technologies Inc. saw 1.72 million shares trade hands on 6,047 trades. Considering that the stock averages&nbsp;...Maxwell Technologies Inc.  Reaches $5.64 After 7.00% Up Move; Healthways ... - MoneyMakingArticlesIs this Large Market Cap Stock target price reasonable for Maxwell ... - The Daily Leicester'
p1
aS'Maxwell Technologies: Acquiring Nesscap Energy Part Of Aggressive Expansion Seeking Alpha - Mar 13, 2017 Maxwell Technologies , the California-based market leader in ultracapacitors, announced its intention to acquire Nesscap Energy , a small South Korean player in the ultracapacitor space, in conjunction with its Q4 and year-end ...'
p2
aS'Maxwell Technologies Expands Partnership with China Railway Rolling Stock ... PR Newswire  - Jan 31, 2017 SAN DIEGO, Jan. 31, 2017 /PRNewswire/ -- Maxwell Technologies, Inc. , a leading developer and manufacturer of capacitive energy storage and power delivery solutions, today announced a definitive agreement with CRRC Qingdao&nbsp;...'
p3
aS'Maxwell Technologies Announces Generator Starting Solutions for Commercial and ... PR Newswire  - Dec 12, 2016 SAN DIEGO, Dec. 12, 2016 /PRNewswire/ -- Maxwell Technologies, Inc. , a leading developer and manufacturer of ultracapacitor-based energy storage and power delivery solutions, today announced the Generator Starting Solutions &nbsp;...'
p4
aS"Maxwell Technologies Inc.  Moves Lower on Volume Spike for March 03 Equities.com - Mar 3, 2017 Maxwell Technologies Inc.  traded on unusually high volume on Mar. 03, as the stock lost 2.76% to close at $5.29. On the day, Maxwell Technologies Inc. saw 225,056 shares trade hands on 1,717 trades. Considering that the stock averages only a&nbsp;...Oppenheimer Holdings Comments on Maxwell Technologies Inc.'s Q1 2017 Earnings ... - The Cerbat GemMaxwell Technologies Inc. to Post Q1 2017 Earnings of  Per Share ... - Chaffey Breeze"
p5
aS"Maxwell Technologies: No Clear Catalyst To A Rebound Seeking Alpha - Nov 4, 2016 Maxwell's clients, of course, depend on those subsidies, and won't be inclined to purchase until everything is resolved and a new subsidy system is worked out."
p6
aS'Maxwell Technologies Inc.  Moves Higher on Volume Spike for March 10 Equities.com - Mar 10, 2017 Maxwell Technologies Inc.  traded on unusually high volume on Mar. 10, as the stock gained 1.56% to close at $5.21. On the day, Maxwell Technologies Inc. saw 271,472 shares trade hands on 1,463 trades. Considering that the stock averages only a&nbsp;...Maxwell Technologies, Inc.  Receives An Update From Brokers - The De Soto Edge'
p7
aS'Is Maxwell Technologies Inc. Destined for Greatness? Motley Fool - Jul 8, 2014 Maxwell Technologies has done an excellent job at improving its fundamentals over the past three years, and its progress earns it a strong five out of seven passing grades on our assessment today.'
p8
aS'Maxwell Technologies: Priced For An Implausible Implosion Seeking Alpha - Jun 1, 2016 About two months ago, I took a look at ultracapacitor maker Maxwell Technologies  with an article suggesting it was priced to the conservative side based on my discounted cash flow analysis.'
p9
aS'Maxwell Technologies Completes Sale of Microelectronics Product Line to Data ... PR Newswire  - Apr 27, 2016 SAN DIEGO, April 27, 2016 /PRNewswire/ -- Maxwell Technologies, Inc. , a leading developer and manufacturer of ultracapacitor-based energy storage and power delivery solutions, today announced that it has completed the previously&nbsp;...'
p10
a.