(lp0
S"Mr. Edens' Golf Entertainment Venue Looks Promising Seeking Alpha - Mar 14, 2017 Drive Shack , recently converted from REIT to C Corp is the vehicle for the Drive Shack golf themed entertainment destination."
p1
aS'BRIEF-Newcastle announces name change to Drive Shack Inc Reuters - Dec 8, 2016 Newcastle decides to change REIT status beginning in 2017 and announces name change to Drive Shack Inc. to facilitate transformation to a leisure company.'
p2
aS"Drive Shack Inc. Announces Fourth Quarter and Full Year 2016 Results and ... Yahoo Finance - Feb 28, 2017 Drive Shack Inc.'s Board of Directors declared dividends on the Company's preferred stock for the period beginning February 1, 2017 and ending April 30, 2017.Drive Shack Inc.  Files An 8-K Results of Operations and Financial ... - Market Exclusive"
p3
aS'Drive Shack Inc. Schedules Fourth Quarter &amp; Full Year 2016 Earnings Release ... Business Wire  - Feb 22, 2017 NEW YORK----Drive Shack Inc.  announced today that it will release its fourth quarter and full year financial results for the period ended December 31, 2016 on Tuesday, February 28, 2017 prior to the opening of&nbsp;...'
p4
aS'Analyst Views And Outlook On Two Stocks: Drive Shack Inc. , TerraVia ... Post Analyst - Mar 17, 2017 Drive Shack Inc. has a consensus outperform rating from 2 Wall Street analysts, and the number of shares currently sold short amount to at least 0.8% of shares outstanding.Are Institutions Cutting Back Their Holdings in Drive Shack Inc. ? - Winfield Review'
p5
aS'Investor Focus on Technical Levels for Drive Shack Inc  Baxter Review - 19 hours ago Drive Shack Inc  has a current 14-day RSI of 49.4, the 7-day is 51.37, and the 3-day is resting at60.94. The RSI, or Relative Strength Index is a widely used oscillating indicator among traders and investors.'
p6
aS'Newcastle Decides to Change REIT Status Beginning in 2017 and Announces Name ... Business Wire  - Dec 8, 2016 In response to the changes in the business, the Company will change its name to Drive Shack Inc. and will be publicly traded on the New York Stock Exchange under a new ticker DS.Newcastle Investment ditching REIT status, changing name - Seeking Alpha'
p7
aS"Here's Who Just Picked Up Drive Shack Inc.  Shares Small Cap Exclusive  - Mar 10, 2017 For those not familiar with the company, Drive Shack Inc., formerly Newcastle Investment Corp., is a leisure company. The Company previously operated as a real estate investment trust ."
p8
aS'Drive Shack: Business Transformation Has Low Near-Term Risk And High Long-Term ... Seeking Alpha - Feb 14, 2017 Drive Shack will have approximately $250m of unrestricted cash after liquidation of its debt portfolio .'
p9
aS"Insider Trading Activity Drive Shack Inc.   Director Bought 1000000 ... Market Exclusive - Mar 8, 2017 Wesley R Edens , Director of Drive Shack Inc.  reportedly Bought 1,000,000 shares of the company's stock at an average price of 4.2 for a total transaction amount of $4,200,000.00 SEC Form.The Drive Shack Inc.  Rating Reiterated by Imperial Capital - DailyQuint"
p10
a.