(lp0
S'Risk Malaise Alert in Option Market: Neogen Corporation Implied Price Swing ... CML News - 17 hours ago Before we dive into any analysis we simply note that Neogen Corporation  risk is actually priced pretty low by the option market as of right now.'
p1
aS"Neogen Corporation's  CEO Jim Herbert on Q2 2017Results - Earnings Call ... Seeking Alpha - Dec 21, 2016 Hello, and welcome to the Neogen Second Quarter Fiscal 2017 Earnings Results Conference Call. My name is Jason and I will be your operator."
p2
aS'Neogen acquires Preserve International and Tetradyne PR Newswire  - May 2, 2016 LANSING, Mich., May 2, 2016 /PRNewswire/ -- Neogen Corporation  announced today that it has acquired Preserve International and Tetradyne LLC, sister companies owned and operated by the private Nevada-based Preserve&nbsp;...Neogen acquires Nevada-based Preserve International and Tetradyne - MiBizNeogen: Acquisition boosts cleaner and disinfectant presence - FoodQualityNews.com'
p3
aS"Neogen selected by Scottish Gov't for beef herd improvement program PR Newswire  - Oct 27, 2016 AYR, Scotland, Oct. 27, 2016 /PRNewswire/ -- Neogen Corporation  announced today that its Scotland-based Neogen Europe subsidiary has been selected by Scottish Government to perform genomics testing as part of the government's&nbsp;..."
p4
aS"Neogen Corporation's  CEO Jim Herbert on Q1 2017 Results - Earnings Call ... Seeking Alpha - Sep 27, 2016 Good morning, and welcome to the Neogen First Quarter Fiscal 2017 Earnings Results. My name is Brandon, and I will be your operator for today."
p5
aS'Stock Tracker: Focusing on Shares of Neogen Corporation  Davidson Register - 23 hours ago Neogen Corporation  has a current Value Composite Score of 73. Using a scale from 0 to 100, a lower score would represent an undervalued company and a higher score would indicate an expensive or overvalued company.'
p6
aS'Stock Returns: The Spectranetics Corporation  is Beating Neogen ... CML News - Mar 16, 2017 This is a snapshot to compare the stock returns for Neogen Corporation  versus The Spectranetics Corporation  .'
p7
aS'Stock Levels in View for Neogen Corporation  Rives Journal - Mar 15, 2017 Neogen Corporation  currently has a Gross Margin  ratio of 0.330627. Robert Novy-Marx has provided investors with insights on finding high-quality value stocks.'
p8
aS'Stock Returns: Atrion Corporation  versus Neogen Corporation ... CML News - Mar 15, 2017 This is a snapshot to compare the stock returns for Atrion Corporation  versus Neogen Corporation  .Basic Consolidated EPS Of Neogen Corporation  At $0.9769 - Equities Focus'
p9
aS'Neogen Corporation  Broker Price Targets For The Coming Week Fiscal Standard - 4 hours ago Recently analysts working for various investment brokerages have changed their ratings and price targets on shares of Neogen Corporation . According to the the latest analyst ratings which have been released, 0 brokers have issued a&nbsp;...Neogen Corporation  Receives An Update From Brokers - The De Soto EdgeNeogen Co.  Downgraded by Zacks Investment Research - Chaffey Breeze'
p10
a.