(lp0
S'Newtek Business Services Corp.  Ex-Dividend Date Scheduled for March 16 ... Nasdaq - Mar 15, 2017 Newtek Business Services Corp.  will begin trading ex-dividend on March 16, 2017. A cash dividend payment of $0.36 per share is scheduled to be paid on March 31, 2017.Newtek Business Services Corp.  Upside Stock Technicals at ... - CML NewsThe NEWTEK Business Services Corp  to Issue Quarterly Dividend of $0.36 ... - Petro Global News 24'
p1
aS"Newtek Business Services Corp. Reports Full Year 2016 Financial Results GlobeNewswire  - Mar 6, 2017 LAKE SUCCESS, N.Y., March 06, 2017  -- Newtek Business Services Corp. , , an internally managed business development company , announced today its financial results for the&nbsp;...Newtek Business Services'  CEO Barry Sloane on Q4 2016 Results ... - Seeking AlphaNEWTEK BUSINESS SERVICES CORP.  Files An 8-K Results of ... - Market Exclusive"
p2
aS'17.15 MarketWatch - Dec 21, 2009 Newtek Business Services Corp. Watchlist CreateNEWTAlert. After Hours. Last Updated: Mar 16, 2017 4:04 p.m.. $ 17.15.'
p3
aS'Newtek Business Services Corp. Acquires Premier Payments LLC PR Newswire  - Jul 27, 2015 NEW YORK, July 27, 2015 /PRNewswire/ -- Newtek Business Services Corp. , , an internally managed business development company , today announced that it has acquired Premier Payments LLC, as a new&nbsp;...'
p4
aS'Average True Range Check on Newtek Business Services Corp  Rives Journal - 17 hours ago Traders may be focusing in on the ATR or Average True Range indicator when performing stock analysis. At the time of writing, Newtek Business Services Corp  has a 14-day ATR of 0.1. The average true range indicator was developed by J. Welles&nbsp;...'
p5
aS'Why Earnings Season Could Be Great for Newtek Business Services  Yahoo Finance - Mar 3, 2017 Investors are always looking for stocks that are poised to beat at earnings season and Newtek Business Services Corp. NEWT may be one such company.'
p6
aS'Newtek Business Services Corp. NEWT  Wall Street Journal - Feb 11, 2011 News Newtek Business Services Corp.NEWT. Significant News Only. 03/08/17; Press Release. Newtek to Present Today at the Raymond James 38th Annual Institutional Investors Conference.'
p7
aS'Newtek Business Services Corp. Opens New Office in Long Island, New York GlobeNewswire  - Apr 18, 2016 NEW YORK, April 18, 2016  -- Newtek Business Services Corp.  , an internally managed business development company , announced today that it opened and commenced operations from its new&nbsp;...'
p8
aS'Newtek to Present at the Raymond James 38th Annual Institutional Investors ... GlobeNewswire  - Feb 7, 2017 NEW YORK, Feb. 07, 2017  -- Newtek Business Services Corp. , an internally managed business development company , announced today that it has been invited to present at the Raymond James 38th Annual&nbsp;...Newtek Business Services Corp.  Raised to Buy at Zacks Investment Research - Sports Perspectives'
p9
aS'Newtek Business Services Corp. Acquires the Talent of Dean Choksi, CFA, as ... PR Newswire  - Apr 16, 2015 NEW YORK, April 16, 2015 /PRNewswire/ -- Newtek Business Services Corp., , an internally managed business development company , today announced that it has acquired the talent of Mr. Dean Choksi.'
p10
a.