(lp0
S'National Oilwell Varco Reaches Analyst Target Price Nasdaq - Mar 17, 2017 In recent trading, shares of National Oilwell Varco Inc  have crossed above the average analyst 12-month target price of $39.13, changing hands for $39.15/share.'
p1
aS'National Oilwell Varco, Inc.  Ex-Dividend Date Scheduled for March 15, 2017 Nasdaq - Mar 14, 2017 National Oilwell Varco, Inc.  will begin trading ex-dividend on March 15, 2017. A cash dividend payment of $0.05 per share is scheduled to be paid on March 31, 2017.'
p2
aS'Earnings Estimates Moving Higher for National Oilwell Varco : Time to Buy? Yahoo Finance - Mar 7, 2017 National Oilwell Varco, Inc. NOV is engaged in the manufacture of oil and gas drilling-related equipments. This company could be an interesting play for investors because, not only does the stock have decent short-term momentum, but it is seeing solid&nbsp;...National Oilwell Varco Inc.  Dips 3.47% for March 02 - Equities.com'
p3
aS'Stock Alert and Holding Pattern: National Oilwell Varco Inc Stock Volatility ... CML News - 16 hours ago Before we cover the full analysis we make a quick alert here that National Oilwell Varco Inc  has seen its stock price move at an inflection point level.'
p4
aS'National Oilwell Varco Inc Risk Points versus Energy CML News - Mar 10, 2017 This is a scatter plot analysis of the critical risk points from the option market for National Oilwell Varco Inc  compared to its own past and the Energy ETF.National Oilwell Varco Inc.  Moves Lower on Volume Spike for March 09 - Equities.comTaking a Look at the Data Behind National Oilwell Varco, Inc.  - StockNewsJournal'
p5
aS'Trade of the Day: National-Oilwell Varco, Inc.  Stock Is Undervalued Investorplace.com - Feb 24, 2017 National-Oilwell Varco, Inc.  - On Feb. 8 Credit Suisse raised NOV stock from underperform to neutral with the tagline The Tide Is Turning, and on Wednesday Morgan Stanley increased their long-term price target in a research report ...'
p6
aS'National Oilwell Varco Inc.  Rises 3.77% for March 15 Equities.com - Mar 15, 2017 Starting the day trading at $38.20, National Oilwell Varco Inc. reached an intraday high of $39.23 and hit intraday lows of $37.73.'
p7
aS"National Oilwell Varco, Inc. : What's the Story? StockNewsJournal - Mar 16, 2017 National Oilwell Varco, Inc.  is an interesting player in the Basic Materials space, with a focus on Oil &amp; Gas Equipment &amp; Services.The National-Oilwell Varco, Inc.  Downgraded to Buy at Vetr Inc. - Petro Global News 24National-Oilwell Varco, Inc.  Position Raised by Vident Investment ... - Chaffey Breeze"
p8
aS"Taking a Look at the Chart for National Oilwell Varco, Inc.  The USA Commerce - Mar 15, 2017 We have gathered the technical data on National Oilwell Varco, Inc. , and see some interesting trends in the stock's behavior of late."
p9
aS"Traders Secrets on National Oilwell Varco, Inc. , Masco Corporation  StockNewsJournal - Mar 17, 2017 Investors who are keeping close eye on the stock of National Oilwell Varco, Inc.  established that the company was able to keep return on investment at -12.09 in the trailing twelve month while Reuters data showed that industry's average ..."
p10
a.