(lp0
S'New York Community Bancorp Inc.  Moves Higher on Volume Spike for March 17 Equities.com - 18 hours ago New York Community Bancorp Inc.  traded on unusually high volume on Mar. 17, as the stock gained 0.21% to close at $14.39.NEW YORK COMMUNITY BANCORP, INC.  Files An 8-K Entry into a ... - Market ExclusiveShort Interest in New York Community Bancorp, Inc.  Declines By 16.7% - Chaffey Breeze'
p1
aS'New York Community Bancorp, Inc. Announces Completion of $515 Million Offering ... Business Wire  - Mar 17, 2017 WESTBURY, N.Y.----New York Community Bancorp, Inc.  , the parent company for New York Community Bank and New York Commercial Bank, today announced the completion of an underwritten public&nbsp;...'
p2
aS'New York Community Bancorp, Inc. Announces Pricing of Offering of $500 Million ... Yahoo Finance - Mar 10, 2017 New York Community Bancorp, Inc.  , the parent company for New York Community Bank and New York Commercial Bank, today announced the pricing of its underwritten public offering of 20,000,000 depositary shares, each&nbsp;...'
p3
aS'New York Community Bancorp, Inc. Announces Proposed Offering of Depositary ... Yahoo Finance - Mar 6, 2017 New York Community Bancorp, Inc.   today announced its intention, subject to market conditions, to offer depositary shares that will represent proportional ownership interests in shares of a new series of fixed-to-floating rate&nbsp;...Checking the Overall Picture for New York Community Bancorp, Inc.  - StockNewsJournal'
p4
aS"Equity Perception: Analyst's Indicator Review for New York Community Bancorp ... The USA Commerce - Mar 13, 2017 Shares of New York Community Bancorp, Inc.  dropped -0.41% to $14.40. During the trading on 03/10/2017, Company's stock ranged from $14.35 to $14.58.Significant Brokerage Ratings of Two Stocks: New York Community Bancorp, Inc ... - The Voice RegistrarAnalyst Stock Recommendations For Spirit Realty Capital, Inc. , New York ... - TWN"
p5
aS'New York Community Bancorp, Inc. Sets Date of 2017 Annual Meeting of Shareholders Business Wire  - Feb 27, 2017 WESTBURY, N.Y.----New York Community Bancorp, Inc.   today announced that Tuesday, June 6th, has been established as the date of its 2017 Annual Meeting of Shareholders.'
p6
aS'New York Community Bancorp Inc Risk Points versus Financials CML News - Mar 13, 2017 This is a scatter plot analysis of the critical risk points from the option market for New York Community Bancorp Inc  compared to its own past and the Financials ETF.'
p7
aS"Option Trading: New York Community Bancorp Inc  Winning Long Put ... CML News - Mar 10, 2017 We're going to look at a wonderful result using long put spreads for New York Community Bancorp Inc by pinpointing earnings risk, and then navigating around it."
p8
aS'New York Community Bancorp, Inc.  Technicals Are Painting A Bleak Picture USA Commerce Daily - 21 hours ago With all other things going on, New York Community Bancorp, Inc.  has been on a free fall - declining -14.41 percent in just three months.'
p9
aS'What Analysts Report Indicates About New York Community Bancorp, Inc. ? Transcript Daily - 19 hours ago New York Community Bancorp, Inc.  has raised a target price of $14.725 from analysts. It is subject to 10 approximations.'
p10
a.