(lp0
S'Oasis Petroleum Inc. : From Top to Bottom StockNewsJournal - 19 hours ago Oasis Petroleum Inc.  is an interesting player in the Basic Materials space, with a focus on Independent Oil &amp; Gas.Analyst Viewpoints on Rating and Recommendation: Oasis Petroleum Inc.  - Post RegistrarShort Interest in Oasis Petroleum Inc.  Grows By 11.4% - Chaffey Breeze'
p1
aS"Oasis Petroleum: 15% Production Growth At $55 Oil Seeking Alpha - Mar 1, 2017 Oasis Petroleum's  2017 guidance shows a company with positive momentum as the strong performance of its Wild Basin wells helps it raise its projected 2017 exit rate from 70,000 BOEPD to 72,000 BOEPD and its projected 2018 exit rate from over&nbsp;...Oasis Petroleum Inc.  Plunges 6.05% on March 02 - Equities.comStock Returns: Oasis Petroleum Inc  versus Ring Energy Inc  - CML News"
p2
aS"Oasis Petroleum Inc. Announces Quarter and Year Ending December 31, 2016 ... PR Newswire  - Feb 22, 2017 Completed and brought online the Company's natural gas processing plant and other midstream infrastructure in Wild Basin.OASIS PETROLEUM INC.  Files An 8-K Results of Operations and ... - Market ExclusiveStock Price of Oasis Petroleum Inc.  Decreases -2.59% - Energy Index"
p3
aS'Why Analysts put forward these two stocks: Oasis Petroleum Inc. (OAS ... The USA Commerce - Mar 17, 2017 Presently Oasis Petroleum Inc.  stock have an ABR of 1.60. This is built on a simplified 1 to 5 scale where 1 represents a Strong Buy and 5 a Strong Sell.Eye-Catching Stocks: PulteGroup, Inc. , Oasis Petroleum Inc.  - TRA'
p4
aS'Can Oasis Petroleum  Run Higher on Strong Earnings Estimate Revisions? Yahoo Finance - Mar 9, 2017 Oasis Petroleum Inc. OAS is an oil and natural gas explorer that could be an interesting play for investors. That is because, not only does the stock have decent short-term momentum, but it is seeing solid activity on the earnings estimate revision ...Oasis Petroleum Inc.  Moves Lower on Volume Spike for March 08 - Equities.comToday Analysts Focus on Oasis Petroleum Inc. , WPX Energy, Inc.  - StockNewsJournal'
p5
aS"Oasis Petroleum Inc.  : How Do the Technicals Stack Up? The USA Commerce - Mar 14, 2017 We have gathered the technical data on Oasis Petroleum Inc. , and see some interesting trends in the stock's behavior of late."
p6
aS'Option Market Alert: Oasis Petroleum Inc Implied Price Swing Hits An Elevated ... CML News - 17 hours ago No Risk Alert Here: Before we dive into any analysis we simply note that Oasis Petroleum Inc  risk is neither elevated nor depressed.'
p7
aS"Drilling Down Into the Charts for Oasis Petroleum Inc.  The USA Commerce - Mar 16, 2017 We have gathered the technical data on Oasis Petroleum Inc. , and see some interesting trends in the stock's behavior of late."
p8
aS"Analyst's Predictions on Gulfport Energy Corporation , Oasis Petroleum ... StockNewsJournal - Mar 14, 2017 Oasis Petroleum Inc. , maintained return on investment for the last twelve months at -4.39, higher than what Reuters data shows regarding industry's average."
p9
aS"The Picture Looks Much Better At Oasis Seeking Alpha - Feb 26, 2017 In this article I decided to revisit a firm I haven't written about too much, Oasis Petroleum, and see how it fared at the end of last year."
p10
a.