(lp0
S'Perry Ellis International Inc.  Moves Higher on Volume Spike for March 17 Equities.com - 17 hours ago Perry Ellis International Inc.  traded on unusually high volume on Mar. 17, as the stock gained 2.71% to close at $23.92.Perry Ellis International Inc.  Broker Price Targets For The ... - Fiscal Standard'
p1
aS'Perry Ellis International to Attend the Sidoti &amp; Company Spring 2017 Convention Nasdaq - Mar 15, 2017 MIAMI, March 15, 2017  -- Perry Ellis International, Inc.  announced today that the company will attend the Sidoti &amp; Company Spring 2017 Convention on March 29th, 2017 at the New York Marriott Marquis at Times&nbsp;...Perry Ellis International, Inc.  Position Boosted by Two Sigma ... - BNB Daily '
p2
aS'Perry Ellis International Names David Rattner as Chief Financial Officer GlobeNewswire  - Feb 6, 2017 MIAMI, Feb. 06, 2017  -- Perry Ellis International, Inc.  announced today the appointment of David Rattner as Chief Financial Officer of Perry Ellis International, Inc., reporting to Oscar Feldenkreis, CEO &amp; President of&nbsp;...'
p3
aS'Perry Ellis International: The Stock Returned 35% In Last 1 Year And Still It ... Seeking Alpha - Jan 2, 2017 Perry Ellis International  is one of such companies that also observed a challenging business environment in last few years.'
p4
aS"Perry Ellis International Announces Men's, Women's and Children's Watch ... Nasdaq - Mar 7, 2017 The Perry Ellis brand offers a full lifestyle sportswear collection: suit separates, mix and match shirts, trousers, knits, sweaters, outerwear and accessories.The Perry Ellis International Inc.  Given Consensus Recommendation of ... - DailyQuintMean Price Target Of Perry Ellis International Inc.  At $28.00 - Equities Focus"
p5
aS'Perry Ellis International Continues to Expand Nike Swim Distribution in Europe GlobeNewswire  - Jan 25, 2017 MIAMI, Jan. 25, 2017  -- Perry Ellis International, Inc.  announced today it has entered into Nike Swim distribution agreements in Europe with Action Sports Sportartikel GmbH Group for Germany, Austria, Switzerland,&nbsp;...Perry Ellis expands Nike Swim distribution in Europe - Seeking Alpha'
p6
aS'Perry Ellis International Enters Into Distribution Agreements for Nike Swim in ... GlobeNewswire  - Jan 20, 2017 MIAMI, Jan. 20, 2017  -- Perry Ellis International, Inc.  announced today that it has entered into Nike Swim distribution agreements in Latin America with R1 Sports Ltda in Brazil, Uldin SA in Argentina, Uruguay and&nbsp;...'
p7
aS"Perry Ellis International Announces Men's Accessories License for Perry Ellis ... GlobeNewswire  - Jan 31, 2017 MIAMI, Jan. 31, 2017  --  - Perry Ellis International announced today that it has entered into a license agreement with Morel S.A."
p8
aS'Perry Ellis International to Release Fiscal 2017 Fourth Quarter and Year End ... GlobeNewswire  - Mar 1, 2017 MIAMI, March 01, 2017  -- Perry Ellis International, Inc.  announced today that the Company will release its financial results for the fourth quarter and year end on Wednesday, March 22, 2017 before the market opens.'
p9
aS'Perry Ellis International Announces Bed and Bath Collection for Laundry GlobeNewswire  - Dec 15, 2016 MIAMI, Dec. 15, 2016  -- Perry Ellis International  announced today that it has entered into a license agreement with Jeffrey Home, a division of PKaufmann, Inc.,  to design and distribute bed and bath&nbsp;...'
p10
a.