(lp0
S'PolyOne Corporation  Moves Higher on Volume Spike for March 17 Equities.com - 17 hours ago PolyOne Corporation  traded on unusually high volume on Mar. 17, as the stock gained 0.86% to close at $34.06. On the day, PolyOne Corporation saw 703,153 shares trade hands on 2,766 trades. Considering that the stock averages only a daily&nbsp;...In Volatile Markets Do Analysts Think You Should Buy PolyOne Corporation (NYSE ... - The De Soto EdgeThrivent Financial for Lutherans Buys 1210 Shares of PolyOne Co.  - The Cerbat Gem'
p1
aS'Worldwide Acoustic Foam Insulation Market 2017-2022 with BASF, Techlite ... GlobeNewswire  - Mar 16, 2017 Industrial applications segment is expected to maintain global dominance in application segments, whereas China and India driven Asia Pacific region is expected to increase its regional share in global acoustic foam insulation.'
p2
aS"PolyOne Announces Amendment to Revolving Credit Facility PR Newswire  - Feb 27, 2017 CLEVELAND, Feb. 27, 2017 /PRNewswire/ -- PolyOne Corporation , a leading global provider of specialized polymer materials, services and solutions, today announced that the company has finalized an amendment to its Senior Secured&nbsp;...PolyOne Corp. raises its credit line by $50 million - Crain's Cleveland Business"
p3
aS'PolyOne Board Elects Kim Ann Mink as Director PR Newswire  - Mar 8, 2017 CLEVELAND, March 8, 2017 /PRNewswire/ -- PolyOne Corporation , a leading global provider of specialized polymer materials, services and solutions, announced that its Board of Directors has elected Kim Ann Mink as an independent director&nbsp;...'
p4
aS"A Tough Macro Environment Is Masking Some Improvement At PolyOne Seeking Alpha - Dec 6, 2016 A weaker economy has hurt PolyOne's revenue performance for more than two years, but management has at least addressed some of its own internal performance deficiencies over that time."
p5
aS'PolyOne Announces Fourth Quarter and Full Year 2016 Results PR Newswire  - Jan 27, 2017 CLEVELAND, Jan. 27, 2017 /PRNewswire/ -- PolyOne Corporation  today reported its fourth quarter and full year results for 2016.'
p6
aS'PolyOne Corporation  Ex-Dividend Date Scheduled for March 10, 2017 Nasdaq - Mar 9, 2017 PolyOne Corporation  will begin trading ex-dividend on March 10, 2017. A cash dividend payment of $0.135 per share is scheduled to be paid on April 06, 2017.'
p7
aS"PolyOne Corp. appoints James Sloan as treasurer Crain's Cleveland Business - Aug 29, 2016 Avon Lake-based polymer producer PolyOne Corp.  said it has named James N. Sloan as vice president and treasurer."
p8
aS"Robert Patterson takes over as PolyOne Corp. chairman Crain's Cleveland Business - May 13, 2016 &quot;Steve has admirably served PolyOne and its many stakeholders over the last decade, transforming the portfolio and culture to create a specialty growth company.PolyOne records sixth straight year of earnings growth - Plastics News"
p9
aS'PolyOne Corporation  Files An 8-K Departure of Directors or Certain ... Market Exclusive - Mar 10, 2017 Item 5.02. Departure of Directors or Certain Officers; Election of Directors; Appointment of Certain Officers; Compensatory Agreements of Certain Officers.'
p10
a.