(lp0
S'Progress Software Corporation  Moves Lower on Volume Spike for March 17 Equities.com - 17 hours ago Progress Software Corporation  traded on unusually high volume on Mar. 17, as the stock lost 0.65% to close at $28.91.Shares in Review: Progress Software Corporation  - Geneva JournalState Board of Administration of Florida Retirement System Has $1526000 ... - Sports Perspectives'
p1
aS"Progress Software shares fall after revenue miss CNBC - Jan 17, 2017 Progress Software shares plunged sharply Tuesday a day after the business software maker missed revenue estimates. The Massachusetts-based company posted earnings per share of 62 cents on revenue of $118 million on Monday.Progress Software Corporation  Moves Higher on Volume Spike for January 16 - Equities.comProgress Software's  CEO Yogesh Gupta on Q4 2016 Results - Earnings Call ... - Seeking Alpha"
p2
aS'Progress Software: Is This Stealthy Activist Making Progress? Seeking Alpha - Mar 30, 2016 Progress Software Corporation  is a global software company that simplifies the development, deployment and management of business applications.Progress Software Corporation  Stock | Shares Gap Down On Poor Earnings ... - TickerTV News Progress Software CFO, Chris Perkins, Announces Plans to Retire - Business Wire '
p3
aS'Progress Software Corporation  Ex-Dividend Date Scheduled for February ... Nasdaq - Feb 24, 2017 Progress Software Corporation  will begin trading ex-dividend on February 27, 2017. A cash dividend payment of $0.125 per share is scheduled to be paid on March 15, 2017.Progress Software Corporation  Valuation According To Analysts - UK Market NewsProgress Software Corporation  Given Buy Rating at the Benchmark Co. - Petro Global News 24'
p4
aS'Exclusive: Progress Software exploring sale - sources Reuters - Jan 14, 2016 Business software company Progress Software Corp is considering a sale as part of an exploration of strategic alternatives and has spoken to private equity firms about a potential deal, according to people familiar with the matter.'
p5
aS'A Look at the valuation of Progress Software Corporation  Business Review - 16 hours ago Progress Software Corporation  has an ERP5 rank of 4645. The ERP5 Rank is an investment tool that analysts use to discover undervalued companies.'
p6
aS"What You Must Know About Progress Software Corporation's  Financial Health Simply Wall St - Mar 5, 2017 Progress Software Corporation , with a market capitalization of USD $1,402 Million, is considered a small-cap company.Progress Software Corporation  Option Trading Earnings Short Puts - CML News"
p7
aS'Progress Software Corporation  Moves Higher on Volume Spike for February 16 Equities.com - Feb 16, 2017 Progress Software Corporation  traded on unusually high volume on Feb. 16, as the stock gained 0.94% to close at $29.13.Progress Software Corporation  Stake Raised by Martingale Asset ... - Sports PerspectivesDividend Growth of Progress Software Corporation - Highland Mirror'
p8
aS'Common Share Dividend Yield of Progress Software Corporation  Energy Index - Mar 15, 2017 Progress Software Corporation has a dividend payout ratio calculated based on  is 0.38 and the average fiscal quarterly payout ratio for last five years is 0.02.Short interest Of Progress Software Corporation  At 711816 - Markets Daily'
p9
aS'Progress Software Corporation  Moves Lower on Volume Spike for February 28 Equities.com - Feb 28, 2017 Progress Software Corporation  traded on unusually high volume on Feb. 28, as the stock lost 1.51% to close at $28.68.Option Market: Progress Software Corporation Risk Hits An Amplified Level - CML NewsProgress Software Corporation  Reviewed By Analysts - The De Soto Edge'
p10
a.