(lp0
S'QAD Inc  PT Raised to $33 at Canaccord Genuity StreetInsider.com - Mar 10, 2017 Canaccord Genuity raised its price target on QAD Inc  to $33.00  while maintaining a Buy rating.'
p1
aS'QAD Inc. - Overlooked Enterprise Software Name With 100% Upside Seeking Alpha  - Feb 23, 2015 QAD Inc.   was founded 35 years ago, and has grown to become a meaningful vendor of Enterprise Resource Planning  software to manufacturing companies.'
p2
aS'QAD Reports Fiscal 2017 Fourth Quarter and Full Year Financial Results Business Wire  - Mar 9, 2017 BUSINESS WIRE)--QAD Inc.  , a leading provider of enterprise business software and services designed for global manufacturing companies, today reported financial results for the fiscal 2017 fourth quarter and full year&nbsp;...Is QAD Inc  As Financially Strong As Its Low Debt-Load Indicates? - Simply Wall St'
p3
aS'QAD to Report Fiscal 2017 Fourth Quarter Financial Results and Host Conference ... GlobeNewswire  - Jan 13, 2017 SANTA BARBARA, Calif., Jan. 13, 2017  -- QAD Inc.  , a leading provider of enterprise business software and services for global manufacturing companies, will announce financial results for its fiscal&nbsp;...'
p4
aS'Dynamatic UK Migrates to QAD Cloud ERP to Modernize its Business Processes and ... Yahoo Finance - Mar 15, 2017 QAD Inc.  , a leading provider of enterprise software and services for global manufacturing companies, today announced that Dynamatic UK has chosen to migrate from on-premise QAD ERP to QAD Cloud ERP.'
p5
aS'Brokerages Set QAD Inc.  PT at $30.25 The Cerbat Gem - Mar 17, 2017 QAD logo Shares of QAD Inc.  have earned an average recommendation of Buy from the six ratings firms that are covering the stock.The QAD Inc.  Stock Rating Reaffirmed by Stifel Nicolaus - Petro Global News 24Should You Buy QAD Inc.  On Current Analyst Views? - Fiscal Standard'
p6
aS'QAD Inc.  PT Raised to $33.00 Chaffey Breeze - Mar 14, 2017 QAD logo QAD Inc.  had its target price hoisted by investment analysts at Stifel Nicolaus from $30.00 to $33.00 in a research report issued on Friday.The QAD Inc.  Downgraded by TheStreet to C - Petro Global News 24Stock Returns: PROS Holdings Inc  versus QAD Inc  - CML News'
p7
aS"QAD Inc  Climbing Higher 8.10% Business Review - Mar 16, 2017 QAD Inc  shares have seen strong upward momentum over the past week as they have moved higher 8.10% over the past five sessions, placing them on this week's winners list."
p8
aS'QAD Inc.  Set to Announce Quarterly Earnings on Thursday Chaffey Breeze - Mar 7, 2017 QAD Inc.  Set to Announce Quarterly Earnings on Thursday was published by Chaffey Breeze and is the sole property of of Chaffey Breeze.'
p9
aS'Scosche Industries Goes Live With QAD Cloud ERP and QAD Cloud BI Business Wire  - Dec 14, 2016 BUSINESS WIRE)--QAD Inc.  , a leading provider of enterprise software and services designed for global manufacturing companies, today announced that Scosche Industries has gone live with QAD Cloud ERP to help&nbsp;...'
p10
a.