(lp0
S'QCR Holdings Inc.  Moves Higher on Volume Spike for March 17 Equities.com - 18 hours ago QCR Holdings Inc.  traded on unusually high volume on Mar. 17, as the stock gained 1.04% to close at $43.80. On the day, QCR Holdings Inc. saw 63,792 shares trade hands on 382 trades. Considering that the stock averages only a daily volume of&nbsp;...Average Price Target Of 32.33 Issued For QCR Holdings, Inc.  - Fiscal Standard'
p1
aS'QCR Holdings, Inc.  Ex-Dividend Date Scheduled for March 15, 2017 Nasdaq - Mar 14, 2017 QCR Holdings, Inc.  will begin trading ex-dividend on March 15, 2017. A cash dividend payment of $0.05 per share is scheduled to be paid on April 05, 2017.Stock Returns: Pacific Mercantile Bancorp  versus QCR Holdings ... - CML NewsQCR Holdings, Inc.  to pay $0.05 on Apr 5, 2017; Martingale Asset ... - Herald KS'
p2
aS'QCR Holdings, Inc. Announces Plan to Acquire Community State Bank of Ankeny ... GlobeNewswire  - May 23, 2016 MOLINE, Ill., May 23, 2016  -- QCR Holdings, Inc.  today announced the signing of a definitive agreement to acquire Community State Bank , headquartered in Ankeny, Iowa, from Van Diest Investment Company.QCR to buy Ankeny bank in $80M deal - Quad City Times'
p3
aS'Price Alert: QCR Holdings Inc  Stock Approaches Resistance ... CML News - 21 hours ago Price Alert: QCR Holdings Inc  has now crossed into technical strength -- watch the technical oscillators for momentum gaps.'
p4
aS"QCR Holdings, Inc. Announces a Cash Dividend and Retirement of Chair of the Board GlobeNewswire  - May 18, 2016 MOLINE, Ill., May 18, 2016  -- QCR Holdings, Inc.  today announced that on May 13, 2016 the Company's board of directors declared a cash dividend of $0.04 per share payable on July 6, 2016, to stockholders of record&nbsp;..."
p5
aS'QCR Holdings Inc.  Moves Higher on Volume Spike for March 01 Equities.com - Mar 1, 2017 QCR Holdings Inc.  traded on unusually high volume on Mar. 01, as the stock gained 3.69% to close at $45.00. On the day, QCR Holdings Inc. saw 61,869 shares trade hands on 880 trades. Considering that the stock averages only a daily volume of&nbsp;...The QCR Holdings, Inc.  CEO Larry J. Helling Sells 3000 Shares - DailyQuint'
p6
aS'QCR Holdings Inc.  Breaks into New 52-Week High on February 23 Session Equities.com - Feb 23, 2017 Shares of QCR Holdings Inc.  broke into a new 52-week high yesterday, hitting a peak of $44.95. Shares closed at $44.80 after opening at $44.90 for a move of -0.11%.'
p7
aS"Trading Options During Earnings in QCR Holdings Inc  CML News - Mar 13, 2017 We're going to examine buying and selling out of the money strangles in QCR Holdings Inc and find out once and for all what the winning trades have been during earnings releases."
p8
aS'QCR Holdings, Inc. Announces the Acquisition of Community National ... GlobeNewswire  - May 14, 2013 MOLINE, Ill., May 14, 2013  -- QCR Holdings, Inc.  today announced the completion of its previously announced acquisition of Community National Bancorporation  and Community National Bank&nbsp;...'
p9
aS'QCR Holdings Inc.  Breaks into New 52-Week High on February 17 Session Equities.com - Feb 17, 2017 Shares of QCR Holdings Inc.  broke into a new 52-week high yesterday, hitting a peak of $44.90. Shares closed at $44.90 after opening at $44.05 for a move of 1.93%.QCR Holdings, Inc.  Under Analyst Spotlight - UK Market News'
p10
a.