(lp0
S"How QKL Stores Inc. Could Be Valued Over $10 Seeking Alpha - Aug 1, 2013 Note: This article covers a micro-cap stock. Please be aware of the risks associated with these stocks. QKL Stores Inc. , through its subsidiaries, engages in the operation of retail chain stores in the People's Republic of China."
p1
aS'Delisting of Securities of Fairway Group Holdings Corp., QKL Stores, Inc ... GlobeNewswire  - May 18, 2016 NEW YORK, May 18, 2016  -- The Nasdaq Stock Market announced today that it will delist the common stock Class A of Fairway Group Holdings Corp.'
p2
aS"Wall Street Watch-list: QKL Stores Inc.'s  stock price ends at $0.10 ... WsNews 4investors - Feb 17, 2017 QKL Stores Inc.'s  stock price unchanged 0.00% to finalize at $0.10 throughout previous buying and selling session."
p3
aS'Deferred Tax Assets Of QKL Stores, Inc.  At $2.0582 Millions RealistInvestor.com - Feb 13, 2017 QKL Stores, Inc.  reported accounts payable of $41.0623 millions for the year ended 2015-12-31. For the quarter ended 2015-12-31 it was $41.0623 millions.'
p4
aS'5 Best Stocks Under $5 This Week Investorplace.com - May 15, 2015 QKL Stores Inc  was one of the best performing of the inexpensive stocks this week, until a mid-day selloff on Friday.'
p5
aS'TOP GAINERS Today After Hours  Pulse Electronics, Marchex Inc, The Hackett ... StatesChronicle - Aug 7, 2013 A producer of precision-made electronic modules and components, PULS was trading at $6.45 up 14.1 pct during After Hours trade, with 1,540 traded shares.'
p6
aS"Hooper Holmes, Inc. : Hedge Funds Are Snapping Up Insider Monkey  - Dec 10, 2015 Let's now take a look at hedge fund activity in other stocks similar to Hooper Holmes, Inc. . These stocks are RLJ Entertainment Inc , Dex Media Inc , and QKL Stores Inc . This group of stocks'&nbsp;..."
p7
aS"Police: 2 suspects arrested Wednesday night are connected to suspects in ... The Denver Channel - Mar 3, 2016 Lakewood Police are still looking for the victim's Escort, which has Colorado plates QKL-268. Several local police departments and sheriff's office offer &quot;safe zones&quot; to conduct online sales transactions."
p8
aS"Victim shot during Craigslist exchange in Lakewood; Police say it was 'very ... The Denver Channel - Mar 1, 2016 Lakewood Police are still looking for the victim's Escort, which has Colorado plates QKL-268. Several local police departments and sheriff's office offer &quot;safe zones&quot; to conduct online sales transactions."
p9
aS'Qkl Stores Inc Files Form 12b-25, Automatic 10-K Extension Reuters Key Development - Mar 30, 2012 '
p10
a.