(lp0
S'Rubicon Technology  Names Timothy Brog as CEO StreetInsider.com - Mar 16, 2017 Rubicon Technology, Inc.  announced today that it has concluded its search for a new CEO and appointed Timothy E. Brog, as Chief Executive Officer, effective March 17, 2017.RUBICON TECHNOLOGY, INC.  Files An 8-K Entry into a Material ... - Market ExclusiveIn focus: Rubicon Technology, Inc.  Trading Patterns - Post Analyst'
p1
aS'Form 4 Rubicon Technology, Inc. For: Mar 15 Filed by: Brog Timothy StreetInsider.com - 16 hours ago Check this box if no longer subject to Section 16. Form 4 or Form 5 obligations may continue. See Instruction 1. 1. Name and Address of Reporting Person *. Brog Timothy. , , . C/O RUBICON TECHNOLOGY, INC.,. 900 EAST GREEN ST.,&nbsp;...'
p2
aS'Rubicon Technology: A Prime Target For Acquisition Seeking Alpha - Nov 17, 2016 Rubicon Technology  produces sapphire used in optical and industrial applications. RBCN has been unprofitable for 4 years and is ... To drive shareholder value, RBCN hired a merger/acquisition specialist onto the board that has recently ...'
p3
aS'Rubicon Technology: Trading Below NCAV Seeking Alpha - Jun 20, 2016 Rubicon Technology  manufactures and sells monocrystalline sapphire for LED, radio frequency circuits, and other optical applications.'
p4
aS'Long Rubicon Technology Inc.: The Time Is Right Seeking Alpha - Nov 25, 2014 Rubicon  - market cap $109.9m - is a company that is currently undervalued due to substantial increases in demand from an emerging and unsaturated market for sapphire.'
p5
aS'Does Zero-Debt Really Make Rubicon Technology Inc  A Financially Strong ... Simply Wall St - Feb 22, 2017 Rubicon Technology Inc , which has zero-debt on its balance sheet, can maximize capital returns by increasing debt.Brokers Change Their Target Price On Rubicon Technology, Inc.  - Fiscal Standard'
p6
aS'Why Rubicon Technology  Stock Is Soaring Today TheStreet.com - Oct 7, 2014 NEW YORK  -- Shares of sapphire glass supplier Rubicon Technology, Inc.  are up 6.88% to $4.28 after GT Advanced Technologies Inc  unexpectedly filed for Chapter 11 bankruptcy yesterday.'
p7
aS'Rubicon Technology Inc  Climbing Higher 10.18% Business Review - Mar 15, 2017 Pushing higher over the last five sessions are shares of Rubicon Technology Inc . The stock has risen 10.18% over that span, yielding profits for savvy traders.'
p8
aS'Rubicon Technology, Inc. Reports Second Quarter 2016 Results of Operations Business Wire  - Aug 9, 2016 BENSENVILLE, Ill.----Rubicon Technology, Inc. , a provider of sapphire substrates and products to the LED, optical and semiconductor industries, today reported financial results for its second quarter ended June 30, 2016.'
p9
aS'Rubicon Technology  to Close Penang, Malaysia Facility StreetInsider.com - Sep 13, 2016 Rubicon Technology, Inc.  announced plans to cease all production activities and shut down its Penang, Malaysia facility.Rubicon Technology factory in Penang to close down - Free Malaysia TodayRubicon closing Malaysia plant by end-2016 - Semiconductor Today'
p10
a.