(lp0
S"About: Robert Half  Seeking Alpha - Mar 16, 2017 Using Warren Buffett's value investing guidelines as a filter, I have found Robert Half International  to be a slightly overvalued high-quality company. I have added it to my watch list and will wait for a price pullback before establishing a ...Robert Half International Inc.  Given Consensus Rating of Hold by Analysts - The Cerbat GemCommon Share Dividend Yield of Robert Half International Inc.  - Energy Index"
p1
aS'Robert Half  Likely to Bounce Back: Should You Hold? Nasdaq - Mar 13, 2017 Robert Half International Inc. RHI has been grappling with numerous headwinds of late. A decline in U.S. staffing revenues and a tightening job market continues to put pressure on the skilled-labor supply.'
p2
aS'Robert Half International Inc.  in-depth technical analysis Post Analyst - 22 hours ago Robert Half International Inc.  traded at an unexpectedly low level on 03/16/2017 when the stock experienced a 1.42 gain to a closing price of $49.38.Zacks Rank on Robert Half International Inc.  based on Estimated Earnings - Energy IndexNext Weeks Broker Price Targets For Robert Half International Inc.  - Fiscal Standard'
p3
aS'Robert Half International Inc.  Ex-Dividend Date Scheduled for February ... Nasdaq - Feb 21, 2017 Robert Half International Inc.  will begin trading ex-dividend on February 22, 2017. A cash dividend payment of $0.24 per share is scheduled to be paid on March 15, 2017.Robert Half International Inc.  Shares Bought by Federated Investors Inc. PA - The Cerbat GemRobert Half International Inc.  To Go Ex-Dividend on February 22nd - BBNS'
p4
aS"Robert Half Again Named To 'World's Most Admired Companies' List Canada NewsWire  - Feb 16, 2017 MENLO PARK, Calif., Feb. 16, 2017 /CNW/ -- Robert Half International Inc.  announced today it has again ranked first in its industry on Fortune magazine's list of &quot;World's Most Admired Companies.&quot; Robert Half has appeared on the&nbsp;..."
p5
aS'Taking a Fresh Look at Robert Half International Inc.  StockNewsJournal - Mar 3, 2017 Robert Half International Inc.  is an interesting player in the Services space, with a focus on Staffing &amp; Outsourcing Services.Short Term Stock Rating on Robert Half International Inc.  - Energy IndexThe Robert Half International Inc.  Shares Bought by Federated Investors ... - DailyQuint'
p6
aS'Robert Half International Inc. - Receive News &amp; Ratings Daily BBNS - 3 hours ago inShare0. Robert Half International logo Comerica Bank lowered its position in shares of Robert Half International Inc.  by 22.3% during the fourth quarter, according to its most recent filing with the Securities and Exchange Commission .Robert Half International Inc.  Dividend Disbursement At $0.24 - Equities Focus'
p7
aS'Robert Half International Inc.  Moves Lower on Volume Spike for February 23 Equities.com - Feb 23, 2017 Robert Half International Inc.  traded on unusually high volume on Feb. 23, as the stock lost 0.56% to close at $47.98.'
p8
aS'Revenue Approximations Analysis: Robert Half International Inc. , Retail ... StockNewsJournal - Feb 24, 2017 ROI deals with the invested cash in the company and the return the investor realize on that money based on the net profit of the business.'
p9
aS"Average Brokerage Rating Of DexCom, Inc. , Robert Half International Inc ... The USA Commerce - Mar 13, 2017 Shares of DexCom, Inc.  surged 1.02% to $78.34. During the trading on 03/10/2017, Company's stock ranged from $76.85 to $78.50."
p10
a.