(lp0
S'Ruckus Wireless, Inc. Gains Momentum Motley Fool - Feb 10, 2016 Ruckus Wireless  released fourth-quarter 2015 results Tuesday after the market close. And though its quarterly performance might not look overwhelmingly positive at first glance, shares climbed as much as 19.7% early Wednesday as investors&nbsp;...'
p1
aS'Ruckus Wireless Expands 802.11ac Wave 2 Portfolio with ZoneFlex R610 and T610 PR Newswire  - Nov 15, 2016 SUNNYVALE, Calif., Nov. 15, 2016 /PRNewswire/ -- Ruckus Wireless, Inc., a part of Brocade, today announced the addition of two new access points  to the ZoneFlex familythe ZoneFlex R610 indoor AP and the ZoneFlex T610 outdoor AP.'
p2
aS'Ruckus Wireless Expands Cloudpath Ecosystem with New Security Partnerships PR Newswire  - Feb 16, 2017 16, 2017 /PRNewswire/ -- RSA Conference 2017, Booth N4410Ruckus Wireless, a part of Brocade, today announced new integrations between its Cloudpath software and products from leading network security vendors.'
p3
aS"Ruckus Wireless, Inc. Soars on Terrific Q2 Sales Motley Fool - Jul 29, 2015 Ruckus Wireless  reported second-quarter results after Wednesday's closing bell. The enterprise-class Wi-Fi networking expert beat Wall Street's revenue estimates by a wide margin."
p4
aS'Why Ruckus Wireless, Inc. Stock Skyrocketed More Than 30% Today Motley Fool - Apr 4, 2016 What: Shares of Ruckus Wireless  climbed more than 30% early Monday after the company announced a definitive agreement to be acquired by Brocade .Brocade to Acquire Ruckus Wireless to Build a Networking Company for the ... - Marketwired '
p5
aS'Ruckus Wireless Expands and Enhances Small Business Offering PR Newswire  - Feb 2, 2016 SUNNYVALE, Calif., Feb. 2, 2016 /PRNewswire/ -- Ruckus Wireless, Inc.  today announced a new, entry-level 802.11ac access point along with the expansion and enhancement of its family of Ruckus Unleashed access points.'
p6
aS'Why Ruckus Wireless Inc. Fell Friday Motley Fool - Oct 30, 2015 What: Shares of Ruckus Wireless  fell more than 14% on Friday morning. The maker of enterprise-scale Wi-Fi networking systems recorded solid third-quarter results on Thursday night, but followed up with something less than a glowing review&nbsp;...'
p7
aS'Ruckus Wireless Reports First Quarter 2016 Revenue of $100.6 million, up 22.5 ... PR Newswire  - May 2, 2016 Brocade and its acquisition subsidiary have filed a tender offer statement on Schedule TO and may later file amendments thereto, Brocade has filed a registration statement on Form S-4 and may later file amendments thereto, and Ruckus Wireless, Inc.'
p8
aS"Brocade Closed The Ruckus Acquisition; Now What? Benzinga - May 31, 2016 On May 27, Brocade Communications Systems, Inc.  announced that it had completed the acquisition of Ruckus Wireless Inc . Citi's Stanley Kovler maintains a Neutral rating on the company, with a price target of $8.50.One Reason Why Brocade  Stock Is Higher Today - TheStreet.com"
p9
aS'Ruckus Wireless Selected by AccorHotels as Preferred Wi-Fi Partner, Reaching ... PR Newswire  - Jun 20, 2016 NEW ORLEANS, June 20, 2016 /PRNewswire/ --  Today, at the Hospitality Industry Technology Exposition &amp; Conference , taking place this week at Ernest N. Morial convention center in New Orleans, Ruckus Wireless, Inc.'
p10
a.