(lp0
S'Realogy Holdings Corp.  Moves Higher on Volume Spike for March 17 Equities.com - 17 hours ago Realogy Holdings Corp.  traded on unusually high volume on Mar. 17, as the stock gained 5.21% to close at $29.27. On the day, Realogy Holdings Corp. saw 2.97 million shares trade hands on 15,165 trades. Considering that the stock averages only&nbsp;...Realogy Holdings Corp. : Analyst Rating Changes and PT Levels - Post AnalystZacks Rank on Realogy Holdings Corp.  based on Estimated Earnings - Energy Index'
p1
aS'Realogy Holdings Corp.  Ex-Dividend Date Scheduled for March 07, 2017 Nasdaq - Mar 6, 2017 Realogy Holdings Corp.  will begin trading ex-dividend on March 07, 2017. A cash dividend payment of $0.09 per share is scheduled to be paid on March 23, 2017.Realogy Holdings Corp.  loses confidence of 67 hedge fund managers - Post Analyst'
p2
aS'Realogy Holdings Corp. turned higher profit in 2016 Inman.com - Feb 24, 2017 Realogy Holdings Corp. increased profits in 2016, using more favorable commission splits and new technology to recruit and retain agents across its vast real estate brokerage and franchise empire.Realogy Declares Quarterly Cash Dividend Payable To Shareholders Of Record As ... - PR Newswire Realogy Holdings Corp.  Files An 8-K Results of Operations and ... - Market Exclusive'
p3
aS'Realogy Program Graduates its Second Class of Future Real Estate Brokerage Leaders PR Newswire  - Jan 31, 2017 Realogy congratulates the 38 participants that made up the 2017 graduating class of Ascend: The Executive Leadership Experience. This intensive 46-week program is offered exclusively to Realogy Holdings Corp. brand-affiliated real estate brokerage&nbsp;...'
p4
aS'Common Share Dividend Yield of Realogy Holdings Corp.  Energy Index - Mar 15, 2017 Realogy Holdings Corp. has a dividend payout ratio calculated based on  is 0.22 and the average fiscal quarterly payout ratio for last five years is 0.03.Basic Consolidated EPS Of Realogy Holdings Corp.  At $1.5017 - Equities Focus'
p5
aS'Ex-Dividend Reminder: Realogy Holdings, Cohen &amp; Steers and Southwest Airlines Nasdaq - Mar 3, 2017 Looking at the universe of stocks we cover at Dividend Channel , on 3/7/17, Realogy Holdings Corp , Cohen &amp; Steers Inc , and Southwest Airlines Co  will all trade ex-dividend for their respective upcoming&nbsp;...'
p6
aS'Realogy Holdings Corp.  Moves Lower on Volume Spike for February 08 Equities.com - Feb 8, 2017 Realogy Holdings Corp.  traded on unusually high volume on Feb. 08, as the stock lost 0.19% to close at $25.91. On the day, Realogy Holdings Corp. saw 1.44 million shares trade hands on 10,113 trades. Considering that the stock averages only a&nbsp;...Buy or Sell? What Analysts Recommends: Realogy Holdings Corp. , Sealed ... - StockNewsJournalRealogy Holdings Corp.  Receives $33.00 Consensus PT from Analysts - Community Financial News'
p7
aS"Realogy weathers challenging Q2, vows to fight rivals' rampant agent poaching The Real Deal Magazine - Aug 4, 2016 In reporting a challenging second quarter, Realogy Holdings - the New Jersey-based conglomerate that owns the Corcoran Group, Sotheby's International Realty, Citi Habitats and other brokerages cited softness in the high-end market and vicious&nbsp;...Realogy Drops Below Its IPO Price - Wall Street Journal Realogy Tumbles Most Ever as US Luxury-Home Slump Hits Profit - Bloomberg"
p8
aS'Realogy Declares Quarterly Dividend PR Newswire  - Nov 4, 2016 MADISON, N.J., Nov. 4, 2016 /PRNewswire/ -- Realogy Holdings Corp. , the largest full-service residential real estate services company in the United States, announced today its Board of Directors declared a cash dividend of $0.09 per share&nbsp;...'
p9
aS'Realogy Announces Plans For Development Of Integrated Learning Institute To ... PR Newswire  - Feb 1, 2017 MADISON, N.J., Feb. 1, 2017 /PRNewswire/ -- Realogy Holdings Corp.  today announced its plans for the development of a new, integrated learning institute for its leading real estate franchise brands and NRT, its company-owned brokerage&nbsp;...'
p10
a.