(lp0
S"Rand Logistics, Inc. Reports Third Quarter Fiscal Year 2017 Financial Results GlobeNewswire  - Feb 13, 2017 JERSEY CITY, N.J., Feb. 13, 2017  -- Rand Logistics, Inc.  , a leading provider of bulk freight shipping services throughout the Great Lakes region, today announced its financial results for the fiscal year 2017&nbsp;...Inc.NASDAQRand LogisticsRLOG - FinancialsTrendRand Logistics'  CEO Ed Levy on Q3 2017 Results - Earnings Call Transcript - Seeking Alpha"
p1
aS'BRIEF-Rand Logistics Inc Q3 loss per share $0.03 Reuters - Feb 13, 2017 NEW YORK, March 3 Federal Reserve policymakers who have recently signaled a pending U.S. interest rate rise have been acknowledging growing confidence and aggregate demand in the economy and stock market since the U.S.'
p2
aS'Rand Logistics Inc. RLOG  Wall Street Journal - Feb 12, 2011 Rand Logistics Inc. RLOG . search. View All companies. AT CLOSE 5:00 PM EDT 03/10/17. $0.64 USD; -0.0299 -4.46%.'
p3
aS'Rand Logistics, Inc. Announces Appointment of Christopher J. Garwood Corporate ... GlobeNewswire  - Sep 29, 2015 NEW YORK, Sept. 29, 2015  -- Rand Logistics, Inc. , a leading provider of bulk freight shipping services throughout the Great Lakes region, today announced the appointment of Mr. Christopher J. Garwood to the position&nbsp;...Rand Logistics appoints Corporate VP of Procurement - Marine Log'
p4
aS'Rand Logistics, Inc. Announces Appointments of Vice Presidents of Operations ... GlobeNewswire  - Jan 4, 2016 NEW YORK, Jan. 04, 2016  -- Rand Logistics, Inc.   today announced the Company has appointed Captain Paul J. Joaquin and Captain Gerald Gerry J. Ray as Vice Presidents of Operations for the U.S.'
p5
aS'Analyst Advice And Earnings Insight: Rand Logistics, Inc. , Oxford ... Post Analyst - Mar 17, 2017 Rand Logistics, Inc.  has made its way to a 12-month decline of -33.34%. Turning to Oxford Industries, Inc. , its shares were trading at $56 a gain of $2.29, on the trading floor.Basic Consolidated EPS Of Rand Logistics, Inc.  At $-0.2345 - Equities FocusRand Logistics, Inc.  Broker Price Targets For The Coming Week - Fiscal Standard'
p6
aS"Rand Logistics posts quarterly results American Shipper  - Feb 15, 2017 Bulk freight shipping services provider Rand Logistics, Inc. had a net loss of $615,000 for its fiscal 2017 third quarter, which ended Dec. 31, 2016, compared to a net loss of $4.20 million for the same quarter a year prior, according to the company's ...Should You Sell Rand Logistics, Inc. Based On Current Broker Views? - NewsDen"
p7
aS'Rand Logistics Has Huge Upside Potential Seeking Alpha - Nov 12, 2015 Rand Logistics Inc mainly transports dry bulk goods. Some of the examples of such dry goods would include coal, iron ore, salt, various grains, and other dry commodities.'
p8
aS"Rand Logistics Announces Settlement of Proxy Contest With JWEST, LLC GlobeNewswire  - Sep 22, 2014 NEW YORK, Sept. 22, 2014  -- Rand Logistics, Inc.  announced today that it has reached an agreement with JWEST, LLC, a significant stockholder of the company, ending JWEST's proxy contest for Rand's upcoming&nbsp;..."
p9
aS"Investors Buzz: Rand Logistics, Inc.'s  stock price is at $0.63 on ... WsNews 4investors - 4 hours ago Rand Logistics, Inc.  stock price distance from twenty day simple moving average slumped at -15.95% while its distance from fifty day simple moving average declined -25.66% along with -30.99% below distance from two hundred simple moving&nbsp;..."
p10
a.