(lp0
S'Renasant Corporation Approves Dividend PR Newswire  - Feb 21, 2017 TUPELO, Miss., Feb. 21, 2017 /PRNewswire/ -- The board of directors of Renasant Corporation  approved the payment of a quarterly cash dividend of eighteen cents  per share to be paid March 31, 2017, to shareholders of record as&nbsp;...'
p1
aS'Renasant Corporation  Moves Higher on Volume Spike for March 17 Equities.com - 18 hours ago Renasant Corporation  traded on unusually high volume on Mar. 17, as the stock gained 1.13% to close at $41.16. On the day, Renasant Corporation saw 1.26 million shares trade hands on 3,057 trades. Considering that the stock averages only a&nbsp;...Insider Trading at Renasant Corp.? - BBNS'
p2
aS'Renasant Corporation and Metropolitan BancGroup, Inc. Announce Definitive ... PR Newswire  - Jan 18, 2017 TUPELO, Miss. and RIDGELAND, Miss., Jan. 17, 2017 /PRNewswire/ -- Renasant Corporation  , the parent company of Renasant Bank , and Metropolitan BancGroup, Inc., the parent company of Metropolitan&nbsp;...Form 425 RENASANT CORP Filed by: RENASANT CORP - StreetInsider.comProminent regional banks merge in $190 million deal - Memphis Business Journal'
p3
aS'Renasant Announces Mortgage Lending Market Entries and Expansion PR Newswire  - Feb 28, 2017 TUPELO, Miss., Feb. 28, 2017 /PRNewswire/ -- Renasant Corporation  today announced the opening of three de novo mortgage lending locations with one each in the markets of Destin and Jacksonville, Fla.'
p4
aS"Insider Trading Activity Renasant Corp.   EVP Sold 1492 shares ... Market Exclusive - Mar 16, 2017 Michael D. Ross , EVP of Renasant Corp.  reportedly Sold 1,492 shares of the company's stock at an average price of 40.85 for a total transaction amount of $60,948.20 SEC Form.Insider Selling: Renasant Corp.  EVP Sells 1492 Shares of Stock - BNB Daily Renasant Corp  Files Form 4 Insider Selling : O Leonard Dorminey Sells ... - Energy Index"
p5
aS'Renasant Announces Mobile Market Entry and Staff Hires PR Newswire  - Mar 8, 2017 TUPELO, Miss., March 8, 2017 /PRNewswire/ -- Renasant Corporation  today announced its entry into Mobile, Ala.'
p6
aS'Renasant Corporation Announces Pricing Of Subordinated Notes PR Newswire  - Aug 18, 2016 TUPELO, Miss., Aug. 17, 2016 /PRNewswire/ -- Renasant Corporation  , the parent company of Renasant Bank , today announced that it has priced $60 million of its 5.00% fixed-to-floating rate subordinated notes&nbsp;...'
p7
aS'Renasant Corp. Kicks Off Common Stock Offering Memphis Daily News - Dec 15, 2016 Shares of Tupelo-based Renasant Corp. are trading at 30 percent above their all-time high since the election, according to Renasant director of corporate communication John Oxford.'
p8
aS"Renasant Announces Pricing of Common Stock Offering PR Newswire  - Dec 14, 2016 14, 2016 /PRNewswire/ -- Renasant Corporation  , the parent of Renasant Bank, announced today the pricing of an underwritten public offering of 1,900,000 shares of the Company's common stock at a price to the public of&nbsp;..."
p9
aS'Renasant Corporation Completes Merger with Heritage Financial Group, Inc. PR Newswire  - Jul 1, 2015 TUPELO, Miss., July 1, 2015 /PRNewswire/ -- Renasant Corporation   today announced that it had completed its merger with Heritage Financial Group, Inc. , a bank holding company headquartered&nbsp;...Renasant completes merger with Heritage - Northeast Mississippi Daily Journal'
p10
a.