(lp0
S"Sonic Automotive Inc. Cl A  Moves Lower on Volume Spike for March 17 Equities.com - 17 hours ago Sonic Automotive Inc. Cl A  traded on unusually high volume on Mar. 17, as the stock lost 0.72% to close at $20.80. On the day, Sonic Automotive Inc. Cl A saw 416,581 shares trade hands on 2,276 trades. Considering that the stock averages only a&nbsp;...Look closely Shares of Sonic Automotive, Inc.'s  stock price is now Worth ... - Hot Stocks Point"
p1
aS'Sonic Automotive  Offers Senior Notes Worth $250M Yahoo Finance - Mar 8, 2017 Sonic Automotive, Inc. SAH has announced a private offering of $250 million aggregate principal amount of Senior Subordinated Notes due 2027.Sonic Automotive Announces Offering of Senior Subordinated Notes - PR Newswire '
p2
aS'Sonic Automotive, Inc. Schedules Release Of 2016 Fourth Quarter And Full Year ... PR Newswire  - Jan 20, 2017 CHARLOTTE, N.C., Jan. 20, 2017 /PRNewswire/ -- Sonic Automotive, Inc.  today announced it will release fiscal 2016 fourth quarter and full year financial results on Tuesday, February 21, 2017 at 7:30 A.M.'
p3
aS"SONIC AUTOMOTIVE, INC.  Files An 8-K Entry into a Material ... Market Exclusive - Mar 14, 2017 Sonic Automotive, Inc. is an automotive retailer in the United States. The Company's operating segments include Franchised Dealerships and EchoPark."
p4
aS'Stock Volatility Risk Alert: Sonic Automotive Inc Stock Volatility Hits An ... CML News - 16 hours ago Before we cover the full analysis we make a quick alert here that Sonic Automotive Inc  has seen its stock price whip around at an unsually high level.'
p5
aS"Sonic Automotive executive collected $26.5 million last year Automotive News - Mar 10, 2016 NEW YORK  -- Car dealer Sonic Automotive Inc. has one executive it doesn't want driving off the lot. Jeff Dyke, the company's executive vice president of operations, was awarded $26.5 million in total compensation last year, bolstered by a&nbsp;..."
p6
aS'Stock Valuation in Focus for Sonic Automotive, Inc.  Business Review - 13 hours ago Sonic Automotive, Inc.  has an ERP5 rank of 1359. The ERP5 Rank is an investment tool that analysts use to discover undervalued companies.'
p7
aS'Sonic Automotive Rises Most Amid Gains for Car-Dealer Stocks Bloomberg - Sep 7, 2016 Sonic Automotive Inc. rose the most in almost two months as stocks of several U.S. auto-dealership companies climbed. Sonic gained 4 percent, its biggest increase since July 8, to $17.82.'
p8
aS"Sonic Automotive: Steer Clear Seeking Alpha - Jan 26, 2017 Sonic Automotive's  latest results, released on November 1 st, were poor and confirmed that many of the auto sector headwinds from prior quarters are still at play.Zacks Investment Research Downgrades Sonic Automotive Inc.  to Sell - Sports Perspectives"
p9
aS'Sonic Automotive  Q4 Earnings, Revenues Top Estimates Yahoo Finance - Feb 22, 2017 Sonic Automotive Inc. SAH recorded adjusted earnings per share of 66 cents in the fourth quarter of 2016, up from 61 cents recorded in the year-ago quarter.Sonic Automotive Inc. Cl A  Plunges 10.5% on February 23 - Equities.com'
p10
a.