(lp0
S'Personnel changes and hires at Superior Uniform Group and Florida Design ... Tampabay.com - 18 hours ago Superior Uniform Group, Inc. announced that president Alan Schwartz will retire from the Seminole-based business uniform and apparel company effective March 31.'
p1
aS'Superior Uniform Group Inc.  Moves Higher on Volume Spike for March 17 Equities.com - 17 hours ago Superior Uniform Group Inc.  traded on unusually high volume on Mar. 17, as the stock gained 1.11% to close at $18.24.Basic Consolidated EPS Of Superior Uniform Group, Inc.  At $1.0395 - Equities Focus'
p2
aS'Alan Schwartz to Retire from Superior Uniform Group Nasdaq - Mar 15, 2017 SEMINOLE, Fla., March 15, 2017  -- Superior Uniform Group, Inc.  announced that President, Alan Schwartz, will retire from the Company effective March 31, 2017.'
p3
aS"BRIEF-Superior Uniform Group Inc and certain of company's subsidiaries entered ... Reuters - Mar 2, 2017 WASHINGTON, March 2 The U.S. Senate voted on Thursday to confirm retired neurosurgeon Ben Carson as secretary of the Department of Housing and Urban Development  in President Donald Trump's Cabinet."
p4
aS'Superior Uniform Group, Inc.  Files An 8-K Entry into a Material ... Market Exclusive - Mar 13, 2017 Superior Uniform Group, Inc.  Files An 8-K Entry into a Material Definitive Agreement. Open a TradeKing Account and Get $1,000 in Free Trade Commissions.'
p5
aS'Superior Uniform Group, Inc. : Is The Stock Undervalued? Business Review - 14 hours ago The ERP5 Rank is an investment tool that analysts use to discover undervalued companies. The ERP5 looks at the Price to Book ratio, Earnings Yield, ROIC and 5 year average ROIC.'
p6
aS'Superior Uniform Group Inc.  Moves Lower on Volume Spike for February 17 Equities.com - Feb 17, 2017 Superior Uniform Group Inc.  traded on unusually high volume on Feb. 17, as the stock lost 0.06% to close at $17.13. On the day, Superior Uniform Group Inc. saw 58,684 shares trade hands on 459 trades. Considering that the stock averages only a&nbsp;...Superior Uniform Group, Inc.  Consolidated Diluted EPS At 0.8962 - Equities Focus'
p7
aS'Superior Uniform Group, Inc.  Files An 8-K Results of Operations ... Market Exclusive - Feb 23, 2017 Superior Uniform Group, Inc.  manufactures and sells a range of uniforms, corporate identity apparel, career apparel and accessories for the medical and health fields, as well as for the industrial, commercial, leisure and public safety markets.Superior Uniform Group Inc.  Moves Higher on Volume Spike for February 23 - Equities.com'
p8
aS'Superior Uniform Group , Interview with Michael Benstock, CEO Nasdaq - Jul 9, 2015 We sell our products through our signature brands, Superior I.D., Fashion Seal Healthcare, HPI Direct and Blue Fusion.'
p9
aS'Superior Uniform Group: All Dressed Up With Someplace To Go For Small Cap ... Seeking Alpha - Nov 5, 2015 Superior Uniform Group, Inc.  is a designer, manufacturer, and marketer of employee uniforms, image apparel, scrubs and patient apparel.'
p10
a.