(lp0
S'SigmaTron International, Inc. Reports Third Quarter Financial Results for ... GlobeNewswire  - Mar 13, 2017 ELK GROVE VILLAGE, Ill., March 13, 2017  -- SigmaTron International, Inc. , an electronic manufacturing services company, today reported revenues and earnings for the third quarter ended January 31, 2017.SIGMATRON INTERNATIONAL, INC.  Files An 8-K Results of Operations ... - Market Exclusive'
p1
aS"BRIEF-Sigmatron International Inc qtrly loss per share $0.01 Reuters - Mar 13, 2017 WASHINGTON, March 13 University of Southern California economics professor Raphael Bostic has been named president of the Atlanta Federal Reserve bank, breaking the Fed's longstanding color barrier at the top of its network of regional institutions."
p2
aS'SigmaTron International, Inc. Reports First Quarter Financial Results for ... GlobeNewswire  - Sep 12, 2016 Headquartered in Elk Grove Village, IL, SigmaTron International, Inc. is an electronic manufacturing services company that provides printed circuit board assemblies and completely assembled electronic products.'
p3
aS'SigmaTron International, Inc. Reports Year End Financial Results for Fiscal ... GlobeNewswire  - Jul 29, 2016 ELK GROVE VILLAGE, Ill., July 29, 2016  -- SigmaTron International, Inc. , an electronic manufacturing services company, today reported revenues and earnings for the fiscal year ended April 30, 2016.'
p4
aS"SigmaTron International Inc  Climbs Higher Over the Past 5 Days Business Review - Mar 15, 2017 Shares of SigmaTron International Inc  have seen strong upward momentum over the past week as they have moved higher 12.26% over the past five sessions, placing them on this week's winners list."
p5
aS"SigmaTron International, Inc.  Moves Up 23.88% For The Week Winfield Review - 1 hour ago The Dow Jones Industrial Average and the Standard &amp; Poor's 500 ended near the flatline on Friday as markets absorbed the likelihood of a March rate hike after Fed Chair Janet Yellen raised the odds in a speech on Friday."
p6
aS'Equity Sheet: Reviewing the Levels for SigmaTron International, Inc.  Searcy News - 23 hours ago SigmaTron International, Inc.  presently has an EV or Enterprise Value of 52372. The EV helps show how the market assigns value to a company as a whole.'
p7
aS"Fox On Stocks' 17-Year-Old Rachel Fox Teaches A New Generation How To Trade Benzinga - Mar 18, 2014 As far as specific investments are concerned, her biggest win came from SigmaTron International . Her biggest loser turned out to be her first trade."
p8
aS"Noteworthy movements of Stock: SigmaTron International, Inc.'s  share ... Street Updates - Mar 16, 2017 SigmaTron International, Inc.  , a stock from Printed Circuit Boards Industry, has a value of $4.70 per share, noted a price change of 1.71% in recent trade close."
p9
aS"Top Bullish Stock Inside Investors Spotlight: SigmaTron International, Inc.'s ... WsNews 4investors - Mar 14, 2017 SigmaTron International, Inc.  stock price escalated 16.17% to finalize at $4.67 throughout previous buying and selling session."
p10
a.