(lp0
S'Why ShoreTel Inc. Rose 14% Friday Motley Fool - Oct 23, 2015 So what: In the first quarter of fiscal year 2016, ShoreTel saw sales hold steady year over year, at $90.2 million. Adjusted earnings increased 29%, to $0.09 per diluted share.'
p1
aS'Why ShoreTel, Inc. Stock Plunged Today Motley Fool - Apr 30, 2016 What: Shares of ShoreTel  dropped 14.2% Friday after the telecommunications vendor announced weaker-than-expected fiscal third-quarter 2016 results.'
p2
aS'ShoreTel Inc.  Moves Lower on Volume Spike for February 13 Equities.com - Feb 13, 2017 ShoreTel Inc.  traded on unusually high volume on Feb. 13, as the stock lost 1.42% to close at $6.95. On the day, ShoreTel Inc. saw 910,207 shares trade hands on 3,876 trades. Considering that the stock averages only a daily volume of 571,331&nbsp;...Stock Returns: ShoreTel Inc  versus Silicom Ltd.  - CML News'
p3
aS'Stock Update: Checking the Technicals for Shoretel Inc  Baxter Review - 21 hours ago Investors may be closely watching technical levels on shares of Shoretel Inc . In terms of Relative Strength Index, the 14-day RSI is currently resting at 30.25, the 7-day is 31.07, and the 3-day is standing at 36.14.'
p4
aS"What is the Sell-side Saying About ShoreTel, Inc. ? Aiken Advocate - 14 hours ago Company earnings numbers are typically highly analyzed by investors and analysts alike. Earnings are important because they can provide insight into a company's profitability."
p5
aS"Breaking Down: ShoreTel Inc  Stock Has Droppped Through Support ... CML News - Mar 16, 2017 ShoreTel Inc has a one bull  technical rating because it's trading below the 10 day, 50 day and 200 day simple moving averages while the 10-day moving average is below the 50-day moving average and the 50-day moving average is&nbsp;..."
p6
aS'Stock Returns: ShoreTel Inc  is Beating Black Box Corporation ... CML News - Mar 15, 2017 This is a snapshot to compare the stock returns for Black Box Corporation  versus ShoreTel Inc  .'
p7
aS'Stock Returns: Oclaro Inc  is Beating ShoreTel Inc  CML News - Mar 12, 2017 This is a snapshot to compare the stock returns for Oclaro Inc  versus ShoreTel Inc  . The stock return points we compare look at the last three-months, six-months and twelve-months.The ShoreTel Inc  Sees Large Increase in Short Interest - Petro Global News 24ShoreTel Inc  Position Reduced by Trexquant Investment LP - Community Financial News'
p8
aS"CTFN: Mitel expected to take another run at buying ShoreTel Seeking Alpha - Sep 16, 2016 But reasons for the deal haven't changed, CTFN sources say: Pressure remain for mid-sized equipment vendors against bigger competitors, and a few bad quarters may turn up the pressure on the two."
p9
aS"Latest Stock Price Updates: ShoreTel, Inc.  Is stories - Mar 6, 2017 ShoreTel, Inc.'s  witnessed a loss of -2.34% in recent trading period with closing price of $ 6.25. The company's last traded volume of 0.8 million shares as compared to it's an average volume of 0.54 million shares.ShoreTel Summit Enables Georgia Tourism to Improve Customer Service - Military Technologies"
p10
a.