(lp0
S'Stein Mart Inc.  Moves Lower on Volume Spike for March 17 Equities.com - 17 hours ago Stein Mart Inc.  traded on unusually high volume on Mar. 17, as the stock lost 1.34% to close at $2.94. On the day, Stein Mart Inc. saw 1.32 million shares trade hands on 3,456 trades. Considering that the stock averages only a daily volume of ...Stein Mart, Inc. Declares Quarterly Dividend - NasdaqSTEIN MART, INC.  Files An 8-K Other Events - Market Exclusive'
p1
aS'Why Stein Mart, Inc. Stock Plunged Today Motley Fool - Nov 17, 2016 Shares of Stein Mart Inc.  were down 20% as of 2 p.m. Thursday, after the designer fashion, accessories, and home decor retailer announced weaker-than-expected third-quarter 2016 results.Stock Earnings under Review: Stein Mart, Inc.  - Post Registrar'
p2
aS"Stein Mart, Inc. Reports Fourth Quarter and Fiscal 2016 Results GlobeNewswire  - Mar 8, 2017 Forward-looking statements involve known and unknown risks and uncertainties that may cause Stein Mart's actual results in future periods to differ materially from forecasted or expected results.What should investors know about Stein Mart Inc's  growth? - Simply Wall StStein Mart reports 4Q loss - Yahoo Finance"
p3
aS'Stein Mart to Present at Sidoti &amp; Company Spring 2017 Convention Yahoo Finance - Mar 16, 2017 JACKSONVILLE, Fla., March 16, 2017  -- Stein Mart, Inc.  announced today that it will be presenting at the Sidoti &amp; Company Spring 2017 Convention being held at the Marriott Marquis at Times Square in New York on March 29,&nbsp;...'
p4
aS"Stein Mart Has Many Reasons To Go Lower Seeking Alpha - Jan 2, 2017 Stein Mart  has struggled for a very long time to find its footing in a crowded sector of retail. The company's continuous missteps have landed the stock in the $5 area, and after what amounts to a pretty disastrous Q3 report, SMRT is ..."
p5
aS'Stein Mart: That Sinking Feeling Seeking Alpha - Oct 13, 2016 Stein Mart CEO Resigns After just Six Months. Stein Mart Inc.  announced recently that its CEO, Dawn Robertson, had resigned effective September 27th - just around six months after assuming the CEO position from Jay Stein in mid-March&nbsp;...'
p6
aS'Stein Mart Announces Fourth Quarter and Fiscal 2016 Earnings Release and ... GlobeNewswire  - Feb 9, 2017 JACKSONVILLE, Fla., Feb. 09, 2017  -- Stein Mart, Inc.  will release its fourth quarter and fiscal 2016 financial results before the U.S.'
p7
aS'Stein Mart, Inc. Reports November/December Sales GlobeNewswire  - Jan 6, 2017 JACKSONVILLE, Fla., Jan. 06, 2017  -- Stein Mart, Inc.  today announced that its comparable store sales for the nine-week period ended December 31, 2016 decreased 4.8 percent and total sales decreased 1.9 percent&nbsp;...Stein Mart stock prices take nosedive after dismal sales report - Jacksonville Business JournalStein Mart November/December Comps. Down 4.8%; Sees Q4 Loss, But Profit In FY - Nasdaq'
p8
aS'Stein Mart Senses More Trouble In The Coming Quarters Seeking Alpha - Nov 29, 2016 The retail industry as a whole is currently facing severe challenges in keeping up with the current trends, fashions to digitization.'
p9
aS'Stein Mart Inc.  Plunges 6.99% on March 13 Equities.com - Mar 13, 2017 Stein Mart Inc.  had a rough trading day for Monday March 13 as shares tumbled 6.99%, or a loss of $-0.2 per share, to close at $2.66.'
p10
a.