(lp0
S'Bragar Eagel &amp; Squire, PC is Investigating Inventure Foods, Inc.  on ... Yahoo Finance - 15 hours ago Bragar Eagel &amp; Squire, P.C. is investigating possible claims against Inventure Foods, Inc. . Our investigation concerns possible violations of the federal securities laws.'
p1
aS'SHAREHOLDER ALERT: Goldberg Law PC Announces an Investigation of Inventure ... Yahoo Finance - 10 hours ago Inventure issued a Form NT 10-K with the U.S. Securities &amp; Exchange Commission, stating that the Company would stall filing its 2016 annual report.'
p2
aS'Inventure Foods  Files to Delay 10-K StreetInsider.com - Mar 16, 2017 As of March 16, 2017, the filing deadline for its Annual Report on Form 10-K for fiscal 2016 , Inventure Foods, Inc.  had not yet completed its Fresh Frozen Foods trademark and goodwill impairment tests. As a result, the&nbsp;...Quarterly EPS Forecast Of Inventure Foods, Inc.  At $-0.05 - RealistInvestor.comBrokers Change Their Target Price On Inventure Foods, Inc.  - Fiscal Standard'
p3
aS"Glancy Prongay &amp; Murray LLP Commences Investigation on Behalf of Inventure ... Business Wire  - 23 hours ago LOS ANGELES----Glancy Prongay &amp; Murray LLP  is investigating potential claims on behalf of investors of Inventure Foods, Inc.   concerning the Company and its officers'&nbsp;..."
p4
aS'SHAREHOLDER ALERT: Pomerantz Law Firm Investigates Claims On Behalf of ... PR Newswire  - 19 hours ago NEW YORK, March 17, 2017 /PRNewswire/ -- Pomerantz LLP is investigating claims on behalf of investors of Inventure Foods, Inc.  . Such investors are advised to contact Robert S. Willoughby at&nbsp;...'
p5
aS'Inventure Foods, Inc.: M&amp;A Target Seeking Alpha - May 6, 2016 I enjoy assessing M&amp;A deals. These kinds of investments are easy and simple, as pricing the company does not depend only on the fundamental value.'
p6
aS'Boulder Canyon To Introduce New Heart-Friendly Rice Bran Oil Kettle Chips At ... PR Newswire  - Mar 8, 2017 Boulder Canyon Foods is a member of the Inventure Foods  family of Intensely Different specialty brands.'
p7
aS"Inventure Foods Inc.  Settles Into New 52-Week Low on March 14 Session Equities.com - Mar 14, 2017 Shares of Inventure Foods Inc.  sank into a new 52-week low yesterday, and could be a company to watch at the open. The company's stock fell to as low as $4.73 yesterday after opening at $4.93."
p8
aS"Inventure Foods: Pivot To Healthy Foods Seeking Alpha - Oct 15, 2015 ... Inventure Foods , is 33rd on Forbes' list of America's Best Small Companies. Its tagline, &quot;Innovation + New-Venture = Inventure&quot; has caught the attention of Texas-based fundamental investor Luther King Capital Management Corporation&nbsp;..."
p9
aS"Inventure Foods Inc.  Settles Into New 52-Week Low on March 09 Session Equities.com - Mar 9, 2017 Shares of Inventure Foods Inc.  sank into a new 52-week low yesterday, and could be a company to watch at the open. The company's stock fell to as low as $4.75 yesterday after opening at $4.99.Stock Returns: Freshpet Inc  is Beating Inventure Foods Inc ... - CML NewsStocks in Oversold Territory: NantHealth, Inc. , Inventure Foods ... - Benchmark Monitor"
p10
a.