(lp0
S'SYNNEX Corporation Named Major Distributor in New Dell EMC Partner Program PR Newswire  - Mar 13, 2017 GREENVILLE, S.C., March 13, 2017 /PRNewswire/ -- SYNNEX Corporation , a leading Technology Solutions distributor, announced today that it is a strategic Authorized North American Distribution Partner in the new Dell EMC Partner Program.SYNNEX Corporation Named Distributor of the Year at 2017 Aruba Americas ... - Yahoo Finance'
p1
aS'SYNNEX Corporation to Announce Results for Fiscal 2017 First Quarter on March ... PR Newswire  - Mar 13, 2017 FREMONT, Calif., March 13, 2017 /PRNewswire/ -- SYNNEX Corporation , a leading business process services company, will announce its financial results for the fiscal first quarter ended February 28, 2017 after the market close on Monday,&nbsp;...Broker Outlook For The Week Ahead Synnex Corporation  - Fiscal Standard'
p2
aS'Synnex Corporation  Moves Higher on Volume Spike for March 17 Equities.com - 17 hours ago Synnex Corporation  traded on unusually high volume on Mar. 17, as the stock gained 0.29% to close at $119.90. On the day, Synnex Corporation saw 267,673 shares trade hands on 1,711 trades. Considering that the stock averages only a daily&nbsp;...SYNNEX Co.  Director Fred A. Breidenbach Sells 390 Shares - The Cerbat GemSYNNEX Co.  CEO Kevin M. Murai Sells 2000 Shares of Stock - Sports Perspectives'
p3
aS'SYNNEX Corporation Receives 2016 Google Cloud Partner Award for Devices ... Yahoo Finance - Mar 16, 2017 GREENVILLE, S.C., March 16, 2017 /PRNewswire/ -- SYNNEX Corporation , a leading Technology Solutions distributor, today announced that it has received the Google Cloud 2016 Global Partner Award for Devices Ecosystem Customer&nbsp;...Google Cloud partner awards: recognizing customer success and solution innovation - Newsroom America'
p4
aS'SYNNEX Corporation Declares Regular Quarterly Cash Dividend PR Newswire  - Jan 5, 2017 FREMONT, Calif., Jan. 5, 2017 /PRNewswire/ -- SYNNEX Corporation , a leading business process services company, today announced its Board of Directors declared a regular quarterly cash dividend of $0.25 per share.'
p5
aS'SYNNEX Corporation Announces Five Executives Named to CRN Channel Chiefs Yahoo Finance - Feb 21, 2017 21, 2017 /PRNewswire/ -- SYNNEX Corporation , a leading Technology Solutions distributor, announced today that CRN, a brand of The Channel Company, has named five SYNNEX executives to its prestigious list of 2017 Channel Chiefs:&nbsp;...'
p6
aS'Raritan Signs SYNNEX Corporation as Distributor of Data Center Product Portfolio PR Newswire  - Feb 20, 2017 20, 2017 /PRNewswire/ -- Raritan - a brand of Legrand, and a leading provider of intelligent data center management and rack power distribution solutions - today announced a North American distribution agreement with SYNNEX Corporation, a leading&nbsp;...'
p7
aS'Ann Vezina Appointed to the SYNNEX Corporation Board of Directors Yahoo Finance - Feb 1, 2017 We look forward to her contributions as a member of the SYNNEX Board of Directors,&quot; said Duane Zitzner, Chairman of the SYNNEX Corporation Nominating and Corporate Governance Committee. Kevin Murai, President and Chief Executive Officer of&nbsp;...'
p8
aS'SYNNEX Corporation Reports Fiscal 2015 Fourth Quarter and Full Year Results PR Newswire  - Jan 7, 2016 FREMONT, Calif., Jan. 7, 2016 /PRNewswire/ -- SYNNEX Corporation , a leading business process services company, today announced financial results for the fiscal fourth quarter and fiscal year ended November 30, 2015.'
p9
aS"SYNNEX Corporation's  CEO Kevin Murai on Q4 2016 Results - Earnings Call ... Seeking Alpha - Jan 11, 2017 Good afternoon and welcome to the SYNNEX Corporation's earnings call for the fiscal 2016 fourth quarter ended November 30, 2016.Synnex Corp. profit climbs on acquisition - MarketWatchBrean Capital Upgrades Synnex  after Impressive Q4 Results - Economic Calendar"
p10
a.