(lp0
S'Form 4 SONOCO PRODUCTS CO For: Mar 10 Filed by: SANDERS MANCIL J StreetInsider.com - Jun 23, 2011 Each share of Dividend equivalents on Restricted Stock units is the economic equivalent of one share of Sonoco Products Company common stock. 2. Acquired quarterly dividend equivalent rights on Restricted Stock which will be settled upon the reporting&nbsp;...'
p1
aS"BRIEF-Sonoco Products Co's CEO M. Jack Sanders' 2016 total compensation was ... Reuters - Mar 17, 2017 March 17 Sonoco Products Co. * Sonoco Products Co - CEO M. Jack Sanders' 2016 total compensation was $10.2 million versus $8.7 million in 2015 - SEC filing Further company coverage: Next In Market News."
p2
aS"BRIEF-Sonoco Products Co entered into a three-year, $150 million term loan ... Reuters - Mar 16, 2017 NEW YORK, March 16 The U.S. economy is on track to grow at a 0.9 percent annualized pace in the first quarter following the release of February data on domestic home construction, the Atlanta Federal Reserve's GDP Now forecast model showed on&nbsp;..."
p3
aS'Sonoco Products Company  Moves Lower on Volume Spike for March 17 Equities.com - 18 hours ago Sonoco Products Company  traded on unusually high volume on Mar. 17, as the stock lost 0.75% to close at $53.19. On the day, Sonoco Products Company saw 2.23 million shares trade hands on 9,363 trades. Considering that the stock averages only&nbsp;...Sonoco Products Co.: Sonoco Issues 2016 Annual Report to Shareholders - The Wall Street TranscriptShould You Buy Or Sell Sonoco Products Company  On Analyst Concensus? - NewsDen'
p4
aS'Form 8-K SONOCO PRODUCTS CO For: Mar 13 StreetInsider.com - Mar 16, 2017 On March 14, 2017, Sonoco Products Company issued a news release announcing that it had completed the acquisition of Packaging Holdings, Inc. and subsidiaries, including Peninsula Packaging, LLC, for approximately $230 million.Sonoco completes acquisition of Peninsula Packaging Company - Lesprom Network'
p5
aS'Sonoco Products Co.: Sonoco Completes Acquisition of Peninsula Packaging Company The Wall Street Transcript - Mar 14, 2017 HARTSVILLE, S.C., March 14, 2017  -- Sonoco , one of the largest diversified global packaging companies, today announced it has completed the acquisition of Peninsula Packaging Company, a leading manufacturer of&nbsp;...Sonoco  Closes Peninsula Packaging Buyout for $230M - Yahoo FinanceSonoco  Announces Price Hike for Paperboard in Europe - Nasdaq'
p6
aS'Sonoco Products buys flexible packaging converter Plastics News - Nov 2, 2016 Sonoco Products Co. just had to look one state to the north for its latest acquisition, Plastic Packaging Inc., a printer and converter of flexible packaging.Sonoco acquires Plastic Packaging Inc. - Recycling TodaySonoco acquires US flexible packaging firm Plastic Packaging - FoodBev.com'
p7
aS'Greenville-based Management Solutions adds Sonoco Products to client roster Greenville News - Mar 13, 2017 Management Solutions announced on Monday the Greenville-based company has added Sonoco Products Company to its client roster.Zacks Investment Research Upgrades Sonoco Products Co  to Hold - Sports PerspectivesThe Zacks Investment Research Upgrades Sonoco Products Co  to Hold - Petro Global News 24'
p8
aS"Sonoco expanding for expected TruVue clear can growth Plastics News - Feb 21, 2017 Tampa, Fla. - Sonoco Products Co. is working to dramatically expand production of the company's plastic TruVue food can and expects to have that added capacity in place later this year."
p9
aS'Sonoco selling blow molding operations to Amcor Plastics News - Sep 2, 2016 Sonoco Products Co. is striking a $280 million deal to sell off its blow molding operations to Amcor Ltd. The move includes seven manufacturing plants - six in the United States and one in Canada - that have sales of $210 million annually, Amcor said.Sonoco Agrees to Sell Rigid Plastics Blow Molding Operations to Amcor - GlobeNewswire Sonoco Products Plans to Sell Its Rigid Plastics Blow Molding Operations - Market Realist'
p10
a.