(lp0
S'The Insider Buying: Southern National Banc. of Virginia, Inc  Director ... Petro Global News 24 - Mar 17, 2017 Southern National Banc. of Virginia, Inc  Director Charles A. Kabbash acquired 2,000 shares of the stock in a transaction that occurred on Thursday, March 9th.Brokers Release Average Price Target Of 12.50 On Southern National Bancorp Of ... - UK Market NewsAnalysts Update Their Price Target On Southern National Bancorp Of Virginia ... - UK Market News'
p1
aS"Charles A. Kabbash Purchases 2000 Shares of Southern National Banc. of ... Chaffey Breeze - Mar 14, 2017 Southern National Banc. of Virginia logo Southern National Banc. of Virginia, Inc  Director Charles A. Kabbash acquired 2,000 shares of the firm's stock in a transaction dated Thursday, March 9th.The Southern National Banc. of Virginia, Inc  Director Buys $12480.00 in ... - Petro Global News 24"
p2
aS'Insider Buying: Southern National Banc. of Virginia, Inc  Director ... The Cerbat Gem - Mar 15, 2017 Southern National Banc. of Virginia logo Southern National Banc. of Virginia, Inc  Director Charles A. Kabbash purchased 2,000 shares of Southern National Banc.'
p3
aS"Charles Kabbash, Southern National Banc. of Virginia, 's insider Made a ... Herald KS - Mar 10, 2017 Director, Charles Kabbash is the Southern National Bancorp Of Virginia Inc's insider who invested in shares of Southern National Bancorp Of Virginia Inc, 2,000 to be precise. The reported shares were based on a market stock price per share of $6.2 ..."
p4
aS"Insider Trading at Southern National Banc. of Virginia Inc? BBNS - Feb 9, 2017 Southern National Banc. of Virginia logo Southern National Banc. of Virginia, Inc  Director Neil J. Call purchased 1,100 shares of the business's stock in a transaction that occurred on Tuesday, February 7th."
p5
aS'Southern National Bancorp of Virginia, Inc. and Eastern Virginia Bankshares ... PR Newswire  - Dec 13, 2016 The company, which will assume the Southern National Bancorp of Virginia, Inc. name for the holding company and the Sonabank name for all banking operations, will maintain its corporate headquarters in McLean, Virginia and the headquarters of the bank&nbsp;...Henrico-based EVB to merge with McLean-based Southern National; Sonabank will ... - Richmond.comEastern Virginia Bankshares  Southern National Bancorp of Virginia and ... - Seeking Alpha'
p6
aS'Southern National Bancorp of Virginia Inc.  Moves Higher on Volume Spike ... Equities.com - 18 hours ago Southern National Bancorp of Virginia Inc is the bank holding company for Sonabank. It offers savings accounts, money market accounts, commercial real estate loans, construction to permanent loans, development and builder loans, among others.'
p7
aS'Stock Returns: Stonegate Bank  is Beating Southern National ... CML News - Mar 12, 2017 This is a snapshot to compare the stock returns for Stonegate Bank  versus Southern National Bancorp of Virginia Inc  . The stock return points we compare look at the last three-months, six-months and twelve-months.'
p8
aS'Southern National Bancorp of Virginia Inc.  Breaks into New 52-Week High ... Equities.com - Feb 21, 2017 Shares of Southern National Bancorp of Virginia Inc.  broke into a new 52-week high yesterday, hitting a peak of $16.96.'
p9
aS'Southern National Bancorp of Virginia Inc.  Breaks into New 52-Week High ... Equities.com - Feb 27, 2017 Shares of Southern National Bancorp of Virginia Inc.  broke into a new 52-week high yesterday, hitting a peak of $17.12.'
p10
a.