(lp0
S'SORL Auto Parts Inc. SORL  Wall Street Journal - Feb 11, 2011 SORL Auto Parts Inc. SORL . search. View All companies. 2:44 PM EST 03/10/17. $3.03 USD; -0.14 -4.42%.'
p1
aS'SORL Auto Parts Reports 24% Sales Increase and Higher Earnings in the 2016 ... PR Newswire  - Aug 15, 2016 15, 2016 /PRNewswire/ -- SORL Auto Parts, Inc.  , a leading manufacturer and distributor of automotive brake systems as well as other key safety-related auto parts in China, today announced its unaudited financial&nbsp;...Sorl Auto Parts  Stock Soars on Q2 Earnings Beat - TheStreet.com'
p2
aS'SORL Auto Parts Announces Receipt of a Preliminary Non-Binding Proposal to ... PR Newswire  - Oct 31, 2015 ZHEJIANG, China, Oct. 30, 2015 /PRNewswire/ -- SORL Auto Parts, Inc. , a leading manufacturer and distributor of automotive brake systems as well as other key safety-related auto parts in China, today announced that its board of directors&nbsp;...'
p3
aS'Time To Pump The Brakes On SORL Auto Parts Seeking Alpha - Dec 20, 2016 SORL Auto Parts, Inc.  is a China-based manufacturer of automotive brake systems and other parts for commercial vehicles, including heavy-duty trucks and buses, passenger vehicles and rail.'
p4
aS'SORL Auto Parts Announces Withdrawal of Non-Binding Going Private Proposal PR Newswire  - Jan 8, 2016 8, 2016 /PRNewswire/ -- SORL Auto Parts, Inc.  , a leading manufacturer and distributor of automotive brake systems as well as other key safety-related auto parts in China, today announced that the Special Committee of ...'
p5
aS'Has The Market Forgotten About SORL Auto Parts? Seeking Alpha - May 21, 2015 I am bullish on SORL Auto Parts  because the management team seems to have understood that it is time for the company to expand from China. SORL develops, distributes and manufactures automotive brake systems, air controlling&nbsp;...'
p6
aS'SORL Auto Parts Puts A New Meaning To &quot;Undervalued Investment&quot; Seeking Alpha - Oct 14, 2015 SORL  is a Chinese based company which develops, manufactures and distributes automotive and train brake systems and other key safety related auto parts. It distributes these products to automotive original equipment manufacturers,&nbsp;...'
p7
aS'SORL Auto Parts  Q3 2016 Results - Earnings Call Transcript Seeking Alpha - Nov 17, 2016 Greetings, and welcome to the SORL Auto Parts 2016 Third Quarter Financial Results Conference Call. At this time, all participants are in a listen-only mode.'
p8
aS"Why SORL Auto Parts Inc's  ROE Of 9.8% Does Not Tell The Whole Story Simply Wall St - Mar 4, 2017 SORL Auto Parts Inc , with a ROE of 9.8% over the past twelve months, appeared relatively inefficient compared to the broader industry, which averaged 16.16% ROE.Gamco Investors INC. ET AL Has $289000 Stake in Sorl Auto Parts, Inc.  - BNB Daily "
p9
aS"3 Reasons Value Stock Investors Will Love SORL Auto Parts  September 19 ... Zacks.com - Sep 19, 2016 This method discovered several great candidates for value-oriented investors, but today let's focus on SORL Auto Parts, Inc. as this stock is looking especially impressive right now. And while there are numerous reasons why this is the case, we have&nbsp;..."
p10
a.