(lp0
S'Spartan Motors To Present Its New Cargo Van And Midsize Fleet Upfit Services ... PR Newswire  - Mar 14, 2017 CHARLOTTE, Mich., March 14, 2017 /PRNewswire/ -- Spartan Fleet Vehicles and Services , a business unit of Spartan Motors, Inc.  which encompasses the Utilimaster brand, formally unveils its new Spartan Upfit Services&nbsp;...'
p1
aS'Spartan Motors Inc.  Moves Higher on Volume Spike for March 17 Equities.com - 17 hours ago Spartan Motors Inc.  traded on unusually high volume on Mar. 17, as the stock gained 0.68% to close at $7.45. On the day, Spartan Motors Inc. saw 472,316 shares trade hands on 2,458 trades. Considering that the stock averages only a daily volume&nbsp;...SPARTAN MOTORS, INC.  Files An 8-K Financial Statements and Exhibits - Market ExclusiveInsider Buying: Spartan Motors Inc  CFO Acquires 3000 Shares of Stock - The Cerbat Gem'
p2
aS'Spartan Motors Delivers Strong Fourth Quarter and Full Year 2016 Results PR Newswire  - Feb 23, 2017 23, 2017 /PRNewswire/ -- Spartan Motors, Inc.  , a global leader in specialty chassis and vehicle design, manufacturing and assembly, today reported operating results for the fourth quarter and full year ...Spartan Motors Inc.  Plunges 7.83% on February 23 - Equities.comSpartan Motors beats Street 4Q forecasts - Yahoo Finance'
p3
aS'Spartan Motors Conference Call and Webcast of Fourth-Quarter and Full-Year ... PR Newswire  - Feb 14, 2017 14, 2017 /PRNewswire/ -- Spartan Motors, Inc.  will announce its fourth-quarter and full-year 2016 results prior to the market opening on Thursday, February 23, 2017.Spartan Motors Inc.  Plunges 7.5% on February 14 - Equities.com'
p4
aS"2017 Outlook: Daryl Adams, Spartan Motors Inc. MiBiz - Dec 26, 2016 Earlier this month, Spartan Motors Inc. struck a $36 million deal with fire truck manufacturer Smeal Fire Apparatus Co. The deal marks a turnaround for the company's emergency response business, which has struggled financially in the past, according to&nbsp;..."
p5
aS'Spartan Motors Inc.  Moves Lower on Volume Spike for February 20 Equities.com - Feb 20, 2017 Spartan Motors Inc.  traded on unusually high volume on Feb. 20, as the stock lost 0.67% to close at $7.45. On the day, Spartan Motors Inc. saw 534,123 shares trade hands on 2,719 trades. Considering that the stock averages only a daily volume of&nbsp;...'
p6
aS'Spartan Motors Inc.  Soars 13.42% on February 21 Equities.com - Feb 21, 2017 Spartan Motors Inc.  had a good day on the market for Tuesday February 21 as shares jumped 13.42% to close at $8.45. About 423,709 shares traded hands on 2,521 trades for the day, compared with an average daily volume of 173,001 shares out of&nbsp;...Spartan Motors opts out of USPS delivery vehicle prototype program - MiBiz'
p7
aS"Spartan Motors Inc.  Soars 6.87% on March 10 Equities.com - Mar 10, 2017 Spartan Motors Inc.  had a good day on the market for Friday March 10 as shares jumped 6.87% to close at $7.00. About 332,105 shares traded hands on 1,850 trades for the day, compared with an average daily volume of 208,876 shares out of a total&nbsp;...Spartan Motors Inc  CFO Frederick J. Sohm Purchases 3000 Shares - Sports PerspectivesInsider Acquisition: Spartan Motors 's President and CEO Daryl Adams ... - Herald KS"
p8
aS'Spartan Motors Expands Midwest Footprint with Addition of Feld Fire PR Newswire  - Mar 7, 2017 CHARLOTTE, Mich., March 7, 2017 /PRNewswire/ -- Spartan Emergency Response , a business unit of Spartan Motors, Inc. , today announced that it is expanding coverage in the Midwest with the addition of Feld&nbsp;...Spartan Motors adds Feld Fire to dealer network - MiBizStock Returns: Shiloh Industries Inc  is Beating Spartan Motors ... - CML News'
p9
aS'Watching Technical Levels on Shares of Spartan Motors Inc  Baxter Review - 13 hours ago Traders watching the charts on Spartan Motors Inc  may be interested in viewing the RSI. In terms of Relative Strength Index, the 14-day RSI is currently sitting at 49.1, the 7-day is 58.16, and the 3-day is spotted at 69.19.'
p10
a.