(lp0
S'Spectrum Brands, Inc. - Pet, Home &amp; Garden Creates Interactive Pet Experience ... PR Newswire  - 20 hours ago BLACKSBURG, Va., March 17, 2017 /PRNewswire/ -- From March 22-24, 2017, the Spectrum Brands, Inc. - Pet, Home &amp; Garden Division will have booth 4751 at the Global Pet Expo at the Orange County Convention Center in Orlando, Fla.'
p1
aS'Spectrum Brands Holdings Inc.  Moves Higher on Volume Spike for March 16 Equities.com - Mar 16, 2017 Spectrum Brands Holdings Inc.  traded on unusually high volume on Mar. 16, as the stock gained 1.47% to close at $142.34.Spectrum Brands Holdings, Inc.  Earns Outperform Rating from Analysts at ... - The Cerbat Gem'
p2
aS'Spectrum Brands Holdings Inc.  Moves Higher on Volume Spike for March 14 Equities.com - Mar 14, 2017 Spectrum Brands Holdings Inc.  traded on unusually high volume on Mar. 14, as the stock gained 0.83% to close at $138.98.Spectrum Brands Holdings  Analyzed By RBC Capital with $160.00 Target ... - HuronReportSpectrum Brands Holdings, Inc.  Receives $147.17 Consensus Target Price ... - Chaffey Breeze'
p3
aS'Spectrum Brands Debuts Its Newest Products From Leading Consumer Brands at the ... Business Wire  - Mar 14, 2017 MIDDLETON, Wis.----Spectrum Brands Holdings, Inc.  will debut a variety of new home appliances from the BLACK+DECKER and George Foreman brands at the 2017 International Home + Housewares Show.'
p4
aS'Spectrum Brands Holdings, Inc.  Ex-Dividend Date Scheduled for February ... Nasdaq - Feb 9, 2017 Spectrum Brands Holdings, Inc.  will begin trading ex-dividend on February 10, 2017. A cash dividend payment of $0.42 per share is scheduled to be paid on March 07, 2017.'
p5
aS'Ex-Dividend Reminder: HanesBrands, Spectrum Brands Holdings and PACCAR Forbes - Feb 8, 2017 Looking at the universe of stocks we cover at Dividend Channel, on 2/10/17, HanesBrands Inc , Spectrum Brands Holdings Inc , and PACCAR Inc.  will all trade ex-dividend for their respective upcoming dividends.'
p6
aS"Spectrum Brands Holdings'  CEO Andreas Rouve on Q4 2016 Results ... Seeking Alpha - Nov 17, 2016 Good morning and welcome to Spectrum Brands Holdings fiscal 2016 full year and fourth quarter earnings conference call and webcast."
p7
aS'Post-earnings breakout for Spectrum Brands Seeking Alpha - Jan 26, 2017 Spectrum Brands Holdings  rallies after FQ1 earnings shine and a new buyback program from the company captures the attention of investors.'
p8
aS'Spectrum Brands Holdings to Reaffirm Fiscal 2017 Guidance at Raymond James ... Business Wire  - Mar 7, 2017 MIDDLETON, Wis.----Spectrum Brands Holdings, Inc. , a global consumer products company offering an expanding portfolio of leading brands providing superior value to consumers and customers every day, announced it will&nbsp;...Spectrum Brands Holdings, Inc.  Downgraded by Zacks Investment Research ... - Chaffey BreezeMarshall Wace LLP Cuts Position in Spectrum Brands Holdings, Inc.  - The Cerbat Gem'
p9
aS'Spectrum Brands Holdings to Present at 2017 CAGNY Conference Yahoo Finance - Feb 14, 2017 Spectrum Brands Holdings, Inc. , a global consumer products company offering an expanding portfolio of leading brands providing superior value to consumers and customers every day, announced today it will participate in the 2017 Consumer Analyst&nbsp;...Stock Returns: Spectrum Brands Holdings Inc  is Beating WD-40 ... - CML News'
p10
a.