(lp0
S'Splunk Inc. Makes It 9 Straight Motley Fool - Feb 24, 2017 Splunk Inc.  released fiscal fourth-quarter 2017 results Thursday after the market closed, handily beating expectations for the ninth consecutive quarter.Splunk Inc. Announces Fiscal Fourth Quarter and Full Year 2017 Financial Results - Business Wire Splunk Inc.  Moves Lower on Volume Spike for February 23 - Equities.com'
p1
aS'Surrey Satellite Technology Improves IT Service Levels with Splunk ITSI Business Wire  - Mar 14, 2017 LONDON &amp; SAN FRANCISCO----Splunk Inc. , provider of the leading software platform for real-time Operational Intelligence, today announced that Surrey Satellite Technology is using Splunk Enterprise and Splunk IT&nbsp;...'
p2
aS'Splunk Inc  Upgraded to Buy at Zacks Investment Research The Cerbat Gem - 21 hours ago Splunk Inc logo Zacks Investment Research upgraded shares of Splunk Inc  from a hold rating to a buy rating in a report published on Thursday.Bernstein Initiates Coverage On the shares of Splunk, Inc.  to Outperform - HugoPressThe Douglas Merritt Sells 14097 Shares of Splunk Inc  Stock - Petro Global News 24'
p3
aS"Analytical Guide for Splunk Inc. , InterCloud Systems, Inc. (ICLD ... The USA Commerce - Mar 13, 2017 Shares of Splunk Inc.  surged 0.91% to $60.74. During the trading on 03/10/2017, Company's stock ranged from $60.04 to $60.97."
p4
aS"Earnings Clues on Splunk Inc. , Avnet, Inc.  Analyst's Predictions StockNewsJournal - Mar 16, 2017 Splunk Inc.  have shown a high EPS growth of -37.90% in the last 5 years and has earnings decline of -20.60% yoy. Analysts have a mean recommendation of 2.00 on this stock (A rating of less than 2 means buy, hold within the 3 range, sell ...Traders Recap: Splunk Inc.  , Affimed NV  - NYSE Journal "
p5
aS"Lookout for Price Target? DiamondRock Hospitality Company , Splunk Inc ... StockNewsJournal - Mar 2, 2017 Splunk Inc. , maintained return on investment for the last twelve months at -33.99, higher than what Reuters data shows regarding industry's average."
p6
aS'Quarterly EPS Forecast Of Splunk Inc.  At $-0.77 RealistInvestor.com - Mar 14, 2017 Brokerages following Splunk Inc.  identified average predicted price of $72.571 on equity. It was known after doing systematic assessment of entity.Stock Price of Splunk Inc.  Decreases -3.08% - Energy IndexSplunk Inc  Now Covered by Rosenblatt Securities - BNB Daily '
p7
aS"Option Market: Splunk Inc Risk Hits A Deteriorated Level CML News - Mar 14, 2017 We're going to look at a proprietary risk rating for the next 30-days built by Capital Market Laboratories  based on a large number of interactions of data points, many of which come directly from the option market for Splunk Inc  ."
p8
aS"Splunk Inc  Now Covered by Analysts at Rosenblatt Securities Chaffey Breeze - Mar 9, 2017 Splunk Inc logo Rosenblatt Securities started coverage on shares of Splunk Inc  in a report issued on Wednesday morning.Splunk Inc  Lowered to Hold at Zacks Investment Research - The Cerbat GemYesterday's Consideration Mover: Splunk Inc.  - Is stories"
p9
aS"Buy or Sell? What Analysts Recommends: Leggett &amp; Platt, Inc. , Splunk Inc ... StockNewsJournal - Mar 14, 2017 Splunk Inc. , maintained return on investment for the last twelve months at -33.99, higher than what Reuters data shows regarding industry's average."
p10
a.