(lp0
S'Ex-Dividend Reminder: Philip Morris International, Las Vegas Sands and Sempra ... Nasdaq - Mar 17, 2017 Looking at the universe of stocks we cover at Dividend Channel , on 3/21/17, Philip Morris International Inc , Las Vegas Sands Corp , and Sempra Energy  will all trade ex-dividend for their respective upcoming&nbsp;...'
p1
aS"Sempra Energy Appoints Contreras-Sweet To Board Of Directors PR Newswire  - Mar 14, 2017 SAN DIEGO, March 14, 2017 /PRNewswire/ -- Sempra Energy  today announced that Maria Contreras-Sweet has been appointed to the company's board of directors.Sempra Energy Adds Ex-SBA Admin. Maria Contreras-Sweet to Board - Times of San Diego"
p2
aS"Sempra Energy : Dividend is coming in 3 days, should you buy? Simply Wall St - Mar 17, 2017 Dividend hunters beware, Sempra Energy  will pay its upcoming dividend of $0.82 on the Sat 15 Apr 2017 and will start trading ex-dividend on the Tue 21 Mar 2017.Sempra Energy's Dividend: Why the Low Yield? - Market RealistThe Top Three Holders Of Sempra Energy  - Post Analyst"
p3
aS"BRIEF-Sempra Energy appoints Contreras-Sweet to board Reuters - Mar 14, 2017 Reuters is the news and media division of Thomson Reuters. Thomson Reuters is the world's largest international multimedia news agency, providing investing news, world news, business news, technology news, headline news, small business news, news&nbsp;..."
p4
aS"Sempra Energy  Q4 2016 Results - Earnings Call Transcript Seeking Alpha - Feb 28, 2017 Please standby, we're about to begin. Good day and welcome to the Sempra Energy Fourth Quarter Earnings Results Conference Call.Sempra Energy  Beats on Q4 Earnings, Lifts '17 View - Nasdaq"
p5
aS"SEMPRA ENERGY  Files An 8-K Departure of Directors or Certain ... Market Exclusive - Mar 14, 2017 On March 13, 2017, Sempra Energy's  Board of Directors  appointed Maria Contreras-Sweet, age 61, to serve on the Board."
p6
aS'Sempra Energy Taps Industry Vet as CIO Wall Street Journal   - Mar 8, 2017 Kevin Chase joined San Diego-based Sempra Energy as chief information officer Monday. Among key technology projects this year, the company plans to roll out self-help systems for employees to make changes to human resources services, such as&nbsp;...Sempra Energy appoints Chief Information Officer - Hydrocarbon Engineering'
p7
aS'Sempra Energy  Names Kevin Chase as CIO StreetInsider.com - Mar 7, 2017 P. Kevin Chase has joined Sempra Energy  as its chief information officer, the company announced today. In his new role, Chase, 48, will provide corporate-wide governance, policy and strategic direction for information and related technologies.P. Kevin Chase Appointed Chief Information Officer For Sempra Energy - Yahoo FinanceStock Returns: CenterPoint Energy Inc  is Beating Sempra Energy ... - CML News'
p8
aS"Sempra Energy's IEnova Unit To Report Fourth-Quarter 2016 Earnings Feb. 21 PR Newswire  - Feb 17, 2017 17, 2017 /PRNewswire/ -- Sempra Energy's Mexican subsidiary, Infraestructura Energtica Nova, S.A.B. de C.V.  , will announce its fourth-quarter 2016 earnings at 7 p.m."
p9
aS'Sempra Energy powers up $308 million pension contribution for 2017 Pensions & Investments - Mar 1, 2017 The company said in its filing Tuesday with the Securities and Exchange Commission that it planned to contribute $180 million to its Sempra Energy Consolidated plans, $90 million to Southern California Gas Co. plans, and $38 million to San Diego Gas&nbsp;...'
p10
a.