(lp0
S'3.77 MarketWatch - Mar 25, 2011 ServiceSource International Inc. Watchlist CreateSREVAlert. After Hours. Last Updated: Mar 16, 2017 4:49 p.m.. $ 3.77. 0.00 0.00%. After Hours Volume: 12K. Close, Chg, Chg %. $3.77, 0.01, 0.27%. Created with Highstock 2.1.8 After-Hours 10am 1pm 4pm&nbsp;...'
p1
aS'Servicesource International Inc.  is Attracting Smart Money Small Cap Exclusive  - Feb 17, 2017 In a just published Form 13, filed with the US Securities and Exchange Commission , Servicesource International Inc.  reported that Anson Funds Management Lp.ServiceSource International, Inc.  Analyst Coverage - NewsDen'
p2
aS'ServiceSource International Inc.  Soars 5.22% on February 10 Equities.com - Feb 10, 2017 ServiceSource International Inc.  had a good day on the market for Friday February 10 as shares jumped 5.22% to close at $5.64.'
p3
aS'Zacks: Brokerages Set $5.25 Target Price for Servicesource International Inc ... The Cerbat Gem - Mar 16, 2017 Servicesource International logo Servicesource International Inc  has been assigned a consensus broker rating score of 3.00  from the one brokers that cover the company, Zacks Investment Research reports.ServiceSource International, Inc.  Valuation According To Analysts - UK Market News'
p4
aS'ServiceSource International Inc. SREV  Wall Street Journal - Mar 19, 2011 ServiceSource International Inc. SREV . search. View All companies. AT CLOSE 4:00 PM EDT 03/14/17. $3.76 USD; 0.01 0.27%. Volume 304,222. AFTER HOURS 4:52 PM EDT 03/14/17. $3.7595 -0.0005 -0.01%. AFTER HOURS Vol 2,573.'
p5
aS'ServiceSource International Inc.  Moves Higher on Volume Spike for ... Equities.com - Feb 24, 2017 ServiceSource International Inc.  traded on unusually high volume on Feb. 24, as the stock gained 0.5% to close at $4.01.Northland Securities Downgrades Servicesource International Inc  to ... - The Cerbat GemServicesource International Inc  Stock Rating Lowered by Northland ... - Community Financial News'
p6
aS'Zacks: Servicesource International Inc  Receives Consensus ... Community Financial News - 4 hours ago Servicesource International logo Servicesource International Inc  has been assigned a consensus broker rating score of 3.00  from the one analysts that provide coverage for the company, Zacks Investment Research reports.Investor Focus on Technical Levels for ServiceSource International Inc  - Baxter ReviewNext Weeks Broker Price Targets For ServiceSource International, Inc. (NASDAQ ... - Fiscal Standard'
p7
aS"ServiceSource: An Activist-Led Pivot Seeking Alpha  - Feb 9, 2015 Now the company is looking to change how it offers subscription management services to customers. We don't see ServiceSource as so much a turnaround as a pivot. Despite being 15-years-old, ServiceSource still looks a lot like a startup in the SaaS space."
p8
aS'ServiceSource International, Inc. | $SREV Stock | Shares Fall On Fourth ... Warrior Trading News  - Feb 22, 2017 ServiceSource International, Inc., a global leader in customer success and revenue lifecycle management solutions company yesterday reported their fiscal fourth quarter and full year 2016 financial results.'
p9
aS"What Investors Should Know About ServiceSource International Inc's (SREV ... Simply Wall St - Feb 21, 2017 ServiceSource International Inc  is a small-cap-stock with a market capitalization of USD $506 Million. While investors primarily focus on the growth potential and competitive landscape of the small-cap companies, they end up ignoring a ...ServiceSource International, Inc Shares Fall On Fourth Quarter Loss - Investing.com"
p10
a.