(lp0
S"Why Shutterstock Inc. Stock Tumbled Today Motley Fool - Feb 27, 2017 Shares of Shutterstock Inc.  were heading south today after the stock-photo database company turned in a disappointing fourth-quarter earnings report.Shutterstock Reports Fourth Quarter and Full Year 2016 Financial Results - PR Newswire Shutterstock fails to meet Street's expectations - Proactive Investors USA & Canada"
p1
aS'Shutterstock Inc.  Moves Lower on Volume Spike for March 15 Equities.com - Mar 15, 2017 Shutterstock Inc.  traded on unusually high volume on Mar. 15, as the stock lost 0.1% to close at $40.30. On the day, Shutterstock Inc. saw 915,309 shares trade hands on 4,875 trades. Considering that the stock averages only a daily volume of 603 ...'
p2
aS'Shutterstock Inc.  Moves Higher on Volume Spike for March 13 Equities.com - Mar 13, 2017 Shutterstock Inc.  traded on unusually high volume on Mar. 13, as the stock gained 2.46% to close at $41.29. On the day, Shutterstock Inc. saw 3.24 million shares trade hands on 6,671 trades. Considering that the stock averages only a daily ...The Shutterstock Inc  Given New $43.00 Price Target at Cantor Fitzgerald - Petro Global News 24Buy or Sell? What Analysts Recommends: TG Therapeutics, Inc. (TGTX ... - StockNewsJournal'
p3
aS'A Look at the valuation of Shutterstock, Inc.  Business Review - Mar 17, 2017 The ERP5 Rank is an investment tool that analysts use to discover undervalued companies. The ERP5 looks at the Price to Book ratio, Earnings Yield, ROIC and 5 year average ROIC.'
p4
aS'Earnings Reaction History: Shutterstock Inc., 60.0% Follow-Through Indicator ... Nasdaq - Feb 27, 2017 Shutterstock Inc.  is due to issue its quarterly earnings report in the upcoming extended-hours session. Given its history, traders can expect light trading in the issue immediately following its quarterly earnings announcement.'
p5
aS'Stock Returns: GoDaddy Inc  is Beating Shutterstock Inc  CML News - Mar 16, 2017 This is a snapshot to compare the stock returns for GoDaddy Inc  versus Shutterstock Inc  . The stock return points we compare look at the last three-months, six-months and twelve-months.'
p6
aS'World Surf League Selects Shutterstock as Exclusive Global Distributor for its ... PR Newswire  - Mar 16, 2017 NEW YORK, March 16, 2017 /PRNewswire/ -- Shutterstock, Inc.  a leading global provider of imagery and music, announced today that it has signed an exclusive global distribution deal with World Surf League  to market and license&nbsp;...'
p7
aS'Shutterstock Inc.: SharpSpring Integrates Shutterstock as Exclusive Image Provider The Wall Street Transcript - Mar 2, 2017 NEW YORK, March 1, 2017 /PRNewswire/ -- Shutterstock, Inc. , a leading global provider of imagery and music, and SharpSpring , a global provider of cloud-based marketing technologies, today announced a partnership that&nbsp;...General Motors  Retail-Focused Go-To-Market Strategy Is Delivering ... - Seneca Globe'
p8
aS'Shutterstock Inc Risk Points versus Technology CML News - Feb 21, 2017 This is a scatter plot analysis of the critical risk points from the option market for Shutterstock Inc  compared to its own past and the Technology ETF.'
p9
aS'Stock Returns: Five9 Inc  is Beating Shutterstock Inc  CML News - Mar 10, 2017 This is a snapshot to compare the stock returns for Five9 Inc  versus Shutterstock Inc  . The stock return points we compare look at the last three-months, six-months and twelve-months.Insider Selling: Shutterstock Inc  CFO Sells $398992.66 in Stock - Chaffey BreezeShutterstock, Inc.  Impact Score At 85 - Stock Observer'
p10
a.