(lp0
S'Seagate Technology PLC  Ex-Dividend Date Scheduled for March 20, 2017 Nasdaq - Mar 17, 2017 Seagate Technology PLC  will begin trading ex-dividend on March 20, 2017. A cash dividend payment of $0.63 per share is scheduled to be paid on April 05, 2017.The Seagate Technology PLC  Receives Average Rating of Hold from Analysts - Petro Global News 24Momentum Stocks  Seagate Technology PLC , Fortive Corp  - Daily News Journal'
p1
aS"Ex-Div Reminder for Seagate Technology  Nasdaq - Mar 16, 2017 Looking at the universe of stocks we cover at Dividend Channel , on 3/20/17, Seagate Technology plc  will trade ex-dividend, for its quarterly dividend of $0.63, payable on 4/5/17.The Seagate Technology PLC's  Sector Perform Rating Reaffirmed at Royal ... - Petro Global News 24Royal Bank of Canada Reaffirms Sector Perform Rating for Seagate Technology ... - The Cerbat Gem"
p2
aS"Seagate Technology PLC  Stock Earnings Preview: Flat Is Good Enough Nasdaq - Jan 24, 2017 So what investors will be looking for in the Q2 report is whether Seagate Technology can stabilize sales and whether there's more room to improve earnings.Seagate Technology plc Earnings: A Classic Beat-and-Raise Performance - Motley FoolSeagate forecasts third-quarter revenue above estimates - Reuters"
p3
aS'3 Big Stock Charts for Tuesday: Seagate Technology PLC , American ... Investorplace.com - Mar 14, 2017 Uncertainty over the next few days, including the Federal Open Market Committee meeting outcome, has traders pulling back on their positions.'
p4
aS'MA Watch on Shares of Seagate Technology PLC  Sherwood Daily - 21 hours ago Investors may be tracking certain levels on shares of Seagate Technology PLC . The current 50-day Moving Average is 44.37, the 200-day Moving Average is 35.54, and the 7-day is noted at 47.08.'
p5
aS"YieldBoost Seagate Technology To 11.8% Using Options Nasdaq - Feb 21, 2017 Shareholders of Seagate Technology plc  looking to boost their income beyond the stock's 5.3% annualized dividend yield can sell the January 2018 covered call at the $55 strike and collect the premium based on the $2.79 bid, which&nbsp;..."
p6
aS'Why Seagate Technology PLC  Stock Stands Out Investorplace.com - Feb 21, 2017 One stock that might be an intriguing choice for investors right now is Seagate Technology PLC . This is because this security in the Computer - Storage Devices space is seeing solid earnings estimate revision activity, and is in great company ...Insider Activity of Seagate Technology plc  - FactsReporterSeagate Technology PLC  Position Reduced by Aberdeen Asset Management PLC UK - Chaffey Breeze'
p7
aS'Is Marvell Technology Group Ltd.  Stock Better Than Seagate ... BNL Finance    - Mar 17, 2017 Marvell Technology Group Ltd.  faces many of the same risks as other storage giants, like Seagate Technology plc . Marvell Technology Group Ltd.  is a company with low single digit growth, and MRVL stock&nbsp;...'
p8
aS'Western Digital and Seagate: Top Tech Picks in the Offing? Yahoo Finance - Mar 16, 2017 We believe that the rapid adoption of storage-based technologies will be the key catalyst going ahead. We see the growth trend in storage, particularly SSD, to be beneficial to companies like Seagate Technology plc STX and Western Digital Corporation&nbsp;...'
p9
aS'AQR Capital Management LLC Purchases 115511 Shares of Seagate Technology PLC  BNB Daily  - Mar 12, 2017 Seagate Technology PLC logo AQR Capital Management LLC boosted its position in Seagate Technology PLC  by 71.4% during the fourth quarter, according to its most recent 13F filing with the Securities and Exchange Commission .Analyst Review on: Seagate Technology plc  - TRAThe Seagate Technology PLC  Stock Rating Upgraded by Vetr Inc. - Petro Global News 24'
p10
a.