(lp0
S'The Top Three Holders Of Constellation Brands, Inc.  Post Analyst - Mar 17, 2017 Constellation Brands, Inc.  reached 14.95% versus a 1-year low price of $144. The stock was last seen -0.05% lower, reaching at $162.04 on Thursday, March 16, 2017.EPS Forecast Of Constellation Brands Inc  Given As $1.86 - Transcript DailyMomentum Stocks in Focus: Constellation Brands Inc  , Willis Towers ... - NYSE Journal '
p1
aS'CONSTELLATION BRANDS, INC.  Files An 8-K Departure of Directors or ... Market Exclusive - Feb 28, 2017 Constellation Brands, Inc. is an international beverage alcohol company. The Company is a producer and marketer of beer, wine and spirits with operations in the United States, Canada, Mexico, New Zealand and Italy.'
p2
aS'Constellation Brands expands parental leave benefits Rochester Business Journal - Mar 13, 2017 Constellation Brands Inc. announced Monday a comprehensive expansion of its parental leave benefits for all eligible employees in the United States.'
p3
aS"Here's Who Just Picked Up Constellation Brands Inc.  Shares Small Cap Exclusive  - Feb 28, 2017 In a just published Form 13, filed with the US Securities and Exchange Commission , Constellation Brands Inc.  reported that Soroban Capital Partners has picked up 11,141,406 of common stock as of 2017-02-27.Analyst's Predictions on Constellation Brands, Inc. , The Mosaic Company ... - StockNewsJournal"
p4
aS'Constellation Brands to Report Fourth Quarter and Full Year Fiscal 2017 ... Yahoo Finance - Mar 9, 2017 VICTOR, N.Y., March 9, 2017 - Constellation Brands, Inc. , a leading beverage alcohol company, announced today it will report financial results for its fiscal fourth quarter and full year ended Feb. 28, 2017, on Thurs.Constellation Brands, Inc.  Lowered to Hold at Zacks Investment Research - Chaffey Breeze'
p5
aS"Jim Cramer Gives His Opinion On Constellation Brands And WhiteWave Foods Benzinga - Feb 26, 2017 He said the stock lives and dies by the border tax, but he isn't concerned about it, because Constellation Brands has developed great brands. Cramer advised his viewer to take profits in WhiteWave Foods Co . The viewer gained 25 percent on&nbsp;...What are Analyst's Indicators for Constellation Brands, Inc. , Invesco ... - The USA CommerceShares of Constellation Brands Inc  Sees Large Outflow of Money - Energy Index"
p6
aS"Constellation Brands, Inc. , Energy Transfer Partners, LP  Stock ... The USA Commerce - Mar 8, 2017 Shares of Constellation Brands, Inc.  dropped -0.37% to $157.21. During the trading on 03/07/2017, Company's stock ranged from $156.45 to $158.37.2 Stocks Grabbing Analyst Attention: Constellation Brands, Inc. (NYSE:STZ ... - The Voice Registrar"
p7
aS"Equity Perception: Analyst's Indicator Review for Constellation Brands, Inc ... The USA Commerce - Mar 16, 2017 Shares of Constellation Brands, Inc.  surged 1.89% to $162.12. During the trading on 03/15/2017, Company's stock ranged from $159.28 to $162.34.Buy or Sell? What Analysts Recommends: Constellation Brands, Inc. , Chubb ... - StockNewsJournalWhat's Next For Constellation Brands, Inc  Stock? - BNL Finance   "
p8
aS"What Analysts are Predicting For Constellation Brands, Inc. , Prudential ... The USA Commerce - Mar 14, 2017 Shares of Constellation Brands, Inc.  surged 0.53% to $158.39. During the trading on 03/13/2017, Company's stock ranged from $156.16 to $158.45.Constellation Brands, Inc.  Given Consensus Rating of Buy by Analysts - Chaffey BreezeThe Constellation Brands, Inc.  Lifted to Buy at Vetr Inc. - Petro Global News 24"
p9
aS"Constellation Brands Named One of &quot;World's Most Admired Companies&quot; by FORTUNE ... Yahoo Finance - Feb 21, 2017 21 2017 - Constellation Brands, Inc. , a leading beverage alcohol company, has been recognized by FORTUNE magazine as one of the 2017 &quot;World`s Most Admired Companies.Lookout for Price Target? Constellation Brands, Inc. , Yum! Brands, Inc ... - StockNewsJournalVetr Inc. Downgrades Constellation Brands Inc  to Hold - The Cerbat Gem"
p10
a.