(lp0
S'Summer Infant, Inc.  to Ring The Nasdaq Stock Market Closing Bell GlobeNewswire  - Feb 24, 2017 Summer Infant, Inc. , a global leader in premium juvenile products, will visit the Nasdaq MarketSite in Times Square in celebration of its 10 year listing anniversary.SUMMER INFANT,INC.  Files An 8-K Departure of Directors or ... - Market Exclusive'
p1
aS"Insider Trading Activity Summer Infant, Inc.   Major Shareholder ... Market Exclusive - Mar 7, 2017 Wynnefield Partners Small Cap , Major Shareholder of Summer Infant, Inc.  reportedly Bought 6,707 shares of the company's stock at an average price of 1.82 for a total transaction amount of $12,206.74 SEC Form.Summer Infant, Inc.  Major Shareholder Wynnefield Partners Small Cap ... - Chaffey Breeze"
p2
aS'Summer Infant Names Seasoned Juvenile Products Leader Mark Messner as ... GlobeNewswire  - Jun 29, 2016 WOONSOCKET, R.I., June 29, 2016  -- Summer Infant, Inc.  , a global leader in premium infant and juvenile products, today announced that Mark Messner has been appointed&nbsp;...'
p3
aS'Summer Infant Unveils New Product Lines, Receives Top Awards at ABC Kids Expo 2015 PR Newswire  - Oct 29, 2015 &quot;We are thrilled to honor products at the ABC Kids Expo that our judges regard as innovative and deserving,&quot; said Sharon Vinderine, founder &amp; CEO of PTPA Media, Inc. &quot;The Summer Infant products that were selected as our 2015 ABC Top Picks award stood&nbsp;...'
p4
aS'Summer Infant and GOOD+ Foundation Launch the Sharing Is Caring Social Charity ... PR Newswire  - Nov 14, 2016 &quot;1 in 4 infants and toddlers in America live in households where income is below the poverty line and have parents who struggle to provide them with even the basic comforts most babies enjoy,&quot; said Mark Mesner, CEO of Summer Infant, Inc. &quot;Through the&nbsp;...'
p5
aS"Summer Infant Inc  Climbs Higher Over the Past 5 Days Business Review - Mar 15, 2017 Shares of Summer Infant Inc  have seen strong upward momentum over the past week as they have moved higher 5.43% over the past five sessions, placing them on this week's winners list.Wynnefield Partners Small Cap Purchases 10000 Shares of Summer Infant, Inc ... - Sports PerspectivesThe Wynnefield Partners Small Cap Acquires 10000 Shares of Summer Infant, Inc ... - Petro Global News 24"
p6
aS"The Controversy At Summer Infant Provides Hints On Its Potential Seeking Alpha - Jun 2, 2015 ... as well as against several other executives in Summer Infant  and its consulting company, Rest Devices, Inc. Only a month ago, Carol Bramson was the respected CEO who was credited with leading successfully the company's turnaround&nbsp;..."
p7
aS"Summer Infant, Inc.  Major Shareholder Buys $19000.00 in Stock The Cerbat Gem - 22 hours ago Summer Infant logo Summer Infant, Inc.  major shareholder Wynnefield Partners Small Cap acquired 10,000 shares of the company's stock in a transaction on Friday, March 10th.Is There Any Upside to This Stock Under $5: Summer Infant, Inc.  - Morgan Research"
p8
aS"Wynnefield Partners Small Cap Acquires 10000 Shares of Summer Infant, Inc ... Chaffey Breeze - Mar 15, 2017 Summer Infant logo Summer Infant, Inc.  major shareholder Wynnefield Partners Small Cap purchased 10,000 shares of the firm's stock in a transaction on Friday, March 10th.Summer Infant, Inc.  Major Shareholder Wynnefield Partners Small Cap ... - Sports PerspectivesInsider Trading at Summer Infant Inc.? - BBNS"
p9
aS"Summer Infant: Compelling Value With New CEO, Top-Line Boost From 'Millennial ... Seeking Alpha - May 26, 2015 SUMR is currently trading 46.8% below its 52-week high as the operational turnaround has struggled to maintain momentum and CEO Carol Bramson was replaced after leading company since early 2014."
p10
a.