(lp0
S'TravelCenters of America details costs of fuel-card dispute, amid litigation cleveland.com - Feb 28, 2017 0 shares. WESTLAKE, Ohio -- Truck-stop operator TravelCenters of America, LLC, says a fuel-card provider is withholding an extra $850,000 to $1 million a month from the Fortune 500 company as a contract dispute makes its way through the court system.TRAVELCENTERS OF AMERICA LLC  Files An 8-K Results of Operations ... - Market ExclusiveTravelCenters of America LLC  Price Target Cut to $11.00 - Chaffey Breeze'
p1
aS'TravelCenters Of America: Fuel Up Your Portfolio Seeking Alpha - Dec 16, 2016 TravelCenters of America LLC operates and franchises travel center and convenience store locations .'
p2
aS'TravelCenters of America Opens New Full-Service Travel Center in Columbia, SC Business Wire  - Mar 15, 2017 WESTLAKE, Ohio----TravelCenters of America LLC , operator of the TA and Petro Stopping Centers travel center brands, has announced the expansion of its network with the completion of construction and opening of&nbsp;...'
p3
aS"Why TravelCenters of America Stock Jumped Today Motley Fool - Jun 15, 2016 What: Shares of TravelCenters of America  got a jolt this afternoon, climbing sharply after the board rejected a takeover bid.TravelCenters of America confirms that it rebuffed a potential buyer in December - cleveland.comTravelCenters of America confirms it received, rejected a buyout offer - Crain's Cleveland Business"
p4
aS"TravelCenters of America reports softer second quarter on lower diesel sales cleveland.com - Aug 8, 2016 WESTLAKE, Ohio -- A growing portfolio of convenience stores and higher sales of gasoline and truck-stop goods couldn't make up for falling diesel purchases during the second quarter at TravelCenters of America LLC. The publicly traded company, based in&nbsp;..."
p5
aS'TravelCenters of America LLC Fourth Quarter 2016 Conference Call Scheduled for ... Yahoo Finance - Feb 21, 2017 TravelCenters of America LLC  today announced that it plans to issue a press release containing its fourth quarter 2016 financial results before the Nasdaq opens for trading on Tuesday, February 28, 2017.'
p6
aS"Travel Centers Of America: A Shareholder's Nightmare Seeking Alpha - Mar 11, 2016 Mr. Portnoy, the managing director, and his 'clique' of 'independent' directors were also able to entrench themselves at the helm of TA by using the company's LLC agreement. Therefore the shareholders can do very little to actually change anything ..."
p7
aS'Watching the ATR on Shares of TravelCenters of America LLC  Rives Journal - 18 hours ago When focusing on technical stock analysis, traders and investors may choose to study the ATR or Average True Range. The present 14-day ATR for TravelCenters of America LLC  is currently standing at 0.27. The ATR basically measures the volatility&nbsp;...'
p8
aS'TravelCenters Of America Q2 Update: Back At Where We Were Seeking Alpha - Aug 17, 2016 ... of travel centers and convenience stores  around the US interstate highway system is really only a proxy to the interests of Hospitality Properties Trust , a REIT that owns many of TA operated travel centers and of The RMR ...'
p9
aS"Are TravelCenters of America LLC's  Interest Costs Too High? Simply Wall St - Mar 4, 2017 TravelCenters of America LLC  is a small-cap-stock with a market capitalization of USD $245 Million. While investors primarily focus on the growth potential and competitive landscape of the small-cap companies, they end up ignoring a key&nbsp;...TravelCenters of America LLC  Rating Reiterated by FBR &amp; Co - Chaffey BreezeFBR &amp; Co Trims TravelCenters of America LLC  Target Price to $11.00 - The Cerbat Gem"
p10
a.