(lp0
S'Territorial Bancorp Inc.  Moves Higher on Volume Spike for March 17 Equities.com - 18 hours ago Territorial Bancorp Inc.  traded on unusually high volume on Mar. 17, as the stock gained 2.97% to close at $32.25. On the day, Territorial Bancorp Inc. saw 71,424 shares trade hands on 327 trades. Considering that the stock averages only a daily&nbsp;...Insider Sale: Vernon Hirata Unloaded 1400 Shares of Territorial Bancorp (TBNK ... - MoneyMakingArticles'
p1
aS'Territorial Bancorp Inc.  Moves Higher on Volume Spike for March 01 Equities.com - Mar 1, 2017 Territorial Bancorp Inc.  traded on unusually high volume on Mar. 01, as the stock gained 0.99% to close at $32.54. On the day, Territorial Bancorp Inc. saw 26,405 shares trade hands on 314 trades. Considering that the stock averages only a daily&nbsp;...Bessemer Group Inc. Acquires 3200 Shares of Territorial Bancorp Inc  - BNB Daily '
p2
aS'Unusual Activity Spotted in Territorial Bancorp Inc  Sherwood Daily - 21 hours ago Needle moving action has been spotted in Territorial Bancorp Inc  as shares are moving today on volatility 1.44% or $0.45 from the open.'
p3
aS'Territorial Bancorp Inc. Reports Dividends Big Island Now - May 1, 2015 Honolulu-based Territorial Bancorp Inc. , the parent company of Territorial Savings Bank, announced that its Board of Directors approved a quarterly cash dividend on its common stock of $0.16 per share.'
p4
aS'Zacks: Territorial Bancorp Inc  Given Average Rating of Buy by Analysts BNB Daily  - Mar 15, 2017 Territorial Bancorp logo Territorial Bancorp Inc  has been given a consensus broker rating score of 2.00  from the two analysts that provide coverage for the company, Zacks Investment Research reports.'
p5
aS'Stock Returns: Beneficial Bancorp Inc  versus Territorial Bancorp ... CML News - Feb 26, 2017 This is a snapshot to compare the stock returns for Beneficial Bancorp Inc  versus Territorial Bancorp Inc  .'
p6
aS'Renaissance Technologies LLC Buys 22600 Shares of Territorial Bancorp Inc  Chaffey Breeze - Mar 13, 2017 Territorial Bancorp logo Renaissance Technologies LLC increased its position in Territorial Bancorp Inc  by 4.7% during the fourth quarter, according to its most recent 13F filing with the SEC.Brokerages Anticipate Territorial Bancorp Inc  to Post $0.46 Earnings ... - Sports Perspectives'
p7
aS'Zacks: Brokerages Set $29.50 Target Price for Territorial Bancorp Inc  Chaffey Breeze - Mar 10, 2017 Territorial Bancorp logo Shares of Territorial Bancorp Inc  have been assigned an average broker rating score of 2.00  from the two brokers that cover the stock, Zacks Investment Research reports.Territorial Bancorp Inc  Stock Technicals Hit Weakness - CML News'
p8
aS'Stock Returns: Territorial Bancorp Inc  is Beating Walter ... CML News - Feb 28, 2017 This is a snapshot to compare the stock returns for Territorial Bancorp Inc  versus Walter Investment Management Corp.'
p9
aS'Stock Returns: Provident Bancorp Inc  is Beating Territorial ... CML News - Feb 27, 2017 This is a snapshot to compare the stock returns for Provident Bancorp Inc  versus Territorial Bancorp Inc  .Territorial Bancorp Inc.  Receives An Update From Brokers - The De Soto Edge'
p10
a.