(lp0
S"LendingTree Appoints JD Moriarty as Senior Vice President, Corporate Development PR Newswire  - Mar 10, 2017 CHARLOTTE, N.C., March 10, 2017 /PRNewswire/ -- LendingTree , the nation's leading online loan marketplace, today announced that J.D."
p1
aS'Why LendingTree, Inc. Stock Plummeted 18% This Morning Motley Fool - Oct 27, 2016 Shares of LendingTree, Inc.  stock plummeted as much as 18% in early Thursday trading before finding their footing and recovering some of their losses midday.LendingTree Disappoints with Low Sales Growth  - Investopedia'
p2
aS'Stock Returns: MGIC Investment Corporation  versus LendingTree Inc ... CML News - 17 hours ago This is a snapshot to compare the stock returns for MGIC Investment Corporation  versus LendingTree Inc  .'
p3
aS'LendingTree, Inc. Q4 Profit Retreats 75% Nasdaq - Feb 23, 2017  - LendingTree, Inc.  announced earnings for fourth quarter that lost ground compared to the same period last year.'
p4
aS"LendingTree Reports Record 4Q &amp; FY 2016 Results PR Newswire  - Feb 23, 2017 CHARLOTTE, N.C., Feb. 23, 2017 /PRNewswire/ -- LendingTree, Inc. , operator of LendingTree.com, the nation's leading online loan marketplace, today announced results for the quarter and fiscal year ended December 31, 2016.LendingTree Inc.  Climbed To A New High After Q4 Profit Beat - RTT NewsInsider Trading Activity LendingTree, Inc.   CEO Sold 4000 ... - Market Exclusive"
p5
aS'LendingTree, Inc. to Host Investor and Analyst Day on December 13, 2016 PR Newswire  - Oct 25, 2016 CHARLOTTE, N.C., Oct. 25, 2016 /PRNewswire/ -- LendingTree, Inc.  today announced it will host an Analyst and Investor Event on Tuesday, December 13, 2016 in New York.'
p6
aS'Lending Tree: Planting Seeds For Growth In 2017 Seeking Alpha - Jan 1, 2017 I am talking about ads for Lending Tree . Lending Tree is a lead generator or aggregator for consumer financial firms.'
p7
aS"LendingTree Reports Q3 2016 Results PR Newswire  - Oct 27, 2016 LendingTree, Inc.  operates the nation's leading online loan marketplace and provides consumers with an array of online tools and information to help them find the best loans for their needs."
p8
aS"LendingTree Acquires CompareCards PR Newswire  - Nov 16, 2016 CHARLOTTE, N.C., Nov. 16, 2016 /PRNewswire/ -- LendingTree, Inc.  announced today that it has acquired Iron Horse Holdings, LLC, which does business under the name CompareCards.LendingTree Buys CompareCards  - InvestopediaLendingTree buys Charleston's CompareCards for as much as $130M - Charleston Post Courier"
p9
aS"LendingTree Launches $50000 Small Business Grant Contest PR Newswire  - Nov 29, 2016 Small businesses interested in participating in LendingTree's $50,000 Small Business Grant Contest can submit their registration online from November 29, 2016 through January 13, 2017."
p10
a.