(lp0
S'Stock Returns: Riverview Bancorp Inc  versus Timberland Bancorp ... CML News - Feb 21, 2017 This is a snapshot to compare the stock returns for Riverview Bancorp Inc  versus Timberland Bancorp Inc  .'
p1
aS'Timberland Bancorp Fiscal Year Net Income Increases 22% to $10.15 Million GlobeNewswire  - Nov 1, 2016 01, 2016  -- Timberland Bancorp, Inc.   today reported that net income increased 22% to $10.15 million for the fiscal year ended September 30, 2016 from $8.29 million for the fiscal year&nbsp;...'
p2
aS'Stock Returns: Timberland Bancorp Inc  is Beating Atlantic Coast ... CML News - Jan 30, 2017 This is a snapshot to compare the stock returns for Atlantic Coast Financial Corporation  versus Timberland Bancorp Inc  . The stock return points we compare look at the last three-months, six-months and twelve-months.'
p3
aS'Stock Returns: Timberland Bancorp Inc  is Beating HopFed Bancorp ... CML News - Feb 24, 2017 This is a snapshot to compare the stock returns for HopFed Bancorp Inc  versus Timberland Bancorp Inc  .'
p4
aS"Top Decliner within Review: Timberland Bancorp, Inc.'s  stock price ... WsNews 4investors - Feb 27, 2017 Timberland Bancorp, Inc.'s  stock price tumbled -6.37% to finalize at $21.16 throughout previous buying and selling session."
p5
aS'Timberland Bancorp, Inc.  to Issue Quarterly Dividend of $0.11 on ... Sports Perspectives - Feb 4, 2017 Timberland Bancorp logo Timberland Bancorp, Inc.  announced a quarterly dividend on Tuesday, January 24th. Stockholders of record on Monday, February 13th will be given a dividend of 0.11 per share on Monday, February 27th.'
p6
aS"Two Buzzers within Traders Radar : Atlantic Coast Financial Corporation ... NYSE Journal  - Feb 21, 2017 On 2/17/2017, Shares of Atlantic Coast Financial Corporation  closed at $7.64 in last trading day. After noting the initial trading entry at $7.74, it reached to a day's high of $7.85 and moved to a day's low of $7.51."
p7
aS"Timberland Bank shareholders overwhelmingly vote for 'say on pay' Puget Sound Business Journal   - Jan 24, 2013 Starting in 2014, Timberland Bank shareholders will get to weigh in on the compensation given to top bank executives. Shareholders of Timberland Bancorp Inc. - the parent company of Hoquiam-based Timberland Bank - overwhelmingly approved a say on&nbsp;..."
p8
aS"Timberland's per share earnings increase 19 percent for first fiscal quarter ... Montesano Vidette - Jan 23, 2017 Timberland Bancorp has reported net income of $3.15 million, or 43 cents per diluted common share, for its first fiscal quarter that ended Dec, 31."
p9
aS"Summit CEO Ross Whipple on Arkansas' 4 Biggest Banking Issues Arkansas Business Online - Jan 27, 2014 Ross Whipple is the chairman and CEO of Summit Bancorp Inc. He is also chairman of the board of trustees at Henderson State University and a board member of the Arkansas Forestry Association and the Arkansas Children's Hospital Research Institute ..."
p10
a.