(lp0
S"What You Must Know About Tyson Foods Inc's  ROE? Simply Wall St - 21 hours ago Tyson Foods Inc , with a ROE of 19.7% over the past twelve months, appeared relatively inefficient compared to the broader industry, which averaged 35.95% ROE.Tyson Foods, Inc.  Shares Sold by Fmr LLC - BNB Daily Tyson Foods, Inc.  Downgraded by Argus to Hold - Chaffey Breeze"
p1
aS'Bird flu hits another US farm that supplies Tyson Foods Reuters - Mar 16, 2017 CHICAGO Bird flu that is highly lethal to poultry has infected a second commercial chicken farm in Tennessee that supplies Tyson Foods Inc, company and state officials said on Thursday. The finding expands an outbreak near the major chicken-producing&nbsp;...Tennessee reports 2nd AI case at a Tyson Foods contract grower - Meat & Poultry '
p2
aS"Tyson Foods CEO: The Future of Food Might Be Meatless Fox Business - Mar 7, 2017 It's a bird health issue and not a food safety or human health concern. We're responding aggressively, and are working with state and federal officials to contain the virus by euthanizing chickens located on the farm, Tyson Foods Inc. told FOX ...Tyson CEO talks meatless future - Seeking Alpha"
p3
aS"Bird flu found at Tyson Foods chicken supplier WLS-TV - Mar 7, 2017 Shares of Tyson Foods Inc. fell $1.61, or 2.5 percent, to close at $61.99 Monday. Shares of Sanderson Farms Inc., based in Laurel, Mississippi, dropped $1.86, or 2 percent, to close at $92.53 and shares of Greeley, Colorado-based Pilgrim's Pride Corp ...Bird Flu Found at US Farm That Supplies Chickens to Tyson - BloombergBird Flu Found at Tennessee Chicken Farm Affiliated With Tyson Foods - Wall Street Journal "
p4
aS"Looking at the Tea Leaves for Tyson Foods, Inc.  The USA Commerce - 22 hours ago We have gathered the technical data on Tyson Foods, Inc. , and see some interesting trends in the stock's behavior of late."
p5
aS"Sauer Resigns from Tyson Foods' Board GlobeNewswire  - Feb 27, 2017 The company supplies retail and foodservice customers throughout the United States and approximately 115 countries. Tyson Foods was founded in 1935 by John W. Tyson, whose family has continued to lead the business with his son, Don Tyson, guiding&nbsp;...Tyson Foods Board Member Resigns - Arkansas Business Online"
p6
aS'Tyson Foods, Inc.  Ex-Dividend Date Scheduled for February 27, 2017 Nasdaq - Feb 24, 2017 Tyson Foods, Inc.  will begin trading ex-dividend on February 27, 2017. A cash dividend payment of $0.225 per share is scheduled to be paid on March 15, 2017.Tyson Foods accelerates shift away from antibiotics in chicken - Reuters'
p7
aS"Is Tyson Foods a Great Stock for Value Investors? March 06, 2017 Zacks.com - Mar 6, 2017 Value investing is easily one of the most popular ways to find great stocks in any market environment. After all, who wouldn't want to find stocks that are either flying under the radar and are compelling buys, or offer up tantalizing discounts when ...Is Tyson Foods a Great Stock for Value Investors? - Nasdaq"
p8
aS'Buy or Sell? What Analysts Recommends: Tyson Foods, Inc. , Texas ... StockNewsJournal - Mar 17, 2017 ROI deals with the invested cash in the company and the return the investor realize on that money based on the net profit of the business.Between The Numbers: Tyson Foods, Inc. , Texas Instruments Incorporated  - USA Commerce Daily'
p9
aS"Tyson Foods Tops FORTUNE World's Most Admired List for Food Production GlobeNewswire  - Feb 16, 2017 SPRINGDALE, Ark., Feb. 16, 2017  -- Tyson Foods, Inc.  was recognized today by Fortune magazine as No."
p10
a.