(lp0
S'Take-Two Interactive Software Inc.  Moves Lower on Volume Spike for March 17 Equities.com - 17 hours ago Take-Two Interactive Software Inc.  traded on unusually high volume on Mar. 17, as the stock lost 0.85% to close at $58.01.Does A Low Debt-To-Equity Ratio Make Take-Two Interactive Software Inc (TTWO ... - Simply Wall StDaily Sentiment Score Of Take-Two Interactive Software, Inc.  At ... - Stock Observer'
p1
aS'Better Buy: Take-Two Interactive Software vs Electronic Arts Motley Fool - Mar 10, 2017 Investors interested in the video game industry should find both Electronic Arts  and Take-Two Interactive Software  appealing. Both are expanding margins as digital revenue opportunities from in-game content and mobile&nbsp;...'
p2
aS"Tech Stocks on Investors' Radar -- Take-Two Interactive Software, Avid ... PR Newswire  - Mar 16, 2017 Pre-market today, Stock-Callers.com reviews these four Technology stocks: Take-Two Interactive Software Inc. , Avid Technology Inc. , Equinix Inc. , and Interxion Holding N.V."
p3
aS"Earnings Clues on Aspen Technology, Inc. , Take-Two Interactive Software ... StockNewsJournal - Mar 14, 2017 Take-Two Interactive Software, Inc. , at its latest closing price of $59.51, it has a price-to-book ratio of 7.26, compared to an industry average at 2.40.Analyst's Proposition on BorgWarner Inc. , Take-Two Interactive Software ... - The USA Commerce"
p4
aS"Featured Stock Update: Take-Two Interactive Software Inc.  HugoPress - Mar 16, 2017 Oppenheimer Initiates Coverage On Take-Two Interactive Software Inc. 's stock to Outperform with no specific Price Target.Today Analysts Focus on Qorvo, Inc. , Take-Two Interactive Software, Inc ... - StockNewsJournalThe Metropolitan Life Insurance Co. NY Sells 590 Shares of Take Two ... - Petro Global News 24"
p5
aS'What is the Sell-side Saying About Take-Two Interactive Software, Inc. (NASDAQ ... Aiken Advocate - 15 hours ago When a company reports earnings, the reports are intensely examined by investors and analysts alike. Earnings are important because they can give insight into the profitability of a company.'
p6
aS"Walker &amp; Dunlop, Macy, Twitter, Take-Two Interactive Software and Lions Gate ... Yahoo Finance - Mar 3, 2017 Chicago, IL - March 03, 2017 Zacks Equity Research highlights Walker &amp; Dunlop  as the Bull of the Day Macy's  as the Bear of the Day."
p7
aS'Stock Watch on Shares of Take-Two Interactive Software, Inc.  Davidson Register - Mar 17, 2017 Investors may be tracking fundamental and technical data for Take-Two Interactive Software, Inc. .'
p8
aS'Investor Watch on Shares of Take-Two Interactive Software, Inc.  Rives Journal - Mar 16, 2017 Take-Two Interactive Software, Inc.  currently has a Gross Margin  ratio of 0.216206. Robert Novy-Marx has provided investors with insights on finding high-quality value stocks.'
p9
aS"Average Brokerage Rating Of Microsemi Corporation , Take-Two Interactive ... The USA Commerce - Mar 9, 2017 Shares of Microsemi Corporation  dropped -0.44% to $52.18. During the trading on 03/08/2017, Company's stock ranged from $52.08 to $53.33."
p10
a.