(lp0
S"3 Things You Should Know About Union Pacific Seeking Alpha - Mar 10, 2017 There's no way around it - Union Pacific's business thrives on trade. Intermodal freight - Union Pacific's largest shipping category by revenues - has a large exposure to international trade and transporting containers from Los Angeles and Long Beach ..."
p1
aS'Union Pacific Corporation CFO Rob Knight to Address the Raymond James 38th ... PR Newswire  - Mar 1, 2017 OMAHA, Neb., March 1, 2017 /PRNewswire/ -- Rob Knight, chief financial officer of Union Pacific Corporation , will address the Raymond James 38th Annual Institutional Investors Conference at 8:05 a.m. ET on Wednesday, March 8, 2017,&nbsp;...Keep It Simple: Buy Union Pacific - Seeking Alpha'
p2
aS'Stock Alert: Union Pacific Corporation Stock Volatility Hits A Tumbling Low CML News - 17 hours ago Before we cover the full analysis we make a quick alert here that Union Pacific Corporation  has seen its stock price move at a collapsing low level.'
p3
aS"Union Pacific Tops Fortune's Most Admired in Industry PR Newswire  - Feb 16, 2017 OMAHA, Neb., Feb. 16, 2017 /PRNewswire/ -- Union Pacific was named the most admired among trucking, transportation and logistics companies by Fortune for the seventh straight year, marking the 14th time in 18 years the company has been named No. 1."
p4
aS"Union Pacific's Positive Train Control Implementation Reaches New Milestones Union Pacific  - Mar 15, 2017 Union Pacific Railroad is the principal operating company of Union Pacific Corporation . One of America's most recognized companies, Union Pacific Railroad connects 23 states in the western two-thirds of the country by rail, providing a ..."
p5
aS'Union Pacific Corporation  Ex-Dividend Date Scheduled for February 24, 2017 Nasdaq - Feb 23, 2017 Union Pacific Corporation  will begin trading ex-dividend on February 24, 2017. A cash dividend payment of $0.605 per share is scheduled to be paid on March 31, 2017.Union Pacific Police Pursues Prestigious CALEA Accreditation - Union Pacific Union Pacific  Up 3.4% Since Earnings Report: Can It Continue? - Yahoo Finance'
p6
aS"Looking at the Tea Leaves for Union Pacific Corporation  The USA Commerce - 21 hours ago We have gathered the technical data on Union Pacific Corporation , and see some interesting trends in the stock's behavior of late."
p7
aS'Union Pacific Corporation , Immune Pharmaceuticals Inc  Normangee Star - 9 hours ago Union Pacific  last issued its quarterly earnings data on Thursday, January 19th. Therefore 87% are positive. Its 52-week High Value is $111.38 while its 52-week Low value is $77.29.Union Pacific Corporation  Analysts Recommendations and Insider Trading - ClickLancashireBuy or Sell? What Analysts Recommends: Union Pacific Corporation , Incyte ... - StockNewsJournal'
p8
aS'Ethanol freight train derails, starts fire, in Iowa Seeking Alpha - Mar 10, 2017 Several fuel tank cars carrying ethanol burst into flames early this morning after a Union Pacific  freight train derailed in rural Iowa.Ethanol train derails, bursts into flames in Iowa - Duluth News Tribune'
p9
aS"The Case for and Against Union Pacific Corporation  StockNewsJournal - Mar 14, 2017 Union Pacific Corporation  is an interesting player in the Services space, with a focus on Railroads. The stock has been active on the tape, currently trading at $106.45, up from yesterday's close by 0.16%.Smart Money Buying the Price Weakness of Union Pacific Corporation  - Energy IndexWhat's Fueling Investor Confidence?  Union Pacific Corporation , Incyte ... - USA Commerce Daily"
p10
a.