(lp0
S"Nevada Gold &amp; Casinos'  CEO Mike Shaunnessy on Q3 2017 Results - Earnings ... Seeking Alpha - Mar 17, 2017 Thank you, Jenny and good afternoon everyone. We appreciate you joining us today. With me on the call is Mr. Mike Shaunnessy, Chief Executive Officer; and Mr. Jim Meier, Chief Financial Officer."
p1
aS'Nevada Gold &amp; Casinos Reports Third Quarter Results Yahoo Finance - Mar 16, 2017 LAS VEGAS, March 16, 2017  -- Nevada Gold &amp; Casinos, Inc.  today announced financial results for the third quarter ended January 31, 2017.Nevada Gold &amp; Casinos, Inc.  likely to see bigger moves on its earnings ... - Post AnalystThe Nevada Gold &amp; Casinos  Set to Announce Earnings on Thursday - Petro Global News 24'
p2
aS"Nevada Gold &amp; Casinos Announces Board of Directors' Expansion GlobeNewswire  - Aug 15, 2016 LAS VEGAS, Aug. 15, 2016  -- Nevada Gold &amp; Casinos, Inc.  today announced that it has entered into a Director Nomination Agreement with Esplanade Capital Partners I LLC and Novation Companies, Inc. to increase&nbsp;...Nevada Gold &amp; Casinos plans to increase size of board - Las Vegas Review-Journal"
p3
aS'Nevada Gold &amp; Casinos to Report Third Quarter Financial Results on March 16, 2017 EconoTimes - Mar 9, 2017 LAS VEGAS, March 09, 2017 -- Nevada Gold &amp; Casinos, Inc.  today announced that its financial results for the third quarter ended January 31, 2017 will be filed with the Securities and Exchange Commission on March 16, 2017 after the&nbsp;...'
p4
aS"News Nevada Gold &amp; Casinos Ltd.UWN Wall Street Journal - Feb 11, 2011 P/E Ratio : The Price to Earnings  ratio, a key valuation measure, is calculated by dividing the stock's most recent closing price by the sum of the diluted earnings per share from continuing operations for the trailing 12 month period ..."
p5
aS"What You Must Know About Nevada Gold &amp; Casinos Inc's  0.8% ROE? Simply Wall St - Mar 16, 2017 Nevada Gold &amp; Casinos Inc  delivered 0.8% ROE over the past year, compared to 52.35% generated by its industry."
p6
aS'Nevada Gold &amp; Casinos: Undervalued Assets And Strong Management, But Risk Of ... Seeking Alpha - Jan 5, 2017 Nevada Gold &amp; Casinos   is an operator of casinos and other gaming operations in Washington State, South Dakota, and Nevada.'
p7
aS'BRIEF-Nevada Gold &amp; Casinos reports Q3 loss of $0.04/shr Reuters - Mar 26, 2013 BRIEF-Nevada Gold &amp; Casinos reports Q3 loss of $0.04/shr. March 16 Nevada Gold &amp; Casinos Inc. * Nevada Gold &amp; Casinos reports third quarter results. * Q3 revenue $18 million versus $18.4 million. * Qtrly loss per share $0.04 Source text for Eikon ...'
p8
aS'Nevada Gold &amp; Casinos Reports Second Quarter 2017 Results GlobeNewswire  - Dec 15, 2016 Despite some of the challenges we experienced in the first half of the year, we are encouraged by the changes and catalysts now in place for both Washington and Club Fortune casino operations as we enter the seasonally stronger portion of the year,&nbsp;...'
p9
aS'Nevada Gold &amp; Casinos Reports First Quarter 2017 Financial Results GlobeNewswire  - Sep 14, 2016 The prior year period includes two months of revenues from the Golden Nugget facility which was sold. On a same store basis, revenues were down $0.3 million.'
p10
a.