(lp0
S'Ventas Does It Again Seeking Alpha - Mar 15, 2017 Ventas  is a well position healthcare REIT with solid growth potential. Because its current market price is lower than the present value of its future dividend payments, dividend growth investors should consider buying shares now.Zacks Investment Research Upgrades Ventas, Inc.  to Hold - BNB Daily The Top Three Holders Of Ventas, Inc.  - Post Analyst'
p1
aS"BRIEF-Ventas Inc says buys medical campus in Rhode Island Reuters - Mar 14, 2017 WASHINGTON, March 15 President Donald Trump will announce the U.S. Environmental Protection Agency will revive a review of the feasibility of strict fuel efficiency standards through 2025, but will not seek to withdraw California's authority to set its ..."
p2
aS'Highlighting Dividend Growth For Ventas, Inc.  Business Review - 15 hours ago Ventas, Inc.  currently has a 10 year dividend growth rate of 0.02594. This number is calculated using the geometric average which provides the typical value of dividend growth over the specified period using the product of their values.'
p3
aS'Report: Another potential buyer eyes Brookdale Nashville Business Journal - Feb 17, 2017 According to a Wall Street Journal report, real estate investment trust Ventas Inc. is &quot;in talks to acquire part or all of&quot; the senior living giant.'
p4
aS'Ventas, Inc.  Rating Lowered to Sell at Goldman Sachs Group Inc Chaffey Breeze - Mar 17, 2017 Ventas logo Ventas, Inc.  was downgraded by investment analysts at Goldman Sachs Group Inc from a neutral rating to a sell rating in a report issued on Wednesday.'
p5
aS"Earnings Clues on Ventas, Inc. , Quintiles IMS Holdings, Inc.  Analyst ... StockNewsJournal - Mar 15, 2017 Investors who are keeping close eye on the stock of Ventas, Inc.  established that the company was able to keep return on investment at 2.55 in the trailing twelve month while Reuters data showed that industry's average stands at 7.75 and&nbsp;..."
p6
aS"Ventas: &quot;Necessary and appropriate&quot; to pull plug on Brookdale speculation Seeking Alpha - Mar 7, 2017 Addressing the Citi Global Property conference, Ventas  CEO Debra Cafaro says Brookdale Senior Living  is &quot;important to the industry,&quot; and an &quot;important customer.Ventas CEO: Brookdale Should Focus on Operating Business - Senior Housing NewsBrookdale's latest suitor denies potential deal - Nashville Business Journal"
p7
aS"Analysts Near-Term outlook: Juniper Networks, Inc. , Ventas, Inc.  The USA Commerce - Mar 16, 2017 Shares of Juniper Networks, Inc.  surged 0.57% to $28.30. During the trading on 03/15/2017, Company's stock ranged from $28.02 to $28.40."
p8
aS'Ventas Completes Secured Debt Financing for Ardent Health Services ... Business Wire  - Mar 13, 2017 CHICAGO----Ventas, Inc.   announced today that it has completed its previously announced secured debt financing in the amount of $700 million to a subsidiary of Ardent Health Services &nbsp;...Ardent Health Services Completes Acquisition Of LHP Hospital Group, Inc. - PR Newswire '
p9
aS"Why Investors remained confident on Ventas, Inc. , Intuit Inc. ? StockNewsJournal - Mar 17, 2017 Investors who are keeping close eye on the stock of Ventas, Inc.  established that the company was able to keep return on investment at 2.55 in the trailing twelve month while Reuters data showed that industry's average stands at 7.55 and&nbsp;..."
p10
a.