(lp0
S'WHEELER REAL ESTATE INVESTMENT TRUST, INC.  Files An 8-K ... Market Exclusive - 20 hours ago Wheeler Real Estate Investment Trust, Inc. is a self-managed commercial real estate investment company. The Company was formed for acquiring, financing, developing, leasing, owning and managing strip centers, neighborhood centers, grocery-anchored&nbsp;...Wheeler Real Estate Investment Trust Inc Stock to Reverse Split on Monday ... - Sports PerspectivesBrokers Add To Their Ratings On Wheeler Real Estate Investment Trust, Inc.  - NewsDen'
p1
aS'Wheeler Real Estate Investment Trust, Inc. Announces Tax Treatment of 2016 ... Nasdaq - Mar 8, 2017 VIRGINIA BEACH, Va., March 08, 2017  -- Wheeler Real Estate Investment Trust, Inc. , a fully-integrated, self-managed commercial real estate investment company focused on acquiring&nbsp;...Market Mover Alert: Wheeler Real Estate Investment Trust, Inc.  - Is storiesWheeler Real Estate Investment Trust, Inc. to Issue Monthly Dividend of $0.02 ... - Petro Global News 24'
p2
aS"Wheeler Real Estate Investment Trust, Inc.  Ex-Dividend Date Scheduled ... Nasdaq - Feb 23, 2017 Wheeler Real Estate Investment Trust, Inc.  will begin trading ex-dividend on February 24, 2017. A cash dividend payment of $0.018 per share is scheduled to be paid on March 31, 2017.Yesterday's Consideration Mover: Wheeler Real Estate Investment Trust, Inc ... - Is storiesNoticeable movements of Stock: Wheeler Real Estate Investment Trust, Inc.'s ... - Street Updates"
p3
aS'Wheeler Real Estate Investment Trust, Inc. Pre-Announces Fourth Quarter 2016 ... GlobeNewswire  - Jan 30, 2017 VIRGINIA BEACH, Va., Jan. 30, 2017  -- Wheeler Real Estate Investment Trust, Inc.   today reported that the Company is covering its common dividend of $0.21 on an annualized basis with&nbsp;...Wheeler Real Estate Investment Trust, Inc.  Now Covered by Wunderlich - Sports Perspectives'
p4
aS'1.71 MarketWatch - Dec 3, 2012 Wheeler Real Estate Investment Trust Inc. Watchlist CreateWHLRAlert. Closed. Last Updated: Mar 16, 2017 4:00 p.m.. $ 1.71. 0.02 1.18%. Previous Close. $1.69. Created with Highstock 2.1.8 10am 1pm 4pm $1.68 $1.69 $1.70 $1.71 $1.72 $1.73. Advanced&nbsp;...'
p5
aS'Wheeler Real Estate Investment Trust, Inc. Announces Launch of Series D ... GlobeNewswire  - Nov 28, 2016 VIRGINIA BEACH, Va., Nov. 28, 2016  -- Wheeler Real Estate Investment Trust, Inc.  , a company specializing in owning, acquiring, financing, developing, renovating, leasing and managing&nbsp;...'
p6
aS'Wheeler Real Estate Investment Trust, Inc. Prices Series D Convertible ... GlobeNewswire  - Dec 1, 2016 VIRGINIA BEACH, Va., Dec. 01, 2016  -- Wheeler Real Estate Investment Trust, Inc.  , a company specializing in owning, acquiring, financing, developing, renovating, leasing and managing&nbsp;...'
p7
aS'Is Wheeler Real Estate Investment Trust Inc., Growing Too Fast? Seeking Alpha - Nov 10, 2016 Basically Wheeler Real Estate Investment Trust Inc. , has never covered the distribution in its entire history as a public company.'
p8
aS"Wheeler Real Estate Investment Trust, Inc. Announces 2016 Annual Results, 1 ... Yahoo Finance - Feb 27, 2017 Adjusted Funds from Operations  of $0.02 per share of the Company's common stock, $0.01 par value per share  and common unit  in our operating partnership, Wheeler REIT, L.P. (the&nbsp;..."
p9
aS'Wheeler Real Estate Investment Trust, Inc. Completes the Acquisition of Four ... GlobeNewswire  - Nov 16, 2016 VIRGINIA BEACH, Va., Nov. 16, 2016  -- Wheeler Real Estate Investment Trust, Inc.  , a fully-integrated, self-managed commercial real estate investment company focused on acquiring and&nbsp;...'
p10
a.