(lp0
S'Earnings Estimates Moving Higher for Encore Wire : Time to Buy? Nasdaq - Mar 17, 2017 Encore Wire Corporation WIRE is a low-cost copper electrical building wire and cable manufacturer that could be an interesting play for investors.The Encore Wire Co.  Stake Decreased by Franklin Resources Inc. - Petro Global News 24'
p1
aS'Encore Wire Corporation  Moves Higher on Volume Spike for March 17 Equities.com - 17 hours ago Encore Wire Corporation  traded on unusually high volume on Mar. 17, as the stock gained 2.46% to close at $47.85. On the day, Encore Wire Corporation saw 222,953 shares trade hands on 1,060 trades. Considering that the stock averages only a&nbsp;...Allianz Asset Management AG Acquires 15748 Shares of Encore Wire Co.  - Chaffey BreezeEncore Wire Co.  Sees Large Decrease in Short Interest - The Cerbat Gem'
p2
aS'Breaking: Encore Wire Corporation  Stock Has Pushed Through ... CML News - 20 hours ago Breaking: Encore Wire Corporation  has hit maximum technical strength -- watch the technical oscillators for momentum gaps.'
p3
aS'Encore Wire Corporation  Moves Lower on Volume Spike for March 14 Equities.com - Mar 14, 2017 Encore Wire Corporation  traded on unusually high volume on Mar. 14, as the stock lost 0.76% to close at $45.65. On the day, Encore Wire Corporation saw 139,847 shares trade hands on 1,169 trades. Considering that the stock averages only a daily&nbsp;...'
p4
aS'Encore Wire Corp  Needle Moving 1.18% Sherwood Daily - 19 hours ago Encore Wire Corp  shares are moving today on volatility 1.18% or $0.55 from the open. The NASDAQ listed company saw a recent bid of 47.25 and 56010 shares have traded hands in the session.'
p5
aS"Encore Wire Corporation  Soars 9.37% on February 17 Equities.com - Feb 17, 2017 Encore Wire Corporation  had a good day on the market for Friday February 17 as shares jumped 9.37% to close at $47.85.Encore Wire's  CEO Daniel Jones on Q4 2016 Results - Earnings Call ... - Seeking Alpha"
p6
aS'Encore Wire Corporation  Moves Lower on Volume Spike for February 23 Equities.com - Feb 23, 2017 Encore Wire Corporation  traded on unusually high volume on Feb. 23, as the stock lost 4.14% to close at $47.50. On the day, Encore Wire Corporation saw 137,692 shares trade hands on 1,614 trades. Considering that the stock averages only a daily&nbsp;...Revenue Update on Encore Wire Corporation - Energy Index'
p7
aS'Encore Wire Corporation  Breaks into New 52-Week High on February 23 Session Equities.com - Feb 23, 2017 Shares of Encore Wire Corporation  broke into a new 52-week high yesterday, hitting a peak of $49.75. Shares closed at $47.50 after opening at $49.75 for a move of -4.14%.'
p8
aS'The Zacks Analyst Blog Highlights: Ameren, MYR Group, NVR, Encore Wire and ... Yahoo Finance - Mar 17, 2017 Stocks recently featured in the blog include Ameren Corporation , MYR Group Inc , NVR, Inc. , Encore Wire Corporation  and Alamos&nbsp;...'
p9
aS'Encore Wire Corporation  Breaks into New 52-Week High on February 22 Session Equities.com - Feb 22, 2017 Shares of Encore Wire Corporation  broke into a new 52-week high yesterday, hitting a peak of $49.55. Shares closed at $49.55 after opening at $49.15 for a move of 0.51%.Insider Trading at Encore Wire Corporation? - BBNS'
p10
a.