(lp0
S'Willis Lease Finance Corporation  Moves Lower on Volume Spike for ... Equities.com - Feb 17, 2017 Willis Lease Finance Corporation  traded on unusually high volume on Feb. 17, as the stock lost 0.69% to close at $26.04.'
p1
aS'Willis Lease Finance Corporation  Files An 8-K Results of ... Market Exclusive - Mar 13, 2017 Willis Lease Finance Corporation along with its subsidiaries is a lessor of commercial aircraft engines. The Company operates through two business segments, such as Leasing and Related Operations, and Spare Parts Sales.Willis Lease Finance Corporation  Plunges 5.33% on March 14 - Equities.comWillis Lease Finance Corporation fourth-quarter earnings drop by 11.07 percent ... - Myiris.com'
p2
aS'Scott B. Flaherty Joins Willis Lease Finance as Senior Vice President &amp; Chief ... GlobeNewswire  - May 23, 2016 NOVATO, Calif., May 23, 2016  -- Willis Lease Finance Corporation  announced today that Scott B. Flaherty is joining the company as its Senior Vice President and Chief Financial Officer beginning June 6, 2016.'
p3
aS'Willis Lease Finance Corporation  Moves Lower on Volume Spike for March 02 Equities.com - Mar 2, 2017 Willis Lease Finance Corporation  traded on unusually high volume on Mar. 02, as the stock lost 2.28% to close at $25.73.'
p4
aS'Willis Lease Finance Corporation  Moves Lower on Volume Spike for March 10 Equities.com - Mar 10, 2017 Willis Lease Finance Corporation  traded on unusually high volume on Mar. 10, as the stock lost 0.77% to close at $25.90.Willis Lease posts 4Q profit - Yahoo Finance'
p5
aS'Investor Toolkit: ERP5 update on Willis Lease Finance Corporation  Business Review - Mar 17, 2017 Willis Lease Finance Corporation  has an ERP5 rank of 4948. The ERP5 Rank is an investment tool that analysts use to discover undervalued companies.'
p6
aS'Willis Lease Finance Corporation  Moves Higher on Volume Spike for ... Equities.com - Feb 23, 2017 Willis Lease Finance Corporation  traded on unusually high volume on Feb. 23, as the stock gained 2.17% to close at $25.92.'
p7
aS"Are Willis Lease Finance Corporation's  Interest Costs Too High? Simply Wall St - Mar 6, 2017 While small-cap stocks, such as Willis Lease Finance Corporation  with its market cap of USD $166 Million, are popular for their explosive growth, investors should also pay heed to their balance sheet to judge whether the company can&nbsp;..."
p8
aS'Robert J. Keady Joins Board of Directors of Willis Lease Finance Corporation GlobeNewswire  - Mar 3, 2015 NOVATO, Calif., March 3, 2015  -- Willis Lease Finance Corporation , the premier independent jet engine lessor in the commercial finance sector, today announced that Robert J. Keady was unanimously elected to the&nbsp;...'
p9
aS'Willis Lease Expands Revolving Credit Facility Up To $1 Billion GlobeNewswire  - Apr 22, 2016 NOVATO, Calif., April 21, 2016  -- Willis Lease Finance Corporation , the premier independent jet engine lessor, announced today that it has expanded its $700 million revolving credit facility by over 40% to $1 billion,&nbsp;...'
p10
a.