(lp0
S"Grocery store stocks extend post-CPI gains Seeking Alpha - Mar 16, 2017 Grocery store stocks continue to rally after yesterday's report on consumer prices showed a drop in food prices . A larger gap between grocery store prices and restaurant menu prices helps stoke demand for the chains.Basic Consolidated EPS Of Weis Markets, Inc.  At $2.2057 - Equities Focus"
p1
aS'Weis Markets Inc. plans to convert 38 Food Lion supermarkets Virginia Business Magazine - Sep 13, 2016 Pennsylvania-based Weis Markets Inc. plans to convert 38 Food Lion supermarkets in three states, including Virginia, to Weis stores by the end of October.Former Food Lion stores opening as Weis Markets this week - WCBC Radio'
p2
aS'Weis Markets, Inc.  Valuation Review &amp; Update Business Review - 20 hours ago The ERP5 Rank is an investment tool that analysts use to discover undervalued companies. The ERP5 looks at the Price to Book ratio, Earnings Yield, ROIC and 5 year average ROIC.'
p3
aS"Four area Food Lions reopening as Weis Markets Fredericksburg.com - Oct 21, 2016 Weis Markets Inc., which is headquartered in Sunbury, Pa., announced in July that it was buying 38 Food Lion supermarket locations in Virginia, Maryland and Delaware from Delhaize Group, Food Lion's parent company."
p4
aS'Weis Markets Announces Plans To Purchase 38 Food Lion Locations From Food Lion ... PR Newswire  - Jul 14, 2016 SUNBURY, Pa., July 14, 2016 /PRNewswire/ -- Weis Markets, Inc. , a Mid-Atlantic food retailer, today announced it has reached a definitive agreement with Food Lion, LLC, to purchase the assets of 38 Food Lion supermarket locations operating&nbsp;...Weis Markets  to Acquire 38 Food Lion Locations - StreetInsider.com'
p5
aS"Weis Markets Taking A Measured Approach - Should Investors Do The Same ... Seeking Alpha - Dec 8, 2016 Today, I'm looking at a regional grocery store chain that I find very interesting for its measured approach to expansion and its local produce program."
p6
aS"Weis Markets converts two more former Food Lions in Maryland Baltimore Sun - Sep 29, 2016 Weis Markets Inc. will re-open two former Food Lion stores in Maryland under the Weis banner Friday. The stores in Edgewater in Anne Arundel County and Upper Marlboro in Prince George's County are among those Weis is converting after acquiring 38&nbsp;...Weis Markets opening today in Southern Maryland - So Md News "
p7
aS"Weis Markets, Inc.'s  stock price ends Friday with change of 1.48%: Stock ... Hot Stocks Point - 8 hours ago Weis Markets, Inc.  stock price ended its day with gain 1.48% and finalized at the value of $61.10. During its last trading session, Stock traded with the total exchanged volume of 0.37 million shares."
p8
aS"Weis Markets buys Nell's grocery store in East Berlin Central Penn Business Journal - Oct 5, 2016 The store and pharmacy will remain open in the weeks prior to the purchase's finalization, Weis Markets officials said."
p9
aS'Weis Markets, Inc.  Valuation in Focus Business Review - Mar 17, 2017 Weis Markets, Inc.  has an ERP5 rank of 5273. The ERP5 Rank is an investment tool that analysts use to discover undervalued companies.'
p10
a.