(lp0
S'Aqua America  benefits from its strong and steady growth over the ... Seeking Alpha - Mar 16, 2017 Aqua America is a holding company for water and wastewater services that serves roughly three million people in its native Pennsylvania, and in Ohio, Texas, Illinois, North Carolina, New Jersey, Indiana, and Virginia.Aqua America Inc.  Moves Higher on Volume Spike for March 17 - Equities.comAnalyst Upgrades  Aqua America  Stock Gets Upgraded By Barclays PLC ... - Market Exclusive'
p1
aS'Aqua America: As Stable As They Come Seeking Alpha - Dec 22, 2016 Aqua America, Inc. , through its subsidiaries, operates regulated utilities that provide water or wastewater services in the United States.'
p2
aS'Aqua America, Blue Buffalo Pet Products, L Brands Times of India - Mar 17, 2017 March 17  - Wall Street securities analysts revised their ratings and price targets on several U.S.-listed companies, including Adobe Systems, Blue Buffalo Pet Products and Hilton Worldwide, on Friday.'
p3
aS'Aqua America, Inc.  Ex-Dividend Date Scheduled for February 13, 2017 Nasdaq - Feb 10, 2017 Aqua America, Inc.  will begin trading ex-dividend on February 13, 2017. A cash dividend payment of $0.191 per share is scheduled to be paid on March 01, 2017.'
p4
aS"3 Things That Could Bring Aqua America Down Motley Fool - Jan 23, 2017 With over 130 years of experience, Aqua America , knows a thing or two about providing water to customers. Of course, that doesn't mean that it's unsinkable."
p5
aS'At Aqua America, It Is Raining Dividends At 2.58% Seeking Alpha - Feb 2, 2017 Founded 131 years ago, Aqua America has grown through expansion and acquisitions to a company providing water and waste services to more than three million people in eight states - Pennsylvania, Ohio, Illinois, North Carolina, Texas, Indiana, New&nbsp;...'
p6
aS'Aqua America, Inc.  Files An 8-K Results of Operations and Financial ... Market Exclusive - Feb 23, 2017 Aqua America, Inc. is a holding company. The Company, through its subsidiaries, provides water or wastewater services in Pennsylvania, New Jersey, Indiana and Virginia, among others.Aqua America Reports Earnings for 2016 - Business Wire '
p7
aS'Aqua America Breaks Above 200-Day Moving Average - Bullish for WTR Nasdaq - Feb 27, 2017 In trading on Monday, shares of Aqua America Inc  crossed above their 200 day moving average of $31.33, changing hands as high as $31.40 per share.Aqua America Inc.  Moves Higher on Volume Spike for February 28 - Equities.comForward Dividend Yield of Aqua America, Inc.  - Highland Mirror'
p8
aS'Checking the Numbers for Aqua America, Inc.  Davidson Register - Mar 17, 2017 Aqua America, Inc.  has a current Value Composite Score of 47. Using a scale from 0 to 100, a lower score would represent an undervalued company and a higher score would indicate an expensive or overvalued company.Reading the Numbers on Shares of Aqua America, Inc.  - Rives Journal'
p9
aS'What are Research Firms Saying About Aqua America, Inc. ? Aiken Advocate - 23 hours ago Investors and analysts are typically super focused on company earnings numbers when they are reported. Company earnings are a good way to evaluate the company profitability.'
p10
a.