(lp0
S"Why Wynn Resorts, Limited  Stock Jumped Today Investorplace.com - Mar 16, 2017 Wynn Resorts, Limited  The company was rated as an outperform by a group of the bank's analysts to go along with a price rating of $119.00.Shares of Wynn Resorts rally 11 percent for week - Las Vegas Review-JournalWynn Resorts, Limited  Receives $106.74 Average Target Price from Brokerages - Sports Perspectives"
p1
aS'A look at the fair value of Wynn Resorts Limited  Simply Wall St - 23 hours ago How far off is Wynn Resorts  to its intrinsic value? I am going to take a look now by estimating the Future Cash Flows and discounting them to their present value.'
p2
aS"The Technical Case for and Against Wynn Resorts, Limited  The USA Commerce - 23 hours ago We have gathered the technical data on Wynn Resorts, Limited , and see some interesting trends in the stock's behavior of late."
p3
aS"Better Buy: Wynn Resorts Ltd. vs. Vail Resorts Motley Fool - Feb 27, 2017 For Wynn Resorts , fun means casino gaming, live entertainment, shopping, fine dining, and outdoor activities like golf and swimming.Analyst's Proposition on Wynn Resorts, Limited , DDR Corp.  - The USA CommerceCraig S. Billings Named Chief Financial Officer for Wynn Resorts - Hotel News Resource "
p4
aS"Wynn Resorts, Limited : From Top to Bottom StockNewsJournal - Mar 14, 2017 Wynn Resorts, Limited  is an interesting player in the Services space, with a focus on Resorts &amp; Casinos. The stock has been active on the tape, currently trading at $104.30, up from yesterday's close by 4.77%.Morgan Stanley sees positive trends for Wynn Resorts - Seeking AlphaBuy, Sell or Hold? Analysts Approach: HCP, Inc. , Wynn Resorts, Limited ... - The USA Commerce"
p5
aS'Wynn Resorts Announces Craig S. Billings as Chief Financial Officer PR Newswire  - Feb 23, 2017 LAS VEGAS, Feb. 23, 2017 /PRNewswire/ -- Wynn Resorts today announced the appointment of Craig S. Billings to the executive team as Chief Financial Officer.Wynn Resorts Ltd  Names Craig S. Billings as CFO; Stephen Cootey to Depart - StreetInsider.comStephen Cootey stepping down at Wynn Resorts Limited - World Casino Directory'
p6
aS"BRIEF-Wynn Resorts Ltd's CEO Stephen A. Wynn's 2016 total compensation $28.2 mln Reuters - Mar 10, 2017 ... * Wynn Resorts Ltd - CEO Stephen A. Wynn's 2016 total compensation was $28.2 million versus $20.7 million in 2015 - SEC filing Source text for Eikon: (bit."
p7
aS'Wynn Resorts May Miss Another Growth Opportunity in Japan Motley Fool - Mar 13, 2017 Gaming companies Wynn Resorts , Las Vegas Sands , Melco Crown , and MGM Resorts  are all excited about the potential for Japan to open up its gaming market to megaresorts.'
p8
aS"Wynn Resorts: Going Lower Seeking Alpha - Feb 22, 2017 I think investors would do well to avoid Wynn Resorts Limited  because of a combination of spotty operations and a very optimistically priced stock.What are analysts saying about Wynn Resorts Limited's  future? - Simply Wall StEarnings Guidance on Wynn Resorts, Limited - Energy Index"
p9
aS'Wynn Resorts Once Again Outranks All Other Casino Resorts on FORTUNE Magazine ... PR Newswire  - Feb 16, 2017 Wynn Resorts, Limited  is traded on the Nasdaq Global Select Market under the ticker symbol WYNN and is part of the S&amp;P 500 Index.'
p10
a.