(lp0
S"Is US Steel A Steal? Seeking Alpha - Mar 1, 2017 The siren call of tax cuts, deregulation and infrastructural spending on everything from a sea-to-sea wall on the U.S.-Mexican border to fixing and augmenting the country's transportation resources to financing more military muscle that combined carry ..."
p1
aS'United States Steel Corporation Takes Legal Action Against Minnesota Pollution ... PR Newswire  - Feb 21, 2017 PITTSBURGH, Feb. 21, 2017 /PRNewswire/ -- United States Steel Corporation  today announced it has filed a Writ of Mandamus  against the Minnesota Pollution Control Agency .BRIEF-United States Steel files Writ of Mandamus against Minnesota Pollution ... - Reuters'
p2
aS'United States Steel Corporation Risk Points versus Materials CML News - Mar 15, 2017 This is a scatter plot analysis of the critical risk points from the option market for United States Steel Corporation  compared to its own past and the Materials ETF.'
p3
aS"Unusual Volume Spikes For: United States Steel Corp.  HugoPress - Mar 17, 2017 Cowen &amp; Co. Upgrades United States Steel Corp. 's stock to Outperform with the price target of $60. This rating was issued on 2/27/17.Checking the Overall Picture for United States Steel Corporation  - StockNewsJournalUnited States Steel Corp.  - Normangee Star"
p4
aS'US Steel Announces Executive Management Changes PR Newswire  - Feb 28, 2017 PITTSBURGH, Feb. 28, 2017 /PRNewswire/ -- United States Steel Corporation  today announced that David B. Burritt, who currently serves as executive vice president and chief financial officer, has been elected president and chief operating officer.US Steel promotes CFO to president, COO - Pittsburgh Business TimesUS Steel Corp. Appoints David Burritt President &amp; COO - Quick Facts - Nasdaq'
p5
aS"Analysts' Views: Can US Steel Continue to Rise? Market Realist - Mar 15, 2017 U.S. Steel Corporation  was among the best performing steel stocks   last year with gains of 313%. The stock has continued its good run in 2017 and is trading with year-to-date gains of 8.2%."
p6
aS"3 Big Stock Charts for Friday: United States Steel Corporation (X ... Investorplace.com - Feb 24, 2017 The market is finally giving a few signs that traders are taking profits from the Trump Rally. Yesterday's selling in the industrial, materials and steel companies confirmed that these overbought sectors were ready for a pullback. It's important to ..."
p7
aS'US Steel to close Lorain pipe mill The Morning Journal - Mar 10, 2017 ... be quenched and tempered is heated to 1,550 degrees in a furnace, then cooled with an outside diameter water quench to below 200 degrees.'
p8
aS"Friday's Vital Data: Nvidia Corporation , Facebook Inc  and United ... Investorplace.com - Feb 24, 2017 U.S. stock futures are trading broadly lower this morning as Wall Street grows uneasy about the recent string of all-time highs from the major market indices."
p9
aS'United States Steel  Up 26.7% Since Earnings Report: Can It Continue? Yahoo Finance - Mar 3, 2017 A month has gone by since the last earnings report for United States Steel Corporation (X. Shares have added about 26.7% in that time frame, outperforming the market.'
p10
a.