(lp0
S'Xcel Energy: Wait For A Pullback Seeking Alpha - Mar 3, 2017 On February 2, Xcel Energy Inc.  released their Q4 results, reporting EPS of $0.45 which beat estimates by $0.01, and revenue of $2.79 billion which missed estimates by $530 million.'
p1
aS'Xcel unveils new phase of wind power construction, with huge plant in South Dakota Minneapolis Star Tribune - Mar 16, 2017 Xcel Energy Inc. will build its largest Upper Midwest wind project ever in eastern South Dakota, the latest phase of a huge new wind power investment in Minnesota and the Dakotas.ALLETE Clean Energy, Xcel Energy sign wind farm accord - BusinessNorth.comAllete North Dakota wind farm to sell power to Xcel Energy - Electric Light & Power'
p2
aS"Xcel Energy  Up 5.6% Since Earnings Report: Can It Continue? Yahoo Finance - Mar 7, 2017 A month has gone by since the last earnings report for Xcel Energy Inc. XEL. Shares have added about 5.6% in that time frame, outperforming the market.Sell-Side Analyst's Predictions: Xcel Energy Inc. , Amgen Inc.  - The USA Commerce"
p3
aS"Xcel Energy Inc. Board Increases 2017 Common Dividend 5.9 Percent, Declares ... Yahoo Finance - Feb 22, 2017 The Xcel Energy Inc.  board of directors today raised the quarterly dividend on the company's common stock from 34 cents per share to 36 cents per share, which is equivalent to an annual rate of $1.44 per share.Drilling Down Into Xcel Energy Inc.  - StockNewsJournalEarnings Guidance on Xcel Energy Inc. - Energy Index"
p4
aS'The Top Three Holders Of Xcel Energy Inc.  Post Analyst - 20 hours ago Xcel Energy Inc.  reached 17.19% versus a 1-year low price of $38. The stock was last seen -1.07% lower, reaching at $43.58 on Thursday, March 16, 2017.The 11845 Shares in Xcel Energy Inc  Acquired by Access Financial ... - Petro Global News 24Stock you Must See: Xcel Energy Inc.  - TRA'
p5
aS"Xcel Energy a Top Socially Responsible Dividend Stock With 3.3% Yield  Nasdaq - Mar 3, 2017 Xcel Energy, Inc.  has been named a Top Socially Responsible Dividend Stock by Dividend Channel , signifying a stock with above-average ''DividendRank'' statistics including a strong 3.3% yield, as well as being recognized by prominent&nbsp;..."
p6
aS"Sell-Side Analyst's Predictions: DR Horton, Inc. , Xcel Energy Inc.  The USA Commerce - Mar 16, 2017 Shares of D.R. Horton, Inc.  surged 1.12% to $33.27. During the trading on 03/15/2017, Company's stock ranged from $32.69 to $33.47."
p7
aS'Xcel Energy Inc  To Go Ex-Dividend on March 13th Chaffey Breeze - Mar 12, 2017 Xcel Energy logo Xcel Energy Inc  declared a quarterly dividend on Wednesday, February 22nd. Stockholders of record on Wednesday, March 15th will be paid a dividend of 0.36 per share on Thursday, April 20th.Quarter 2017 Earnings Conference Call - Business Wire BlackRock Inc. Sells shares of Xcel Energy Inc.  - Petro Global News 24'
p8
aS'Earnings Clues on Xcel Energy Inc. , Costco Wholesale Corporation (COST ... StockNewsJournal - Mar 17, 2017 ROI deals with the invested cash in the company and the return the investor realize on that money based on the net profit of the business.'
p9
aS"Form 4 XCEL ENERGY INC For: Feb 21 Filed by: Savage Jeffrey S StreetInsider.com - Feb 24, 2017 Get access to the best calls on Wall Street with StreetInsider.com's Ratings Insider Elite. Get your Free Trial here. FORM 4, UNITED STATES SECURITIES AND EXCHANGE COMMISSION Washington, D.C."
p10
a.