(dp0
S'199506'
p1
(lp2
sS'199507'
p3
(lp4
sS'199504'
p5
(lp6
sS'199505'
p7
(lp8
sS'199502'
p9
(lp10
sS'199503'
p11
(lp12
sS'199501'
p13
(lp14
sS'200505'
p15
(lp16
sS'200504'
p17
(lp18
sS'200507'
p19
(lp20
sS'200506'
p21
(lp22
sS'200501'
p23
(lp24
sS'199508'
p25
(lp26
sS'199509'
p27
(lp28
sS'200803'
p29
(lp30
sS'200511'
p31
(lp32
sS'200305'
p33
(lp34
sS'200509'
p35
(lp36
sS'200508'
p37
(lp38
sS'200208'
p39
(lp40
sS'200211'
p41
(lp42
sS'200210'
p43
(lp44
sS'201207'
p45
(lp46
sS'200212'
p47
(lp48
sS'201201'
p49
(lp50
sS'201203'
p51
(lp52
sS'201202'
p53
(lp54
sS'200905'
p55
(lp56
sS'201111'
p57
(lp58
sS'201110'
p59
(lp60
sS'201112'
p61
(lp62
sS'200001'
p63
(lp64
sS'200002'
p65
(lp66
sS'200003'
p67
(lp68
sS'199511'
p69
(lp70
sS'199510'
p71
(lp72
sS'200006'
p73
(lp74
sS'199512'
p75
(lp76
sS'200008'
p77
(lp78
sS'200009'
p79
(lp80
sS'201005'
p81
(lp82
sS'201004'
p83
(lp84
sS'200503'
p85
(lp86
sS'201003'
p87
(lp88
sS'200502'
p89
(lp90
sS'201209'
p91
(lp92
sS'199102'
p93
(lp94
sS'199103'
p95
(lp96
sS'199101'
p97
(lp98
sS'199106'
p99
(lp100
sS'199107'
p101
(lp102
sS'199104'
p103
(lp104
sS'199105'
p105
(lp106
sS'200801'
p107
(lp108
sS'199108'
p109
(lp110
sS'199109'
p111
(lp112
sS'200804'
p113
(lp114
sS'200805'
p115
(lp116
sS'200806'
p117
(lp118
sS'200807'
p119
(lp120
sS'199610'
p121
(lp122
sS'199212'
p123
(lp124
sS'199210'
p125
(lp126
sS'199211'
p127
(lp128
sS'200802'
p129
(lp130
sS'200404'
p131
(lp132
sS'200405'
p133
(lp134
sS'200406'
p135
(lp136
sS'200407'
p137
(lp138
sS'200401'
p139
(lp140
sS'200402'
p141
(lp142
sS'200403'
p143
(lp144
sS'200910'
p145
(lp146
sS'200408'
p147
(lp148
sS'200012'
p149
(lp150
sS'200011'
p151
(lp152
sS'200010'
p153
(lp154
sS'200007'
p155
(lp156
sS'199810'
p157
(lp158
sS'199811'
p159
(lp160
sS'199812'
p161
(lp162
sS'200706'
p163
(lp164
sS'201008'
p165
(lp166
sS'200705'
p167
(lp168
sS'199111'
p169
(lp170
sS'199110'
p171
(lp172
sS'199112'
p173
(lp174
sS'200309'
p175
(lp176
sS'199209'
p177
(lp178
sS'199208'
p179
(lp180
sS'200308'
p181
(lp182
sS'199201'
p183
(lp184
sS'201108'
p185
(lp186
sS'199203'
p187
(lp188
sS'199202'
p189
(lp190
sS'199612'
p191
(lp192
sS'199204'
p193
(lp194
sS'199207'
p195
(lp196
sS'199206'
p197
(lp198
sS'200412'
p199
(lp200
sS'200411'
p201
(lp202
sS'200410'
p203
(lp204
sS'201104'
p205
(lp206
sS'200808'
p207
(lp208
sS'198908'
p209
(lp210
sS'199803'
p211
(lp212
sS'199802'
p213
(lp214
sS'199801'
p215
(lp216
sS'199807'
p217
(lp218
sS'199806'
p219
(lp220
sS'199805'
p221
(lp222
sS'199804'
p223
(lp224
sS'199809'
p225
(lp226
sS'199808'
p227
(lp228
sS'200710'
p229
(lp230
sS'201308'
p231
(lp232
sS'201309'
p233
(lp234
sS'200711'
p235
(lp236
sS'201304'
p237
(lp238
sS'201305'
p239
(lp240
sS'201306'
p241
(lp242
sS'201307'
p243
(lp244
sS'200712'
p245
(lp246
sS'201302'
p247
(lp248
sS'199709'
p249
(lp250
sS'199609'
p251
(lp252
sS'199608'
p253
(lp254
sS'199605'
p255
(lp256
sS'199604'
p257
(lp258
sS'199607'
p259
(lp260
sS'199606'
p261
(lp262
sS'199601'
p263
(lp264
sS'199603'
p265
(lp266
sS'199602'
p267
(lp268
sS'198909'
p269
(lp270
sS'201109'
p271
(lp272
sS'199205'
p273
(lp274
sS'198910'
p275
(lp276
sS'200304'
p277
(lp278
sS'200612'
p279
(lp280
sS'200110'
p281
(lp282
sS'200107'
p283
(lp284
sS'200709'
p285
(lp286
sS'200708'
p287
(lp288
sS'200707'
p289
(lp290
sS'198812'
p291
(lp292
sS'198811'
p293
(lp294
sS'200704'
p295
(lp296
sS'200703'
p297
(lp298
sS'200702'
p299
(lp300
sS'200701'
p301
(lp302
sS'199310'
p303
(lp304
sS'201205'
p305
(lp306
sS'201204'
p307
(lp308
sS'201312'
p309
(lp310
sS'201311'
p311
(lp312
sS'201310'
p313
(lp314
sS'199301'
p315
(lp316
sS'199302'
p317
(lp318
sS'199303'
p319
(lp320
sS'199304'
p321
(lp322
sS'199305'
p323
(lp324
sS'199306'
p325
(lp326
sS'199307'
p327
(lp328
sS'199308'
p329
(lp330
sS'199309'
p331
(lp332
sS'201012'
p333
(lp334
sS'200310'
p335
(lp336
sS'200311'
p337
(lp338
sS'200312'
p339
(lp340
sS'199410'
p341
(lp342
sS'199411'
p343
(lp344
sS'199412'
p345
(lp346
sS'200111'
p347
(lp348
sS'201211'
p349
(lp350
sS'200810'
p351
(lp352
sS'200409'
p353
(lp354
sS'201010'
p355
(lp356
sS'201011'
p357
(lp358
sS'198810'
p359
(lp360
sS'201105'
p361
(lp362
sS'200912'
p363
(lp364
sS'201007'
p365
(lp366
sS'201006'
p367
(lp368
sS'199908'
p369
(lp370
sS'199909'
p371
(lp372
sS'198912'
p373
(lp374
sS'201002'
p375
(lp376
sS'201001'
p377
(lp378
sS'198911'
p379
(lp380
sS'199902'
p381
(lp382
sS'199903'
p383
(lp384
sS'200904'
p385
(lp386
sS'201206'
p387
(lp388
sS'199906'
p389
(lp390
sS'199907'
p391
(lp392
sS'199904'
p393
(lp394
sS'199905'
p395
(lp396
sS'199704'
p397
(lp398
sS'199705'
p399
(lp400
sS'199706'
p401
(lp402
sS'199707'
p403
(lp404
sS'199701'
p405
(lp406
sS'199702'
p407
(lp408
sS'199703'
p409
(lp410
sS'200303'
p411
(lp412
sS'200302'
p413
(lp414
sS'200301'
p415
(lp416
sS'200307'
p417
(lp418
sS'199312'
p419
(lp420
sS'199311'
p421
(lp422
sS'200812'
p423
(lp424
sS'200306'
p425
(lp426
sS'199708'
p427
(lp428
sS'200811'
p429
(lp430
sS'199409'
p431
(lp432
sS'199408'
p433
(lp434
sS'199407'
p435
(lp436
sS'199406'
p437
(lp438
sS'199405'
p439
(lp440
sS'199404'
p441
(lp442
sS'199403'
p443
(lp444
sS'199402'
p445
(lp446
sS'199401'
p447
(lp448
sS'201301'
p449
(lp450
sS'200606'
p451
(lp452
sS'200607'
p453
(lp454
sS'200604'
p455
(lp456
sS'200605'
p457
(lp458
sS'200602'
p459
(lp460
sS'200603'
p461
(lp462
sS'200809'
p463
(lp464
sS'200601'
p465
(lp466
sS'200004'
p467
(lp468
sS'201303'
p469
(lp470
sS'200911'
p471
(lp472
sS'200608'
p473
(lp474
sS'200005'
p475
(lp476
sS'198905'
p477
(lp478
sS'198904'
p479
(lp480
sS'198907'
p481
(lp482
sS'198906'
p483
(lp484
sS'198901'
p485
(lp486
sS'198903'
p487
(lp488
sS'198902'
p489
(lp490
sS'199911'
p491
(lp492
sS'199910'
p493
(lp494
sS'199912'
p495
(lp496
sS'199010'
p497
(lp498
sS'199011'
p499
(lp500
sS'199012'
p501
(lp502
sS'199712'
p503
(lp504
sS'199711'
p505
(lp506
sS'199710'
p507
(lp508
sS'201009'
p509
(lp510
sS'201212'
p511
(lp512
sS'200609'
p513
(lp514
sS'200109'
p515
(lp516
sS'200108'
p517
(lp518
sS'201210'
p519
(lp520
sS'200101'
p521
(lp522
sS'201208'
p523
(lp524
sS'200103'
p525
(lp526
sS'200102'
p527
(lp528
sS'200512'
p529
(lp530
sS'200104'
p531
(lp532
sS'200510'
p533
(lp534
sS'200106'
p535
(lp536
sS'200901'
p537
(lp538
sS'200903'
p539
(lp540
sS'200902'
p541
(lp542
sS'200611'
p543
(lp544
sS'200610'
p545
(lp546
sS'200907'
p547
(lp548
sS'200906'
p549
(lp550
sS'200909'
p551
(lp552
sS'200908'
p553
(lp554
sS'199611'
p555
(lp556
sS'199009'
p557
(lp558
sS'199008'
p559
(lp560
sS'200112'
p561
(lp562
sS'200105'
p563
(lp564
sS'199003'
p565
(lp566
sS'199002'
p567
(lp568
sS'199001'
p569
(lp570
sS'199007'
p571
(lp572
sS'199006'
p573
(lp574
sS'199005'
p575
(lp576
sS'199004'
p577
(lp578
sS'200202'
p579
(lp580
sS'200203'
p581
(lp582
sS'200201'
p583
(lp584
sS'200206'
p585
(lp586
sS'200207'
p587
(lp588
sS'200204'
p589
(lp590
sS'200205'
p591
(lp592
sS'201106'
p593
(lp594
sS'201107'
p595
(lp596
sS'199901'
p597
(lp598
sS'200209'
p599
(lp600
sS'201102'
p601
(lp602
sS'201103'
p603
(lp604
sS'201101'
p605
(lp606
s.