(dp0
S'201305'
p1
(lp2
sS'201208'
p3
(lp4
sS'201302'
p5
(lp6
sS'201303'
p7
(lp8
sS'201312'
p9
(lp10
sS'201311'
p11
(lp12
sS'201310'
p13
(lp14
sS'201205'
p15
(lp16
sS'201204'
p17
(lp18
sS'201207'
p19
(lp20
sS'201206'
p21
(lp22
sS'201201'
p23
(lp24
sS'201203'
p25
(lp26
sS'201202'
p27
(lp28
sS'201010'
p29
(lp30
sS'201011'
p31
(lp32
sS'201012'
p33
(lp34
sS'201111'
p35
(lp36
sS'201110'
p37
(lp38
sS'201112'
p39
(lp40
sS'201210'
p41
(lp42
sS'201211'
p43
(lp44
sS'201308'
p45
(lp46
sS'201007'
p47
(lp48
sS'201006'
p49
(lp50
sS'201005'
p51
(lp52
sS'201004'
p53
(lp54
sS'201003'
p55
(lp56
sS'201309'
p57
(lp58
sS'201304'
p59
(lp60
sS'201209'
p61
(lp62
sS'201306'
p63
(lp64
sS'201307'
p65
(lp66
sS'201301'
p67
(lp68
sS'201009'
p69
(lp70
sS'201008'
p71
(lp72
sS'201212'
p73
(lp74
sS'201108'
p75
(lp76
sS'201109'
p77
(lp78
sS'201106'
p79
(lp80
sS'201107'
p81
(lp82
sS'201104'
p83
(lp84
sS'201105'
p85
(lp86
sS'201102'
p87
(lp88
sS'201103'
p89
(lp90
sS'201101'
p91
(lp92
s.