(lp0
S'Cambium Learning Group Reports Fourth Quarter 2016 Financial Results GlobeNewswire  - Mar 14, 2017 DALLAS, March 14, 2017  -- Cambium Learning Group, Inc.  , a leading educational solutions and services company committed to helping all students reach their full potential, announced today&nbsp;...'
p1
aS'Numbers in Focus for Cambium Learning Group, Inc.  Baxter Review - 13 hours ago Investors may be focusing on Return on Invested Capital  information for Cambium Learning Group, Inc. . ROIC is a metric that can be used to assess the efficiency of a particular company at allocating controlled capital into&nbsp;...'
p2
aS"Cambium Learning Group, Inc.  Files An 8-K Results of Operations ... Market Exclusive - Mar 17, 2017 Cambium Learning Group, Inc. is an educational solutions and services company. The Company's product lines include Learning A-Z (www."
p3
aS'Voyager Learning Company and Cambium Learning, Inc. Complete Merger PR Newswire  - Dec 8, 2009 DALLAS, Dec. 8 /PRNewswire-FirstCall/ -- Cambium Learning Group, Inc. , today announced it has completed the merger of Cambium Learning, Inc., a company serving the needs of at-risk and special student populations, and Voyager&nbsp;...'
p4
aS'Cambium Learning Group Announces 2014 Cash Income of $23 Million GlobeNewswire  - Mar 17, 2015 DALLAS, March 17, 2015  -- Cambium Learning Group, Inc.  , a leading educational solutions and services company committed to helping all students reach their full potential, announced today its&nbsp;...'
p5
aS'NWEA And Cambium Learning Group, Inc.  Learning AZ Join Hands To ... Traders350 - Feb 20, 2017 Northwest Evaluation Association and Cambium Learning Group, Inc.  Learning A-Z have announced a partnership which will see reading resources correlated to growth assessments.'
p6
aS"Cambium Learning Group Earns Reader's Choice Top 100 Distinction PR Newswire  - Dec 19, 2014 DALLAS, Dec. 19, 2014 /PRNewswire/ -- Cambium Learning Group, Inc. [NASDAQ: ABCD], the educational solutions and services company that leverages engaging, innovative technology to help all students reach their full potential, announced today that&nbsp;..."
p7
aS"Vallas Group Debuts Turnaround System with Cambium Learning PR Newswire  - Jun 6, 2012 Cambium Learning Group, as the parent company of Voyager Learning, is working with The Vallas Group to bring Paul Vallas' ideas and experience in school reform to scale."
p8
aS'ExploreLearning Gizmos wins 2017 REVERE Award GlobeNewswire  - Mar 28, 2017 DALLAS, March 28, 2017  -- ExploreLearning, a member of Cambium Learning Group, Inc. , announced that Gizmos was recognized as the best supplemental resource for science by the Association of American&nbsp;...'
p9
aS'Cambium Learning Group Director Clifford Chiu Partners With PenPal Schools to ... GlobeNewswire  - Sep 9, 2015 He is a director of Cambium Learning Group , as well as Misys plc and Tibco Software Inc.  and a senior advisor to Neuberger Berman Group in the U.S. and Hong Kong. Now with residence&nbsp;...'
p10
a.