(lp0
S'Autobytel Inc. ABTL  Wall Street Journal - Feb 11, 2011 News Autobytel Inc.ABTL. Significant News Only. 03/09/17; Press Release. Autobytel Reports Record Fourth Quarter and Full Year 2016 Results.'
p1
aS'Autobytel Receives Highest Rated DrivingSales Dealer Satisfaction Award GlobeNewswire  - Jan 27, 2017 IRVINE, Calif., Jan. 27, 2017  -- Autobytel Inc. , a pioneer and leading provider of online automotive services connecting consumers with dealers, has received the Highest Rated New Car Leads Award in the eighth&nbsp;...2017 DrivingSales Dealer Satisfaction Award Recipients Announced - PR Web '
p2
aS'Autobytel Inc.  Expected to Post Earnings of $0.11 Per Share The Cerbat Gem - 18 hours ago Autobytel logo Brokerages expect Autobytel Inc.  to post earnings of $0.11 per share for the current quarter, Zacks reports.'
p3
aS"Autobytel Partners with Videology to Bring its Expansive In-Market Auto ... PR Newswire  - Nov 17, 2016 &quot;Since 1995, we've built a business focused on connecting auto marketers and franchised dealers with relevant, high intent consumers,&quot; said Matas de Tezanos, Chief Strategy Officer of Autobytel Inc. &quot;By partnering with Videology, we're expanding that&nbsp;..."
p4
aS"Autobytel: The Turnaround Of A Surviving Dot-Com Company Seeking Alpha - Jan 11, 2017 The dot com bubble led to the demise of many 'tech' companies. A number of those that survived have struggled to find growth."
p5
aS'Autobytel Inc.  Moves Lower on Volume Spike for March 14 Equities.com - Mar 14, 2017 Autobytel Inc.  traded on unusually high volume on Mar. 14, as the stock lost 4.74% to close at $13.05. On the day, Autobytel Inc. saw 112,926 shares trade hands on 1,074 trades. Considering that the stock averages only a daily volume of 74,948&nbsp;...'
p6
aS'Autobytel Inc.  Moves Lower on Volume Spike for March 13 Equities.com - Mar 13, 2017 Autobytel Inc.  traded on unusually high volume on Mar. 13, as the stock lost 3.39% to close at $13.70. On the day, Autobytel Inc. saw 111,322 shares trade hands on 1,131 trades. Considering that the stock averages only a daily volume of 73,065&nbsp;...'
p7
aS'AutoWeb a Top Driver of Car Buying Traffic for Web2Carz GlobeNewswire  - Jan 25, 2017 IRVINE, Calif., Jan. 25, 2017  -- Autobytel Inc. , a pioneer and leading provider of online automotive services connecting consumers with dealers, recently shared highlights of the effectiveness of its AutoWeb paid search&nbsp;...'
p8
aS'Autobytel to Sell its Specialty Finance Leads Product to Internet Brands GlobeNewswire  - Dec 20, 2016 IRVINE, Calif., Dec. 20, 2016  -- Autobytel Inc. , a pioneer and leading provider of digital automotive services connecting in-market car buyers with dealers and OEMs, has signed a definitive agreement to sell its specialty&nbsp;...Autobytel sells its specialty finance leads product - Seeking AlphaAutobytel Sells Specialty Product - Orange County Business Journal'
p9
aS'3 Reasons To Buy Autobytel Seeking Alpha - Jan 2, 2015 On November 5, Autobytel  reported Q3 results. Total revenue in Q3 increased 26% year-over-year to $27.4 million.'
p10
a.