(lp0
S"P10 Industries, Inc., formerly Active Power Inc., update on expedited hearing ... GlobeNewswire  - Apr 5, 2017 AUSTIN, Texas, April 05, 2017  -- P10 Industries, Inc. , formerly Active Power, Inc., today announced the results of the expedited hearing on P10 Industries, Inc.'s:  Expedited Application of P10 Industries, Inc. for Order&nbsp;..."
p1
aS'P10 Industries, Inc., formerly Active Power Inc., files for reorganization ... GlobeNewswire  - Mar 22, 2017 AUSTIN, Texas, March 22, 2017  -- P10 Industries, Inc. , formerly Active Power, Inc., today announced it has filed for re-organization under Chapter 11 of the Federal Bankruptcy Code, using a prepackaged plan of&nbsp;...'
p2
aS'P10 Industries, Inc., formerly Active Power Inc., files its Annual Report on ... Marketwired  - Mar 14, 2017 AUSTIN, TX-- - P10 Industries, Inc. , formerly Active Power, Inc., today announced it has filed with the Securities and Exchange Commission its Annual Report on Form 10-K for the fiscal year ended December ...'
p3
aS'P10 Industries Announces Delisting and Deregistration of Common Stock Marketwired  - Nov 30, 2016 AUSTIN, TX-- - P10 Industries, Inc.  today announced it has filed with the U.S.'
p4
aS"Active Power  Announces Completion of Sale; Will Change Name to 'P10 ... StreetInsider.com - Nov 21, 2016 &quot;The closing of this deal is a significant milestone,&quot; said Mark A. Ascolese, who is continuing as president and CEO of the newly named company P10 Industries, Inc. &quot;The financial strength and long-term approach of Langley Holdings PLC, Piller's parent&nbsp;..."
p5
aS'In wake of big asset sale, Austin company brings in funding, restructures with ... Austin Business Journal - Mar 28, 2017 Piller Power Systems Inc., a subsidiary of England-based Langley Holdings PLC, bought the backup power system portion of its business and continues to operate the &quot;Active Power&quot; brand.'
p6
aS'Active Power Begins New Business Model to Support Monetization of Intellectual ... Yahoo Finance - Nov 19, 2016 AUSTIN, TX-- - Active Power  today announced it is changing its name to P10 Industries, Inc., following the previously disclosed sale of substantially all of its operating assets and liabilities to Piller ...Active Power Sale Complete to Langley Holdings PLC - Marketwired '
p7
aS"MWC 2017: GoPro integrates app with Huawei's new smartphone P10 in China push Financial Express - Feb 26, 2017 The app, called Quik, will come preinstalled on Huawei P10 smartphones as the main editing option for consumers, GoPro announced Sunday at the Mobile World Congress in Barcelona.GoPro Inc  Integrates Huawei To Access International Markets - Market Exclusive"
p8
aS'Losses from fake stamps impact on growth  BIR Philippine Star - Feb 1, 2017 BIR Deputy Commissioner Jesus Clint Aranas said leakages caused by the use of fake tax stamps in the tobacco industry could exceed the previous industry estimate of P10 billion. More , big enough to make an impact on our economy,&nbsp;...Fake tax stamps probe widened - Inquirer.net'
p9
aS'Filinvest Land allots over P10 billion for Mindanao Expansion Inquirer.net - Sep 23, 2016 Filinvest Land, Inc.  is set to invest an additional P5 billion in the next three  years in Mindanao as it expands its Futura Homes economic housing, its Spatial Medium-Rise Building  portfolio with new projects in South Cotabato and Davao ...'
p10
a.