(lp0
S'Advanced Emissions Solutions Announces Resolution of SEC Inquiry GlobeNewswire  - Mar 29, 2017 HIGHLANDS RANCH, Colo, March 29, 2017  -- Advanced Emissions Solutions, Inc.  today announced that it has reached a settlement with the Securities and Exchange Commission  to resolve the previously&nbsp;...The Zacks: Advanced Emissions Solutions, Inc.  Receives Consensus ... - Petro Global News 24Advanced Emissions Solutions  agreed to pay civil monetary penalty ... - Benchmark Monitor'
p1
aS'Advanced Emissions Solutions to Host Fourth Quarter and Year-end 2016 ... GlobeNewswire  - Oct 26, 2016 HIGHLANDS RANCH, Colo., Feb. 22, 2017  -- Advanced Emissions Solutions, Inc.   today announced that it will report results for the fourth quarter and full year 2016 on March 14, 2017.'
p2
aS'Advanced Emissions Solutions Inc. ADES  Wall Street Journal - Feb 12, 2011 News Advanced Emissions Solutions Inc.ADES. Significant News Only. 03/29/17; Press Release. Advanced Emissions Solutions Announces Resolution of SEC Inquiry.'
p3
aS'Insiders Are Buying Advanced Emissions Solutions, Inc.  The Herald - 21 hours ago Advanced Emissions Solutions, Inc.  stands -21.23% away from its 50-day simple moving average and also -6.62% away from the 200-day average.Advanced Emissions Solutions, Inc.  Reaches $8.34 After 3.00% Up Move ... - Herald KSZacks: Advanced Emissions Solutions, Inc.  Receives Average Rating of ... - Sports Perspectives'
p4
aS'Trading Scanner: Following Shares of Advanced Emissions Solutions, Inc ... Baxter Review - 11 hours ago Advanced Emissions Solutions, Inc. presently has an ROIC of -0.192594. The current ROIC 5 year average is -0.230862 and the ROIC Quality ratio is currently 0.541471.'
p5
aS'Advanced Emissions Solutions Names Heath Sampson as Chief Executive Officer GlobeNewswire  - Apr 7, 2015 HIGHLANDS RANCH, Colo., April 7, 2015  -- Advanced Emissions Solutions, Inc.  today announced the appointment of L. Heath Sampson as President and Chief Executive Officer.'
p6
aS'Advanced Emissions Solutions Receives Anticipated NASDAQ Delisting Letter GlobeNewswire  - Feb 2, 2015 HIGHLANDS RANCH, Colo., Feb. 2, 2015  -- Advanced Emissions Solutions, Inc.   today announced that as expected, it received a notification letter from The NASDAQ Stock Market LLC on January 30,&nbsp;...Advanced Emissions Solutions  Stock Closed Down Today on NASDAQ Decision ... - TheStreet.comAdvanced Emissions Solutions  Receives Nasdaq Listing Letter - StreetInsider.com'
p7
aS"Advanced Emissions Solutions Announces Intention to Separate Refined Coal Business GlobeNewswire  - Feb 12, 2015 HIGHLANDS RANCH, Colo., Feb. 12, 2015  -- Advanced Emissions Solutions, Inc.  announced today that its Board of Directors  has decided to pursue the separation of the Company's Refined Coal-related&nbsp;..."
p8
aS'Advanced Emissions Solutions Provides Operations Update GlobeNewswire  - Mar 12, 2015 Advanced Emissions Solutions, Inc. serves as the holding entity for a family of companies that provide emissions solutions to customers in the power generation and other industries.'
p9
aS'Advanced Emissions Solutions Reports Second Quarter 2016 Results GlobeNewswire  - Aug 9, 2016 HIGHLANDS RANCH, Colo., Aug. 09, 2016  -- Advanced Emissions Solutions, Inc.   today filed its Quarterly Report on Form 10-Q and reported financial results for the second quarter ended&nbsp;...'
p10
a.