(lp0
S'Stocks: The FY2016 EPS Estimates for Almost Family Inc  Reduced by Analyst Petro Global News 24 - Dec 31, 2016 Almost Family Inc  - Analysts at SunTrust Banks decreased their FY2016 earnings per share estimates for Almost Family in a research report issued on Thursday.'
p1
aS"Here's how much Almost Family paid its top executives in 2016 Louisville Business First - Apr 11, 2017 According to a filing with the U.S. Securities and Exchange Commission, Almost Family Inc.'s CEO William Yarmuth had total compensation for 2016 of about $2.7 million."
p2
aS'Almost Family grows with another acquisition Louisville Business First - Jan 3, 2017 Louisville Business First reported in October that Louisville-based Almost Family , a home health nursing and personal care services provider, had reached a $128 million deal to buy an 80 percent stake in CHS Home Health, a subsidiary of&nbsp;...'
p3
aS"Is April the month to buy Almost Family Inc  for your growth portfolio? Simply Wall St - Mar 31, 2017 Looking at Almost Family Inc 's fundamentals some investors are wondering if its last closing price of $48.9 represents a good value for money for this high growth stock."
p4
aS'Trading Covered Calls: Almost Family Inc  : Using Covered Calls ... CML News - Apr 15, 2017 As we look at Almost Family Inc we note that a covered call is one of the most common implementations of an option strategy, but the analysis completed when employing the covered call often times lacks the necessary rigor especially surrounding earnings.'
p5
aS'Almost Family Announces Proposed Offering of 2500000 Shares of Common Stock GlobeNewswire  - Jan 17, 2017 Almost Family, Inc., founded in 1976, is a leading national provider of home healthcare services, with 340 branch locations in 26 states, following the completion of its joint venture transaction with Community Health Systems, Inc.  (NYSE:CYH ...'
p6
aS'Almost Family inks $128M acquisition deal Louisville Business First - Oct 31, 2016 Under terms of the deal, Almost Family will buy an 80 percent stake in the subsidiary of CHS , a Franklin,Tenn.-based hospital giant.'
p7
aS"Almost Family Deal Forms Largest Hospital, Home Health Joint Venture Home Health Care News - Oct 17, 2016 The result will be the biggest public hospital-home health joint venture in the nation, the companies announced Monday. Almost Family  will acquire an 80% equity interest the home health business of Community Health Systems &nbsp;...How a $128M home health deal could impact St. Petersburg's biggest hospital - Tampa Bay Business Journal"
p8
aS"BRIEF-Almost Family Q4 adjusted earnings per share $0.59 Reuters - Mar 7, 2017 March 26 Shares of Viacom Inc could rise 40 percent in the next year as the New York-based media company's new CEO Bob Bakish focuses on its Paramount Pictures studio and a handful of its networks to turn the business around, according to Barron's."
p9
aS'Stock Returns: Almost Family Inc  versus CorVel Corporation ... CML News - Apr 12, 2017 This is a snapshot to compare the stock returns for Almost Family Inc  versus CorVel Corporation  .'
p10
a.