(lp0
S"Athens Federal, Your Hometown Bank Seeking Alpha - May 6, 2016 In 2009, depositors of Athens Federal Community Bank adopted a plan of conversion from a mutual form to a stock savings bank that would result in all Athens Federal's capital stock being owned by Athens Bancshares Corporation . AFCB offered 100% of its&nbsp;..."
p1
aS"Athens Bancshares  Analysts See $0.00 EPS; Soros Fund Management Has ... High Point Observer - Apr 12, 2017 Soros Fund Management Llc increased Model N Inc  stake by 2.41% reported in 2016Q4 SEC filing. Soros Fund Management Llc acquired 65,000 shares as Model N Inc 's stock declined 17.98%."
p2
aS"13 Micro-Cap Bank Stocks That Could Add Big Profits to Your Portfolio TheStreet.com - Mar 24, 2015 &quot;The [small-to-mid-cap] bank group isn't without its challenges, most notably the impact on bank profitability from the persistently low interest rate environment both domestically and abroad,&quot; said Jefferson Harralson, Keefe, Bruyette &amp; Woods' head of&nbsp;..."
p3
aS'Top 200 community banks  where does yours rank? CFODailyNews.com - May 3, 2013 These days more and more of your peers are bringing their business to community banks in search of more personal and personalized service.'
p4
aS'Recent Activity In The Banking Industry: M&amp;As, Branch Openings And Buybacks Seeking Alpha - Jun 22, 2016 Simmons First National Corporation of Pine Bluff, Arkansas is acquiring 100% of Citizens National Bank of Athens, Tennessee. It was filed on June 11th, 2016. Peoples Equity Corporation of Wells, Minnesota is going to acquire 100% of Paragon Bank of ...'
p5
aS"Closing an insolvent bank fairly simple process Online Athens - Jun 21, 2009 The Georgia Department of Banking and Finance closed Freedom Bank's branches in Commerce, Homer, Jefferson and Winder on March 6 for the weekend and turned them over to the Federal Deposit Insurance Corp., which in turn sold the bank to&nbsp;..."
p6
aS'Atlantic Capital Bank and UTC Renew Multi-Year Partnership Agreement GoMocs.com - Mar 31, 2017 Atlantic Capital Bank, NA and the University of Tennessee at Chattanooga announce the renewal of a multi-year corporate partnership agreement that will positively impact UTC students, fans and alumni according to UTC Director of Athletics David ...'
p7
aS'Simmons, Home BancShares Set To Vault Into $10B Club Arkansas Business Online - Jan 16, 2017 The 2015 purchase of Community First Bancshares Inc. of Union City, Tennessee, provided a door opener to the 2016 acquisition of Citizens National Bancorp Inc. of Athens, Tennessee. ... Recent Acquisition Activity By Simmons First National Corp.'
p8
aS'Susquehanna Bancshares in Deal to Be Sold to BB&amp;T New York Times - Nov 12, 2014 Updated, 8:59 p.m. | The BB&amp;T Corporation, a big lender based in North Carolina, is doing something most of its peers have shied away from since the financial crisis: buying another bank. With its $2.5 billion acquisition of Susquehanna Bancshares,&nbsp;...'
p9
aS"Simmons First to Pay $72M for Third Bank in Tennessee Arkansas Business Online - Nov 18, 2016 Simmons First National Corp. of Pine Bluff announced Thursday evening that it had struck a deal to acquire another Tennessee bank: First South Bank of Jackson. Publicly traded SFNC, parent of Simmons Bank, will buy First South's holding company,&nbsp;..."
p10
a.