(lp0
S'Applied Industrial Technologies to Report Third Quarter Earnings and Conduct ... GlobeNewswire  - Apr 6, 2017 CLEVELAND, April 06, 2017  -- Applied Industrial Technologies  today announced plans to release its fiscal 2017 third quarter financial results on Thursday, April 27, 2017, before the market opens.Applied Industrial Technologies  Earning Somewhat Favorable Press ... - The Cerbat Gem'
p1
aS'Fmr LLC Purchases 7006 Shares of Applied Industrial Technologies  The Cerbat Gem - 5 hours ago Applied Industrial Technologies logo FMR LLC increased its position in Applied Industrial Technologies  by 1.6% during the fourth quarter, according to its most recent 13F filing with the Securities and Exchange Commission .Applied Industrial Technologies  Downgraded by Zacks Investment Research ... - BBNSApplied Industrial Technologies  Getting Very Favorable Press Coverage ... - Sports Perspectives'
p2
aS'Applied Industrial Technologies Acquires Seals Unlimited of Burlington, Ontario GlobeNewswire  - Jun 15, 2016 CLEVELAND, June 15, 2016  -- Applied Industrial Technologies  today announced it has acquired Seals Unlimited , a distributor of sealing, fastener and hose products, located in Burlington, Ontario.'
p3
aS'Applied Industrial Technologies  Q1 2017 Results - Earnings Call Transcript Seeking Alpha - Oct 26, 2016 Ladies and gentlemen, thank you for standing by. Welcome to the Fiscal 2017 First Quarter Earning Call for Applied Industrial Technologies. During the presentation, all participants will be in a listen-only mode. Afterwards, we will conduct a&nbsp;...'
p4
aS'Applied Industrial Technologies Names Mark P. Gilk President of Applied Canada GlobeNewswire  - Jan 6, 2016 SASKATOON, Saskatchewan, Jan. 06, 2016  -- Applied Industrial Technologies today announced that Mark P. Gilk has been named President of Applied Industrial Technologies - Canada . In this position, he will be&nbsp;...Applied Industrial Technologies Acquires HUB Industrial Supply - Industrial DistributionApplied Industrial Technologies  Announces Acquisition of HUB Industrial ... - StreetInsider.com'
p5
aS'Stock Alert: Applied Industrial Technologies Inc Realized Volatility Hits A ... CML News - Mar 24, 2017 Before we cover the full analysis we make a quick alert here that Applied Industrial Technologies Inc  has seen its stock price move at a weakened level.'
p6
aS'Applied Industrial Technologies, Inc. and Beacon Roofing Supply, Inc. Head to ... CML News - Apr 14, 2017 Beacon Roofing Supply Inc has a substantially higher fundamental rating then Applied Industrial Technologies Inc which has an impact on the head-to-head comparison.'
p7
aS'Which insiders are trading Applied Industrial Technologies, Inc. ? Post Analyst - Mar 20, 2017 Applied Industrial Technologies, Inc.  reached 55.8% versus a 1-year low price of $41.11. The stock was last seen 2.14% higher, reaching at $62.15 on Mar. 17, 2017.Applied Industrial Technologies  Shares Bought by Thrivent Financial for ... - Sports PerspectivesNext Weeks Broker Price Targets For Applied Industrial Technologies, Inc ... - Fiscal Standard'
p8
aS'Stock Returns: Rush Enterprises Inc  is Beating Applied ... CML News - Mar 14, 2017 This is a snapshot to compare the stock returns for Applied Industrial Technologies Inc  versus Rush Enterprises Inc  .'
p9
aS'Stock Alert: Applied Industrial Technologies Inc Stock Volatility Hits A ... CML News - Mar 24, 2017 Before we cover the full analysis we make a quick alert here that Applied Industrial Technologies Inc  has seen its stock price move at a rock bottom low level.'
p10
a.