(lp0
S'American International Industries, Inc. OTC Symbol: AMIN Subsidiary Sold 65 ... GlobeNewswire  - Dec 22, 2016 HOUSTON and KEMAH, Texas, Dec. 22, 2016  -- American International Industries, Inc.  today announced that its wholly owned subsidiary, American International Texas Properties, Inc. announced the sale of 65 acres in&nbsp;...'
p1
aS'American International Industries, Inc., Chairman Daniel Dror and Mr. &amp; Mrs ... GlobeNewswire  - Apr 29, 2015 HOUSTON and KEMAH, Texas, April 29, 2015  -- American International Industries, Inc.   today announced the signing of a settlement agreement to resolve a dispute between the Company,&nbsp;...'
p2
aS'American International Industries, Inc. Announces Wholly-Owned Subsidiaries ... GlobeNewswire  - Jan 6, 2014 HOUSTON and KEMAH, Texas, Jan. 6, 2014  -- American International Industries, Inc.  , by its CEO, Daniel Dror, today announced that its wholly-owned subsidiary, Northeastern Plastics, Inc. ,&nbsp;...'
p3
aS'Arbitration Hearings Scheduled: Wolinskys vs. American International ... Send2Press Newswire  - Apr 16, 2015 HOUSTON, Texas, April 16, 2015  - Arbitration hearings have been scheduled for May 8, 2015 and May 13-15, 2015 regarding breach of contract, defamation and fraud claims for at least $131,081.21 filed against American&nbsp;...'
p4
aS'The Electro Scientific Industries, Inc.  Scheduled to Post Quarterly ... Petro Global News 24 - Jan 31, 2017 The Manufacturers Life Insurance Company purchased a new stake in Electro Scientific Industries during the third quarter valued at approximately $116,000.'
p5
aS'John Paulson Buys Time Warner, Harman International Industries, B/E Aerospace ... GuruFocus.com - Mar 14, 2017 Investment company John Paulson buys Time Warner, Harman International Industries, B/E Aerospace, International Seaways, The WhiteWave Foods Co, NXP Semiconductors NV, Time, International Tower Hill Mines, Alphabet, DexCom, sells American&nbsp;...'
p6
aS'2018 Kia Stinger makes world debut at North American International Auto Show Canada NewsWire  - Jan 9, 2017 9, 2017 /CNW/ - At an event typically dominated by introductions from American auto companies, Kia Motors America  today stole the spotlight with the world debut of the all-new 2018 Kia Stinger  at the North American ...'
p7
aS'Record-setting $18 million award could set precedent for future talcum powder ... Northern California Record - Dec 2, 2016 LOS ANGELES -- A Los Angeles jury returned a record-setting $18 million award against Whittaker, Clark &amp; Daniels in Depoian v. American International Industries Inc., which could indicate a trend for future asbestos settlements. Every time there is an&nbsp;...'
p8
aS"AIG head count falls by 10000 as Hancock cuts insurer's size Crain's New York Business - Feb 24, 2017 American International Group Inc.'s headcount fell by 10,000 last year as chief executive Peter Hancock sold units and cut jobs."
p9
aS"Jury in California Awards $18M Cosmetic Talc Cancer Verdict Insurance Journal - Oct 27, 2016 A Los Angeles, Calif. jury has returned a $18.07 million verdict against talc supplier Whittaker Clark &amp; Daniels for its role in causing California political figure Philip Depoian's mesothelioma."
p10
a.