(lp0
S'Anworth Mortgage Asset Corporation  Breaks into New 52-Week High on April ... Equities.com - 12 hours ago Shares of Anworth Mortgage Asset Corporation  broke into a new 52-week high yesterday, hitting a peak of $5.70. Shares closed at $5.68 after opening at $5.62 for a move of 1.61%.Anworth Mortgage Asset Corporation  Touches New 52-week High - Aiken AdvocateAnworth Mortgage Asset Co.  Shares Bought by Tudor Investment Corp Et Al - Sports Perspectives'
p1
aS'5.59 MarketWatch - Dec 22, 2009 Anworth Mortgage Asset Corp. Watchlist CreateANHAlert. Premarket. Last Updated: Apr 17, 2017 8:06 a.m.. $ 5.59. 0.00 0.00%.'
p2
aS'Anworth Mortgage Asset Corporation  Ex-Dividend Date Scheduled for March ... Nasdaq - Mar 28, 2017 Anworth Mortgage Asset Corporation  will begin trading ex-dividend on March 29, 2017. A cash dividend payment of $0.15 per share is scheduled to be paid on April 28, 2017.Is It Time to go for Select Comfort Corporation , Anworth Mortgage Asset ... - StockNewsJournalAnalysts Near-Term outlook: Williams Partners LP , Anworth Mortgage Asset ... - The USA Commerce'
p3
aS'Anworth Mortgage Asset Corporation  Moves Higher on Volume Spike for March 31 Equities.com - Mar 31, 2017 Anworth Mortgage Asset Corporation  traded on unusually high volume on Mar. 31, as the stock gained 1.09% to close at $5.55.Stocks in the Spotlight: Navidea Biopharmaceuticals, Inc. '
p4
aS'Anworth Mortgage Asset Corporation  Breaks into New 52-Week High on March ... Equities.com - Mar 20, 2017 Shares of Anworth Mortgage Asset Corporation  broke into a new 52-week high yesterday, hitting a peak of $5.56. Shares closed at $5.54 after opening at $5.55 for a move of 0%.Anworth Mortgage Asset Corporation  Broker Price Targets For The ... - Fiscal Standard'
p5
aS'Anworth Mortgage Asset Corporation  Breaks into New 52-Week High on April ... Equities.com - Apr 11, 2017 Shares of Anworth Mortgage Asset Corporation  broke into a new 52-week high yesterday, hitting a peak of $5.63. Shares closed at $5.63 after opening at $5.53 for a move of 1.81%.Anworth Mortgage Asset  Reaches $5.60 52-Week High, Mbt Financial (MBTF ... - Herald KSDividend Stock At Glance: Anworth Mortgage Asset Corporation  - TWN'
p6
aS"Anworth Mortgage Asset Corporation  Breaks into New 52-Week High on April ... Equities.com - Apr 4, 2017 Shares of Anworth Mortgage Asset Corporation  broke into a new 52-week high yesterday, hitting a peak of $5.60. Shares closed at $5.58 after opening at $5.52 for a move of 0.9%.These stock's have rarely let down their investors: Anworth Mortgage Asset ... - StockNewsJournalAct On Key Analyst Price Target Shifts: Anworth Mortgage Asset Corporation ... - USA Commerce Daily"
p7
aS'A Strong Buy Rating For Anworth Seeking Alpha - Nov 3, 2016 Anworth Mortgage Asset Corporation  delivered a very solid earnings release. I had estimated book value to come in at $6.29 after the dividend .'
p8
aS"Anworth Mortgage Asset Corporation  : How Do the Technicals Stack Up? The USA Commerce - Mar 24, 2017 We have gathered the technical data on Anworth Mortgage Asset Corporation , and see some interesting trends in the stock's behavior of late."
p9
aS"Move over Ackman, meet activism's penny pincher CNBC.com - May 12, 2014 ... Mortgage Asset Corporation, a so-called mortgage real estate investment trust. Mortgage REITs like Anworth essentially buy government-backed securities and employ tremendous amounts of leverage to generate a juicy yield. The trouble with Anworth,&nbsp;..."
p10
a.