(lp0
S'Market: The Patten Group Inc. Holds Position in Atmos Energy Corporation  Petro Global News 24 - Jan 28, 2017 A number of other large investors have also modified their holdings of ATO. Lbmc Investment Advisors LLC increased its stake in shares of Atmos Energy Corporation by 0.6% in the second quarter. Lbmc Investment Advisors LLC now owns 5,233 shares of&nbsp;...'
p1
aS'Atmos Energy Corporation  Ex-Dividend Date Scheduled for February 23, 2017 Nasdaq - Feb 22, 2017 Atmos Energy Corporation  will begin trading ex-dividend on February 23, 2017. A cash dividend payment of $0.45 per share is scheduled to be paid on March 13, 2017.'
p2
aS'Risk Malaise Alert in Option Market: Atmos Energy Corporation Implied Price ... CML News - Apr 16, 2017 Before we dive into any analysis we simply note that Atmos Energy Corporation  risk is actually priced pretty low by the option market as of right now.'
p3
aS"Atmos Energy Corporation to Host Fiscal 2017 Second Quarter Earnings ... Stockhouse - Apr 4, 2017 Atmos Energy Corporation  will host a conference call on Thursday, May 4, 2017, at 10:00 a.m. Eastern to review the company's Fiscal 2017 second quarter financial results.Atmos Energy Co.  Lowered to Hold at Zacks Investment Research - The Cerbat GemAtmos Energy Co. - Receive News &amp; Ratings Daily - BBNS"
p4
aS'Atmos Energy Corporation  Ex-Dividend Date Scheduled for November 23, 2016 Nasdaq - Nov 22, 2016 Atmos Energy Corporation  will begin trading ex-dividend on November 23, 2016. A cash dividend payment of $0.45 per share is scheduled to be paid on December 12, 2016.'
p5
aS"Atmos Energy &quot;Yard Rescue 811&quot; Contest MyArkLaMiss   - Mar 31, 2017 The Yard Rescue 811 contest is open to all residents in the communities and environs served by Atmos Energy Corporation's natural gas distribution divisions in Colorado, Kansas, Kentucky, Louisiana, Mississippi, Tennessee, Texas, and Virginia ..."
p6
aS"Atmos Energy Launches &quot;Yard Rescue 811&quot; Contest During National Safe Digging Month MyArkLaMiss   - Mar 31, 2017 The Yard Rescue 811 contest is open to all residents in the communities and environs served by Atmos Energy Corporation's natural gas distribution divisions in Colorado, Kansas, Kentucky, Louisiana, Mississippi, Tennessee, Texas, and Virginia ...Atmos Energy announces 811 contest to promote safety - Hopkinsville Kentucky New Era"
p7
aS'Atmos Energy Corporation Promotes Kevin Akers to Senior Vice President, Safety ... Business Wire  - Nov 30, 2016 DALLAS----Atmos Energy Corporation  today announced two important promotions to its senior management team, effective January 1, 2017.'
p8
aS'Americafirst Capital Management LLC Sells 13144 Shares of Atmos Energy Co.  The Cerbat Gem - 14 hours ago Atmos Energy logo Americafirst Capital Management LLC reduced its stake in shares of Atmos Energy Co.  by 55.5% during the first quarter, according to its most recent filing with the SEC.Atmos Energy Co.  Position Increased by UBS Asset Management Americas Inc. - Markets DailyZacks: Brokerages Expect Atmos Energy Co.  to Post $1.42 Earnings Per Share - Chaffey Breeze'
p9
aS'Atmos Energy Corporation Names Christopher T. Forsythe Chief Financial Officer Yahoo Finance - Jan 19, 2017 Atmos Energy Corporation  today announced that Christopher T. Forsythe, Vice President and Controller, has been promoted by the Board of Directors to Senior Vice President and CFO, effective February 1, 2017.Atmos Energy Corporation Announces Departure of Bret J. Eckert as Senior Vice ... - Business Wire '
p10
a.