(lp0
S'Why Activision Blizzard, Inc. Stock Popped 10.5% in March Motley Fool - Apr 11, 2017 Shares of Activision Blizzard Inc.  jumped 10.5% in March, according to data from S&amp;P Global Market Intelligence, with multiple analyst upgrades helping to sustain its momentum after a strong fourth-quarter 2016 report in February.Activision Blizzard to Release First Quarter 2017 Financial Results on May 4, 2017 - Yahoo FinanceWhat is the intrinsic value of Activision Blizzard Inc  - Simply Wall St'
p1
aS"Activision Blizzard, Inc. closed with a change of -0.45% in the Previous ... Free Observer - 21 hours ago If you look at the company's income statement over the past years, you will see that the company is constantly posting gross profit: In 2014, ATVI earned gross profit of 2.88 Billion, in 2015 3.08 Billion gross profit, while in 2016 Activision Blizzard ...Activision Blizzard, Inc.  Receives Consensus Recommendation of &quot;Buy ... - Sports PerspectivesActivision Blizzard, Inc.  Price Target Raised to $55.00 at Morgan Stanley - The Cerbat Gem"
p2
aS'The Technical Charts For Activision Blizzard, Inc.  Say It All Today NY Stock News - 15 hours ago The technicals for Activision Blizzard, Inc.  have taken shape, and with them a comprehensive picture has emerged.'
p3
aS"Activision Blizzard Inc. Stock at $50: What's Next? Motley Fool - Mar 31, 2017 Activision Blizzard  stock recently passed the $50 mark for the first time. That figure equates to a pricey 39 times the $966 million of profit that the video game giant booked in the past year.Activision at new high as UBS boosts price target - Seeking AlphaFeatured Stock: Activision Blizzard, Inc.  - HugoPress"
p4
aS'Activision Blizzard: Right In The Range Seeking Alpha - Mar 20, 2017 Activision Blizzard managed to achieve a strong growth in revenue that is mainly attributed to the rise in subscription and licensing revenue.Activision Blizzard, Inc. closed with a change of 0.21% in the Previous ... - Free ObserverTaking a Look at the Data Behind Activision Blizzard, Inc.  - StockNewsJournal'
p5
aS"The Markets Are Undervaluing these stock's: Baxter International Inc. (BAX ... StockNewsJournal - 20 hours ago Baxter International Inc.  market capitalization at present is $28.86B at the rate of $53.25 a share. The firm's price-to-sales ratio was noted 2.84 in contrast with an overall industry average of 31.50."
p6
aS"The Chart Readings For Activision Blizzard, Inc.  Are In NY Stock News - Apr 12, 2017 Activision Blizzard, Inc.  has been having a set of eventful trading activity and it is clear from an examination of the charts that traders are now fully aware of the company's key metrics."
p7
aS'Diversification Will Pay Dividends For Activision Seeking Alpha - Mar 27, 2017 Encapsulating the growth and profitability of the industry, I believe, is the Activision Blizzard  stock, which has been growing exponentially since the turn of the century.'
p8
aS'Ex-Dividend Reminder: TowneBank, CBL &amp; Associates Properties and Activision ... Nasdaq - Mar 24, 2017 Looking at the universe of stocks we cover at Dividend Channel , on 3/28/17, TowneBank , CBL &amp; Associates Properties Inc , and Activision Blizzard, Inc.  will all trade ex-dividend for their respective upcoming&nbsp;...'
p9
aS'The New Reality Of Video Games Benzinga - Mar 24, 2017 Activision Blizzard, Inc.  is one of the largest video game companies and posted a strong quarter at the end of 2016, with a 112 percent rise in sales and 315 percent rise in earnings per share year over year.The Best Way to Invest in Mobile Gaming - Motley FoolTop Gaming Stocks to Invest in for 2017 - Profit Confidential'
p10
a.