(lp0
S'The Avista Corporation  Expected to Post Q4 2016 Earnings of $0.60 Per Share Petro Global News 24 - Jan 29, 2017 A number of other research analysts have also weighed in on the stock. Zacks Investment Research lowered shares of Avista Corporation from a buy rating to a hold rating in a research note on Tuesday, October 11th. Guggenheim initiated coverage on&nbsp;...'
p1
aS'Stocks: The James Investment Research Inc. Has $6215000 Stake in Avista ... Petro Global News 24 - Jan 19, 2017 Other hedge funds and other institutional investors have also recently modified their holdings of the company. Advisor Group Inc. purchased a new stake in shares of Avista Corporation during the second quarter worth about $107,000. Tower Research ...'
p2
aS'Avista Corp. First Quarter 2017 Earnings Conference Call and Webcast Announced Marketwired  - Apr 10, 2017 SPOKANE, WA-- - Avista Corp.  will hold its quarterly conference call and webcast to discuss first quarter 2017 results on Wednesday, May 3, 2017, at 10:30 a.m.Russell Investments Group Ltd. Purchases New Position in Avista Corp  - BBNSThe American Investment Services Inc. Holds Stake in Avista Corp  - Petro Global News 24'
p3
aS"Avista Corp.  Seeks Rehearing of 2016 Washington General Rate Cases StreetInsider.com - Dec 23, 2016 &quot;The Commission's decision is irreconcilable with the evidence presented in the rate case by Avista, as well as that provided by the Commission Staff,&quot; said Scott Morris, chairman, president and chief executive officer of Avista Corp. &quot;In response ..."
p4
aS"Stocks: The Commonwealth Equity Services Inc Has $1415000 Stake in Avista ... Petro Global News 24 - Jan 19, 2017 A number of other hedge funds have also bought and sold shares of AVA. Washington Trust Bank boosted its stake in Avista Corporation by 1.0% in the third quarter. Washington Trust Bank now owns 4,012 shares of the company's stock valued at $168,000&nbsp;..."
p5
aS"Avista CEO Scott Morris earns $4.5 million in 2016 The Spokesman-Review - Mar 3, 2017 Avista Corp. paid its top executive about $4.5 million in total compensation last year. Scott Morris, the Spokane-based utility's chairman, president and CEO, earned more than the $3.6 million he received in 2015, but less than the $5.5 million he ..."
p6
aS"Avista Corp.  Seeks Electric and Natural Gas Rate Increase in Washington StreetInsider.com - Feb 19, 2016 Capital investments in infrastructure, technology and system maintenance are the main drivers in Avista's  requests filed today with the Washington Utilities and Transportation Commission  to increase electric and natural&nbsp;..."
p7
aS'Scott H. Maw Appointed to Avista Corp. Board of Directors Yahoo Finance - Jul 7, 2016 SPOKANE, WA-- - Avista Corp.  announced that Scott H. Maw, age 48, has been appointed to the Avista Corp. board of directors effective Aug. 1, 2016. He will stand for election to the board at the 2017 annual meeting of&nbsp;...'
p8
aS"Avista Corporation, It's Not Just Water Over The Dam Seeking Alpha - Jan 19, 2017 Avista Corporation  is a gas and electric utility with a service area in the Pacific Northwest of the United States."
p9
aS'Equity Watch: Checking on the Levels for Avista Corp  Midway Monitor - 15 hours ago The 14-day ADX for Avista Corp  is currently 11.45. Many chart analysts believe that an ADX reading over 25 would suggest a strong trend.'
p10
a.