(lp0
S'AvalonBay Communities, Inc.  Reaches a New Pinnacle Aiken Advocate - 9 hours ago Shares of AvalonBay Communities, Inc.  have shifted north recently, touching a new 52-week high. A recent bid put the stock price near $188.81.Pennsylvania Trust Co Sells 344 Shares of AvalonBay Communities Inc  - Markets DailyHolding Steady Above Moving Average Trend Lines are Shares of AvalonBay ... - The Herald'
p1
aS"Moody's upgrades AvalonBay to A3, outlook stable Moodys.com   - Oct 7, 2016 New York, October 06, 2016 -- Moody's Investors Service  upgraded all ratings of AvalonBay  Communities, Inc. with a stable rating outlook. The upgrade reflects AVB's position as one of the largest apartment REITs in the U.S ..."
p2
aS'Equity in Review: AvalonBay Communities, Inc.  Piedmont Register - 2 hours ago AvalonBay Communities, Inc.  currently has an FCF quality score of 13.631660. The free quality score helps gauge the stability of free cash flow.'
p3
aS'AvalonBay Communities, Inc.  Ex-Dividend Date Scheduled for March 29, 2017 Nasdaq - Mar 28, 2017 AvalonBay Communities, Inc.  will begin trading ex-dividend on March 29, 2017. A cash dividend payment of $1.42 per share is scheduled to be paid on April 17, 2017.AvalonBay Communities Inc  To Go Ex-Dividend on March 29th - The Cerbat GemAvalonBay Communities, Inc.  Updated Broker Ratings - NewsDen'
p4
aS"AvalonBay Communities  Q4 2016 Results - Earnings Call Transcript Seeking Alpha - Feb 3, 2017 Please standby, we're about to begin. Good morning, ladies and gentlemen, and welcome to AvalonBay Communities' Fourth Quarter 2016 Earnings Conference Call.AvalonBay  Q4 FFO Beats Estimates, Dividend Raised - Zacks.com"
p5
aS'AvalonBay Communities Enters Oversold Territory Forbes - Aug 24, 2016 But making AvalonBay Communities, Inc. an even more interesting and timely stock to look at, is the fact that in trading on Wednesday, shares of AVB entered into oversold territory, changing hands as low as $173.00 per share.'
p6
aS'AvalonBay Communities Inc  Plans Dividend Increase - $1.42 Per Share The Cerbat Gem - Apr 17, 2017 AvalonBay Communities logo AvalonBay Communities Inc  declared a quarterly dividend on Wednesday, February 1st. Stockholders of record on Friday, March 31st will be given a dividend of 1.42 per share by the real estate investment trust on&nbsp;...AvalonBay Communities Inc  Position Raised by National Pension Service - BNB Daily The AvalonBay Communities, Inc.  Shares Sold by AMP Capital Investors Ltd - Petro Global News 24'
p7
aS"AvalonBay Communities  Q3 2016 Results - Earnings Call Transcript Seeking Alpha - Oct 25, 2016 Good morning, ladies and gentlemen, and welcome to AvalonBay Communities' Third Quarter 2016 Earnings Conference Call. Today's call is being recorded.AvalonBay Communities, Inc. Announces Third Quarter 2016 Operating Results - Business Wire "
p8
aS'AvalonBay Communities Announces First Quarter 2017 Earnings Release Date Yahoo Finance - Mar 30, 2017 AVALONBAY COMMUNITIES, INC.  will release its first quarter 2017 earnings on April 26, 2017 after the market close.Today Analysts Focus on Kindred Healthcare, Inc. , AvalonBay Communities ... - StockNewsJournalUBS Asset Management Americas Inc. Purchases 18958 Shares of AvalonBay ... - The Cerbat Gem'
p9
aS'BRIEF-Avalonbay Communities sees total rental revenue for established ... Reuters - Mar 6, 2017 March 6 Avalonbay Communities Inc. * Avalonbay communities, inc. Provides first quarter 2017 operating update.'
p10
a.