(lp0
S"Are We Hearing AVEO Pharmaceuticals' Death Rattle? Seeking Alpha - 17 hours ago When it comes to AVEO Pharmaceuticals , I don't really feel that people have any illusions about the risks.AVEO Pharmaceuticals, Inc.  Cut to &quot;Sell&quot; at Zacks Investment Research - Sports PerspectivesAnalyst Views And Outlook On Two Stocks: AVEO Pharmaceuticals, Inc. (AVEO ... - Post Analyst"
p1
aS"AVEO Pharmaceuticals, Inc.  Shares Tumble on the Back of Stock Dilution Smarter Analyst - Mar 28, 2017 AVEO Pharmaceuticals, Inc.  investors are having a rough morning, after the drug maker announced that it has priced an underwritten public offering of 30,000,000 shares of common stock at a price to the public of $0.50 per share, a 23%&nbsp;...AVEO Pharmaceuticals, Inc.  Files An 8-K Entry into a Material ... - Market ExclusiveSignificant Buzzer of Recent Trading Period: AVEO Pharmaceuticals, Inc.'s  - Is stories"
p2
aS"AVEO Pharmaceuticals  Q4 Earnings: What's in Store? Yahoo Finance - Mar 7, 2017 AVEO Pharmaceuticals, Inc. AVEO is expected to report fourth-quarter 2016 results this month. The company has an impressive track record for the last four reported quarters having beaten estimates on three occasions and meeting expectations in one with&nbsp;..."
p3
aS'Looking at the Levels for AVEO Pharmaceuticals, Inc.  BVN - 11 hours ago Looking at shares of AVEO Pharmaceuticals, Inc. , the company presently has a Gross Margin  ratio of 0.092175.'
p4
aS'Its time to give a fresh look to AVEO Pharmaceuticals, Inc.  and Plains ... USA Commerce Daily - Apr 16, 2017 Shares of AVEO Pharmaceuticals, Inc.  observed rebound of 14.02% since bottoming out at $0.5 on Mar. 28, 2017.'
p5
aS"AVEO Pharmaceuticals, Inc.  Files An 8-K Notice of Delisting or ... Market Exclusive - Apr 12, 2017 On April 11, 2017, AVEO Pharmaceuticals, Inc.  received a letter from the Listing Qualifications Department of the Nasdaq Stock Market , approving the transfer of the listing of the Company's common stock from the Nasdaq&nbsp;..."
p6
aS'Traders Take Note: AVEO Pharmaceuticals Inc  Stock Drops ... CML News - Apr 12, 2017 Take Note: AVEO Pharmaceuticals Inc  has hit some technical weakness in its momentum, and while it has not broken down all the way through support -- watch the key levels that we discuss below and further, watch the stochastics and&nbsp;...'
p7
aS'AVEO Pharmaceuticals, Inc.  Jumps on CANbridge Deal Payment StockNewsUnion - Apr 3, 2017 Last Friday, Cambridge, MA-based AVEO Pharmaceuticals, Inc.  announced the closing of its publis offering of 34.5 million common shares priced at $0.50/share.AVEO Pharmaceuticals, Inc.  Major Shareholder Purchases $3000000.00 in Stock - Sports PerspectivesAVEO Announces Milestone Payment from CANbridge for AV-203 - Business Wire '
p8
aS'AVEO Pharmaceuticals, Inc.  loses confidence of 6 hedge fund managers Post Analyst - Apr 11, 2017 AVEO Pharmaceuticals, Inc.  reached 21.32% versus a 1-year low price of $0.499. The stock was last seen 2.81% higher, reaching at $0.61 on Apr. 10, 2017.'
p9
aS'Stock Update : AVEO Pharmaceuticals, Inc. Reports 3Q:16 Financial ... Smarter Analyst - Nov 4, 2016 In the last 18 months, we have made important progress in moving forward both elements of our strategy, including our oncology pipeline, for which we have retained significant North American rights, and our non-oncology pipeline, which is being ...'
p10
a.