(lp0
S'Stocks: The Brokerages Set Avery Dennison Corporation  Price Target at $78.20 Petro Global News 24 - Jan 9, 2017 A number of equities analysts recently weighed in on the stock. Zacks Investment Research raised shares of Avery Dennison Corporation from a sell rating to a hold rating in a research report on Thursday, December 29th. Citigroup Inc. raised shares ...'
p1
aS"Avery Dennison Corp's  CEO Mitchell Butier on Q4 2016 Results - Earnings ... Seeking Alpha - Feb 1, 2017 Ladies and gentlemen, thank you for standing by. During the presentation, all participants will be in a listen-only-mode. Afterwards, we will conduct a question-and-answer session [Operator Instructions]."
p2
aS'Analysts Speculate on: Avery Dennison Corp  Post Registrar - 18 hours ago Avery Dennison Corp  plunged -0.18% during previous trade, a total of 1.06M shares exchanged hands compared with its average trading volume of 620,290 shares whereas its relative volume is 1.48.The Case for and Against Avery Dennison Corporation  - StockNewsJournalBrokerages Anticipate Avery Dennison Corp  to Announce $1.04 EPS - The Cerbat Gem'
p3
aS"Avery Dennison  Q3 2016 Results - Earnings Call Transcript Seeking Alpha - Oct 26, 2016 Ladies and gentlemen, thank you for standing by. Welcome to Avery Dennison's Earnings Conference Call for the Third Quarter ended October 1, 2016."
p4
aS'Avery Dennison To Acquire Yongle Tape For Up To $245 Million Seeking Alpha - Feb 8, 2017 Pressure-sensitive products company Avery Dennison wants to acquire China-based Yongle Tape for up to $245 million. Yongle is a prominent supplier of PVC tapes and pressure-sensitive harnessing to the automotive, electrical and communications&nbsp;...Avery Dennison Buys PE-Owned Yongle Tape In $190M Deal - Law360 Avery Dennison Acquires Shawkwei-Backed Chinese PVC Tape Manufacturer - China Money Network'
p5
aS"Avery Dennison Corporation: Avery Dennison RFID Announces Partnership with Target The Wall Street Transcript - Apr 3, 2017 BUSINESS WIRE)--Apr. 3, 2017-- Avery Dennison  has announced a global Radio Frequency Identification  partnership agreement with Target Corporation, as part of Target's deployment of RFID technology to more than 1,600 stores to&nbsp;...Avery Dennison Corp  Insider Sells $2755648.74 in Stock - Chaffey Breeze"
p6
aS'Avery Dennison completes Hanita Coatings acquisition Seeking Alpha - Mar 2, 2017 Avery Dennison Corporation  announces that it completed the acquisition of Israel-based Hanita Coatings from Kibbutz Hanita and Tene Investment Funds.Avery Dennison Corp  Position Reduced by Putnam Investments LLC - BNB Daily '
p7
aS"Preview: For Avery Dennison, It's a Promotional Wrap San Fernando Valley Business Journal - Mar 17, 2017 Since divesting its office products division four years ago, Avery Dennison Corp. in Glendale has built its business on product labels and industrial materials."
p8
aS'Avery Dennison  and Target Ink RFID Partnership Deal Nasdaq - Apr 4, 2017 Manufacturer of pressure-sensitive materials, Avery Dennison Corporation AVY , entered into a global Radio Frequency Identification  partnership agreement with Target Corporation TGT .Avery Dennison to Webcast First Quarter 2017 Earnings Conference Call - Yahoo FinanceAvery Dennison Corporation Risk Points versus Industrials - CML News'
p9
aS'Insider Trading Activity Avery Dennison Corp   Insider Sold 34437 ... Market Exclusive - Mar 10, 2017 On 2/5/2013 Timothy S Clyde, Insider, sold 27,636 with an average share price of $38.93 per share and the total transaction amounting to $1,075,869.48.Large Outflow of Money Witnessed in Avery Dennison Corporation - Money Flow Index & TrendsAvery Dennison Corp  Files Form 4 Insider Selling : Ken C Hicks Sells ... - Energy Index'
p10
a.