(lp0
S'Brightcove Inc.  Receives An Update From Brokers The De Soto Edge - Mar 7, 2017 09/06/2016 - Brightcove Inc. had its  rating reiterated by analysts at Dougherty &amp; Co. They now have a USD 16 price target on the stock.'
p1
aS'Brightcove Announces Date of First Quarter 2017 Conference Call and Webcast Yahoo Finance - 12 hours ago Brightcove Inc. , a leading global provider of cloud services for video, today announced it will report its first quarter results for the period ended March 31, 2017, after the U.S.Brightcove Inc  Expected to Post Earnings of -$0.09 Per Share - Markets DailyShort Interest in Brightcove Inc  Increases By 14.7% - Sports Perspectives'
p2
aS"BRIGHTCOVE INC.  Files An 8-K Regulation FD Disclosure Market Exclusive - Mar 23, 2017 Brightcove Inc. is a provider of cloud-based services for video. The Company's flagship product is Brightcove Video Cloud , an online video platform."
p3
aS'Brightcove Inc.  Soars 6.1% on April 11 Equities.com - Apr 11, 2017 Brightcove Inc.  had a good day on the market for Tuesday April 11 as shares jumped 6.1% to close at $8.70. About 154,025 shares traded hands on 1,229 trades for the day, compared with an average daily volume of 245,160 shares out of a total ...Brokers Issue New Targets On Brightcove Inc.  - Fiscal StandardBrightcove  Reaches $8.73 After 9.00% Up Move; Morgan Stanley China A ... - Herald KS'
p4
aS'Form 3 BRIGHTCOVE INC For: Mar 14 Filed by: Hessan Diane StreetInsider.com - Mar 21, 2017 Get instant alerts when news breaks on your stocks. Claim your 2-week free trial to StreetInsider Premium here. FORM 3, UNITED STATES SECURITIES AND EXCHANGE COMMISSION Washington, D.C.'
p5
aS"Brightcove Inc.  Moves Higher on Volume Spike for March 24 Equities.com - Mar 24, 2017 Brightcove Inc.  traded on unusually high volume on Mar. 24, as the stock gained 13.13% to close at $9.05. On the day, Brightcove Inc. saw 591,232 shares trade hands on 3,620 trades. Considering that the stock averages only a daily volume of&nbsp;...Today's Top Gainers in the Market Brightcove Inc.  from Technology - The Daily LeicesterWho gained the most today? Brightcove Inc. : BCOV - The News Journal"
p6
aS'Option Market Alert: Brightcove Inc Implied Price Swing Hits An Inflection Point CML News - Mar 29, 2017 No Risk Alert Here: Before we dive into any analysis we simply note that Brightcove Inc  risk is neither elevated nor depressed.'
p7
aS'Brightcove Inc Risk Points versus Technology CML News - Mar 21, 2017 This is a scatter plot analysis of the critical risk points from the option market for Brightcove Inc  compared to its own past and the Technology ETF.'
p8
aS'Stock Volatility Risk Alert: Brightcove Inc Price Volatility Hits A Rare High CML News - Apr 14, 2017 Before we dive into any analysis we simply note that Brightcove Inc  has seen its stock price whip around at an extreme high level.Brightcove Inc  Expected to Post Quarterly Sales of $37.37 Million - Markets DailyBrightcove Inc.  Reviewed By Analysts - The De Soto Edge'
p9
aS'Buy or Sell Brightcove Inc.  PAR Technology Corporation (NYSE:PAR ... Sherwood Daily - 19 hours ago Brokerage firms currently have a positive stance on shares of Brightcove Inc. . The majority of analysts covering the equity have either a Buy or Strong Buy recommendation on the stock, yielding a consensus score of 1.70.'
p10
a.