(lp0
S'Green Brick Partners, Inc. Reports Fourth Quarter and Full Year 2016 Results Marketwired  - Mar 13, 2017 Basic net income attributable to Green Brick per common share  for the three months ended December 31, 2016 was $0.16, compared to $0.10 for the three months ended December 31, 2015.Green Brick Partners, Inc.  earnings reaction history in focus - Post Analyst'
p1
aS'Green Brick Partners Inc.  Moves Higher on Volume Spike for April 14 Equities.com - Apr 14, 2017 Green Brick Partners Inc.  traded on unusually high volume on Apr. 14, as the stock gained 2% to close at $10.20. On the day, Green Brick Partners Inc. saw 108,931 shares trade hands on 844 trades. Considering that the stock averages only a daily&nbsp;...Hot Stocks Among Investors: Oceaneering International, Inc. , Green Brick ... - Post AnalystGreen Brick Partners  Reaches $10.20 After 3.00% Up Move, UDR, Inc. (UDR ... - Wolcott Daily'
p2
aS"Green Brick Partners Continues To Shine Seeking Alpha - Aug 15, 2016 Green Brick Partners has beaten EPS and revenue estimates in all of the last three quarters. In Q2, GRBK's revenue grew at 37% YoY, homes delivered grew 30% YoY, and avg sale price grew 18% YoY."
p3
aS'Green Brick Partners, Inc. Announces Hiring Of New Vice President Of Finance PR Newswire  - Jan 22, 2015 PLANO, Texas, Jan. 22, 2015 /PRNewswire/ -- GREEN BRICK PARTNERS, INC.   announced today that Mr. Richard A. Costello has joined Green Brick as Vice President of Finance.'
p4
aS'Green Brick Partners, Inc. Reports Fourth Quarter And Full Year 2014 Results ... PR Newswire  - Mar 30, 2015 PLANO, Texas, March 30, 2015 /PRNewswire/ -- Green Brick Partners, Inc.  , today reported results for its fourth quarter and full year ended December 31, 2014.'
p5
aS'Green Brick Partners, Inc. Announces Pricing Of Common Stock Offering PR Newswire  - Jun 26, 2015 PLANO, Texas, June 25, 2015 /PRNewswire/ -- Green Brick Partners, Inc.   today announced the pricing of a registered underwritten public offering of 17 million shares of its common stock at a price to the public of $10.00 ...'
p6
aS'Green Brick Partners, Inc. Announces Dates For 10-Q Filing and Earnings Call PR Newswire  - Aug 5, 2015 PLANO, Texas, Aug. 5, 2015 /PRNewswire/ -- Green Brick Partners, Inc.   announced that the Company will release its financial results for the second quarter ended June 30, 2015 after the market closes on&nbsp;...'
p7
aS'Green Brick Partners Announces Two New Developments in Alpharetta and Suwanee ... Marketwired  - Apr 6, 2016 PLANO, TX-- - Plano-based Green Brick Partners, Inc.  has acquired land in two separate transactions in the metro Atlanta area for the construction of 153 single family homes and townhomes with a build out&nbsp;...'
p8
aS'Einhorn-funded Green Brick Partners acquires tract in $900M Plano mixed-use ... Dallas Business Journal - Jul 22, 2015 Shortly after New York hedge fund managers David Einhorn and David Loeb increased their financial stake in Green Brick Partners , the Plano-based real estate firm acquired tracts within the $900 million Heritage Creekside to put more&nbsp;...'
p9
aS"Green Brick Partners: An Overlooked David Einhorn Deal Seeking Alpha - Dec 31, 2014 Green Brick Partners  has been flying under the radar for several months now. However, it's an interesting story with both Greenlight Capital and Third Point as major shareholders."
p10
a.