(lp0
S'The Buckle, Inc. Reports March 2017 Net Sales Yahoo Finance - Apr 6, 2017 The Buckle, Inc.  announced today that comparable store net sales, for stores open at least one year, for the 5-week period ended April 1, 2017 decreased 10.1 percent in comparison to comparable store net sales for the 5-week period ended April 2,&nbsp;...Deutsche Bank Upgrades Buckle, Inc.  to Hold; Sees Valuation Support ... - StreetInsider.comBuckle Inc.   Moves Lower on Volume Spike for April 05 - Equities.com'
p1
aS'No mass store closings for Kearney-based Buckle Inc., despite dismal sales report Omaha World-Herald - Mar 10, 2017 Buckle Inc. management blamed these factors and more on another quarter of dismal sales Friday, when the company reported its fourth-quarter earnings.The Buckle, Inc. Reports Fourth Quarter and Fiscal Year 2016 Net Income - Business Wire Buckle Inc.   Moves Higher on Volume Spike for March 10 - Equities.com'
p2
aS"Why The Buckle Inc. Stock Dropped 26.1% in 2016 Motley Fool - Jan 4, 2017 That trends only persisted: Same-store sales fell 13.2% in April, dropped 11% in May, and slumped 10.6% in June. Fast-forward to equally underwhelming results in the ensuing months, and The Buckle's resulting share price declines were all but inevitable."
p3
aS'BRIEF-Buckle Inc Q4 EPS $0.74 Reuters - Mar 10, 2017 BRIEF-Buckle Inc Q4 EPS $0.74. March 10 Buckle Inc. * The buckle, inc. Reports fourth quarter and fiscal year 2016 net income.'
p4
aS"Buckle Inc.   Plunges 5.65% on April 03 Equities.com - Apr 3, 2017 Buckle Inc.   had a rough trading day for Monday April 03 as shares tumbled 5.65%, or a loss of $-1.05 per share, to close at $17.55.Buckle Inc  Forecasted to Post Q4 2018 Earnings of $0.75 Per Share - Sports PerspectivesBrokers Issue Forecasts for Buckle Inc's Q4 2018 Earnings  - The Cerbat Gem"
p5
aS'Buckle: Headed For Disaster Seeking Alpha - Mar 6, 2017 Vanity Shop of Grand Forks Inc. recently announced plans to close 140 Vanity stores across the country after filing for bankruptcy protection.Fmr LLC Boosts Stake in Buckle Inc  - Chaffey Breeze'
p6
aS'Stock Returns: Buckle Inc   is Beating Ascena Retail Group Inc ... CML News - Apr 17, 2017 This is a snapshot to compare the stock returns for Ascena Retail Group Inc  versus Buckle Inc   .'
p7
aS'Buckle Inc.   Soars 6.23% on April 11 Equities.com - Apr 11, 2017 Buckle Inc.   had a good day on the market for Tuesday April 11 as shares jumped 6.23% to close at $18.75. About 1.04 million shares traded hands on 7,130 trades for the day, compared with an average daily volume of 589,783 shares out of a&nbsp;...Buckle Inc  Rating Increased to Hold at Deutsche Bank AG - BNB Daily '
p8
aS'Analyst Advice And Earnings Insight: The Buckle, Inc. , Streamline Health ... Post Analyst - 21 hours ago The Buckle, Inc. has a consensus hold rating from 6 Wall Street analysts, and the number of shares currently sold short amount to at least 32.19% of shares outstanding.'
p9
aS"The Buckle, Inc. : Are Traders Shorting This Stock? Midway Monitor - 13 hours ago According to the latest data, investors are looking at The Buckle, Inc. 's short data and trying to figure out market sentiment on which way the market thinks the stock is moving."
p10
a.