(lp0
S'Craft Brew Alliance Inc  Lowered to &quot;Strong Sell&quot; at Zacks Investment ... The Cerbat Gem - 1 hour ago Zacks Investment Research cut shares of Craft Brew Alliance Inc  from a hold rating to a strong sell rating in a research report report published on Tuesday.Are Insiders Pocketing Their Own Shares of Craft Brew Alliance, Inc. (NASDAQ ... - The Herald'
p1
aS'Craft Brew Alliance: Grim Outlook Once Again Seeking Alpha - Mar 26, 2017 Craft Brew Alliance  finally released its earnings report for the 4th quarter of 2016 and the results have been disappointing.'
p2
aS'Why Craft Brew Alliance, Inc. Stock Bounced 11% Last Month Motley Fool - Jan 11, 2017 Shares of microbrew specialist Craft Brew Alliance, Inc.  jumped 12% in December according to data from S&amp;P Global Market Intelligence after the company formed yet another partnership.'
p3
aS'Craft Brew Alliance: Look Elsewhere Seeking Alpha - Dec 23, 2016 Craft Brew Alliance  is the sixth largest craft brewing company that started out as a merger between Redhook Brewery and Widmer Brothers Brewing in 2008.Will Anheuser-Busch InBev Now Dominate Craft-Beer Brewpubs? - Fox Business'
p4
aS'New Deal With Anheuser-Busch Is Big For Craft Brew Alliance Seeking Alpha - Aug 24, 2016 Craft Brew Alliance advanced more than 25% after announcing a new commercial deal with long-time strategic partner Anheuser-Busch.Craft Brew Alliance and Anheuser-Busch Announce New and Enhanced Commercial ... - Brewbound.comCraft Brew Alliance Hits All-Time High After New Deal With Anheuser Busch - Benzinga'
p5
aS"BRIEF-Craft Brew Alliance sees 2017 shipments ranging between a decrease of 1 ... Reuters - Mar 16, 2017 DILI, March 17 East Timorese flocked to political rallies on the final day of campaigning ahead of Monday's presidential election, as Asia's youngest democracy grapples with persistent poverty and corruption at a time when oil revenues are rapidly ..."
p6
aS'Craft Brew Alliance posts 4Q profit Yahoo Finance - Mar 16, 2017  _ Craft Brew Alliance Inc.  on Thursday reported fourth-quarter earnings of $76,000. On a per-share basis, the Portland, Oregon-based company said it had net income of less than 1 cent.Craft Brew Alliance Inc  Releases Earnings Results, Misses Expectations ... - Highland Mirror'
p7
aS'Why Craft Brew Alliance, Inc. Stock Fell 14.8% in October Motley Fool - Nov 11, 2016 Shares of Craft Brew Alliance Inc.  fell 14.8% in the month of October, according to data provided by S&amp;P Global Market Intelligence, after craft brewing peer Boston Beer Company  fell short of expectations with its own ...'
p8
aS'Craft Brew Alliance Or Kona And Friends? Seeking Alpha - Apr 6, 2016 Craft Brew Alliance  is certainly a story stock, with as much of the story being about the industry as it is about the company itself.Pittsburgh Gearing Up For Craft Beer Week - CBS Local'
p9
aS'Craft Brew Alliance Announces Delay in Earnings Release and Conference Call ... Business Wire  - Mar 11, 2017 PORTLAND, Ore.----Craft Brew Alliance, Inc.   announced a delay in its fourth quarter and full year 2016 earnings release and conference call, previously scheduled for March 13, 2017, to allow additional time to&nbsp;...'
p10
a.