(lp0
S"Just Askin': First Busey Corp.'s incorporation location Champaign/Urbana News-Gazette - Apr 9, 2017 While First Busey Corporation is headquartered in Champaign, it has been incorporated since 1993 in Carson City, Nev. &quot;It seemed to be a common practice to incorporate in Delaware or Nevada due to certain corporate governance legal reasons,&quot; Busey&nbsp;..."
p1
aS'28.087 MarketWatch - Apr 18, 2011 First Busey Corp. First Busey Corp. is a bank holding company, which provides financial services through its banking and non-banking subsidiaries at multiple locations in Illinois, Florida, Indiana and Missouri.'
p2
aS'First Busey makes another acquisition St. Louis Business Journal - Feb 8, 2017 First Busey Corp. , which bought Pulaski Bank for $211 million last year, is buying First Community Financial Partners of Joliet, Illinois, in a cash and stock deal valued at $236 million.'
p3
aS'BRIEF-First Busey Corp, mid Illinois Bancorp to merge for about $133.4 mln Reuters - Mar 13, 2017 April 14 United Airlines said on Friday it is changing its policy on booking its own flight crews onto its planes after a man was dragged off an overbooked flight to make way for a United employee on Sunday, video of which went viral and made the ...'
p4
aS"First Busey Corporation : Is it now really a good time to buy? Simply Wall St - Mar 28, 2017 Looking at First Busey Corporation 's fundamentals some investors are wondering if its last closing price of $28.71 represents a good value for money for this high growth stock.AQR Capital Management LLC Has $3287000 Position in First Busey Co.  - The Cerbat GemFirst Busey Co.  Raised to Buy at Zacks Investment Research - BBNS"
p5
aS'Stock Returns: CU Bancorp   is Beating First Busey ... CML News - Apr 17, 2017 This is a snapshot to compare the stock returns for First Busey Corporation  versus CU Bancorp   .First Busey Corporation  Reviewed By Analysts - The De Soto Edge'
p6
aS'Pulaski Financial  to Merge with First Busey  in $210.7M Deal StreetInsider.com - Dec 3, 2015 First Busey Corporation  , the holding company for Busey Bank, and Pulaski Financial Corp.  , the holding company for Pulaski Bank, National Association , are pleased to jointly&nbsp;...Pulaski Financial sold to First Busey for $210.7 million - STLtoday.com'
p7
aS"Pulaski executives agree to retention deals with Busey St. Louis Business Journal  - Feb 1, 2016 Four top Pulaski Bank executives are getting retention deals in connection with Pulaski's acquisition by First Busey Corp. Tom Reeves, president of Pulaski Bank, will receive an annual salary of $306,000 as a Busey executive vice president and market&nbsp;..."
p8
aS'ON BIZ: Growmark Tank and Truck Center; First Busey Corp.; Midland States ... Herald & Review - Mar 16, 2017 Growmark has acquired the assets of L.T. &amp; E., Inc., a family-owned and operated tank and truck manufacturer and repair facility based in Arcola.'
p9
aS'Form 425 FIRST BUSEY CORP /NV/ Filed by: FIRST BUSEY CORP /NV/ StreetInsider.com - Mar 13, 2017 First Busey Corporation  and Mid Illinois Bancorp, Inc.  have agreed to merge their holding companies and, following this merger, to merge their respective banking subsidiaries, Busey Bank and South Side Trust &amp; Savings Bank of&nbsp;...'
p10
a.