(lp0
S"Bazaarvoice and TurnTo Form Partnership to Bring More Consumer-Generated ... GlobeNewswire  - Mar 27, 2017 AUSTIN, Texas and NEW YORK, March 27, 2017  -- Bazaarvoice, Inc.  and TurnTo Networks announced today they have reached an agreement to offer TurnTo's brand clients the opportunity to syndicate their ratings and&nbsp;..."
p1
aS'Bazaarvoice Announces Ja Rule as Guest Speaker on SXSW Panel GlobeNewswire  - Feb 16, 2017 AUSTIN, Texas, Feb. 16, 2017  -- Bazaarvoice, Inc.  announced today that recording artist, actor and entrepreneur Ja Rule will participate on one of three official SXSW panels at the #BVatSXSW event on Mar. 11, 2017, at&nbsp;...'
p2
aS"Why Bazaarvoice Inc. Stock Plunged Today Nasdaq - Dec 1, 2016 On an adjusted  basis, Bazaarvoice's net income was $1.4 million, or $0.02 per share, compared to an adjusted net loss of $0.4 million, or flat on a per-share basis in the same year-ago period."
p3
aS"Bazaarvoice CGC Index 2017 shows growing influence of consumer-generated ... GlobeNewswire  - Mar 9, 2017 AUSTIN, Texas, March 09, 2017  -- Consumer-generated content  has never been more influential for shoppers or important to marketers' strategies."
p4
aS'67 hedge funds sold their entire positions in Bazaarvoice, Inc.  Post Analyst - 21 hours ago Bazaarvoice, Inc.  reached 35.65% versus a 1-year low price of $3.27. The stock was last seen 0% lower, reaching at $4.3 on Apr. 13, 2017.Bazaarvoice, Inc.  Reviewed By Analysts - The De Soto Edge'
p5
aS'Bazaarvoice Inc.  Moves Lower on Volume Spike for April 06 Equities.com - Apr 6, 2017 Bazaarvoice Inc.  traded on unusually high volume on Apr. 06, as the stock lost 2.3% to close at $4.25. On the day, Bazaarvoice Inc. saw 990,944 shares trade hands on 4,440 trades. Considering that the stock averages only a daily volume of 637,419&nbsp;...Volume Gainer: Bazaarvoice, Inc.  - StandardOracleBazaarvoice Inc  Short Interest Update - The Cerbat Gem'
p6
aS'Stock Returns: Bazaarvoice Inc  versus LivePerson Inc  CML News - Apr 16, 2017 This is a snapshot to compare the stock returns for Bazaarvoice Inc  versus LivePerson Inc  . The stock return points we compare look at the last three-months, six-months and twelve-months.'
p7
aS'Stock Returns: AppFolio Inc  is Beating Bazaarvoice Inc  CML News - Mar 29, 2017 This is a snapshot to compare the stock returns for AppFolio Inc  versus Bazaarvoice Inc  . The stock return points we compare look at the last three-months, six-months and twelve-months.'
p8
aS"Stock Alert: Bazaarvoice, Inc.  StandardOracle - Apr 5, 2017 Bazaarvoice, Inc.  added 2.33% to reach $4.4 in the previous trading session. Overall, 658567 shares exchanged hands versus its average trading volume of 612.4 Million shares.Bazaarvoice, Inc.'s  stock price is now at $4.20 Analysts' mean ... - Hot Stocks Point"
p9
aS'Stock Volatility Risk Alert: Bazaarvoice Inc Price Volatility Hits An Unsually ... CML News - Apr 5, 2017 Before we cover the full analysis we make a quick alert here that Bazaarvoice Inc  has seen its stock price whip around at an unsually high level.'
p10
a.