(lp0
S'The Boston Properties, Inc.  Releases Q1 Earnings Guidance Petro Global News 24 - Feb 1, 2017 Several research firms recently commented on BXP. Barclays PLC reduced their price target on shares of Boston Properties from $143.00 to $135.00 and set an overweight rating for the company in a research report on Monday, January 23rd.'
p1
aS'Boston Properties to Release First Quarter 2017 Financial Results on April 25 ... Yahoo Finance - Apr 12, 2017 Boston Properties, Inc. , a real estate investment trust, announced today that it will release financial results for the First Quarter of 2017 on Tuesday, April 25, 2017 after the close of trading on the New York Stock Exchange.Digging Up the Facts on Boston Properties, Inc.  - StockNewsJournal$618.45 Million in Sales Expected for Boston Properties, Inc.  This Quarter - Chaffey Breeze'
p2
aS'Ex-Dividend Reminder: Boston Properties, LaSalle Hotel Properties and AGNC ... Nasdaq - Mar 27, 2017 Looking at the universe of stocks we cover at Dividend Channel , on 3/29/17, Boston Properties Inc , LaSalle Hotel Properties , and AGNC Investment Corp  will all trade ex-dividend for their respective upcoming&nbsp;...'
p3
aS"Boston Properties  Shares Cross Above 200 DMA Nasdaq - Mar 31, 2017 In trading on Friday, shares of Boston Properties Inc  crossed above their 200 day moving average of $131.66, changing hands as high as $132.45 per share.Technicals in Focus for Boston Properties, Inc.  - The USA CommerceStock Inside Investors Spotlight: Boston Properties, Inc.'s  stock price ... - WsNews 4investors"
p4
aS'Stock Numbers: Checking on Shares of Boston Properties, Inc.  Benton Bulletin - 20 hours ago Interested investors may be tracking the Piotroski F-Score. Boston Properties, Inc.  currently has a Piotroski F-Score of 4. The aim of the F-Score is to help discover companies with strengthening balance sheets, and to eliminate the poor&nbsp;...'
p5
aS"The search is over for Marriott International's new headquarters. The winner is... Washington Business Journal - Jan 20, 2017 Marriott International Inc. has tapped Boston Properties Inc. and The Bernstein Cos. to build its new home at a site just north of the Bethesda Metro station, capping one of the most highly watched corporate headquarters searches in Greater Washington.Marriott Reveals Downtown Bethesda Headquarters Site - BethesdaMagazine.comAfter Two-Year Search, Marriott Picks Downtown Bethesda Site for $600M ... - CoStar Group"
p6
aS'Market View: Looking at the Technicals for Boston Properties, Inc.  Searcy News - 19 hours ago Boston Properties, Inc.  has an EV  of 33000183. Enterprise Value measures the complete value of a specific company.'
p7
aS"Which Way Traders Signposts TETRA Technologies, Inc. , Boston Properties ... StockNewsJournal - Apr 13, 2017 Boston Properties, Inc. , maintained return on investment for the last twelve months at 3.63, higher than what Reuters data shows regarding industry's average."
p8
aS"Top Stocks of the day: Boston Properties, Inc. : BXP The News Journal - 16 hours ago With its total market value of the company's outstanding shares, the market cap of Boston Properties, Inc.  in today's trade was 20849.75."
p9
aS"Insider Trading Activity Boston Properties, Inc.   Insider Sold ... Market Exclusive - Mar 16, 2017 Bryan J Koop , Insider of Boston Properties, Inc.  reportedly Sold 3,835 shares of the company's stock at an average price of 131.16 for a total transaction amount of $502,998.60 SEC Form.Stock inside Traders Spotlight: Boston Properties, Inc.  - Is stories"
p10
a.