(lp0
S'Market: The JPMorgan Chase &amp; Co. Raises Position in Beazer Homes USA, Inc.  Petro Global News 24 - Feb 2, 2017 Other hedge funds and other institutional investors have also made changes to their positions in the company. BlackRock Inc. boosted its position in shares of Beazer Homes USA by 503.7% in the second quarter. BlackRock Inc. now owns 13,729 shares of&nbsp;...'
p1
aS"Beazer Enters a National Exclusive Agreement with Mohawk to Include All ... Business Wire  - 21 hours ago ATLANTA----Beazer Homes USA, Inc. , one of the nation's largest home builders, today announced Mohawk Industries  as its exclusive product supplier across all flooring categories, including carpet, ceramic tile,&nbsp;..."
p2
aS"How Financially Strong Is Beazer Homes USA Inc ? Simply Wall St - Apr 6, 2017 Investors are always looking for growth in small-cap stocks like Beazer Homes USA Inc  with its market cap of USD $372 Million.Well recognized Stock of Market: Beazer Homes USA, Inc.'s  stock price is ... - Hot Stocks Point"
p3
aS"Beazer Homes USA, Inc. Stock Down 16%: Here's What's Happening Motley Fool - Feb 5, 2016 What: Shares of Beazer Homes USA, Inc.  are down 15.7% at 12:30 p.m. EST on Feb. 5. This major drop comes only a day after Beazer's stock was up, following the company's better-than-expected first quarter earnings release."
p4
aS'News Beazer Homes USA Inc.BZH Wall Street Journal - Feb 11, 2011 News Beazer Homes USA Inc.BZH. Significant News Only. 04/12/17; Press Release. Research Reports Coverage on Residential Construction Stocks -- Taylor Morrison, Beazer Homes, M.D.'
p5
aS'Beazer Homes: A Turnaround Story Insiders Believe In Seeking Alpha - Sep 2, 2016 Both the construction and housing markets have several trends playing out in their favor right now. These sectors have done well in 2016 but some names are still seeing some substantial insider buying.'
p6
aS"Beazer Homes USA: Don't Be Fooled By Its Incredibly Cheap Outlook Seeking Alpha - Aug 28, 2016 Beazer Homes is a clear example of a firm where looking at the fundamental numbers is not enough to draw a correct picture of the value of this firm."
p7
aS'Beazer Homes Is Headed For Bankruptcy Seeking Alpha  - Nov 4, 2014 Double Dividend Stocks  Apr. 8, 2017 6:00 AM ET &middot; Mike Nadel. Thanks For The 8% Raise, Dividend Growth 50! Mike Nadel  Apr. 3, 2017 9:54 AM ET &middot; SA Transcripts.'
p8
aS'Beazer Homes Announces Pricing of Offering of $250 Million of Senior Unsecured ... Business Wire  - Mar 7, 2017 ATLANTA----Beazer Homes USA, Inc.   today priced an offering of $250 million aggregate principal amount of 6.750% Senior Unsecured Notes due 2025  at par.BEAZER HOMES USA, INC.  Files An 8-K Regulation FD Disclosure - Market Exclusive'
p9
aS"Beazer Homes USA's  CEO Allan Merrill on Q1 2017 Results - Earnings Call ... Seeking Alpha - Feb 9, 2017 Good morning and welcome to the Beazer Homes earnings conference call for the quarter ended December 31, 2016. Today's call is being recorded and a replay will be available on the Company website later today. In addition, PowerPoint slides intended to&nbsp;...Beazer Homes USA Inc.  Moves Lower on Volume Spike for February 10 - Equities.com"
p10
a.