(lp0
S'CA Inc.  Up 2.9% Since Earnings Report: Can It Continue? Nasdaq - Apr 6, 2017 A month has gone by since the last earnings report for CA Inc. CA . Shares have added about 2.9% in that time frame, outperforming the market.'
p1
aS"Thursday Trading Recap: CA, Inc.'s  Is stories - 23 hours ago CA, Inc.'s  witnessed a loss of -0.19% in recent trading period with closing price of $ 31.65. The company's last traded volume of 1.63 million shares was up it's an average volume of 2.58 million shares."
p2
aS'Business Software &amp; Services Stocks Under Scanner -- Microsoft, Cognizant, CA ... PR Newswire  - Apr 13, 2017 Furthermore, shares of CA Inc., which provides information technology management software and solutions that help organizations plan, develop, manage, and secure applications and IT infrastructure in the US and internationally, have an RSI of 45.93.'
p3
aS'Chevy Chase Trust Holdings Inc. Boosts Position in CA, Inc.  Markets Daily - 20 hours ago CA logo Chevy Chase Trust Holdings Inc. boosted its position in shares of CA, Inc.  by 2.5% during the first quarter, according to its most recent disclosure with the SEC.CA, Inc.  Stake Raised by Alpha Windward LLC - Chaffey Breeze'
p4
aS"CA, Inc.  Short Interest Update Midway Monitor - 13 hours ago According to the latest stock data, investors are looking at CA, Inc. 's short data and trying to figure out market sentiment on which way the market thinks the stock is moving."
p5
aS'Earnings Growth Research: LKQ Corporation , CA, Inc.  USA Commerce Daily - 17 hours ago Shares of LKQ Corporation  observed rebound of 0.32% since bottoming out at $27.85 on Apr. 07, 2017. Meanwhile, due to an ongoing pressure which caused a decline of almost -0.6% in the past five days, the stock price is now down -8.84%&nbsp;...'
p6
aS'The Charts Expose On CA, Inc.  Is Causing A Stir NY Stock News - Apr 4, 2017 The technicals for CA, Inc.  have taken shape, and with them a comprehensive picture has emerged. This is the current state of play as presented by the current technical setup.'
p7
aS"Just the Facts on CA, Inc.  StockNewsJournal - Mar 24, 2017 CA, Inc.  is an interesting player in the Technology space, with a focus on Business Software &amp; Services. The stock has been active on the tape, currently trading at $31.91, down from yesterday's close by -0.31%."
p8
aS'CA, Inc.  sitting close to a major resistance line on the technical charts USA Commerce Daily - Apr 3, 2017 With all other things going on, CA, Inc.  has been on a free fall - declining -0.51 percent in just three months.'
p9
aS'The Technical Chart For CA, Inc.  Has Spoken NY Stock News - Mar 20, 2017 CA, Inc.  has created a compelling message for traders in the most recent trading. That message has grown stronger as the technical chart setup has developed into a more composite picture for the stock.'
p10
a.