(lp0
S'Cascades renews its Normal Course Issuer Bid Canada NewsWire  - Mar 15, 2017 KINGSEY FALLS, QC, March 15, 2017 /CNW Telbec/ - Cascades Inc.  announces that the Toronto Stock Exchange accepted its notice of intention to begin a normal course issuer bid in respect of its Common Shares.'
p1
aS'Form 6-K CASCADES INC For: Apr 05 StreetInsider.com - Apr 5, 2017 This Report of Foreign Private Issuer on Form 6-K is being furnished to the Securities and Exchange Commission by Cascades Inc.  for the purpose of providing the press release issued by the Company on April 5, 2017, a copy of which is ...'
p2
aS'Cascades Inc. a trading opportunity ahead of seasonally strong quarters, says ... Financial Post - Jul 11, 2016 After a 27 per cent plunge in share price since January, Cascade Inc. has presented itself as a trading opportunity ahead of seasonally strong quarters for the packaging and tissue paper business, says National Bank Financial analyst Leon Aghazarian.'
p3
aS"Cascades Inc upgraded as 'containerboard train' chugs along Financial Post - Aug 29, 2016 Cascades Inc. was upgraded at CIBC World Markets, where analyst Hamir Patel is advising clients not to stand in front of the containerboard train."
p4
aS'Cascades Inc  Receives Average Rating of &quot;Buy&quot; from Analysts Markets Daily - 20 hours ago Cascades logo Shares of Cascades Inc  have earned an average recommendation of Buy from the eight analysts that are presently covering the stock.'
p5
aS"Cascades Inc  Receives C$15.14 Consensus PT from Brokerages The Cerbat Gem - Apr 15, 2017 Cascades logo Shares of Cascades Inc  have received a consensus rating of Buy from the eight analysts that are currently covering the firm.The National Bank Financial Weighs in on Cascades Inc's FY2017 Earnings  - Petro Global News 24"
p6
aS'Q1 2017 Earnings Estimate for Cascades Inc Issued By Desjardins  The Cerbat Gem - Apr 9, 2017 Cascades logo Cascades Inc  - Equities research analysts at Desjardins reduced their Q1 2017 earnings per share  estimates for Cascades in a report issued on Thursday.National Bank Financial Increases Cascades Inc  Price Target to C$16.00 - Sports PerspectivesFY2017 EPS Estimates for Cascades Inc  Boosted by Analyst - BBNS'
p7
aS'RDM to take over Cascades La Rochette board mill EUWID Pulp and Paper - Mar 16, 2016 Recycling board manufacturer Reno de Medici Spa  announced it has signed a memorandum of understanding with Cascades Inc to acquire the entire share capital of Cascades Sas. Cascades Sas runs one virgin fibre board mill in La Rochette,&nbsp;...Reno De Medici to acquire Cascades SAS cartonboard mill in France - Lesprom Network'
p8
aS'TSX 52 Wk Highs: Cascades Inc., Northland Power, Bird Construction Inc ... Midas Letter - Nov 17, 2015 Cascades Inc , Northland Power Inc. , Bird Construction Inc  and ProMetic Life Sciences Inc.  have all touched 52-week highs in early trading on the Toronto Stock Exchange.'
p9
aS'Cascades Inc  Given New C$18.00 Price Target at TD Securities Markets Daily - Apr 12, 2017 Cascades Inc logo Cascades Inc  had its price target upped by TD Securities from C$16.50 to C$18.00 in a report released on Thursday morning, StockTargetPrices.Scotiabank Raises Cascades Inc  Price Target to C$17.00 - Sports PerspectivesCascades Inc  Price Target Raised to C$16.00 - BBNS'
p10
a.