(lp0
S'Zacks: Meta Financial Group Inc.  Given $109.33 Consensus Target Price ... The Cerbat Gem - 4 hours ago Meta Financial Group logo Meta Financial Group Inc.  has been assigned an average broker rating score of 1.00  from the two brokers that cover the company, Zacks Investment Research reports.The Brokerages Anticipate Meta Financial Group, Inc.  to Announce $4.08 ... - Petro Global News 24Stock Returns: Astoria Financial Corporation  versus Meta Financial ... - CML News'
p1
aS'84.285 MarketWatch - Oct 21, 2010 Meta Financial Group Inc. Watchlist CreateCASHAlert. After Hours. Last Updated: Apr 13, 2017 4:17 p.m.. $ 84.285.'
p2
aS'Meta Financial Group, Inc. Announces Pricing of $75 Million Subordinated Notes GlobeNewswire  - Aug 11, 2016 SIOUX FALLS, S.D., Aug. 11, 2016  -- Meta Financial Group, Inc.  , parent company of MetaBank  based in Sioux Falls, S.D., today announced it had set the price for the public offering of&nbsp;...'
p3
aS'Stock Returns: Meta Financial Group Inc  versus United Financial ... CML News - Apr 17, 2017 This is a snapshot to compare the stock returns for Meta Financial Group Inc  versus United Financial Bancorp Inc  .'
p4
aS'Meta Financial Group, Inc. Reports Results for 2016 Fiscal Fourth Quarter and ... GlobeNewswire  - Oct 25, 2016 On October 3, 2016, Meta announced it had signed a definitive agreement with privately-held Drake Enterprises, Ltd. and its wholly-owned subsidiary, EPS Financial LLC , for MetaBank to acquire substantially all of the assets and certain&nbsp;...'
p5
aS'Meta Financial Group, Inc. and MetaBank Receive Investment Grade Ratings From ... GlobeNewswire  - Jun 21, 2016 SIOUX FALLS, S.D., June 21, 2016  -- Meta Financial Group, Inc.   parent company of MetaBank based in Sioux Falls, S.D., today announced the Company and Bank have received strong investment&nbsp;...'
p6
aS'Meta Financial Group  to Acquire Assets of EPS Financial for $42.5M StreetInsider.com - Oct 3, 2016 Meta Financial Group, Inc.  announced today that it and its bank subsidiary, MetaBank, have signed a definitive agreement with privately-held Drake Enterprises, Ltd.EPS Financial of Easton to be purchased by MetaBank for $42.5 million - Allentown Morning Call'
p7
aS'SunPower  At $6.52 Forms Bottom, Meta Financial Group  Shorts ... Herald KS - 23 hours ago Meta Financial Group, Inc. is a unitary savings and loan holding company. The company has market cap of $765.30 million.'
p8
aS'Analyst Activity  Keefe, Bruyette &amp; Woods Reiterates Buy on Meta Financial ... Market Exclusive - Apr 6, 2017 On 2/28/2017 Meta Financial Group announced a quarterly dividend of $0.13 0.58% with an ex dividend date of 3/3/2017 which will be payable on 4/3/2017.Meta Financial Group Inc.  Given Buy Rating at Keefe, Bruyette &amp; Woods - Community Financial News'
p9
aS'Meta Financial Group, Inc. Announces Cindy Smith as Executive Vice President ... PR Newswire  - Nov 4, 2015 4, 2015 /PRNewswire/ -- Meta Financial Group, Inc.   announced today that Cindy Smith will assume the position of Executive Vice President, Head of Technology and Operations for the Company.'
p10
a.