(lp0
S'CBAK Energy Technology Inc : How Well Does It Fare Against This ... Simply Wall St - Mar 31, 2017 Investors are always looking for growth in small-cap stocks like CBAK Energy Technology Inc  with its market cap of USD $24 Million.'
p1
aS'China BAK Battery, Inc. Announces Company Name Change to CBAK Energy ... PR Newswire  - Jan 13, 2017 DALIAN, China, Jan. 13, 2017 /PRNewswire/ -- China BAK Battery, Inc.  , a company engaged in the business of developing, manufacturing and selling new energy high power lithium batteries in China, today announced that&nbsp;...'
p2
aS"Is CBAK Energy Technology Inc's  Balance Sheet Strong Enough To Weather ... Simply Wall St - Mar 5, 2017 While small-cap stocks, such as CBAK Energy Technology Inc  with its market cap of USD $25 Million, are popular for their explosive growth, investors should also pay heed to their balance sheet to judge whether the company can survive a&nbsp;..."
p3
aS"Trader Alert: Unusual Volume Spotted in CBAK Energy Technology, Inc.  The Herald - 8 hours ago Investors are on alert as CBAK Energy Technology, Inc. 's stock is experiencing unusual volume during today's trading.Analysts See $-0.16 EPS for Check Cap Ltd , Cbak Energy Tech  SI ... - Bibeypost.com"
p4
aS'CBAK Energy Technology Inc. CBAK  Wall Street Journal - Feb 12, 2011 CBAK Energy Technology Inc. CBAK . search. View All companies. AT CLOSE 3:59 PM EDT 04/13/17. $1.35 USD; -0.05 -3.57%.'
p5
aS"CBAK ENERGY TECHNOLOGY, INC.  Files An 8-K Entry into a Material ... Market Exclusive - Mar 24, 2017 The Company's products are sold to packing plants operated by third parties primarily for use in mobile phones and other electronic devices."
p6
aS"Trading Options During Earnings in CBAK Energy Technology Inc  CML News - Mar 30, 2017 We're going to examine buying and selling out of the money strangles in CBAK Energy Technology Inc and find out once and for all what the winning trades have been during earnings releases."
p7
aS"Top Sizzling Mover of Thursday: CBAK Energy Technology, Inc.'s  stock ... WsNews 4investors - 20 hours ago CBAK Energy Technology, Inc.  stock price tumbled -3.57% to finalize at $1.35 throughout previous buying and selling session."
p8
aS'CBAK Energy Technology  At $1.30 Forms Bottom, 3 Analysts Are Bullish On ... Key Gazette - 23 hours ago Among 3 analysts covering On Assignment Inc , 3 have Buy rating, 0 Sell and 0 Hold. Therefore 100% are positive.'
p9
aS'A New Kind of Stock Chart: CBAK Energy Technology Inc  Critical ... CML News - Oct 25, 2016 This is a real time view of the critical technical pivot points for CBAK Energy Technology Inc  . The technical pivot points we look at all surround the stock price movement from the last 10-trading days through the last year.'
p10
a.