(lp0
S"Coca-Cola European Partners plc Ordinary Shares  stock rises higher ... FX Daily Report - Mar 21, 2017 Coca-Cola European Partners plc Ordinary Shares  has reported the adjusted earnings per share of $0.43 in the fourth quarter 2016, beating the analysts' estimates for the adjusted earnings per share of $0.42.Stock Earnings under Review: Coca-Cola European Partners plc Ordinary Shares ... - Post RegistrarStocks Attracting Some Extra Attention  Eli Lilly and Co , Coca ... - Wall Street Times "
p1
aS"Price Reaction History Under Analysts Radar: Coca-Cola European Partners plc ... Post Registrar - Apr 7, 2017 Coca-Cola European Partners plc Ordinary Shares  plunged -0.45% during previous trade, a total of 1.33M shares exchanged hands compared with its average trading volume of 1.43M shares whereas its relative volume is 0.86.Notable Stock Preview: Coca-Cola European Partners Plc's  - pppFocus"
p2
aS'Is Coca-Cola European Partners plc Ordinary Shares  A Good Stock To Buy? Insider Monkey  - Nov 25, 2016 In this article we are going to look at how this recent market trend affected the sentiment of hedge funds towards Coca-Cola European Partners plc Ordinary Shares , and what that likely means for the prospects of the company and its stock.'
p3
aS'Coca-Cola European Partners: Notification of Major Interest in Shares Business Wire  - Dec 28, 2016 The Coca-Cola Company has consolidated its interests in 87,950,640 ordinary shares , which were previously held by three of its wholly-owned subsidiaries (European&nbsp;...'
p4
aS"Coca-Cola European Partners: Total Voting Rights and Capital Business Wire  - Apr 3, 2017 This notification is made in conformity with DTR 5.6 of the FCA's Disclosure and Transparency Rules. As at 31 March 2017, Coca-Cola European Partners plc had 483,212,478 ordinary shares of 0.01 each in issue, each with one vote attached. No shares&nbsp;..."
p5
aS'Coca-Cola European Partners plc Ordinary Shares  Upgraded To Strong Buy Stock Market Daily  - Jan 26, 2017 Coca-Cola European Partners plc Ordinary Shares  have been upgraded from Buy to a Strong Buy rating by S&amp;P Capital IQ analysts Jia Man Neoh and Agnese.'
p6
aS'Coca-Cola Enterprises, Inc. Announces Approval of Prospectus Prepared by Coca ... Business Wire  - May 25, 2016 ... Inc.  announced today the UK Listing Authority has approved a prospectus prepared by Coca-Cola European Partners plc in connection with the application for the admission of its entire 0.01 ordinary share capital to ...'
p7
aS'InfoSonics  Touches $0.51 Formed H&amp;S, Shorts at Coca-cola European ... Bibeypost.com - 20 hours ago UBS upgraded Coca-Cola European Partners plc Ordinary Shares  rating on Wednesday, January 11. UBS has Buy rating and $38 target.'
p8
aS"Coca-Cola European Partners Has Limited Near-Term Upside Benzinga - Oct 10, 2016 Goldman Sachs' Judy Hong believes that while the long-term story for Coca-Cola European Partners plc Ordinary Shares  remains intact, there is limited near-term upside to the synergies from the CCE/CCEAG/CCIP merger, while FX continues&nbsp;..."
p9
aS'Coca-Cola European Partners Plc Admission to Listing and Trading Business Wire  - Jun 2, 2016 Investors should not purchase or subscribe for any shares referred to in this announcement except on the basis of information in the prospectus published by Coca-Cola European Partners plc  on 25 May 2016 . ... the Company ...'
p10
a.