(lp0
S'Clear Channel Outdoor Holdings, Inc.  Q3 2016 Results - Earnings Call ... Seeking Alpha - Nov 9, 2016 Ladies and gentlemen, thank you for standing by. Welcome to the 2016 Third Quarter Earnings Conference Call for iHeartMedia and Clear Channel Outdoor Holdings, Inc. At this time, all participants are in a listen-only mode. Later, we will conduct a&nbsp;...IHeartMedia books 27th consecutive quarterly loss - San Antonio Express-News '
p1
aS'Clear Channel Outdoor Holdings, Inc.  Stock Rating Upgraded by TheStreet Sports Perspectives - 6 hours ago Clear Channel Outdoor Holdings logo Clear Channel Outdoor Holdings, Inc.  was upgraded by investment analysts at TheStreet from a d+ rating to a c rating in a report released on Thursday.Do Analysts See Any Upside to Clear Channel Outdoor Holdings, Inc. ? - Rockville RegisterClear Channel Outdoor Holdings, Inc.  Lifted to C at TheStreet - Chaffey Breeze'
p2
aS"Clear Channel Outdoor's  Q4 2016 Results - Earnings Call Transcript Seeking Alpha - Feb 23, 2017 Ladies and gentlemen, thank you for standing by. Welcome to the 2016 Fourth Quarter and Full Year Earnings Conference Call for iHeartMedia and Clear Channel Outdoor Holdings, Inc. [Operator Instructions] And as a reminder, this conference is being&nbsp;..."
p3
aS'iHeartMedia and Clear Channel Outdoor Holdings  on Q1 2016 Results ... Seeking Alpha - May 4, 2016 Welcome to the iHeartMedia, Inc. and Clear Channel Outdoor Holdings, Inc. 2016 First Quarter Earnings Conference Call. [Operator Instructions].Clear Channel Outdoor swings to profit - MarketWatchClear Channel Outdoor Generates Profit, While Parent Says iHeartMediation - TheStreet.com'
p4
aS'Clear Channel Outdoor Holdings, Inc. Sells Interest in Adshel to Joint Venture ... Business Wire  - Oct 25, 2016 SAN ANTONIO----Clear Channel Outdoor Holdings, Inc. , a subsidiary of iHeartMedia, Inc. , announced today that its Clear Channel Outdoor International segment will sell its interest in Australian out-of-home&nbsp;...Clear Channel Outdoor Holdings  Announces A$268.4M Sale of Adshel - StreetInsider.com'
p5
aS'Clear Channel Outdoor Holdings: Time To Sell Seeking Alpha  - Jan 26, 2015 Clear Channel Outdoor , recently re-named iHeart Media, is a leading outdoor advertising company that is present in both the Americas and International markets.'
p6
aS"Clear Channel Outdoor Holdings Inc. Class A  Moves Higher on Volume Spike ... Equities.com - Apr 5, 2017 Clear Channel Outdoor Holdings Inc. Class A  traded on unusually high volume on Apr. 05, as the stock gained 3.45% to close at $6.00.Sell-Side Analyst's Predictions: Clear Channel Outdoor Holdings, Inc. (CCO ... - The USA Commerce"
p7
aS"Sell Clear Channel Outdoor, Says Loop Capital Benzinga - Sep 13, 2016 Loop Capital's David W. Miller believes that with a majority of Clear Channel Outdoor Holdings, Inc.  being owned by private equity and with the float being thin, the company's structure is fundamentally flawed as a stub equity piece."
p8
aS'Lamar in advanced talks to buy Clear Channel Outdoor assets: sources Reuters - Jan 6, 2016 O) is in advanced talks to buy billboard assets in five U.S. cities from Clear Channel Outdoor Holdings Inc  worth roughly $450 million, according to people familiar with the matter.Lamar Advertising acquires billboards from Clear Channel for $458.5 million - The AdvocateClear Channel Outdoor Holdings, Inc. Closes Sales of Five Outdoor Markets to ... - Business Wire '
p9
aS'iHeartMedia Grants Clear Channel Outdoor Option To Buy Clear Channel Trademark All Access Music Group - Feb 13, 2017 iHEARTMEDIA, INC. has granted subsidiary CLEAR CHANNEL OUTDOOR HOLDINGS, INC. a letter of intent and binding option to purchase the &quot;CLEAR CHANNEL&quot; name and trademarks.'
p10
a.