(lp0
S'Ward Retires; Cole Elected To Capitol Federal Financial, Inc. Board Of Directors PR Newswire  - Jan 24, 2017 TOPEKA, Kan., Jan. 24, 2017 /PRNewswire/ -- During its recent annual meeting held Tuesday, January 24, Capitol Federal Financial, Inc.   announced the retirement of longtime board member, Marilyn S. Ward upon her&nbsp;...'
p1
aS'Capitol Federal Financial, Inc. Announces Fiscal Year 2016 Cash True-Up Dividend PR Newswire  - Oct 27, 2016 TOPEKA, Kan., Oct. 27, 2016 /PRNewswire/ -- Capitol Federal Financial, Inc.   announced today that its Board of Directors has declared a cash true-up dividend of $0.29 per share on outstanding CFFN common stock for&nbsp;...'
p2
aS'Ex-Dividend Reminder: Capitol Federal Financial, Apple Hospitality REIT and ... Nasdaq - Jan 30, 2017 Looking at the universe of stocks we cover at Dividend Channel , on 2/1/17, Capitol Federal Financial Inc , Apple Hospitality REIT Inc , and Wells Fargo &amp; Co.'
p3
aS'Capitol Federal Financial, Inc. and Washington Federal, Inc. Head to Head Compare CML News - Apr 13, 2017 Washington Federal Inc has a higher fundamental rating then Capitol Federal Financial Inc which has an impact on the head-to-head comparison.'
p4
aS'Traders Take Note: Capitol Federal Financial Inc  Stock Drops ... CML News - Apr 8, 2017 Take Note: Capitol Federal Financial Inc  has hit some technical weakness in its momentum, and while it has not broken down all the way through support -- watch the key levels that we discuss below and further, watch the stochastics and&nbsp;...'
p5
aS'Dividend Still Enticing At Capitol Federal Financial Seeking Alpha - Mar 10, 2017 Capitol Federal Financial  is a sleeper that has returned more than most of my very few investments. ... With that said, new investors may want to pass and look for a company in a better position for a rising rate environment, but for those.'
p6
aS'Stock Returns: Dime Community Bancshares Inc  is Beating Capitol ... CML News - Apr 15, 2017 This is a snapshot to compare the stock returns for Capitol Federal Financial Inc  versus Dime Community Bancshares Inc  .'
p7
aS'Capitol Federal Financial Inc.  Moves Lower on Volume Spike for March 21 Equities.com - Mar 21, 2017 Capitol Federal Financial Inc.  traded on unusually high volume on Mar. 21, as the stock lost 2.17% to close at $14.45.Lookout for Price Target? Capitol Federal Financial, Inc. , Splunk Inc ... - StockNewsJournalAverage Brokerage Rating Of Capitol Federal Financial, Inc. , Splunk Inc ... - The USA Commerce'
p8
aS'Allianz Asset Management AG Sells 53 Shares of Capitol Federal Financial, Inc ... The Cerbat Gem - Apr 14, 2017 Capitol Federal Financial logo Allianz Asset Management AG cut its position in shares of Capitol Federal Financial, Inc.  by 0.2% during the fourth quarter, according to its most recent Form 13F filing with the SEC.'
p9
aS"Today's Brokerage Rating: Capitol Federal Financial, Inc. , Pure Storage ... StockNewsJournal - Mar 29, 2017 ROI deals with the invested cash in the company and the return the investor realize on that money based on the net profit of the business.Zacks Investment Research Downgrades Capitol Federal Financial, Inc.  to ... - The Cerbat Gem"
p10
a.