(lp0
S'CIFC To Be Acquired By FAB Partners For $333 Million In Cash PR Newswire  - Aug 19, 2016 19, 2016 /PRNewswire/ -- CIFC LLC , a U.S. private debt investment manager, and F.A.B. Partners (&quot;F.A.B.FAB Partners to Acquire Debt-Fund Manager CIFC for About $330 Million - Wall Street Journal'
p1
aS'CIFC LLC Announces Fourth Quarter and Full Year of 2015 Results and a $0.34 ... GlobeNewswire  - Mar 21, 2016 Our balance sheet investments in CIFC-managed funds outperformed their respective benchmarks. Both the Senior Secured Corporate Loan Fund and the Tactical Income Fund produced positive returns vis--vis losses in both the CS Loan Index and the&nbsp;...'
p2
aS"CIFC LLC Announces First Quarter of 2016 Results and a Quarterly Distribution ... GlobeNewswire  - May 6, 2016 CIFC's board of directors declared a cash distribution of $0.25 per share; composed of a $0.10 per share quarterly distribution and a $0.15 per share special distribution."
p3
aS'FAB to Acquire CIFC  in $333M Cash Deal StreetInsider.com - Aug 19, 2016 CIFC LLC  announced that CIFC and an affiliate of F.A.B. have entered into a definitive merger agreement under which F.A.'
p4
aS"Investment Firm FAB Pays $333M For NY Debt Manager CIFC Law360  - Aug 22, 2016 Law360, New York  -- Alternative investment firm FAB Partners has agreed to buy New York-based private debt investment manager CIFC LLC for about $333 million in cash, adding to FAB's portfolio a company that manages&nbsp;..."
p5
aS"CIFC Wins Private Debt Investor's CLO Manager of the Year, Americas, for the ... GlobeNewswire  - Mar 2, 2016 NEW YORK, March 02, 2016  -- CIFC LLC , and its subsidiaries  is pleased to announce that it is the recipient of Private Debt Investor's 2015 Award for CLO Manager of the Year&nbsp;..."
p6
aS'CIFC Completes $510.5 Million Collateralized Loan Obligation  GlobeNewswire  - Nov 24, 2015 NEW YORK, Nov. 24, 2015  -- CIFC Corp.  and its subsidiaries  announced the closing of a new CIFC-managed CLO, CIFC Funding 2015-V, Ltd., representing $510.5 million of par&nbsp;...'
p7
aS'CIFC  to Explore Strategic Alternatives Including Sale StreetInsider.com - Jan 28, 2016 CIFC LLC  and its subsidiaries announced the engagement of JPMorgan Securities LLC to assist the Company and management in exploring a range of strategic alternatives to enhance shareholder value and to capitalize on its&nbsp;...'
p8
aS'Primus Completes Sale of CypressTree to CIFC Business Wire  - Dec 2, 2010 HAMILTON, Bermuda &amp; NEW YORK----Primus Guaranty, Ltd.  today announced it has completed the sale of CypressTree Investment Management, LLC , its third-party asset management subsidiary,&nbsp;...'
p9
aS'Cifc Llc  Getting Favorable Media Coverage, Study Shows Chaffey Breeze - Apr 13, 2017 Cifc Llc logo Media headlines about Cifc Llc  have trended positive on Wednesday, Alpha One Sentiment reports.'
p10
a.