(lp0
S'Citizens Holding Company Announces Cash Dividend Yahoo Finance - Mar 7, 2017 Citizens Holding Company  announced today that its Board of Directors declared a cash dividend of $0.24 per share payable March 31, 2017, to shareholders of record as of March 17, 2017.'
p1
aS'Citizens Holding Company  Ex-Dividend Date Scheduled for March 15, 2017 Nasdaq - Feb 14, 2017 Citizens Holding Company  will begin trading ex-dividend on March 15, 2017. A cash dividend payment of $0.24 per share is scheduled to be paid on March 31, 2017.'
p2
aS'Stocks: The PPL Corporation  Shares Bought by First Citizens Bank &amp; Trust Co. Petro Global News 24 - Jan 6, 2017 Other institutional investors have also recently added to or reduced their stakes in the company. Shell Asset Management Co. increased its position in shares of PPL Corporation by 7.4% in the second quarter. Shell Asset Management Co. now owns 81,493&nbsp;...'
p3
aS'Citizens Holding Company  EPS Estimated At $0.00; Xcerra  Covered ... Herald KS - Apr 12, 2017 Analysts expect Citizens Holding Company  to report $0.00 EPS on April, 28. It is down 3.77% since September 6, 2016 and is uptrending.'
p4
aS'Citizens Holding Company  to Issue $0.24 Quarterly Dividend The Cerbat Gem - Mar 31, 2017 Citizens Holding Company logo Citizens Holding Company  declared a quarterly dividend on Wednesday, March 8th.'
p5
aS"Watch-list Stock of Traders: Citizens Holding Company's  stock price is ... WsNews 4investors - Mar 27, 2017 Citizens Holding Company  stock price distance from twenty day simple moving average slumped at -3.01% while its distance from fifty day simple moving average declined -6.66% along with -0.29% below distance from two hundred simple moving&nbsp;..."
p6
aS"What's Acceptable Profitability For Express Scripts Holding Company  and ... USA Commerce Daily - Apr 11, 2017 Shares of Express Scripts Holding Company  observed rebound of 5.82% since bottoming out at $63.22 on Mar. 21, 2017."
p7
aS'Citizens Community Bancorp Inc.  Reaches $14.08 High on Apr, 12 ... NormanObserver.com - Apr 12, 2017 Citizens Holding Company is a one-bank holding firm of The Citizens Bank of Philadelphia, Mississippi . The company has market cap of $118.27 million.'
p8
aS'Haverty Furniture Companies, Inc.  Trades at $23.60 After Triangle ... Key Gazette - 20 hours ago Investors sentiment increased to 1.12 in Q4 2016. Its up 0.10, from 1.02 in 2016Q3. It is positive, as 44 investors sold Citizens Financial Group Inc shares while 168 reduced holdings. 95 funds opened positions while 142 raised stakes. 469.78 million ...'
p9
aS"Citizens Financial Group's  Neutral Rating Reiterated at Piper Jaffray ... Markets Daily - Apr 17, 2017 Citizens Financial Group Inc logo Piper Jaffray Companies reissued their neutral rating on shares of Citizens Financial Group Inc  in a research note released on Wednesday. They currently have a $38.00 price target on the stock, down from ...National Pension Service Sells 50793 Shares of Citizens Financial Group Inc  - Sports PerspectivesAnalyst Activity  Piper Jaffray Companies Reiterates Neutral on Citizens ... - Market Exclusive"
p10
a.