(lp0
S"Clearwater Paper to add 180 jobs, $330M investment at Shelby tissue facility Charlotte Business Journal - Feb 9, 2017 Linda Massman, CEO of Clearwater, likes what she's found in Cleveland County since the project was announced in more than six years ago.Clearwater Paper expands premium paper products - The Spokesman-ReviewClearwater Paper Announces Second Tissue Machine and Converting Facility in ... - Business Wire "
p1
aS'54.50 MarketWatch - Dec 21, 2009 Clearwater Paper Corp. engages in the manufacturing and selling of private label tissue, paperboard, and pulp-based products.'
p2
aS'News Clearwater Paper Corp.CLW Wall Street Journal - Feb 11, 2011 Clearwater Paper Corp. CLW . search. View All companies. AT CLOSE 4:02 PM EDT 04/10/17. $57.00 USD; 0.80 1.42%.'
p3
aS"Clearwater Paper to lay off 85 in Neenah Appleton Post Crescent - Nov 29, 2016 SPOKANE, Wash. - Clearwater Paper Corporation announced Tuesday it will permanently shut down two of the company's highest cost tissue machines Dec. 31 at its Neenah facility, eliminating 85 of its 400 employees.Clearwater Paper laying off 85 workers in Neenah - Fox11online.com"
p4
aS'Fire departments work through night fighting Clearwater Paper blaze Shelby Star - Jan 29, 2017 SHELBY - Firefighters worked for nearly 12 hours to extinguish a fire at Clearwater Paper Corp. at 687 Washburn Switch Road, Shelby, that began just before 6 p.m.Chief: Blaze began in Clearwater Paper storage area - Gaston GazetteInvestigation underway after fire breaks out at Shelby paper mill - WSOC Charlotte'
p5
aS'Clearwater Paper Sells Five Paper Plants, Including One In East Hartford Hartford Courant - Jan 2, 2015 Clearwater Paper Corp. has sold its specialty-products businesses and mills, including its East Hartford operations, to Dunn Paper Inc. of Port Huron, Mich.Clearwater unloads E. Hartford paper mill - Hartford BusinessDunn Paper buys five paper mills - Port Huron Times Herald'
p6
aS'Clearwater Paper settles pollution case for $1.1 million The Spokesman Review - Jun 10, 2015 Clearwater Paper Corp. has agreed to pay $1.1 million to settle allegations of federal Clean Air Act violations at its Lewiston mill.'
p7
aS"Clearwater Paper ordered to pay $235000 to whistleblower The Seattle Times - Apr 22, 2016 BOISE, Idaho  - A federal judge has ordered Clearwater Paper Corp. to pay a former employee $235,000 after ruling the company fired him for filing a report with a federal agency about unsafe working conditions at the company's sawmill in Lewiston,&nbsp;..."
p8
aS'Dunn Paper Acquires Specialty Mills from Clearwater Paper Corporation PR Newswire  - Dec 30, 2014 PORT HURON, Mich., Dec. 30, 2014 /PRNewswire/ -- Dunn Paper, Inc. a leading manufacturer of specialty coated, wax and machine glazed papers, announced today that it has acquired the Specialty Mills business from Clearwater Paper Corporation (NYSE:&nbsp;...UPDATE: Clearwater Paper  Sells Specialty Mills to Dunn Paper in $113.5M Deal - StreetInsider.com Clearwater Paper Divests Specialty Mills to Dunn Paper - Analyst Blog - Nasdaq'
p9
aS"Clearwater Paper In A Paperless World? Seeking Alpha - Sep 11, 2015 Let's all take a moment to remember that Dunder Mifflin classic commercial jingle, &quot;Dunder Mifflin: The People Person's Paper People&quot;. Clearwater Paper doesn't just sell paperboard. It's also in the tissue paper business. With a P/E of 396 and a ..."
p10
a.