(lp0
S'The Coherent, Inc.  Stake Raised by Hanseatic Management Services Inc. Petro Global News 24 - Jan 30, 2017 A number of other institutional investors have also recently modified their holdings of COHR. Tower Research Capital LLC TRC increased its position in shares of Coherent by 69.6% in the second quarter. Tower Research Capital LLC TRC now owns 1,767&nbsp;...'
p1
aS'COHERENT, Inc. Announces Closing of Acquisition of ROFIN-SINAR Technologies PR Newswire  - Nov 7, 2016 SANTA CLARA, Calif., Nov. 7, 2016 /PRNewswire/ -- Coherent, Inc.  , a world leader in lasers and laser-based technology for scientific, commercial and industrial customers, today announced the completion of its previously&nbsp;...'
p2
aS"Coherent Inc. Laser Focus World - Feb 27, 2017 Founded in 1966, Coherent is one of the world's leading providers of lasers and laser-based technology for scientific, commercial and industrial customers competing in the most demanding markets."
p3
aS'Coherent, Inc. to Present at the 19th Annual Needham Growth Conference PR Newswire  - Jan 9, 2017 SANTA CLARA, Calif., Jan. 9, 2017 /PRNewswire/ -- Coherent, Inc. , today announced that its Chief Executive Officer, John Ambroseo, is scheduled to present at the 19th Annual Needham Growth Conference to be held at the Lotte New York&nbsp;...Stifel Raises Price Target on Coherent, Inc.  to $170 as Shares Trade up - StreetInsider.com'
p4
aS'Coherent Inc. Price Target Hiked 28%: What You Need to Know Motley Fool - Dec 28, 2016 Investors in industrial laser maker Coherent Inc.  had a grand time in 2016. Over the course of 12 short months, their stock grew 120% in value.'
p5
aS'Coherent, Inc. : Raising PT By 41% - Needham StreetInsider.com - Feb 8, 2017 Needham &amp; Company analyst, James Ricchiuti, reiterated his Buy rating on shares of Coherent  and raised his price target to $205 after the company reported an exceptionally strong quarter after the close yesterday.Coherent Inc.  Is Surging After Q1 Profit Blew Away Expectations - RTT News'
p6
aS'What To Expect From Coherent In One Chart Seeking Alpha - Feb 13, 2017 Coherent  makes Specialty Lasers and systems and commercial lasers and components for microelectronics, scientific research and government programs.'
p7
aS'Zacks Investment Research Downgrades Coherent, Inc.  to Hold Sports Perspectives - 21 hours ago Coherent, Inc. logo Zacks Investment Research downgraded shares of Coherent, Inc.  from a strong-buy rating to a hold rating in a research report released on Tuesday.Coherent, Inc.  Upgraded to Strong-Buy by Zacks Investment Research - The Cerbat Gem'
p8
aS'Coherent Inc.  Breaks into New 52-Week High on March 24 Session Equities.com - Mar 24, 2017 Shares of Coherent Inc.  broke into a new 52-week high yesterday, hitting a peak of $201.81. Shares closed at $197.96 after opening at $196.39 for a move of 0.94%.Coherent, Inc.  Stock Rating Upgraded by Zacks Investment Research - Chaffey BreezeCoherent, Inc.  price target upped to $222.00, released a ratings ... - Breaking Finance News'
p9
aS'Coherent Inc.  Breaks into New 52-Week High on March 28 Session Equities.com - Mar 28, 2017 Shares of Coherent Inc.  broke into a new 52-week high yesterday, hitting a peak of $207.84. Shares closed at $206.01 after opening at $205.70 for a move of 0.54%.'
p10
a.