(lp0
S'1.02 MarketWatch - Jun 29, 2016 Dextera Surgical Inc. Watchlist CreateDXTRAlert. Closed. Last Updated: Apr 13, 2017 3:58 p.m.. $ 1.02. 0.00 0.00%.'
p1
aS"Here's What's Driving Dextera Surgical Inc  Right Now Insider Financial - Mar 7, 2017 Mid January, we took a look at a tiny biotech play called Dextera Surgical Inc . The company had run up on the back of a business update put out by management a day or so ahead of the run, and looked as though it might be one to keep an&nbsp;...Most Active Trio on Profitability Estimation: Dextera Surgical "
p2
aS"Dextera Surgical Inc 's Target Numbers Suggest Growth Insider Financial - Jan 12, 2017 Dextera Surgical Inc  is up more than 120% so far this week, on a corporate update put out by management to address the fiscal 2017 sales of its lead asset."
p3
aS"Dextera Surgical: Innovation In Surgical Stapling Puts It On Path Towards ... Seeking Alpha - Feb 15, 2017 Dextera Surgical  is a very small  medical device manufacturer with a very interesting product roll-out that has the potential to radically alter the company's attractiveness to investors. Prior to August 2016, Dextera ..."
p4
aS'Dextera Surgical Provides Corporate Update Business Wire  - Jan 5, 2017 REDWOOD CITY, Calif.----Dextera Surgical Inc. , manufacturer of the smallest-profile and most maneuverable articulating surgical stapling platform on the market for minimally invasive surgery, today provided a corporate&nbsp;...'
p5
aS'Dextera and Intuitive Surgical Initiate Joint Development Program on New ... GlobeNewswire  - Aug 1, 2016 REDWOOD CITY, Calif., Aug. 01, 2016  -- Dextera Surgical Inc.  today announced that the company has entered into a joint development program with Intuitive Surgical, Inc. , the global leader in&nbsp;...Intuitive partners with Dextera on robotic surgery stapler - Mass Device'
p6
aS"Dextera Surgical's MicroCutter 5/80 Featured in Preclinical Laparoscopic ... Yahoo Finance - Mar 23, 2017 Dextera Surgical Inc. , manufacturer of the smallest-profile and most maneuverable articulating surgical stapling platform on the market for minimally invasive surgery, today announced that leading surgeon Juan-Carlos Verdeja, M.D."
p7
aS'Dextera Surgical Appoints Mark Soberman MD, Leader in Thoracic Surgery, as ... GlobeNewswire  - Jun 29, 2016 REDWOOD CITY, Calif., June 29, 2016  -- Dextera Surgical Inc.  today announced the appointment of Mark Soberman, M.D.'
p8
aS"Dextera Surgical's Microcutter 5/80 Used for First Time in Infant Serial ... Yahoo Finance - Mar 30, 2017 Dextera Surgical Inc. , manufacturer of the smallest-profile and most maneuverable articulating surgical stapling platform on the market for minimally invasive surgery, today announced that Dr."
p9
aS"Procedure Enabled by Dextera Surgical's MicroCutter 5/80 to be Featured at ... Business Wire  - Jan 17, 2017 REDWOOD CITY, Calif.----Dextera Surgical Inc. , manufacturer of the smallest-profile and most maneuverable articulating surgical stapling platform on the market for minimally invasive surgery, today announced that the&nbsp;..."
p10
a.