(lp0
S'The Deprince Race &amp; Zollo Inc. Invests $40594000 in Cooper Tire &amp; Rubber ... Petro Global News 24 - Jan 31, 2017 Several other large investors have also bought and sold shares of CTB. Bank of Montreal Can acquired a new stake in shares of Cooper Tire &amp; Rubber Company during the second quarter worth $2,498,000. American Century Companies Inc. boosted its&nbsp;...'
p1
aS"BRIEF-Cooper Tire &amp; Rubber Co says CEO Bradley Hughes' total compensation for ... Reuters - Mar 20, 2017 BRIEF-Cooper Tire &amp; Rubber Co says CEO Bradley Hughes' total compensation for 2016 was $4.2 mln. March 20 Cooper Tire &amp; Rubber Co. * CEO Bradley E. Hughes' total compensation for 2016 was $4.2 million - SEC Filing. * Former Chairman, CEO&nbsp;..."
p2
aS"The Manufacturing Institute Honors Three at Cooper Tire &amp; Rubber Company with ... Yahoo Finance - Mar 15, 2017 Christine Linder, Manufacturing Services Manager at Cooper Tire &amp; Rubber Company's tire manufacturing facility in Texarkana, Ark, has been honored by The Manufacturing Institute with a 2017 STEP Ahead Award."
p3
aS"What You Must To Know About Cooper Tire &amp; Rubber Company's  Financial ... Simply Wall St - Apr 12, 2017 Companies such as Cooper Tire &amp; Rubber Company   are categorized as mid-cap stocks - market capitalization between $2 billion and $10 billion.Cooper Tire &amp; Rubber Co  EPS Estimated At $0.64; Ardsley Advisory ... - Key GazetteCooper Tire &amp; Rubber Co  Shares Sold by Fmr LLC - The Cerbat Gem"
p4
aS'Chuck Royce Buys Cooper Tire &amp; Rubber Co, Insteel Industries, Houlihan Lokey ... Nasdaq - Feb 11, 2017 Chuck Royce added to the holdings in Cooper Tire &amp; Rubber Co by 156.38%. The purchase prices were between $34.31 and $39.8, with an estimated average price of $37.63.'
p5
aS"Cooper Tire &amp; Rubber  Q4 2016 Results - Earnings Call Transcript Seeking Alpha - Feb 17, 2017 Good morning and welcome to Cooper Tire &amp; Rubber Company's Fourth Quarter and Full Year 2016 Earnings Call and Webcast."
p6
aS"Cooper Tire &amp; Rubber Co  Stock Is A Classic Mid-Cap Value Investorplace.com - Mar 21, 2017 For the past three years, I've driven an SUV and a pickup. I got an unbelievable deal on the pickup , but it needed new tires. When I took the truck to the friendly neighborhood tire guys to replace them with similar all-terrain ...Goodyear, Cooper Tire employees honored with STEP Ahead awards - RubberNews.comWhy Is Cooper Tire &amp; Rubber  Up 14.2% Since the Last Earnings Report? - Nasdaq"
p7
aS'Cooper Tire &amp; Rubber: Revisiting An Old Favorite Seeking Alpha - Feb 3, 2017 In this article I decided to revisit one of my favorite investments from the past, Cooper Tire &amp; Rubber. What I found by digging into its financials is a company that appears to have a lot of opportunity for investors but is it worth the risk? With ...'
p8
aS'Cooper Tire &amp; Rubber: Strong Fundamentals, High ROIC, And Possible Acquisition ... Seeking Alpha - Jan 31, 2017 Cooper Tire &amp; Rubber Company  is a global manufacturer of tires for the passenger vehicle, light truck/SUV, and commercial market with a focus on replacement demand.Cooper Tire &amp; Rubber Shares Cross Below 200 DMA - Nasdaq'
p9
aS"Cooper Tire prime for takeover, report says Toledo Blade - Oct 11, 2016 Editor's note: This article has been updated with a comment from Continental AG spokesman on Oct. 12, 2016. Cooper Tire &amp; Rubber Co., which went through a messy failed merger deal less than three years ago, has been identified by one financial analyst&nbsp;...UPDATED 1:35 PM: Analyst: No evidence of potential Cooper Tire takeover - The CourierCooper Tires RS3-G1 proves itself on track and street - Autoweek"
p10
a.