(lp0
S'Computer Task Group: Deathly Balance Sheet Sleeper Seeking Alpha - Feb 1, 2017 As a company, Computer Task Group  is another rust bucket IT services and staffing provider. CTG has been around for half a century, has clichd old school black and white pictures of their first IBM  mainframe on the company&nbsp;...'
p1
aS'News Computer Task Group Inc.CTG Wall Street Journal - Feb 15, 2011 News Computer Task Group Inc.CTG. Significant News Only. 04/06/17; Press Release. CTG Announces Extension of 10b5-1 Plan to Facilitate Share Repurchases.'
p2
aS'IT Consulting Firm Computer Task Group Set To Ride The Healthcare Wave Seeking Alpha  - Sep 23, 2014 CTG is at a cheap price point near its 52-week low following flat sales over the past year. The company has a strong foothold in the healthcare IT consulting business that is set to grow with opportunities in the U.S.'
p3
aS"Computer Task Group's  CEO Bud Crumlish on Q3 2016 Results - Earnings ... Seeking Alpha - Oct 25, 2016 If you don't have a copy of the earnings results press release distributed early this morning, you can access it in the IR section of the company's website at ctg.com. Before we begin, I want to mention that statements during the course of this ..."
p4
aS'Do Investors Think Computer Task Group  Stock is a Buy? Nasdaq - Aug 27, 2015 If you are looking for a stock in the IT Services industry, Computer Task Group Inc.  could be one to watch closely.'
p5
aS'GSA Capital Partners LLP Buys 4300 Shares of Computer Task Group, Inc.  Sports Perspectives - Apr 16, 2017 Computer Task Group logo GSA Capital Partners LLP boosted its stake in Computer Task Group, Inc.  by 5.5% during the fourth quarter, according to its most recent 13F filing with the SEC.'
p6
aS'Computer Task Group Inc  Files Form 4 Insider Selling : Filip J L Gyde ... Energy Index - Apr 14, 2017 Computer Task Group Inc : Filip J L Gyde , Senior Vice President of Computer Task Group Inc sold 20,000 shares on Apr 4, 2017.'
p7
aS'Short Interest in Computer Task Group, Inc.  Drops By 24.6% Sports Perspectives - Apr 9, 2017 Computer Task Group logo Computer Task Group, Inc.  was the recipient of a significant decline in short interest in March.Analysts See $0.05 EPS for Computer Task Group, Inc. , Morgan Stanley ... - Wolcott Daily'
p8
aS'Ciber Inc versus Computer Task Group, Incorporated Head to Head Compare CML News - Mar 31, 2017 Computer Task Group, Incorporated has a substantially higher fundamental rating then Ciber Inc which has an impact on the head-to-head comparison.'
p9
aS"Computer Task Group  Earning Very Favorable Press Coverage, Study Shows Markets Daily - Apr 13, 2017 Receive News &amp; Ratings for Computer Task Group Inc. Daily - Enter your email address below to receive a concise daily summary of the latest news and analysts' ratings for Computer Task Group Inc. and related companies with MarketBeat.com's FREE daily&nbsp;..."
p10
a.