(lp0
S'The Municipal Employees Retirement System of Michigan Has $141000 Stake in ... Petro Global News 24 - Feb 2, 2017 Several other hedge funds and other institutional investors have also recently modified their holdings of CUBI. BlackRock Institutional Trust Company N.A.'
p1
aS'Customers Bancorp, Inc. Achieves Market Capitalization of $1 Billion GlobeNewswire  - Dec 7, 2016 WYOMISSING, Pa., Dec. 07, 2016  -- Customers Bancorp, Inc. , the parent company of Customers Bank , today reported that the Company achieved a market&nbsp;...'
p2
aS'Customers Bancorp Commences Public Offering of Common Stock GlobeNewswire  - Nov 3, 2016 WYOMISSING, Pa., Nov. 03, 2016  -- Customers Bancorp, Inc.  , the parent company for Customers Bank, today announced that it has commenced an underwritten public offering of 2,600,000 shares of its&nbsp;...'
p3
aS'Stock Alert and Holding Pattern: Customers Bancorp Inc Realized Volatility ... CML News - Mar 23, 2017 Before we cover the full analysis we make a quick alert here that Customers Bancorp Inc  has seen its stock price move at an amplified level.'
p4
aS'Customers Bancorp Inc  Moves Higher on Volume Spike for March 23 Equities.com - Mar 23, 2017 Customers Bancorp Inc  traded on unusually high volume on Mar. 23, as the stock gained 2.18% to close at $30.89. On the day, Customers Bancorp Inc saw 423,116 shares trade hands on 4,053 trades. Considering that the stock averages only a daily&nbsp;...'
p5
aS"Insider Trading Activity Customers Bancorp Inc   insider Sold 2970 ... Market Exclusive - Mar 22, 2017 Richard A. Ehst , insider of Customers Bancorp Inc  reportedly Sold 2,970 shares of the company's stock at an average price of 31.2 for a total transaction amount of $92,664.00 SEC Form.Insider Trading at Customers Bancorp Inc? - Sports Perspectives"
p6
aS"Customers Bancorp's  CEO Jay Sidhu on Q3 2016 Results - Earnings Call ... Seeking Alpha - Oct 27, 2016 Welcome to Customers Bancorp's third quarter 2016 earnings conference call. Our earnings release was issued today after the close and is posted on the company's website at www."
p7
aS'Tudor Investment Corp Et Al Takes Position in Customers Bancorp Inc  The Cerbat Gem - Apr 15, 2017 Customers Bancorp logo Tudor Investment Corp Et Al bought a new position in Customers Bancorp Inc  during the fourth quarter, according to its most recent Form 13F filing with the Securities and Exchange Commission.The Customers Bancorp, Inc  Price Target Raised to $50.00 at Maxim Group - Petro Global News 24$0.62 EPS Expected for Customers Bancorp Inc  This Quarter - Chaffey Breeze'
p8
aS'What do the Charts Say About Shares of Customers Bancorp Inc  Baldwin Journal - 19 hours ago Active traders have a wide variety of technical indicators at their disposal for completing technical stock analysis. Presently, the 14-day ATR for Customers Bancorp Inc  is spotted at 0.84. First developed by J. Welles Wilder, the ATR may assist ...'
p9
aS'Customers Bancorp  is Oversold: Can It Recover? March 16, 2017 Zacks.com - Mar 16, 2017 Customers Bancorp, Inc.  has been on a bit of a cold streak lately, but there might be light at the end of the tunnel for this overlooked stock.'
p10
a.