(lp0
S'CVR Medical Teams with Tech Manufacturer ADCO Circuits Yahoo Finance - Mar 16, 2017 VANCOUVER, BC / ACCESSWIRE / March 16, 2017 / CVR Medical Corp.     announces partnership with ADCO Circuits, a Michigan-based electronic design and manufacturing company.Life-Saving Device Could Transform The Medical Market In 2017 - Baystreet.caThis &quot;Quick Doubler&quot; Biotech Will Likely Disappoint - Money Morning'
p1
aS"CVR Medical Announces Letter of Intent to Acquire Additional Interest Yahoo Finance - Mar 9, 2017 F)   is pleased to report that it has entered into a letter of intent with CVR Global Inc.  to acquire an additional 10% interest of the &quot;Joint Venture Business&quot; from CVR Global's current 50% interest (the ..."
p2
aS'CVR Medical Announces Proposed $5M Institutionally Led Financing Yahoo Finance - Mar 20, 2017 VANCOUVER, BC / ACCESSWIRE / March 20, 2017 / CVR Medical Corp.     a leading research and development company aiming to make arterial diagnostic testing significantly more accessible with its&nbsp;...'
p3
aS"CVR Medical Puts Emphasis on Patents with Cozen O'Connor Yahoo Finance - Jan 26, 2017 VANCOUVER, BC / ACCESSWIRE / January 26, 2017 / CVR Medical Corp.     has retained the services of Cozen O'Connor."
p4
aS'CVR Medical Retains DuVal &amp; Associates to Navigate FDA Process Yahoo Finance - Feb 6, 2017 VANCOUVER, BC / ACCESSWIRE / February 6, 2017 / CVR Medical Corp.     has retained the services of DuVal &amp; Associates, P.A.'
p5
aS'CORRECTION: CVR Medical Granted IRB Approval by Thomas Jefferson University Yahoo Finance - Jan 18, 2017 CVR Medical Corp. is pleased to announce that its &quot;Carotid Stenotic Scan &quot; device has received IRB approval for clinical trials, to be conducted through the Jefferson Clinical Research Institute at Thomas Jefferson University under the supervision ...'
p6
aS'CVR Medical Appoints Mr. Benjamin Asuncion to the Board of Directors Yahoo Finance - Feb 9, 2017 VANCOUVER, BC / ACCESSWIRE / February 9, 2017 / CVR Medical Corp.     has appointed Benjamin Asuncion to its Board of Directors.'
p7
aS'CVR Medical Announces Financing Closing Yahoo Finance - Feb 23, 2017 VANCOUVER, BC / ACCESSWIRE / February 23, 2017 / CVR Medical Corp.     is pleased to report that it has closed its previously announced non-brokered private placement financing for gross proceeds of&nbsp;...'
p8
aS'CVR Medical Announces Amended Financing Price Yahoo Finance - Mar 29, 2017 VANCOUVER, BC / ACCESSWIRE / March 29, 2017 / CVR Medical Corp.     previously announced its intention to complete a private placement financing of units for gross proceeds of up to $5,000,000 , at ...'
p9
aS'0.51 MarketWatch - Sep 30, 2016 CVR Medical Corp. engages in the research and development of medical diagnostic products and services. It focuses on developing the Carotid Stenotic Scan, a screening tool designed for detecting and measuring carotid arterial stenosis or occlusion to&nbsp;...'
p10
a.