(lp0
S"Here's Why Cynosure, Inc. is Soaring Today Motley Fool - Feb 14, 2017 Investors in Cynosure , a laser maker that makes products to be used in aesthetic and medical procedures, should be smiling from ear to ear.Cynosure Inc.  Has Jumped To A New High After Bought By Hologic - NasdaqCynosure Inc.  Leaped To A New High After Purchased By Hologic - RTT News"
p1
aS'Why Cynosure, Inc. Is Rising Today Motley Fool - Jan 23, 2017 Shares of Cynosure , a laser maker whose products are used in aesthetic and medical procedures, rose by double-digits in early morning trading on Monday in response to a report that suggests the company is looking to sell itself.Cynosure Inc.  Exploring Sale? - StockNewsUnionCynosure  Spikes on Talks of Potential Sale - Economic Calendar'
p2
aS'Cynosure Announces Planned Retirement of Timothy W. Baker as President, Chief ... PR Newswire  - May 25, 2016 WESTFORD, Mass., May 25, 2016 /PRNewswire/ -- Cynosure, Inc.  today announced that Timothy W. Baker has notified the Company that he plans to retire to pursue philanthropic interests.'
p3
aS'Cynosure Promotes Doug Delaney to Chief Commercial Officer PR Newswire  - Nov 1, 2016 1, 2016 /PRNewswire/ -- Cynosure, Inc. , a leading developer and manufacturer of aesthetic treatment systems, today announced the promotion of Douglas J. Delaney, Executive Vice President of Worldwide Sales, to Chief Commercial&nbsp;...'
p4
aS'Cynosure Reports Net Income of $6.3 Million on Record Sales of $110.3 Million ... PR Newswire  - Jul 26, 2016 WESTFORD, Mass., July 26, 2016 /PRNewswire/ -- Cynosure, Inc.  today reported second-quarter 2016 net income of $6.3 million, or $0.27 per diluted share, an increase of 18.3 percent compared with $5.4 million, or $0.24 per diluted share&nbsp;...'
p5
aS"Cynosure Still Looks Attractive After A Bull Run Seeking Alpha - Jul 28, 2016 I was a bit late in coming around to the story at Cynosure , but the company's second-quarter earnings report on Tuesday strengthened that story."
p6
aS'Medical-Laser Maker Cynosure Said to Eye Sale Amid Review Bloomberg - Jan 22, 2017 Cynosure Inc., the maker of lasers for medical and cosmetic treatments, is exploring strategic options including a sale, according to people familiar with the matter, amid increasing interest in the technology from larger global companies.'
p7
aS'Cynosure to Name Stephen J. Webber as New Chief Financial Officer PR Newswire  - Sep 13, 2016 WESTFORD, Mass., Sept. 13, 2016 /PRNewswire/ -- Cynosure, Inc.  today announced that Stephen J. Webber will join the Company on October 10, 2016 as Executive Vice President.'
p8
aS'Short Interest in Cynosure, Inc.  Declines By 29.3% The Cerbat Gem - Apr 17, 2017 Cynosure logo Cynosure, Inc.  was the recipient of a large drop in short interest in March. As of March 15th, there was short interest totalling 1,559,128 shares, a drop of 29.3% from the February 28th total of 2,205,406 shares.Cynosure, Inc.  Short Interest Update - Community Financial NewsThe Cynosure, Inc.  Sees Significant Growth in Short Interest - Petro Global News 24'
p9
aS'CYNOSURE, INC. SHAREHOLDER ALERT: Former SEC Attorney Willie Briscoe Believes ... Yahoo Finance - Feb 16, 2017 Former United States Securities and Exchange Commission attorney Willie Briscoe is investigating potential claims against the Board of Directors of CynoSure, Inc.   concerning the acquisition by Hologic, Inc. Under the terms of the&nbsp;...'
p10
a.