(lp0
S"CYS Investments, Inc. : What's the Story? StockNewsJournal - 15 hours ago CYS Investments, Inc.  is an interesting player in the Financial space, with a focus on REIT - Diversified. The stock has been active on the tape, currently trading at $8.12, up from yesterday's close by 0.50%.Fmr LLC Has $2.548 Million Stake in CYS Investments Inc  - The Cerbat GemMost Recent Analysts Ratings CYS Investments, Inc.  - News Oracle"
p1
aS'CYS Investments, Inc. Announces Conference Call to Discuss First Quarter 2017 ... Business Wire  - Apr 6, 2017 NEW YORK----CYS Investments, Inc.   today announced that it will host a conference call at 9:00 AM Eastern Time on Thursday, April 20, 2017, to discuss its financial results for the quarter ended March 31,&nbsp;...Zacks Provided 2.71 Rating to CYS Investments, Inc.  - The Newburgh PressCYS Investments Inc - Receive News &amp; Ratings Daily - BBNS'
p2
aS"Taking a Look at the Data Behind CYS Investments, Inc.  StockNewsJournal - Mar 22, 2017 CYS Investments, Inc.  is an interesting player in the Financial space, with a focus on REIT - Diversified. The stock has been active on the tape, currently trading at $7.72, down from yesterday's close by -3.62%.CYS Investments Inc.  Moves Lower on Volume Spike for March 21 - Equities.comShare Price of CYS Investments, Inc.  Increases 3.9% - Energy Index"
p3
aS'CYS Investments, Inc.  shows weekly volitility of 1.45% The Newburgh Press - Mar 31, 2017 Analysts estimated $0.24/share for the previous Quarter, where CYS Investments, Inc.  reported Actual EPS of $0.24/share with the difference of 0 percent and a surprise of 0 percent.'
p4
aS'CYS Investments, Inc.  Shouts Loudly With Its Technical Chart NY Stock News - Mar 22, 2017 The technicals for CYS Investments, Inc.  have taken shape, and with them a comprehensive picture has emerged. This is the current state of play as presented by the current technical setup.'
p5
aS"CYS Investments, Inc. closed with a change of -0.65% in the Previous Trading ... Free Observer - Mar 27, 2017 Currently the shares of CYS Investments, Inc.  has a trading volume of 1.48 Million shares, with an average trading volume of 2.73 Million shares - with shares dropping to a 52 week low of $7.42 on Dec 15, 2016, and the company's shares hitting a ...CYS Investments, Inc.  hit its 52 Week low of $7.42 on Dec 15, 2016 - The Newburgh PressNotable Buzzer of Last Trading Day: CYS Investments, Inc.'s  - Is stories"
p6
aS"CYS Investments, Inc. : The Technicals As Seen Today NY Stock News - Apr 5, 2017 CYS Investments, Inc.  has presented a rich pool of technical data in recent sessions. These are the trends we've been tracking and how we feel they should be played in the current environment."
p7
aS"Earnings Clues on Rexahn Pharmaceuticals, Inc. , CYS Investments, Inc ... StockNewsJournal - Mar 23, 2017 CYS Investments, Inc. , maintained return on investment for the last twelve months at 0.61, higher than what Reuters data shows regarding industry's average."
p8
aS'CYS Investments, Inc.  Institutional Ownership stands at 72 The Newburgh Press - Mar 20, 2017 Analysts estimated $0.24/share for the previous Quarter, where CYS Investments, Inc.  reported Actual EPS of $0.24/share with the difference of 0 percent and a surprise of 0 percent.'
p9
aS'Analysts Set CYS Investments Inc  Price Target at $8.50 The Cerbat Gem - Apr 9, 2017 CYS Investments logo Shares of CYS Investments Inc  have been given a consensus rating of Hold by the ten research firms that are covering the company.'
p10
a.