(lp0
S'Watching Shares of Data I/O Corporation  BVN - 8 hours ago Taking a closer look at some quality ratios for Data I/O Corporation , the firm has a Gross Margin  ratio of 0.564981.'
p1
aS'Data I/O to Demonstrate New SentriX Security Programming Technology at ... Marketwired  - Mar 9, 2017 REDMOND, WA-- - Data I/O Corporation , the leading global provider of advanced data and security programming solutions for flash, flash-memory based intelligent devices and microcontrollers, will&nbsp;...Renesas Electronics Partners with Data I/O and Secure Thingz to Provide Secure ... - Business Wire '
p2
aS"Data I/O to Present at B. Riley &amp; Co.'s 17th Annual Investor Conference on May 26 Marketwired  - May 5, 2016 REDMOND, WA-- - Data I/O Corporation , the leading global provider of advanced programming and IP management solutions for flash, flash-memory based intelligent devices and microcontrollers, today&nbsp;..."
p3
aS"What You Must Know About Data I/O Corporation's  ROE? Simply Wall St - Apr 7, 2017 Data I/O Corporation  delivered a 10.8% ROE over the past year; however, the figure is only significant when we compare it to returns from assets with similar risk profile: the industry average, which stood at 24.34% in the same time period."
p4
aS"Data I/O's  CEO Anthony Ambrose on Q4 2016 Results - Earnings Call ... Seeking Alpha - Feb 24, 2017 This is the Data I/O Corporation's fourth quarter and year end 2016 financial results conference call. With me today are Anthony Ambrose, President and CEO of Data I/O Corporation and Joel Hatlen, Vice President and Chief Financial Officer of Data I/O."
p5
aS'Analysts are Saying Buy This Stock: Data I/O Corporation  Midway Monitor - Dec 12, 2016 Sell-side analysts are offering a consensus Buy rating on shares of Data I/O Corporation . Using the following ratings scale: 1.0 Strong Buy, 2.0 Buy, 3.0 Hold, 4.0 Sell and 5.0 Strong Sell, analysts have an average recommendation of 1 ...'
p6
aS"Shareholders Traded Stock: Data I/O Corporation's  has stock value of $4 ... Street Updates - Mar 27, 2017 Data I/O Corporation  , a stock from Diversified Electronics Industry, has a value of $4.91 per share, noted a price change of 3.15% in recent trade close."
p7
aS"Stock Watch: Indicators in View for Data I/O Corp  Sherwood Daily - Dec 8, 2016 Investors may be watching technical indicators such as the Williams Percent Range or Williams %R. Data I/O Corp 's Williams %R presently stands at -78.95."
p8
aS"Data I/O Corporation's  is value at $4.74 per share, noted a price ... Street Updates - Mar 22, 2017 Data I/O Corporation  , a stock from Diversified Electronics Industry, has a value of $4.74 per share, noted a price change of -4.44% in recent trade close."
p9
aS"Noticeable movements of Stock: Data I/O Corporation's  stock price is ... Street Updates - Feb 22, 2017 Data I/O Corporation  , a stock from Diversified Electronics Industry, has a value of $4.87 per share, noted a price change of -2.40% in recent trade close."
p10
a.