(lp0
S'Market: The DineEquity Inc.  Rating Lowered to Sell at Zacks Investment ... Petro Global News 24 - Jan 25, 2017 DineEquity Inc.  was downgraded by Zacks Investment Research from a hold rating to a sell rating in a research note issued on Monday.'
p1
aS'DineEquity, Inc.: Small-Cap With A Large Yield Seeking Alpha - Apr 15, 2017 DineEquity, Inc.  reported their Q4 results on March 1, which showed EPS of $1.37 that was in-line with estimates, and revenue of $154.17 million which missed estimates by $2.66 million.$1.20 Earnings Per Share Expected for DineEquity Inc  This Quarter - Markets Daily'
p2
aS"DineEquity Inc. Shares Drop Almost 10 Percent on News of CEO Resignation Los Angeles Business Journal - Feb 18, 2017 The resignation of DineEquity Inc.'s chief executive amid declining sales Friday caused the restaurant company's stock to fall 9.6 percent in a single day, closing at $60.14.Chairman and Chief Executive Officer Julia Stewart Announces Resignation - PR Newswire DineEquity Inc.  Has Tumbled To A New Low After CEO Resigns - Nasdaq"
p3
aS"DineEquity, Inc. Reports Fourth Quarter and Fiscal 2016 Results PR Newswire  - Mar 1, 2017 GLENDALE, Calif., March 1, 2017 /PRNewswire/ -- DineEquity, Inc. , the parent company of Applebee's Neighborhood Grill &amp; Bar and IHOP restaurants, today announced financial results for the fourth quarter and fiscal 2016. &quot;While this has&nbsp;...Risk, High Income, And DineEquity - Seeking AlphaDineEquity, Inc. Announces Resignation of Chief Financial Officer and ... - Yahoo Finance"
p4
aS'DineEquity, Inc  Ex-Dividend Date Scheduled for March 16, 2017 Nasdaq - Mar 15, 2017 DineEquity, Inc  will begin trading ex-dividend on March 16, 2017. A cash dividend payment of $0.97 per share is scheduled to be paid on April 07, 2017.DineEquity Has Paid Its Dividend - Seeking AlphaBroker Outlook For The Week Ahead DineEquity, Inc  - Fiscal Standard'
p5
aS"DineEquity, Inc. Announces John Cywinski As President Of Applebee's PR Newswire  - Mar 9, 2017 GLENDALE, Calif., March 9, 2017 /PRNewswire/ -- DineEquity, Inc., the parent company of Applebee's Neighborhood Grill &amp; Bar and IHOP restaurants, today announced that John Cywinski has been appointed President, Applebee's, effective today.John Cywinski named Applebee's brand president - Nation's Restaurant News"
p6
aS"The Long Case For DineEquity Seeking Alpha - Mar 13, 2017 DineEquity  is the parent company of Applebee's and IHOP restaurants. It is primarily a franchisor. At the end of 2016, there were 2,020 franchised Applebee's, 1,697 franchised IHOP, and 10 company-run IHOP restaurants.Read this before buying DineEquity Inc  for its upcoming $0.97 dividend - Simply Wall StCL King Upgrades DineEquity Inc to Buy - Money Flow Index & Trends"
p7
aS"DineEquity: Barron's Botched It Seeking Alpha - Jan 12, 2017 Last month Barron's published a scathing article about shares of Applebee's and IHOP parent company DineEquity , predicting the stock would fall by 33% over the next year."
p8
aS'Risk Malaise Alert in Option Market: DineEquity, Inc Implied Price Swing Hits ... CML News - Apr 16, 2017 Before we dive into any analysis we simply note that DineEquity, Inc  risk is actually priced pretty low by the option market as of right now.'
p9
aS'DineEquity, Inc  Ex-Dividend Date Scheduled for December 14, 2016 Nasdaq - Dec 13, 2016 DineEquity, Inc  will begin trading ex-dividend on December 14, 2016. A cash dividend payment of $0.97 per share is scheduled to be paid on January 06, 2017.'
p10
a.