(lp0
S'Stocks: The Insider Buying: Delek Logistics Partners, LP  Major ... Petro Global News 24 - Jan 19, 2017 Delek Us Holdings, Inc. also recently made the following trade: On Wednesday, January 4th, Delek Us Holdings, Inc. bought 3,800 shares of Delek Logistics Partners, L.P. stock. The shares were bought at an average price of $29.70 per share, with a ...'
p1
aS"Stocks: The Insider Buying: Delek Logistics Partners, LP  Major ... Petro Global News 24 - Jan 19, 2017 Delek Logistics Partners, L.P.  major shareholder Delek Us Holdings, Inc. purchased 3,800 shares of the firm's stock in a transaction that occurred on Wednesday, January 4th."
p2
aS'Delek Logistics Partners, LP to Host First Quarter 2017 Conference Call on May 9 Nasdaq - Apr 13, 2017 BRENTWOOD, Tenn., April 13, 2017  -- Delek Logistics Partners, LP   today announced that the Partnership intends to issue a press release summarizing first quarter 2017 results after the U.S.Celestica  Is At $14.39 Formed Wedge, Delek Logistics Partners LP (DKL ... - Key GazetteDelek Logistics Partners LP  Rating Reiterated by Scotiabank - The Cerbat Gem'
p3
aS'Delek Logistics Partners, LP 2016 K-1 Tax Packages Available on Website GlobeNewswire  - Mar 15, 2017 BRENTWOOD, Tenn., March 15, 2017  -- Delek Logistics Partners, LP  today announced that 2016 K-1 tax packages are now available on its website, www.Delek Logistics Partners, LP  Under Analyst Spotlight - UK Market NewsDelek Us Holdings, Inc.  Files Form 4 Insider Selling : Anthony L. Miller ... - Energy Index'
p4
aS'Insider Trading Activity Delek Logistics Partners LP   major ... Market Exclusive - 9 hours ago On 1/25/2013 Delek Logistics Partners LP announced a quarterly dividend of $0.22 with an ex dividend date of 2/4/2012 which will be payable on 2/14/2013.Delek Logistics Partners LP  Major Shareholder Delek Us Holdings, Inc ... - The Cerbat GemStock Returns: Delek Logistics Partners, LP  is Beating Scorpio ... - CML News'
p5
aS'The Importance Of Due Diligence: Delek Logistics Partners LP Seeking Alpha - Nov 29, 2016 Delek Logistics Partners LP is a great example - it looks like a wonderful investment at first glance. Digging deeper into past 10-K filings and financial statements reveals the invisible truth.'
p6
aS"News Delek Logistics Partners LPDKL Wall Street Journal - Feb 12, 2011 News Delek Logistics Partners L.P.DKL. Significant News Only. 08/05/16; Barron's. Delek US Holdings Edges Out Tesoro. Barron's."
p7
aS"BRIEF-Delek Logistics Partners Lp - Caddo pipeline to be completed in Jan 2017 Reuters - Nov 1, 2016 HONG KONG/MUMBAI, March 21 Investment banking business in India should be enjoying bumper fees after a record year of dealmaking. It's not, and big banks blame in-house teams of advisers that have proliferated as the country's top family-owned&nbsp;..."
p8
aS'Ex-Dividend Reminder: Delek Logistics Partners, Energy Transfer Partners and ... Nasdaq - Feb 1, 2017 Looking at the universe of stocks we cover at Dividend Channel , on 2/3/17, Delek Logistics Partners LP , Energy Transfer Partners LP , and Summit Midstream Partners LP  will all trade ex-dividend for their&nbsp;...Delek finds next CFO - Nashville Post '
p9
aS'Checking on Shares of Delek Logistics Partners, LP  The Standard - 17 hours ago Checking the Value Composite score for Delek Logistics Partners, LP , we see that the company has a rank of 42.'
p10
a.