(lp0
S'Market: The Essex Investment Management Co. LLC Purchases Shares of 18608 ... Petro Global News 24 - Jan 27, 2017 Several other hedge funds and other institutional investors have also added to or reduced their stakes in the stock. BB&amp;T Corp increased its position in Delphi Automotive PLC by 109.9% in the second quarter. BB&amp;T Corp now owns 36,660 shares of the&nbsp;...'
p1
aS'Bill Nygren Comments on Delphi Automotive PLC GuruFocus.com - Apr 10, 2017 Delphi  is an automobile parts supplier that is well positioned for the secular trends that will continue to drive the auto industry.'
p2
aS'Experts Analysis on Price Reaction History: Delphi Automotive PLC  Post Registrar - 19 hours ago Delphi Automotive PLC  plunged -0.71% during previous trade, a total of 1.14M shares exchanged hands compared with its average trading volume of 1.89M shares whereas its relative volume is 0.58.All The Recent Sell-Side Sentiment On Delphi Automotive PLC  and Fang ... - USA Commerce DailyBrokerages Expect Delphi Automotive PLC  to Announce $1.45 EPS - The Cerbat Gem'
p3
aS'Delphi Automotive plc: Delphi Partners with Rosenberger to Deliver High ... The Wall Street Transcript - Apr 6, 2017 Delphi Automotive PLC is a high-technology company that integrates safer, greener and more connected solutions for automotive and transportation sectors.Delphi Partners with otonomo to Leverage Data Marketplace Solution for Automakers - PR Newswire New Delphi partnerships aimed at Big Data collection - The Detroit News'
p4
aS'De Vos Named Delphi Chief Technology Officer and Senior Vice President PR Newswire  - Jan 20, 2017 20, 2017 /PRNewswire/ -- Delphi Automotive PLC  announced today it has named Glen De Vos as chief technology officer  and senior vice president, effective March 1, 2017.'
p5
aS"Delphi Automotive plc  Dips 2.9% for April 04 Equities.com - Apr 4, 2017 Among the S&amp;P 500's biggest fallers on Tuesday April 04 was Delphi Automotive plc . The stock experienced a 2.9% decline to $75.98 with 3.04 million shares changing hands.Investor's Alert: Delphi Automotive PLC  - StandardOracleDelphi Automotive PLC performed Very Well with a change of 0.04% in the Last Trade - Free Observer"
p6
aS"Delphi Automotive Plc  Q4 2016 Results - Earnings Call Transcript Seeking Alpha - Feb 2, 2017 Good morning. My name is Kayla, and I will be your conference facilitator. At this time I would like to welcome everyone to Delphi Q4 2016 Earnings Conference Call. All lines have been placed on mute to prevent any background noise. After the speakers'&nbsp;..."
p7
aS'Patten Group, Inc. Buys Delphi Automotive PLC, Vanguard Total Stock Market ... Nasdaq - Feb 11, 2017 Patten Group, Inc. added to the holdings in Delphi Automotive PLC by 3372.00%. The purchase prices were between $63.23 and $71.77, with an estimated average price of $67.15.'
p8
aS"Delphi One of World's Most Ethical Companies for Fifth Straight Year PR Newswire  - Mar 13, 2017 Delphi Automotive PLC is a high-technology company that integrates safer, greener and more connected solutions for automotive and transportation sectors."
p9
aS'Delphi Automotive plc  Moves Higher on Volume Spike for March 22 Equities.com - Mar 22, 2017 Delphi Automotive plc  traded on unusually high volume on Mar. 22, as the stock gained 0.73% to close at $78.73. On the day, Delphi Automotive plc saw 2.96 million shares trade hands on 22,174 trades. Considering that the stock averages only a&nbsp;...Analyst Activity  Deutsche Bank AG Raises Its Price Target On Delphi ... - Market Exclusive'
p10
a.