(lp0
S'Dover Corp.  Acquires Caldera Graphics StreetInsider.com - Apr 5, 2017 Dover  announced today that it has acquired Caldera Graphics SAS  for total consideration of approximately EUR 35 million, including an amount related to achieving certain performance metrics.'
p1
aS'Dover Corp  Shares Sold by Federated Investors Inc. PA The Cerbat Gem - 5 hours ago Dover Corp logo Federated Investors Inc. PA lowered its position in Dover Corp  by 18.2% during the fourth quarter, according to its most recent 13F filing with the Securities and Exchange Commission.Dover Corp  Stake Maintained by First National Bank of Omaha - Markets Daily'
p2
aS'Athene Holding, Dover Corp, SunTrust Banks Times of India - Apr 3, 2017 April 3  - Wall Street securities analysts revised their ratings and price targets on several U.S.-listed companies, including Athene Holding, Dover Corp and SunTrust Banks, on Monday. HIGHLIGHTS * Athene Holding Ltd : KBW raises to outperform&nbsp;...'
p3
aS'BRIEF-Dover Corporation acquires Caldera Graphics Reuters - Apr 5, 2017 April 5 Dover Corp. * Reg-Dover Corporation: Dover acquires Caldera Graphics. * Dover Corp - Deal for total consideration of approximately EUR 35 million.'
p4
aS'UPDATE: Morgan Stanley Upgrades Dover Corp.  to Overweight StreetInsider.com - Apr 3, 2017 Morgan Stanley upgraded Dover Corp.  from Equalweight to Overweight with a price target of $90.00 .Analyst Upgrades  Dover Corp  Stock Gets Upgraded By Morgan Stanley ... - Market ExclusiveDover, levered to energy spending bounce, upgraded at Morgan Stanley - Seeking Alpha'
p5
aS'Dover Corporation: Dover Acquires Caldera Graphics Nasdaq - Apr 5, 2017 Downers Grove, IL, April 5, 2017 - Dover  announced today that it has acquired Caldera Graphics SAS  for total consideration of approximately EUR 35 million, including an amount related to achieving certain performance metrics.'
p6
aS'Dover Corporation: Dover Announces First Quarter 2017 Earnings Release Date ... Yahoo Finance - Apr 10, 2017 Downers Grove, IL, April 10, 2017 - Dover  announced today that it will release first quarter 2017 earnings at 6:00 a.m.'
p7
aS"Dover Corp : Positive Commentary at the Conference Reinforces BAML's ... Smrt Stck Nws - Mar 23, 2017 Bob Livingston, Dover Corp's  President CEO, presented at Bank of America Merrill Lynch's conference earlier today, providing constructive view on 1Q order trends with orders solid/ahead of expectations across the portfolio.Dover Corp  Given Consensus Rating of Hold by Analysts - Chaffey Breeze"
p8
aS'Dover Corp  PT Raised to $87.00 The Cerbat Gem - Apr 13, 2017 Dover Corp logo Dover Corp  had its price objective raised by equities research analysts at Citigroup Inc from $84.00 to $87.00 in a research note issued on Tuesday.Dover Corp  Earning Somewhat Favorable Media Coverage, Report Shows - Sports Perspectives'
p9
aS'Rathbone Brothers plc Continues to Hold Position in Dover Corp  BNB Daily  - Apr 8, 2017 Dover Corp logo Rathbone Brothers plc maintained its stake in shares of Dover Corp  during the first quarter, according to its most recent disclosure with the Securities and Exchange Commission.Dover Corp  Rating Increased to Overweight at Morgan Stanley - Markets DailyTeachers Advisors LLC Acquires 347592 Shares of Dover Corp  - Sports Perspectives'
p10
a.