(lp0
S'Exclusive: Duke Realty mulls sale of medical office buildings - sources Reuters - Mar 2, 2017 Real estate investment trust Duke Realty Corp  is exploring the sale of its medical office buildings that could be worth as much as $3 billion, as it seeks to focus on its warehouse portfolio, people familiar with the matter said.Duke Realty  Stock: Gaining On Sale Exploration - CNA Finance '
p1
aS"Taking a Look at the Data Behind Duke Realty Corporation  StockNewsJournal - 14 hours ago Duke Realty Corporation  is an interesting player in the Financial space, with a focus on REIT - Industrial. The stock has been active on the tape, currently trading at $27.74, down from yesterday's close by -0.07%.Louisiana State Employees Retirement System Raises Position in Duke Realty ... - Sports PerspectivesStock Jumping Abnormally High: Duke Realty Corporation  - HugoPress"
p2
aS"Should You Retain Duke Realty  in Your Portfolio Now? Yahoo Finance - Mar 29, 2017 Shares of Duke Realty outperformed the Zacks categorized REIT and Equity Trust - Other industry in the past one month. Over this time frame, Regency's shares inched up 0.5%, while the industry incurred a loss of 2.7%."
p3
aS'Still A Value Trap?  Express Scripts Holding Company , Duke Realty ... USA Commerce Daily - 15 hours ago Shares of Express Scripts Holding Company  observed rebound of 5.14% since bottoming out at $63.22 on Mar. 21, 2017. Thanks to a rise of almost 1.03% in the past five days, the stock price is now down -3.37% so far on the year - still in&nbsp;...'
p4
aS"Duke Realty Corporation  closed its previous trading session at $27.74 TopChronicle - 19 hours ago The share of Duke Realty Corporation  currently has a value of $27.74 while the company's 52 week low is at $20.49, the shares dropped to the 52 week low on 04/27/16."
p5
aS"Duke Realty Corp  Earns Hold Rating from BMO Capital Markets The Cerbat Gem - Apr 11, 2017 Duke Realty Corp logo Duke Realty Corp 's stock had its hold rating reiterated by research analysts at BMO Capital Markets in a research note issued on Monday.Unusual Volume Spikes For: Duke Realty Corporation  - HugoPressDuke Realty Corp  Stock Rating Upgraded by Bank of America Corp - BNB Daily "
p6
aS'Duke Realty Corporation Risk Points versus Real Estate CML News - Apr 7, 2017 This is a scatter plot analysis of the critical risk points from the option market for Duke Realty Corporation  compared to its own past and the Real Estate ETF.'
p7
aS'Analyst Upgrades  Duke Realty Corp  Stock Gets Upgraded By Bank of ... Market Exclusive - Mar 20, 2017 Today, Duke Realty Corp  stock received an upgrade by Bank of America Corp from Neutral to Buy. There are 5 hold ratings, 8 buy ratings on the stock.'
p8
aS'All You Need To Know About Duke Realty Corporation  Revealed Perfectly In ... NY Stock News - Apr 12, 2017 The technicals for Duke Realty Corporation  have taken shape, and with them a comprehensive picture has emerged. This is the current state of play as presented by the current technical setup.'
p9
aS"The Bears And Bulls Square Off On Duke Realty Corporation  NY Stock News - Apr 13, 2017 Duke Realty Corporation  has presented a rich pool of technical data in recent sessions. These are the trends we've been tracking and how we feel they should be played in the current environment."
p10
a.