(lp0
S'Destination XL Group, Inc. Reports Fourth-Quarter and Fiscal 2016 Financial ... Yahoo Finance - Mar 20, 2017 In addition, new DXL store growth was partially offset by sales from closed Casual Male XL stores and comparable store decreases from our other store formats.Destination XL Group Inc.  Moves Higher on Volume Spike for March 21 - Equities.comDestination XL Group, Inc.  Recent Ownership Changes - Post Analyst'
p1
aS'2.50 MarketWatch - Dec 28, 2012 Destination XL Group Inc. Watchlist CreateDXLGAlert. After Hours. Last Updated: Apr 13, 2017 4:03 p.m.. $ 2.50. -0.10 -3.85%.'
p2
aS'Company Scope: Tracking Shares of Destination XL Group, Inc.  Benton Bulletin - 17 hours ago Destination XL Group, Inc.  has a current Piotroski F-Score of 4. The mission of the F-Score is to help spot companies with strengthening balance sheets, and to weed out poor performers.'
p3
aS'Equity Check-in on This Stock: Destination XL Group, Inc.  BVN - 19 hours ago Looking at shares of Destination XL Group, Inc. , the company presently has a Gross Margin  ratio of 0.760712.'
p4
aS'Insider Activity: Is Management Buying Destination XL Group, Inc. ? The Herald - 22 hours ago Destination XL Group, Inc.  stands -8.58% away from its 50-day simple moving average and also -35.59% away from the 200-day average.'
p5
aS"Destination XL Group Inc.  Plunges 7.02% on April 05 Equities.com - Apr 5, 2017 Destination XL Group Inc.  had a rough trading day for Wednesday April 05 as shares tumbled 7.02%, or a loss of $-0.2 per share, to close at $2.65.Russell Investments Group Ltd. Takes Position in Destination XL Group Inc  - Sports PerspectivesStock to Watch: Destination XL Group, Inc.'s  - Is stories"
p6
aS"Destination XL Group, Inc. Announces Holiday Sales Results and Updates Guidance Business Wire  - Jan 9, 2017 CANTON, Mass.----Destination XL Group, Inc. , the largest omni-channel specialty retailer of big &amp; tall men's apparel, today announced that total sales for the 9-week holiday sales period ending December 31, 2016&nbsp;..."
p7
aS'Destination XL Group Inc.  Plunges 7.69% on March 27 Equities.com - Mar 27, 2017 Destination XL Group Inc.  had a rough trading day for Monday March 27 as shares tumbled 7.69%, or a loss of $-0.2 per share, to close at $2.40.Breaking Down: Destination XL Group Inc  Stock Drop Below Support ... - CML NewsDestination XL Group, Inc.  loses confidence of 4 hedge fund managers - Post Analyst'
p8
aS"Destination XL Group, Inc. Names Nancy Youssef to Head Global Franchise Strategy Business Wire  - Nov 20, 2015 CANTON, Mass.----Destination XL Group, Inc. , the largest omni-channel specialty retailer of big and tall men's apparel, announced today that Nancy Youssef has been appointed to the newly created position of senior vice&nbsp;..."
p9
aS'Destination XL Group Inc.  Soars 6% on March 29 Equities.com - Mar 29, 2017 Destination XL Group Inc.  had a good day on the market for Wednesday March 29 as shares jumped 6% to close at $2.65.'
p10
a.