(lp0
S'Eagle Bancorp Montana Announces Private Placement of Senior Unsecured Notes ... GlobeNewswire  - Feb 13, 2017 HELENA, Mont., Feb. 13, 2017  -- Eagle Bancorp Montana, Inc.  , holding company for Opportunity Bank of Montana , today announced that it has sold $10 million in senior unsecured notes&nbsp;...'
p1
aS'Eagle Bancorp Montana Inc  Short Interest Update BNB Daily  - 20 hours ago Eagle Bancorp Montana logo Eagle Bancorp Montana Inc  saw a large growth in short interest in the month of March.Stock Returns: Eagle Bancorp Montana Inc  versus Landmark Bancorp ... - CML News'
p2
aS'What is the Sell-side Recommending for Eagle Bancorp Montana, Inc.  Midway Monitor - 15 hours ago Wall street brokerage firm analysts are offering a consensus Buy rating on shares of Eagle Bancorp Montana, Inc. . Using the following ratings scale: 1.0 Strong Buy, 2.0 Buy, 3.0 Hold, 4.0 Sell and 5.0 Strong Sell, analysts have an ...'
p3
aS'Eagle Bancorp Montana Revises First Quarter 2016 Results GlobeNewswire  - Jul 27, 2016 HELENA, Mont., July 27, 2016  -- Eagle Bancorp Montana, Inc. , , the holding company of Opportunity Bank of Montana, today reported that its Board of Directors determined that the Company&nbsp;...'
p4
aS'Larry Williams Joins Eagle Bancorp Montana as Senior Vice President/Chief ... GlobeNewswire  - Nov 17, 2014 HELENA, Mont., Nov. 17, 2014  -- Eagle Bancorp Montana, Inc. , the holding company for Opportunity Bank of Montana, today announced that Larry Williams will join its senior management team as SVP/Chief Lending&nbsp;...'
p5
aS'EAGLE BANCORP MONTANA, INC.  Files An 8-K Entry into a Material ... Market Exclusive - Feb 14, 2017 Eagle Bancorp Montana, Inc. is the bank holding company for Opportunity Bank of Montana . The Bank is a Montana-chartered commercial bank.'
p6
aS'Stock Returns: Plumas Bancorp  is Beating Eagle Bancorp Montana ... CML News - Apr 5, 2017 This is a snapshot to compare the stock returns for Eagle Bancorp Montana Inc  versus Plumas Bancorp  .Zacks: Eagle Bancorp Montana Inc  Receives Consensus Rating of Strong ... - Markets Daily'
p7
aS'Stock Returns: Eagle Bancorp Montana Inc  versus First Community ... CML News - Apr 13, 2017 This is a snapshot to compare the stock returns for Eagle Bancorp Montana Inc  versus First Community Corporation  .Market: The Eagle Bancorp Montana, Inc.  Releases Quarterly Earnings Results - Petro Global News 24'
p8
aS'Stock Returns: Eagle Bancorp Montana Inc  versus Porter Bancorp ... CML News - Mar 20, 2017 This is a snapshot to compare the stock returns for Eagle Bancorp Montana Inc  versus Porter Bancorp Inc  .'
p9
aS'Stock Returns: American River Bankshares  versus Eagle Bancorp ... CML News - Apr 4, 2017 This is a snapshot to compare the stock returns for American River Bankshares  versus Eagle Bancorp Montana Inc  . The stock return points we compare look at the last three-months, six-months and twelve-months.'
p10
a.