(lp0
S'Ex-Dividend Reminder: RMR Group, US Ecology and Pentair Nasdaq - 18 hours ago Looking at the universe of stocks we cover at Dividend Channel , on 4/19/17, RMR Group Inc , US Ecology, Inc. , and Pentair PLC  will all trade ex-dividend for their respective upcoming dividends. RMR Group Inc&nbsp;...'
p1
aS"3 Reasons US Ecology Inc. Stock Could Fall Motley Fool - Mar 16, 2015 Take environmental services company U.S. Ecology  as an example. Treating and properly disposing of hazardous waste may not make your heart beat any faster, but there's no arguing with the steady market-beating returns handed to&nbsp;..."
p2
aS'US Ecology Sells EQ Environmental Cleaning Unit waste360 - Aug 7, 2015 US Ecology Inc. has sold off one of the businesses it acquired with its purchase of EQ Holdings Inc. - Allstate Power-Vac Inc., an environmental cleaning firm.'
p3
aS'Zacks: Analysts Expect US Ecology Inc  Will Announce Earnings of $0.28 ... BNB Daily  - 21 hours ago US Ecology logo Equities research analysts expect US Ecology Inc  to report earnings of $0.28 per share for the current fiscal quarter, Zacks Investment Research reports.US Ecology  Given Daily Coverage Optimism Score of 0.25 - The Cerbat Gem'
p4
aS'US Ecology, Inc. Closes Acquisition of Ontario, Canada-Based Environmental ... Marketwired  - May 3, 2016 BOISE, ID-- - US Ecology, Inc.   today announced that it has acquired all of the stock of Environmental Service Inc., , an environmental services company based in Tilbury, Ontario, Canada.'
p5
aS'US Ecology Inc  Updates FY17 Earnings Guidance BBNS - 2 hours ago US Ecology logo US Ecology Inc  updated its FY17 earnings guidance on Wednesday. The company provided earnings per share guidance of $1.69-1.93 for the period, compared to the Thomson Reuters consensus earnings per share&nbsp;...'
p6
aS'US ECOLOGY, INC.  Files An 8-K Regulation FD Disclosure Market Exclusive - Mar 29, 2017 Attached as Exhibit 99.1 and furnished for purposes of Regulation FD is an Investor Presentation to be given by US Ecology, Inc. at various investor events in April 2017. In accordance with general instruction B.2 of Form 8-K, the information in this ...'
p7
aS'US Ecology Inc  Stake Increased by Fmr LLC The Cerbat Gem - Apr 14, 2017 US Ecology logo FMR LLC boosted its stake in US Ecology Inc  by 1.5% during the fourth quarter, according to its most recent disclosure with the SEC.US Ecology Inc  to Issue Quarterly Dividend of $0.18 on April 28th - Markets DailyDimensional Fund Advisors LP Has $40.724 Million Position in US Ecology Inc  - Community Financial News'
p8
aS'Traders Take Note: US Ecology Inc  Stock Drops, Weakness in ... CML News - Mar 27, 2017 Take Note: US Ecology Inc  has hit some technical weakness in its momentum, and while it has not broken down all the way through support -- watch the key levels that we discuss below and further, watch the stochastics and technical&nbsp;...'
p9
aS'Covanta Acquires Georgia Waste Processing Facility from US Ecology Waste Management World - Apr 8, 2016 &quot;We view this as a positive outcome for the facility, our employees and our company,&quot; commented US Ecology chairman and CEO Jeff Feeler.'
p10
a.