(lp0
S'Market: The Enersys  Position Raised by HBK Investments LP Petro Global News 24 - Jan 28, 2017 Several other hedge funds have also recently added to or reduced their stakes in the stock. Schroder Investment Management Group purchased a new stake in Enersys during the third quarter worth approximately $49,780,000. Laurion Capital Management&nbsp;...'
p1
aS'EnerSys Awarded $71M Long Term Contract For US Military Batteries PR Newswire  - Mar 21, 2017 READING, Pa., March 21, 2017 /PRNewswire/ -- EnerSys,  the global leader in stored energy solutions for industrial applications, announced that it has recently been awarded a long term contract valued at over $71 million for production and&nbsp;...Is EnerSys  Preparing For A Breakout Trade? - Post Analyst'
p2
aS'Enersys  Down 2.7% Since Earnings Report: Can It Rebound? Nasdaq - Apr 4, 2017 It has been about a month since the last earnings report for Enersys ENS . Shares have lost about 2.7% in that time frame, underperforming the market.'
p3
aS"Longmont's EnerSys hosting aerospace symposium April 19 Boulder Daily Camera - Mar 30, 2017 Industry leaders - including officials from EnerSys, Lockheed Martin, Orbital, Boeing and NASA - will speak at the public event."
p4
aS'EnerSys  Clinches US Army Deal to Supply Batteries Yahoo Finance - Mar 22, 2017 EnerSys ENS recently announced that it has secured a contract from the U.S. Defense Logistics Agency  to supply them with proprietary Thin Plate Pure Lead  Hawker ARMASAFE Plus batteries.EnerSys  has been awarded long term contract valued over $71 million - Benchmark Monitor'
p5
aS'Enersys  Ex-Dividend Date Scheduled for March 15, 2017 Nasdaq - Mar 14, 2017 Enersys  will begin trading ex-dividend on March 15, 2017. A cash dividend payment of $0.175 per share is scheduled to be paid on March 31, 2017.Enersys  Under Analyst Spotlight - UK Market News'
p6
aS'NexSys provides a flexible, low-maintenance battery solution from Enersys Modern Materials Handling - Apr 4, 2017 Using Thin Plate Pure Lead  technology from EnerSys , NexSys batteries use an ultra-thin positive plate design that allows more plates to fit into the cell.'
p7
aS'EnerSys gets $71M military contract to supply batteries Lehigh Valley Business - Mar 28, 2017 Bern Township-based EnerSys, one of the largest industrial battery makers in the world, was awarded a $71 million contract to supply one of its proprietary batteries to all branches of the United States military, the company announced.'
p8
aS'EnerSys  Q2 2017 Results - Earnings Call Transcript Seeking Alpha - Nov 10, 2016 Good day, ladies and gentlemen, and welcome to the Q2 2017 EnerSys Earnings Conference Call. At this time, all participants are in a listen-only mode.'
p9
aS'Enersys  Moves Higher on Volume Spike for March 28 Equities.com - Mar 28, 2017 Enersys  traded on unusually high volume on Mar. 28, as the stock gained 1.8% to close at $78.00. On the day, Enersys saw 440,529 shares trade hands on 2,385 trades. Considering that the stock averages only a daily volume of 261,782 shares a day&nbsp;...EnerSys  Given a $95.00 Price Target by Oppenheimer Holdings Inc. Analysts - Chaffey Breeze'
p10
a.