(lp0
S'E2open  Stock Gains After Reaching Buyout Plan TheStreet.com - Feb 5, 2015 TheStreet Ratings team rates E2OPEN INC as a Sell with a ratings score of D-. TheStreet Ratings Team has this to say about their recommendation: &quot;We rate E2OPEN INC  a SELL. This is driven by multiple weaknesses, which we believe should have&nbsp;...E2open Signs Definitive Agreement To Be Acquired By Insight Venture Partners - PR Newswire Insight Ventures Drops $273M On Struggling Tech Co. - Law360 '
p1
aS"Insight Completes Acquisition Of E2open PR Newswire  - Mar 26, 2015 FOSTER CITY, Calif., March 26, 2015 /PRNewswire/ -- E2open, Inc.  , the leading provider of cloud-based solutions for collaborative planning and execution across global trading networks, today announced the completion of its&nbsp;...Insight completes E2open tender offer - Thomson Reuters' peHUB "
p2
aS'E2open merges with Steelwedge DC Velocity - Feb 13, 2017 Supply chain planning software vendor E2open Inc. has merged with business process software provider Steelwedge Software Inc. in an effort to build a platform that combines planning with execution, the companies said Monday.'
p3
aS'E2open, Inc.  Reviewed By Analysts The De Soto Edge - Apr 17, 2017 Stock market analysts watching E2open, Inc.  have recently changed their ratings on the stock. The latest reports which are outstanding on Monday 17th of April state 0 analysts have a rating of strong buy, 0 analysts buy, 0 analysts&nbsp;...'
p4
aS'E2open Acquires SERUS Corporation Business Wire  - Jun 5, 2014 BUSINESS WIRE)--E2open , the leading provider of cloud-based solutions for collaborative planning and execution across global trading networks, today announced the acquisition of SERUS Corporation, a market leader in extended supply chain ...'
p5
aS"E2open acquires Terra Technology DC Velocity - Mar 4, 2016 The move combines Terra's demand-forecasting capabilities with E2open's network of production and distribution planning to offer a single source for end-to-end visibility, as well as the ability to adjust to changing market conditions on the fly, the ..."
p6
aS"E2open's  CEO Mark Woodward on Q3 2015 Results - Earnings Call Transcript Seeking Alpha - Jan 9, 2015 Greetings, and welcome to the E2open Third Quarter Fiscal 2015 Earnings Conference Call. At this time, all participants are in a listen-only mode."
p7
aS"E2open  Stock Plunging Today on Weak Earnings Forecast TheStreet.com - Jan 9, 2015 NEW YORK  -- Shares of E2open Inc.  are declining by 38.71% to $5.40 on heavy volume in mid-morning trading on Friday, after the company provided guidance for the fiscal 2015 fourth quarter that came in below analysts' expectations."
p8
aS'Why E2open  Stock Is Plummeting in After-Hours Trading Today TheStreet.com - Sep 10, 2014 &quot;We rate E2OPEN INC  a SELL. This is driven by a few notable weaknesses, which we believe should have a greater impact than any strengths, and could make it more difficult for investors to achieve positive results compared to most of the stocks ...'
p9
aS'Software maker E2open continues acquisition strategy with Maryland deal Austin Business Journal - Jun 27, 2016 E2open bought for an undisclosed amount Orchestro Inc., a software maker that was founded in 1999, according to a Monday announcement.E2open Acquires Point-of-Sale Analytics Leader Orchestro - Supply & Demand Chain Executive'
p10
a.