(lp0
S'The ExlService Holdings, Inc.  Position Boosted by BlackRock ... Petro Global News 24 - Jan 28, 2017 Other hedge funds and other institutional investors have also bought and sold shares of the company. Aperio Group LLC raised its position in shares of ExlService Holdings by 0.4% in the third quarter. Aperio Group LLC now owns 9,071 shares of the&nbsp;...'
p1
aS'Stocks: The BlackRock Fund Advisors Raises Stake in ExlService Holdings, Inc ... Petro Global News 24 - Jan 7, 2017 A number of other large investors have also recently bought and sold shares of the stock. BNP Paribas Arbitrage SA raised its stake in shares of ExlService Holdings by 110.7% in the second quarter. BNP Paribas Arbitrage SA now owns 10,472 shares of the&nbsp;...'
p2
aS'45.70 MarketWatch - Dec 21, 2009 ExlService Holdings Inc. Watchlist CreateEXLSAlert. After Hours. Last Updated: Apr 13, 2017 4:00 p.m.. $ 45.70. 0.00 0.00%.'
p3
aS'ExlService Holdings, Inc.  Receives $49.60 Consensus PT from Analysts The Cerbat Gem - 2 hours ago ExlService Holdings logo ExlService Holdings, Inc.  has received a consensus rating of Buy from the seven ratings firms that are covering the stock.ExlService Holdings, Inc.  Stock Rating Lowered by Zacks Investment Research - Sports PerspectivesA Look Ahead For 2 Stocks: Exlservice Holdings, Inc. , Caleres, Inc.  - Post Analyst'
p4
aS'ExlService Holdings  Q4 2016 Results - Earnings Call Transcript Seeking Alpha - Feb 28, 2017 Good day, ladies and gentlemen, and welcome to the ExlService Holdings Fourth Quarter 2016 Earnings Conference Call. At this time, all participants are in a listen-only mode.EXL Reports 2016 Fourth Quarter and Full Year Results - GlobeNewswire '
p5
aS'ExlService Holdings  Q3 2016 Results - Earnings Call Transcript Seeking Alpha - Oct 27, 2016 Good day, ladies and gentlemen, and welcome to the ExlService Holdings Third Quarter Conference Call. As a reminder, this conference call may be recorded.EXL deepens investment in Analytics by acquiring data management company ... - GlobeNewswire '
p6
aS'ExlService Holdings Inc.  Moves Lower on Volume Spike for April 14 Equities.com - Apr 14, 2017 ExlService Holdings Inc.  traded on unusually high volume on Apr. 14, as the stock lost 1.7% to close at $45.70. On the day, ExlService Holdings Inc. saw 356,759 shares trade hands on 1,604 trades. Considering that the stock averages only a daily&nbsp;...Insider Trading Activity ExlService Holdings, Inc.   COO Sold ... - Market ExclusivePavan Bagai Sells 10000 Shares of ExlService Holdings, Inc.  Stock - BNB Daily '
p7
aS"ExlService Holdings Inc to acquire RPM Direct for $47 million Livemint - Feb 25, 2015 Mumbai: ExlService Holdings Inc., the Nasdaq-listed business process outsourcing and analytics firm, on Wednesday announced the acquisition of US-based RPM Direct Llc, an analytics firm focused on the insurance industry.ExlService Holdings'  CEO Rohit Kapoor on Q4 2014 Results - Earnings ... - Seeking Alpha EXL Acquires Analytics Firm RPM Direct - GlobeNewswire "
p8
aS'ExlService Holdings Inc.  Moves Higher on Volume Spike for March 17 Equities.com - Mar 17, 2017 ExlService Holdings Inc.  traded on unusually high volume on Mar. 17, as the stock gained 1.59% to close at $45.96. On the day, ExlService Holdings Inc. saw 363,692 shares trade hands on 1,752 trades. Considering that the stock averages only a&nbsp;...Option Market: Exlservice Holdings Inc Risk Hits A Weakened Level - CML NewsExlservice Holdings, Inc.  Files Form 4 Insider Selling : Vishal ... - Energy Index'
p9
aS"Insider Trading Activity ExlService Holdings, Inc.   CEO Sold ... Market Exclusive - Apr 12, 2017 Rohit Kapoor , CEO of ExlService Holdings, Inc.  reportedly Sold 9,757 shares of the company's stock at an average price of 46.04 for a total transaction amount of $449,212.28 SEC Form."
p10
a.