(lp0
S'Zacks Investment Research Downgrades First Bancshares Inc  to Hold Sports Perspectives - 1 hour ago First Bancshares Inc logo Zacks Investment Research cut shares of First Bancshares Inc  from a buy rating to a hold rating in a report published on Tuesday.Southern First Bancshares, Inc.  Downgraded by Zacks Investment Research ... - The Cerbat Gem'
p1
aS"Is Southern First Bancshares Inc  Trading In The Sweet Spot? Simply Wall St - Apr 7, 2017 The market has been unkind to Southern First Bancshares Inc , which currently trades at a PE of 15.5 versus the industry's 17.3.Keefe, Bruyette &amp; Woods Analysts Give Southern First Bancshares, Inc.  a ... - The Cerbat GemSouthern First Bancshares, Inc.  Valuation According To Analysts - UK Market News"
p2
aS'Stock Returns: The First Bancshares Inc  is Beating First ... CML News - Apr 17, 2017 This is a snapshot to compare the stock returns for The First Bancshares Inc  versus First Financial Northwest Inc  .'
p3
aS"BRIEF-Southern First Bancshares Inc files for mixed shelf of up to $50 million ... Reuters - Mar 30, 2017 March 31 Speculators' net bearish bets on U.S. 10-year Treasury note futures fell to their lowest levels since late November on doubts about fiscal stimulus from Washington, according to Commodity Futures Trading Commission data released on Friday."
p4
aS'Stock Returns: Southern First Bancshares Inc  is Beating The ... CML News - Apr 16, 2017 This is a snapshot to compare the stock returns for Southern First Bancshares Inc  versus The Bancorp Inc  .Southern First Bancshares, Inc.  Director Leighton M. Cubbage Sells 965 ... - Chaffey Breeze'
p5
aS'First Home Bank and Stockmens Bank to Merge GlobeNewswire  - Mar 29, 2017 Initially, First Bancshares, Inc., , the parent company of First Home Bank, will purchase Stockmens Bank in an all-stock transaction.'
p6
aS'Southern First Bancshares Inc.  Moves Higher on Volume Spike for March 29 Equities.com - Mar 29, 2017 Southern First Bancshares Inc.  traded on unusually high volume on Mar. 29, as the stock gained 0.15% to close at $33.05.First Bancshares Inc  Stock Rating Lowered by Zacks Investment Research - The Cerbat GemFirst Bancshares Inc  Downgraded to Hold at Zacks Investment Research - Sports Perspectives'
p7
aS'Southern First Bancshares Inc.  Moves Lower on Volume Spike for March 22 Equities.com - Mar 22, 2017 Southern First Bancshares Inc.  traded on unusually high volume on Mar. 22, as the stock lost 3.28% to close at $32.45.Stock Returns: Enterprise Bancorp Inc  is Beating First Community ... - CML News'
p8
aS'Stock Returns: The First Bancshares Inc  versus Norwood Financial ... CML News - Mar 24, 2017 This is a snapshot to compare the stock returns for The First Bancshares Inc  versus Norwood Financial Corp.  .'
p9
aS'Stock Returns: The First Bancshares Inc  versus Landmark Bancorp ... CML News - Mar 20, 2017 This is a snapshot to compare the stock returns for The First Bancshares Inc  versus Landmark Bancorp Inc  .Next Weeks Broker Price Targets For Southern First Bancshares, Inc.  - Fiscal Standard'
p10
a.