(lp0
S'Successful Earnings Option Trading: First Bancorp  CML News - Mar 11, 2017 As we look at First Bancorp we note that a short put is one of the most common implementations of an option strategy, but the analysis completed when employing the short put often times lacks the necessary rigor especially surrounding earnings.'
p1
aS'First Bancorp Board of Directors Elects New Chairman Southern Pines Pilot - Mar 20, 2017 First Bancorp, the Southern Pines-based parent company of First Bank, has announced that its board of directors has elected James C. Crawford III the new chairman.'
p2
aS'First Bancorp Reminds Former Carolina Bank Holdings, Inc. Shareholders of ... PR Newswire  - Mar 30, 2017 The terms of the merger provided that for each share of Carolina Bank Holdings common stock, shareholders have the right, subject to certain limitations, to receive either $20.00 in cash or 1.002 shares of First Bancorp common stock, provided that in ...First Bancorp  Stock Rating Lowered by Zacks Investment Research - BNB Daily First Bancorp  Downgraded to Hold at Zacks Investment Research - The Cerbat Gem'
p3
aS"7 questions with CEO of First Bancorp on company's urban push, recent acquisition Charlotte Business Journal - Mar 24, 2017 Richard Moore is focused on First Bancorp's  new urban footprints throughout North Carolina now that the bank's acquisition of Carolina Bank Holdings has closed.Insider Trading at First Bancorp? - BBNSFirst Bancorp Inc  Plans $0.23 Quarterly Dividend - Community Financial News"
p4
aS"First Bancorp  Ex-Dividend Date Scheduled for March 29, 2017 Nasdaq - Mar 28, 2017 First Bancorp  will begin trading ex-dividend on March 29, 2017. A cash dividend payment of $0.08 per share is scheduled to be paid on April 25, 2017.Interested in The First Bancorp Inc 's upcoming $0.23 dividend? You have ... - Simply Wall StFirst Bancorp  Position Reduced by GSA Capital Partners LLP - The Cerbat Gem"
p5
aS"First Bancorp  Files An 8-K Other Events Market Exclusive - Apr 13, 2017 First Bancorp is the bank holding company for First Bank . The Company's principal activity is the ownership and operation of First Bank.First Bancorp  Plans $0.08 Quarterly Dividend - The Cerbat GemFavorable Press Coverage Very Unlikely to Impact First Bancorp  Stock Price - Markets Daily"
p6
aS'The First Bancorp Declares Regular Quarterly Dividend Yahoo Finance - Mar 23, 2017 The Board of Directors of The First Bancorp , parent company of First National Bank, today declared a quarterly dividend of 23 cents per share.'
p7
aS"First Bancorp  Director Buys $20324.30 in Stock Sports Perspectives - 2 hours ago First Bancorp logo First Bancorp  Director Donald H. Allred purchased 722 shares of the company's stock in a transaction that occurred on Thursday, March 23rd.First Financial Bancorp.  Valuation According To Analysts - UK Market News"
p8
aS'First BanCorp to Announce 1Q 2017 Results and Hold Conference Call on April 25 ... Yahoo Finance - Apr 6, 2017 First BanCorp  , the bank holding company for FirstBank Puerto Rico, announced today that it expects to report its financial results for the first quarter ended March 31, 2017, before the market opens on Tuesday, April 25, 2017.Russell Investments Group Ltd. Invests $2945000 in First Bancorp  - The Cerbat GemFirst Bancorp  Institutional Ownership stands at 85.8 - The Newburgh Press'
p9
aS"First Bancorp  Moves Higher on Volume Spike for April 14 Equities.com - Apr 14, 2017 First Bancorp  traded on unusually high volume on Apr. 14, as the stock gained 0.74% to close at $28.62. On the day, First Bancorp saw 328,762 shares trade hands on 1,695 trades. Considering that the stock averages only a daily volume of 79,404&nbsp;...View the Stunning Stock of Republic First Bancorp, Inc.'s  stock price ... - Hot Stocks PointZacks: Republic First Bancorp, Inc.  Given $4.75 Consensus Price Target ... - Community Financial News"
p10
a.