(lp0
S"Tesco  Most Likely Takeout Candidate - FBR &amp; Co. StreetInsider.com - Apr 10, 2017 Tesco  is the most likely next takeout candidate according to FBR &amp; Co's Thomas Curran according to a morning research note."
p1
aS"Analyst Activity  FBR &amp; Co Reiterates Outperform on AVEO Pharmaceuticals ... Market Exclusive - 17 hours ago AVEO Pharmaceuticals, Inc. is a biopharmaceutical company. The Company's platform delivers insights into cancer and related disease.AVEO Pharmaceuticals'  &quot;Outperform&quot; Rating Reiterated at FBR &amp; Co - The Cerbat GemFBR &amp; Co Research Analysts Lower Earnings Estimates for AVEO Pharmaceuticals ... - Community Financial News"
p2
aS'Stock to Watch: FBR &amp; Co.  Benton Bulletin - 16 hours ago FBR &amp; Co.  has a current Piotroski F-Score of 2. The mission of the F-Score is to help spot companies with strengthening balance sheets, and to weed out poor performers.'
p3
aS"Analyst Activity  FBR &amp; Co Reiterates Outperform on Century Communities (NYSE ... Market Exclusive - 18 hours ago Today, FBR &amp; Co reiterated its Outperform rating on Century Communities  with a price target of $27.00. There are 5 buy ratings on the stock.Century Communities'  Outperform Rating Reaffirmed at FBR &amp; Co - BBNS"
p4
aS'Analyst Downgrades  Ability  Stock Gets Downgraded By FBR &amp; Co ... Market Exclusive - 22 hours ago Ability Inc. is a holding company. The Company operates through its subsidiaries, Ability Computer &amp; Software Industries Ltd.FBR &amp; Co. Just Issued &quot; Mkt Perform&quot; Rating on Ability Inc  - Highland MirrorAbility Inc  Downgraded to Mkt Perform at FBR &amp; Co - The Cerbat Gem'
p5
aS'FBR &amp; Co  Moves Lower on Volume Spike for April 11 Equities.com - Apr 11, 2017 FBR &amp; Co  traded on unusually high volume on Apr. 11, as the stock lost 0.28% to close at $17.80. On the day, FBR &amp; Co saw 42,182 shares trade hands on 451 trades. Considering that the stock averages only a daily volume of 26,892 shares a day&nbsp;...'
p6
aS'Zacks Investment Research Lowers FBR &amp; Co  to Hold Sports Perspectives - 20 hours ago FBR &amp; Co logo Zacks Investment Research lowered shares of FBR &amp; Co  from a strong-buy rating to a hold rating in a research note published on Wednesday.The FBR &amp; Co  Rating Increased to Buy at Zacks Investment Research - Petro Global News 24'
p7
aS"FBR &amp; Co Weighs in on Sorrento Therapeutics Inc's Q1 2017 Earnings  Sports Perspectives - 6 hours ago Sorrento Therapeutics logo Sorrento Therapeutics Inc  - Analysts at FBR &amp; Co dropped their Q1 2017 earnings per share estimates for shares of Sorrento Therapeutics in a research note issued to investors on Wednesday, according to&nbsp;...Q1 2017 Earnings Forecast for Sorrento Therapeutics Inc Issued By FBR &amp; Co  - Chaffey BreezeBrokers Set Expectations for Sorrento Therapeutics Inc's Q1 2017 Earnings  - Community Financial News"
p8
aS"Silver Spring Networks'  &quot;Outperform&quot; Rating Reiterated at FBR &amp; Co Sports Perspectives - 2 hours ago FBR &amp; Co restated their outperform rating on shares of Silver Spring Networks Inc  in a report issued on Tuesday."
p9
aS'FBR &amp; Co Reaffirms Buy Rating for SeaWorld Entertainment Inc  The Cerbat Gem - 3 hours ago FBR &amp; Co reiterated their buy rating on shares of SeaWorld Entertainment Inc  in a report released on Monday morning.FBR &amp; Co Reiterates &quot;Buy&quot; Rating for SeaWorld Entertainment Inc  - Chaffey BreezeSeaWorld Entertainment Inc  Stock Rating Reaffirmed by FBR &amp; Co - BBNS'
p10
a.