(lp0
S"Felcor Lodging Trust  Entes Agreement with Snow Park Capital Partners StreetInsider.com - Jan 26, 2017 FelCor Lodging Trust Incorporated  today announced that it has entered into an agreement with Snow Park Capital Partners as part of the Company's continuing initiatives to strengthen its corporate governance by, among other things, reducing&nbsp;..."
p1
aS"Felcor Lodging Trust  CEO Smith Retires StreetInsider.com - Sep 19, 2016 FelCor Lodging Trust Incorporated  announced that Richard A. Smith, the Company's former President and Chief Executive Officer, has retired."
p2
aS"FelCor Lodging Trust Sends Letter to Ashford Hospitality Trust Hospitality Net - Feb 27, 2017 FelCor Lodging Trust Incorporated 's Board of Directors today sent the following letter to Montgomery J. Bennett, Chairman of Ashford Hospitality Trust , regarding AHT's proposal to combine its business with FelCor.Ashford Hospitality Trust Responds To FelCor Lodging Trust's Misleading ... - PR Newswire "
p3
aS'Why FelCor Lodging Trust Incorporated Stock Is Surging Today Motley Fool - Feb 21, 2017 Shares of FelCor Lodging Trust Incorporated  are trading higher by about 10% as of 10:30 a.m. EST today after Ashford Hospitality Trust  made a hostile offer to acquire the company.'
p4
aS'FelCor Lodging Trust Incorporated  Downgraded by Zacks Investment Research Sports Perspectives - 21 hours ago FelCor Lodging Trust Incorporated logo Zacks Investment Research cut shares of FelCor Lodging Trust Incorporated  from a hold rating to a sell rating in a report issued on Wednesday.FelCor Lodging Trust Incorporated  Position Lowered by AQR Capital ... - Chaffey BreezeFelCor Lodging Trust Incorporated  Declares $0.06 Quarterly Dividend - Community Financial News'
p5
aS"FelCor Lodging Trust  Q3 2016 Results - Earnings Call Transcript Seeking Alpha - Nov 1, 2016 Good morning. My name is Heidi, and I will be your conference operator today. At this time, I would like to welcome everyone to the FelCor's Third Quarter 2016 Earnings Release Call. All lines have been placed on mute to prevent any background noise."
p6
aS"Analysts Recommendations FelCor Lodging Trust Incorporated  ClickLancashire - Apr 10, 2017 With all other things going on, FelCor Lodging Trust Incorporated  has been on a free fall - declining -8.02 percent in just three months.Today's Analyst Moves: FelCor Lodging Trust Incorporated , Infinity ... - USA Commerce DailyAnalysts EPS Estimate for present quarter: FelCor Lodging Trust Incorporated's ... - Hot Stocks Point"
p7
aS"Steven R. Goldman has been named Chief Executive Officer at FelCor Lodging ... Hospitality Net - Feb 12, 2017 ... - FelCor Lodging Trust Incorporated  today announced that its Board of Directors has named Steven R. Goldman to be the Company's next Chief Executive Officer, effective March 1, 2017."
p8
aS"Analyst's Predictions on Seattle Genetics, Inc. , FelCor Lodging Trust ... StockNewsJournal - Mar 23, 2017 FelCor Lodging Trust Incorporated , maintained return on investment for the last twelve months at 0.45, higher than what Reuters data shows regarding industry's average.Sell-Side Analyst's Predictions: FelCor Lodging Trust Incorporated (FCH ... - The USA Commerce"
p9
aS"Checking Out the Technicals for FelCor Lodging Trust Incorporated  The USA Commerce - Apr 14, 2017 We have gathered the technical data on FelCor Lodging Trust Incorporated , and see some interesting trends in the stock's behavior of late."
p10
a.