(lp0
S'Frequency Electronics, Inc. Announces Third Quarter Fiscal Year 2017 Results GlobeNewswire  - Mar 16, 2017 MITCHEL FIELD, N.Y., March 16, 2017  -- Frequency Electronics, Inc.  reported revenues for the third quarter of fiscal 2017, which ended January 31, 2017, of $12.8 million as compared to $13.5 million in the same&nbsp;...Given Its Low Debt-Load, Is Frequency Electronics Inc  A Financially ... - Simply Wall StFrequency Electronics profit rises on tax benefit - Newsday'
p1
aS'Frequency Electronics Inc. Announces Orders for FEI-Elcom Tech Advanced ... GlobeNewswire  - Feb 8, 2017 MITCHEL FIELD, N.Y., Feb. 08, 2017  -- Frequency Electronics, Inc.  announced today that since the second quarter of fiscal 2017, its wholly owned subsidiary FEI-Elcom Tech has received over $5 million dollars in&nbsp;...'
p2
aS'Ticker Scope: Tracking Shares of Frequency Electronics, Inc.  Benton Bulletin - 10 hours ago Frequency Electronics, Inc.  has a current Piotroski F-Score of 4. The mission of the F-Score is to help spot companies with strengthening balance sheets, and to weed out poor performers.'
p3
aS"Is Now the Time to Buy Frequency Electronics, Inc. ? Analyst's Take Midway Monitor - 17 hours ago Research brokerage firms on Wall Street are offering a consensus Buy rating on shares of Frequency Electronics, Inc. . Using the following ratings scale: 1.0 Strong Buy, 2.0 Buy, 3.0 Hold, 4.0 Sell and 5.0 Strong Sell, analysts have an&nbsp;..."
p4
aS'Frequency Electronics Corrects Announcement of Addition of Two New Board Members GlobeNewswire  - Aug 25, 2016 Frequency Electronics, Inc.  today announced a correction to its press release issued on August 24, 2016, titled Frequency Electronics, Inc. Announces the Addition of Two New Board Members. In the press release, one of the names of the&nbsp;...'
p5
aS'Traders Take Note: Frequency Electronics Inc  Stock Drops ... CML News - Apr 16, 2017 Take Note: Frequency Electronics Inc  has hit some technical weakness in its momentum, and while it has not broken down all the way through support -- watch the key levels that we discuss below and further, watch the stochastics and&nbsp;...'
p6
aS"Frequency Electronics'  CEO Martin Bloch on Q2 2017 Results - Earnings ... Seeking Alpha - Dec 14, 2016 Greetings, and welcome to the Frequency Electronics Second Quarter Fiscal Year 2017 Earnings Conference Call. At this time, all participants are in a listen-only mode."
p7
aS'BRIEF-Edenbrook Capital reports 5.2 pct stake in Frequency Electronics Reuters - Mar 18, 2016 NEW YORK, Jan 31 Betterment, one the earliest and largest online wealth managers known as robo-advisers, is launching new services that will allow clients to receive financial advice from human advisers, as digital and traditional investment management&nbsp;...'
p8
aS'Frequency Electronics says hedge fund seeks hostile takeover Newsday - Jul 27, 2016 An activist hedge fund has nominated a slate of four directors at Uniondale-based Frequency Electronics Inc., a move that the company characterized as a hostile takeover attempt.'
p9
aS'Frequency Electronics Inc. and Iteris, Inc. Head to Head Compare CML News - Apr 14, 2017 Iteris Inc has a substantially higher fundamental rating then Frequency Electronics Inc which has an impact on the head-to-head comparison.'
p10
a.