(lp0
S"Market: The BB&amp;T Corp Cuts Stake in Flowers Foods, Inc.  Petro Global News 24 - Jan 25, 2017 Other large investors have also made changes to their positions in the company. Diversified Trust Co boosted its position in Flowers Foods by 10.2% in the second quarter. Diversified Trust Co now owns 21,550 shares of the company's stock valued at&nbsp;..."
p1
aS"Flowers Foods: Irrational Sell-Off After Fourth-Quarter Earnings Seeking Alpha - Feb 16, 2017 On February 14, 2017, Flowers Foods  reported earnings for the fourth quarter and fiscal year of 2016. Despite it being Valentine's Day, investors did not love the stock after the company's earnings announcement. Flowers Foods stock dropped&nbsp;...Flowers Foods, Inc. Reports Fourth Quarter and Year-End 2016 Results - PR Newswire "
p2
aS'Dividend hunters should take a look at Flowers Foods Inc  with a 3.3% yield Simply Wall St - Apr 6, 2017 If you are an income investor then Flowers Foods Inc  should be on your radar. Flowers Foods, Inc produces and markets bakery products in the United States and has a market cap of $4.02 Billion.1269045 Shares in Flowers Foods, Inc.  Acquired by Norges Bank - Chaffey BreezeFlowers Foods Inc. - Receive News &amp; Ratings Daily - BBNS'
p3
aS"Flowers Foods: Collecting A 9% Yield Or 20% Gain Seeking Alpha - Jan 15, 2017 Flowers Foods is a baking company going on 100 years of history. You'd probably better recognize the firm by some of its branded products like Nature's Own, Home Price or Wonder Bread."
p4
aS"Flowers Foods: Big Gains Following Litigation Settlement Seeking Alpha - Dec 16, 2016 Flowers Foods  definitely fits this bill. A bakery business with a market capitalization of ~$4 billion, this company is a darling of dividend growth investors. It's not hard to see why - with a dividend yield of &gt;3% and 29 years of steady or ...Pivotal Research Upgrades Flowers Foods to 'Hold' - Market RealistFlowers Foods' shares rise on distributor lawsuit settlement - just-food.com "
p5
aS"Flowers Foods: With The Suit Settled, Will The Dough Keep Rising? Seeking Alpha - Dec 29, 2016 This article is presented as an update to an article I published on Flowers Foods  on September 22, 2016. Later in this ... In the long run, a company's stock price will be driven by the operating success that the business behind the stock ..."
p6
aS'Analysts Set Flowers Foods, Inc.  Price Target at $19.83 Sports Perspectives - 1 hour ago Flowers Foods logo Flowers Foods, Inc.  has earned an average recommendation of Hold from the ten brokerages that are covering the company.Inside the Numbers for Flowers Foods, Inc.  - Baldwin JournalWhy Investors remained confident on Banc of California, Inc. , Flowers ... - StockNewsJournal'
p7
aS"Flowers Foods  Q3 2016 Results - Earnings Call Transcript Seeking Alpha - Nov 10, 2016 Welcome to the Flowers Foods Third Quarter 2016 Earnings Conference Call and Webcast. My name is Ellen and I will be your operator for today's call."
p8
aS'Flowers Foods, Inc.  Ex-Dividend Date Scheduled for March 01, 2017 Nasdaq - Feb 28, 2017 Flowers Foods, Inc.  will begin trading ex-dividend on March 01, 2017. A cash dividend payment of $0.16 per share is scheduled to be paid on March 17, 2017.'
p9
aS'Stock Returns: Flowers Foods Inc  versus Industrias Bachoco, SA de ... CML News - Apr 16, 2017 This is a snapshot to compare the stock returns for Flowers Foods Inc  versus Industrias Bachoco, S.A. de C.V.  .'
p10
a.