(lp0
S'Why Flexsteel Industries Inc  Delivered An Inferior ROE Compared To The ... Simply Wall St - 22 hours ago With a ROE of 11.2%, Flexsteel Industries Inc  could hardly match the performance of its industry, which averaged a ROE of 22.22%.'
p1
aS'Flexsteel Industries, Inc. Announces Dates for the Release of Third Quarter ... Business Wire  - Apr 3, 2017 DUBUQUE, Iowa----Flexsteel Industries, Inc.  announces that its operating results for the third quarter ended March 31, 2017 will be released on Thursday, April 20, 2017, after the market closes.Flexsteel Industries  Earns Daily News Impact Rating of 0.39 - The Cerbat Gem'
p2
aS'Flexsteel Industries Inc.  Moves Lower on Volume Spike for April 05 Equities.com - Apr 5, 2017 Flexsteel Industries Inc.  traded on unusually high volume on Apr. 05, as the stock lost 0.46% to close at $49.85. On the day, Flexsteel Industries Inc. saw 39,089 shares trade hands on 428 trades. Considering that the stock averages only a daily ...The Flexsteel Industries  Earns Daily News Impact Rating of 0.39 - Petro Global News 24'
p3
aS'Flexsteel Industries, Inc.  Ex-Dividend Date Scheduled for March 15, 2017 Nasdaq - Oct 26, 2016 Flexsteel Industries, Inc.  will begin trading ex-dividend on March 15, 2017. A cash dividend payment of $0.2 per share is scheduled to be paid on April 03, 2017.'
p4
aS'Flexsteel Industries Inc. FLXS  Wall Street Journal - Feb 11, 2011 Flexsteel Industries Inc. FLXS . search. View All companies. AT CLOSE 4:00 PM EDT 03/31/17. $50.40 USD; 1.34 2.73%.'
p5
aS'Flexsteel Industries Inc.: Flexsteel Announces Quarterly Dividend  The Wall Street Transcript - Mar 8, 2017 Flexsteel Industries, Inc. is headquartered in Dubuque, Iowa, and was incorporated in 1929. Flexsteel is one of the oldest and largest manufacturers, importers and marketers of residential and commercial upholstered and wooden furniture products in the&nbsp;...'
p6
aS'Trading Sheet: Watching the Numbers for Flexsteel Industries, Inc.  Searcy News - 10 hours ago Looking at shares of Flexsteel Industries, Inc. , the company has an EV  of 356787. Enterprise Value is a measure of the total value of a specific company.What is the Sell-Side Recommending For Flexsteel Industries, Inc. (NASDAQ:FLXS ... - Davidson Register'
p7
aS'Flexsteel: An Interesting Dividend Payer In The Furniture Industry Seeking Alpha  - Feb 23, 2015 Incorporated in 1929 and named after a steel drop-in seat spring, Flexsteel Inc.  manufactures, imports and markets residential  and commercial upholstered and wood furniture products with manufacturing facilities in the&nbsp;...'
p8
aS"Flexsteel Industries Inc.  Drops 17.92% on October 20 Equities.com - Oct 20, 2016 Flexsteel Industries Inc.  was one of the Russell 2000's biggest losers for Thursday October 20 as the stock slid 17.92% to $41.40, a loss of $-9.04 per share."
p9
aS'Stocks in Analyst Viewfinder: Flexsteel Industries, Inc.  Midway Monitor - 16 hours ago Wall Street brokerage firm analysts have placed a Buy rating on shares of Flexsteel Industries, Inc. .'
p10
a.