(lp0
S"Fred's, Inc.'s  stock price is Worth at $15.06 while ends Wednesday with ... Hot Stocks Point - Mar 6, 2017 USA based company, Fred's, Inc. 's latest closing price distance was at 14.04% from the average-price of 200 days while it maintained a distance from the 50 Day Moving Average at -1.08% and 7.27% compared with the 20 Day Moving Average."
p1
aS"Fred's Inc  Files 10-K for the Fiscal Year Ended on January 31, 2017 Yahoo Finance - Apr 13, 2017 Fred's Inc  files its latest 10-K with SEC for the fiscal year ended on January 31, 2017. Fred's Inc through its subsidiaries sells general merchandise through its retail discount stores and full service pharmacies."
p2
aS"Why Fred's, Inc. Shares Soared Today Motley Fool - Apr 6, 2017 The company said in December that it would acquire 865 Rite Aid locations for $950 million, which will make Fred's Pharmacy the third-largest drugstore chain in the U.S.Form 8-K FREDS INC For: Apr 06 - StreetInsider.comIf FTC Clears Rite Aid Sale, Fred's National Strategy Also Wins - Forbes"
p3
aS"Why You Should Avoid Fred's Inc.  Stock for Now Yahoo Finance - Apr 5, 2017 Discount retailer Fred's Inc. FRED has recently slipped to the red. The shares of the company have declined 16% in the past one year, wider than the Zacks categorized Retail-Discount industry's decline of 4%.Fred's, Inc.  Downgraded by Zacks Investment Research to Strong Sell - BBNS"
p4
aS"Fred's Inc: To buy more Rite Aid stores Times of India - Apr 6, 2017 Fred's quarterly results miss estimates and appoints Linda Longo-Kazanova to Board. ** More than 1.7 mln shares traded, 1.8x their 30-day moving avg."
p5
aS"Fred's names former Keurig exec to board Memphis Business Journal - Apr 7, 2017 Longo-Kazanova brings her 16 years of experience as a chief human resources officer to her new board position. She most recently served as the chief human resource officer for Keurig Green Mountain Inc. and previously was the vice president of human&nbsp;...Discount Stocks in Major News: Fred's, Inc. , Wal-Mart Stores ... - eMarketsDailyNews Watch-list  Fred's, Inc.  appoints Linda Longo-Kazanova to ... - Stock News Stop "
p6
aS"Stock Tracker: Earnings &amp; Estimates for Fred's, Inc.  Aiken Advocate - Apr 16, 2017 Investors and analysts will be closely watching when the company next reports earnings numbers. Earnings results can offer insight into the overall profitability of a specific company."
p7
aS"Options Traders Expect Huge Moves in Fred's, Inc.  Stock Nasdaq - Mar 30, 2017 Investors in Fred's, Inc. FRED need to pay close attention to the stock based on moves in the options market lately."
p8
aS"FRED'S, INC.  Files An 8-K Amendments to Articles of ... Market Exclusive - Apr 12, 2017 The Board of Directors  of Fred's, Inc.  extended the deadline to nominate directors to the Board and propose other business for consideration at the Company's 2017 annual meeting of stockholders &nbsp;...Fred's, Inc.  Reviewed By Analysts - The De Soto Edge"
p9
aS"Fred's, Inc.  Stock Technicals are in the neutral area USA Commerce Daily - Apr 11, 2017 With all other things going on, Fred's, Inc.  has been on a free fall - declining -15.41 percent in just three months."
p10
a.