(lp0
S'The German American Bancorp, Inc.  Increases Dividend to $0.19 Per Share Petro Global News 24 - Feb 6, 2017 German American Bancorp, Inc.  declared a quarterly dividend on Tuesday, January 31st. Investors of record on Friday, February 10th will be given a dividend of 0.19 per share on Monday, February 20th.'
p1
aS"German American Bancorp, Inc.  Announces Three-for-Two Stock Split GlobeNewswire  - Mar 27, 2017 JASPER, Ind., March 27, 2017  -- German American Bancorp, Inc.  announced today that its Board of Directors has declared a 3-for-2 stock split on the Company's authorized and outstanding common shares.German American Bancorp Inc.  Soars 7.6% on March 28 - Equities.comAnalyst Upgrades  German American Bancorp.  Stock Gets Upgraded ... - Market Exclusive"
p2
aS'46.24 MarketWatch - Jan 16, 2011 German American Bancorp Inc. German American Bancorp, Inc. operates as financial services holding company. It owns a trust, brokerage, and financial planning subsidiary, German American Financial Advisors &amp; Trust Co.'
p3
aS'Brokerages Anticipate German American Bancorp., Inc.  to Announce $0.61 EPS The Cerbat Gem - 1 hour ago German American Bancorp. logo Shares of German American Bancorp., Inc.  have received an average broker rating score of 2.50  from the four analysts that provide coverage for the company, Zacks Investment Research reports.German American Bancorp.  Earns Daily Media Impact Rating of 0.31 - Sports PerspectivesGerman American Bancorp., Inc.  Downgraded by Zacks Investment Research - Chaffey Breeze'
p4
aS'Stock Returns: First Connecticut Bancorp Inc  is Beating German ... CML News - Apr 17, 2017 This is a snapshot to compare the stock returns for First Connecticut Bancorp Inc  versus German American Bancorp Inc  . The stock return points we compare look at the last three-months, six-months and twelve-months.'
p5
aS'German American to Complete Acquisition of River Valley Bancorp and River ... GlobeNewswire  - Feb 29, 2016 JASPER, Ind., Feb. 29, 2016  -- German American Bancorp, Inc.  announced today that it will complete its acquisition of River Valley Bancorp, the parent company of River Valley Financial Bank, of Madison, Indiana,&nbsp;...'
p6
aS'GERMAN AMERICAN BANCORP, INC.  Files An 8-K Amendments to ... Market Exclusive - Mar 28, 2017 /div&gt;. About GERMAN AMERICAN BANCORP, INC.  German American Bancorp, Inc. is a bank holding company.'
p7
aS'GERMAN AMERICAN BANCORP, INC.  Files An 8-K Departure of ... Market Exclusive - Mar 16, 2017 Arrangements of Certain Officers.  Executive Officer Compensation. On March 15, 2017, German American Bancorp, Inc.  issued the long-term incentive  awards  earned by certain executive officers under the 2016 Executive&nbsp;...'
p8
aS'German American Announces Executive Promotions GlobeNewswire  - Jul 8, 2016 JASPER, Ind., July 08, 2016  -- German American Bancorp, Inc.  and its banking subsidiary, German American Bancorp has announced a number of promotions to its executive and senior officer group.'
p9
aS'German American Bancorp Inc.  Moves Higher on Volume Spike for March 17 Equities.com - Mar 17, 2017 German American Bancorp Inc.  traded on unusually high volume on Mar. 17, as the stock gained 0.04% to close at $47.61.German American Bancorp, Inc.  Files Form 4 Insider Buying : Bradley M ... - Energy IndexBroker Outlook For The Week Ahead German American Bancorp, Inc.  - Fiscal Standard'
p10
a.