(lp0
S"Southern Company raises dividend rate 16th straight year; annualized rate goes ... Yahoo Finance - 14 hours ago &quot;Our dividend and overall shareholder value proposition are supported by an outstanding portfolio of state-regulated electric and gas utilities,&quot; said Southern Company Chairman, President and CEO Thomas A. Fanning. &quot;Today's action by our board of&nbsp;...105081 Shares in Southern Co  Acquired by TNB Financial - Sports PerspectivesSouthern Co  Plans Dividend Increase - $0.58 Per Share - The Cerbat Gem"
p1
aS"Southern Company first-quarter earnings to be released May 3 Yahoo Finance - Apr 5, 2017 Southern Company  is America's premier energy company, with 46,000 megawatts of generating capacity and 1,500 billion cubic feet of combined natural gas consumption and throughput volume serving 9 million electric and gas utility customers through&nbsp;..."
p2
aS'SRC Energy  Reaches $8.72 After 4.00% Up Move, Southern Company Gas (GAS ... Key Gazette - Apr 10, 2017 Among 2 analysts covering AGL Resources , 1 have Buy rating, 1 Sell and 0 Hold. Therefore 50% are positive. AGL Resources had 2 analyst reports since August 25, 2015 according to SRatingsIntel.'
p3
aS"Southern Company's Options in the Westinghouse Case Market Realist - 15 hours ago The impact has started to loom for utilities that are exposed to Westinghouse's bankruptcy. Rating agency Moody's has changed Southern Company's  subsidiary Georgia Power's outlook from stable to negative due to increased regulatory and credit&nbsp;...The Westinghouse Bankruptcy: Test for Chinese Investment in US Infrastructure - IPP-REVIEW "
p4
aS'Southern Company Gas  Earning Negative Press Coverage, Report Finds The Cerbat Gem - Apr 13, 2017 Southern Company Gas logo Headlines about Southern Company Gas  have trended negative this week, according to AlphaOne.Analysts At Jefferies &amp; Co Maintained Southern Co SO  As Buy - Fiscal StandardSouthern Co  PT Lowered to $50.00 - Sports Perspectives'
p5
aS'Southern Co  Price Target Cut to $50.00 Markets Daily - 21 hours ago Southern Co logo Southern Co  had its target price lowered by Deutsche Bank AG from $52.00 to $50.00 in a research note issued to investors on Tuesday morning.'
p6
aS"Like the new EPA chief, Southern Company's CEO doesn't see CO2 as main reason ... CNBC - Mar 28, 2017 ... Southern Company Chairman and CEO Tom Fanning told CNBC on Tuesday. Fanning said on &quot;Squawk Box&quot; he's not denying that climate change is occurring."
p7
aS"To Buy Or Sell Southern Company   On Latest Analyst Consensus Fiscal Standard - Apr 14, 2017 The Company owns all of the stock of the traditional electric operating companies and the parent entities of Southern Power Company  and Southern Company Gas, and owns other direct and indirect subsidiaries. The Company's segments&nbsp;..."
p8
aS'Spring Digging Season is Here: Dial 8-1-1 to Safely Start an Outdoor Project TAPinto.net - Mar 31, 2017 For more information, visit www.elizabethtowngas.com and connect with the company on Facebook  and Twitter (Twitter.'
p9
aS"Should You Buy Southern Company   On Current Analyst Views? Fiscal Standard - Apr 3, 2017 The Company owns all of the stock of the traditional electric operating companies and the parent entities of Southern Power Company  and Southern Company Gas, and owns other direct and indirect subsidiaries. The Company's segments&nbsp;...Hampstead Capital LLP Acquires Shares of 62700 Southern Co  - Sports PerspectivesSouthern Co  Position Reduced by First Financial Bank NA Trust Division - The Cerbat Gem"
p10
a.