(lp0
S"BRIEF-Nevada Zinc Corporation announces public offering of units Reuters - Aug 24, 2006 Reuters is the news and media division of Thomson Reuters. Thomson Reuters is the world's largest international multimedia news agency, providing investing news, world news, business news, technology news, headline news, small business news, news&nbsp;..."
p1
aS"Podcast: Nevada Zinc CEO Bruce Durham on the mineral's long-term prospects Financial Post - Jun 20, 2016 Bruce Durham: Nevada Zinc is an exploration company focused on a zinc project in Nevada. It's a project that we've started on about two years ago now; we've been advancing that project in a very methodical fashion."
p2
aS"Nevada Zinc Corp  Director Sells C$24050.00 in Stock The Cerbat Gem - Apr 6, 2017 Nevada Zinc Corp logo Nevada Zinc Corp  Director Duane Parnham sold 65,000 shares of the business's stock in a transaction dated Tuesday, April 4th."
p3
aS'Nevada Zinc Corp  Director Duane Parnham Sells 65000 Shares Markets Daily - Apr 8, 2017 Nevada Zinc Corp logo Nevada Zinc Corp  Director Duane Parnham sold 65,000 shares of Nevada Zinc Corp stock in a transaction on Tuesday, April 4th. The shares were sold at an average price of C$0.37, for a total transaction of C$24,050.00.'
p4
aS'Nevada Zinc Corporation Announces CA$2 Million Public Offering of Units Junior Mining Network - Apr 10, 2017 TORONTO, ONTARIO-- - Nevada Zinc Corporation   is pleased to announce that it has filed and obtained a receipt for a preliminary short form prospectus (the &quot;Preliminary ...'
p5
aS'Nutrient-Poor Farms Get a Vitamin Boost From Zinc Mines BloombergQuint - 9 hours ago One company, Nevada Zinc Corp., is considering making zinc oxide or sulfate at its Lone Mountain mine project in Eureka, Nevada.'
p6
aS'Nevada Zinc Appoints Duane Parnham Chairman GlobeNewswire  - Dec 2, 2015 2, 2015  -- Nevada Zinc Corporation   is pleased to announce the appointment of Duane Parnham as director and Chairman of the Board of Directors of Nevada Zinc. President and CEO, Bruce Durham ...'
p7
aS"Nevada Zinc Reports on Yukon Gold Project Developments Including New Property ... GlobeNewswire  - Aug 8, 2016 Adjacent to the west of Goldcorp's Coffee Gold Project, Independence Gold Corp.  recently announced the definition of a new gold trend target that it will soon drill test on ground where Nevada Zinc holds a 1% net smelter royalty interest."
p8
aS'Zinc prices  One of the best performers in 2016, up more than 50% from 2015 lows InvestorIntel - Sep 6, 2016 InvestorIntel, written by Christopher Ecclestone: The Great Zinc Drought might be said to be broken, but those calling the end of this protracted dry spell going back to 2006 have been proven foolish before.'
p9
aS"Lesser-known metals poised for price increases: zinc, niobium, uranium Financial Post - May 19, 2016 The LME  now is at its five-year low for zinc inventory, Bruce Durham, CEO of Nevada Zinc Corp. , said in a recent Midas Letter interview. Once we get to an inflection point, which we think we're probably going to ..."
p10
a.