(lp0
S"BRIEF-Gtx Inc qtrly loss per share $0.44 Reuters - Mar 15, 2017 March 15 A former investment adviser at an Oppenheimer Holdings Inc was sentenced to six months' imprisonment Wednesday after he pleaded guilty to insider trading based on information from a childhood friend working at Pfizer Inc."
p1
aS'Equity Check-in on This Stock: GTx, Inc.  BVN - 8 hours ago Looking at shares of GTx, Inc. , the company presently has a Gross Margin  ratio of -0.703126. This number is calculated from the research by University of Rochester professor Robert Novy-Marx.'
p2
aS'GTx, Inc.  Announces One-for-Ten Reverse Stock Split StreetInsider.com - Dec 5, 2016 GTx, Inc.  announced a reverse stock split of its shares of common stock at a ratio of one-for-ten. The reverse stock split will be effective at 5:00 p.m.'
p3
aS"Jefferies Cuts Price Target on GTx, Inc.  to $7 Following Enobosarm ... StreetInsider.com - Dec 9, 2016 Jefferies maintained a Hold rating on GTX Inc. , and cut the price target to $7.00 , following the company's announced topline results in PII ER+/AR+ breast cancer trial for Enobosarm."
p4
aS'GTx, Inc. to Report Fourth Quarter and Full Year 2016 Financial Results on ... Business Wire  - Apr 24, 2014 MEMPHIS, Tenn.----GTx, Inc.  today announced that the timing for its fourth quarter and full year 2016 financial results press release will be Wednesday, March 15, 2017, prior to the opening of the U.S.'
p5
aS'Technical Focus: Williams %R, ADX, and CCI Levels for GTX Inc  Sherwood Daily - 12 hours ago The Williams Percent Range or Williams %R is a technical indicator worth taking a look at. GTX Inc  currently has a 14 day Williams %R of -81.51.'
p6
aS'Enobosarm Meets Pre-Specified Primary Efficacy Endpoint in Ongoing Phase 2 ... Business Wire  - Nov 28, 2016 MEMPHIS, Tenn.----GTx, Inc.  today announced that enobosarm achieved the pre-specified primary efficacy endpoint in the 9 mg dose cohort from patients in both stage 1 and the ongoing stage 2 of its Phase 2 clinical trial in&nbsp;...'
p7
aS'GTx Inc Risk Points versus Health Care CML News - Apr 12, 2017 This is a scatter plot analysis of the critical risk points from the option market for GTx Inc  compared to its own past and the Health Care ETF.'
p8
aS'GTx, Inc.  Receives Average Rating of &quot;Hold&quot; from Brokerages The Cerbat Gem - Apr 14, 2017 GTx logo GTx, Inc.  has been given a consensus broker rating score of 3.00  from the one brokers that cover the stock, Zacks Investment Research reports.'
p9
aS'Stock Volatility Risk Alert: GTx Inc Stock Volatility Hits An Elevated Level CML News - Apr 12, 2017 Before we cover the full analysis we make a quick alert here that GTx Inc  has seen its stock price whip around at an elevated level.'
p10
a.