(lp0
S"Haemonetics' Plasma Group Strong, Blood Center Group a Drag Yahoo Finance - Apr 12, 2017 On Apr 11, we issued an updated research report on Braintree, MA-based Haemonetics Corporation HAE, a leading provider of blood management solutions to customers encompassing blood and plasma collectors, hospitals and health care providers&nbsp;...Haemonetics Corporation  Moves Higher on Volume Spike for April 11 - Equities.comHaemonetics  At $40.17 Forms Top; Loral Space and Communications I (LORL ... - NormanObserver.com"
p1
aS'Haemonetics Corporation Announces Christopher Simon as President and Chief ... PR Newswire  - May 9, 2016 BRAINTREE, Mass., May 9, 2016 /PRNewswire/ -- Haemonetics Corporation  a global healthcare company dedicated to providing innovative solutions to our customers, today, announced the appointment of Christopher Simon as President and&nbsp;...Haemonetics  Names New CEO; Guides FY17 Below Expectations - StreetInsider.com'
p2
aS'Haemonetics Corporation Appoints Ron Gelbman as Interim CEO; CEO Brian ... PR Newswire  - Sep 29, 2015 BRAINTREE, Mass., Sept. 29, 2015 /PRNewswire/ -- Haemonetics Corporation  announced today that Brian Concannon has resigned from his role as President and Chief Executive Officer and as a Director to pursue other opportunities, effective&nbsp;...'
p3
aS'Haemonetics Corporation : Financial Health Analysis Simply Wall St - Apr 14, 2017 Although mid-cap stocks, such as Haemonetics Corporation  with a market-capitalization of USD $2.11 Billion, are hardly popular among investors, they have delivered the most impressive risk adjusted returns.How technical signals have emerged? - Landstar System, Inc. (LSTR ... - Post AnalystHaemonetics Co.  Raised to &quot;Hold&quot; at Zacks Investment Research - Sports Perspectives'
p4
aS'Haemonetics Corporation  Moves Higher on Volume Spike for April 03 Equities.com - Apr 3, 2017 Haemonetics Corporation  traded on unusually high volume on Apr. 03, as the stock gained 1.18% to close at $41.05. On the day, Haemonetics Corporation saw 503,248 shares trade hands on 4,407 trades. Considering that the stock averages only a&nbsp;...'
p5
aS'Haemonetics Corporation  Moves Lower on Volume Spike for March 31 Equities.com - Mar 31, 2017 Haemonetics Corporation  traded on unusually high volume on Mar. 31, as the stock lost 0.17% to close at $40.57. On the day, Haemonetics Corporation saw 570,259 shares trade hands on 3,308 trades. Considering that the stock averages only a daily&nbsp;...Tudor Investment Corp Et Al Invests $492000 in Haemonetics Co.  - Community Financial NewsAnalysts Set Haemonetics Co.  PT at $33.50 - Chaffey Breeze'
p6
aS'Catherine M. Burzik Joins Haemonetics Board of Directors PR Newswire  - Oct 27, 2016 BRAINTREE, Mass., Oct. 27, 2016 /PRNewswire/ -- Haemonetics Corporation  announced the election of Catherine M. Burzik, a highly respected and accomplished senior executive in the healthcare industry, to its Board of Directors.'
p7
aS'Risk Malaise Alert in Option Market: Haemonetics Corporation Implied Price ... CML News - Apr 16, 2017 Before we dive into any analysis we simply note that Haemonetics Corporation  risk is actually priced pretty low by the option market as of right now.'
p8
aS'Haemonetics Corporation  Moves Higher on Volume Spike for March 30 Equities.com - Mar 30, 2017 Haemonetics Corporation  traded on unusually high volume on Mar. 30, as the stock gained 0.52% to close at $40.64. On the day, Haemonetics Corporation saw 445,336 shares trade hands on 2,344 trades. Considering that the stock averages only a&nbsp;...Haemonetics Co.  Receives Consensus Rating of Hold from Brokerages - Sports Perspectives'
p9
aS'Haemonetics Appoints Bill Burke CFO PR Newswire  - Aug 1, 2016 BRAINTREE, Mass., Aug. 1, 2016 /PRNewswire/ -- Haemonetics Corporation  today announced that William P. Burke will join the Company as Chief Financial Officer, effective August 8, 2016.'
p10
a.