(lp0
S'The Hologic, Inc.  to Release Quarterly Earnings on Wednesday Petro Global News 24 - Jan 31, 2017 Shares of Hologic, Inc.  opened at 40.14 on Tuesday. Hologic, Inc. has a 52 week low of $31.84 and a 52 week high of $41.01.'
p1
aS'Hologic Delivers Notice that Holders of 2.00% Convertible Exchange Senior ... PR Newswire  - Apr 3, 2017 MARLBOROUGH, Mass., April 3, 2017 /PRNewswire/ -- Hologic, Inc.  announced today that it has notified holders of the 2.00% Convertible Exchange Senior Notes due 2042 (CUSIP No.'
p2
aS'Hologic Completes Acquisition of Cynosure PR Newswire  - Mar 22, 2017 MARLBOROUGH, Mass., March 22, 2017 /PRNewswire/ -- Hologic, Inc.  announced today that it has completed the acquisition of Cynosure, Inc., a leader in medical aesthetics systems and technologies, for $66 per share in cash.Hologic  Completes Acquisition of Cynosure  - StreetInsider.com'
p3
aS'Hologic faces US patent lawsuit over menstrual bleeding device WHTC - Apr 12, 2017  - Medical device maker Hologic Inc has been hit with a lawsuit alleging its product for treating heavy menstrual bleeding infringes patented technology developed by start-up Minerva Surgical Inc, court papers show.'
p4
aS'Zacks Investment Research Downgrades Hologic, Inc.  to Sell Sports Perspectives - 6 hours ago Hologic, Inc. logo Zacks Investment Research downgraded shares of Hologic, Inc.  from a hold rating to a sell rating in a research note released on Wednesday.Brokerages Set Hologic, Inc.  Target Price at $46.92 - BBNSHologic, Inc.  Director Lawrence M. Levy Sells 10757 Shares of Stock - The Cerbat Gem'
p5
aS'Hologic Completes Cynosure Buyout, Boosts Core Business Yahoo Finance - Mar 23, 2017 Hologic, Inc. HOLX continues to seek growth through merger and acquisitions. It considers inorganic expansion an important part of its future growth strategy as it acts as a supplement to its internal innovation, commercial execution and international&nbsp;...Hologic closes $1.7B Cynosure buy - Mass Device'
p6
aS"Top Stocks of the day: Hologic, Inc. : HOLX The News Journal - 13 hours ago With its total market value of the company's outstanding shares, the market cap of Hologic, Inc.  in today's trade was 11847.91."
p7
aS'Risk Malaise Alert in Option Market: Hologic Inc Implied Price Swing Hits A ... CML News - Apr 16, 2017 Before we dive into any analysis we simply note that Hologic Inc  risk is actually priced pretty low by the option market as of right now.'
p8
aS'Hologic  Up 3.9% Since Earnings Report: Can It Continue? Nasdaq - Apr 13, 2017 It has been about a month since the last earnings report for Hologic, Inc. HOLX . Shares have added about 3.9% in that time frame, underperforming the market.'
p9
aS"Can We Learn Anything From The Technical Chart of Hologic, Inc. ? NY Stock News - Apr 6, 2017 Hologic, Inc.  has presented a rich pool of technical data in recent sessions. These are the trends we've been tracking and how we feel they should be played in the current environment."
p10
a.