(lp0
S'AQR Capital Management LLC Reduces Position in Heidrick &amp; Struggles ... The Cerbat Gem - 4 hours ago Heidrick &amp; Struggles International logo AQR Capital Management LLC lowered its position in shares of Heidrick &amp; Struggles International, Inc.  by 6.1% during the fourth quarter, according to its most recent Form 13F filing with the SEC ...State Street Corp Acquires 12605 Shares of Heidrick &amp; Struggles International ... - Markets DailyThe Heidrick &amp; Struggles International  Given News Impact Rating of 0.08 - Petro Global News 24'
p1
aS'Heidrick &amp; Struggles To Release First Quarter 2017 Results On Monday, April 24 ... PR Newswire  - Apr 10, 2017 CHICAGO, April 10, 2017 /PRNewswire/ -- Heidrick &amp; Struggles International, Inc. , a premier provider of senior-level Executive Search, Leadership Consulting and Culture Shaping services globally, today announced that it will release ...Two Sigma Investments LP Reduces Position in Heidrick &amp; Struggles ... - Sports PerspectivesHeidrick &amp; Struggles International, Inc.  Given $26.00 Consensus Price ... - The Cerbat Gem'
p2
aS'Heidrick &amp; Struggles Reports Third Quarter 2016 Financial Results PR Newswire  - Oct 24, 2016 CHICAGO, Oct. 24, 2016 /PRNewswire/ -- Heidrick &amp; Struggles International, Inc. , a premier provider of senior-level executive search, leadership consulting and culture shaping services globally, today announced financial results for its ...'
p3
aS"Heidrick &amp; Struggles International's  CEO Tracy Wolstencroft on Q4 2016 ... Seeking Alpha - Feb 28, 2017 Good day, everyone and welcome to the Heidrick &amp; Struggles' Fourth Quarter and 2016 Quarterly Conference. This call may not be reproduced or retransmitted without the Company's consent. At this time, all participants are in a listen-only mode and later ..."
p4
aS'Heidrick &amp; Struggles International Inc.  Moves Higher on Volume Spike ... Equities.com - Apr 4, 2017 Heidrick &amp; Struggles International Inc.  traded on unusually high volume on Apr. 04, as the stock gained 0.78% to close at $25.85.HEIDRICK Election of Directors; Appointment of Certain Officers; Compensatory ... - Market Exclusive'
p5
aS'Heidrick &amp; Struggles Reports Fourth Quarter &amp; 2015 Financial Results PR Newswire  - Feb 23, 2016 23, 2016 /PRNewswire/ -- Heidrick &amp; Struggles International, Inc. , a premier provider of senior-level executive search, leadership consulting and culture shaping services globally, today announced financial results for its fourth quarter ...'
p6
aS"Heidrick &amp; Struggles Reports First Quarter 2016 Financial Results PR Newswire  - Apr 25, 2016 CHICAGO, April 25, 2016 /PRNewswire/ -- Heidrick &amp; Struggles International, Inc. , a premier provider of senior-level executive search, leadership consulting and culture shaping services globally, today announced financial results for its ...Heidrick &amp; Struggles International's  CEO Tracy Wolstencroft on Q1 2016 ... - Seeking Alpha"
p7
aS'Heidrick &amp; Struggles Declares Quarterly Cash Dividend PR Newswire  - Jan 24, 2017 CHICAGO, Jan. 24, 2017 /PRNewswire/ -- Heidrick &amp; Struggles International, Inc. , a premier provider of senior-level executive search, leadership consulting and culture shaping services globally, today announced that its Board of ...'
p8
aS'Heidrick &amp; Struggles International Inc.  Moves Lower on Volume Spike for ... Equities.com - Apr 3, 2017 Heidrick &amp; Struggles International Inc.  traded on unusually high volume on Apr. 03, as the stock lost 2.66% to close at $25.65.Russell Investments Group Ltd. Acquires New Position in Heidrick &amp; Struggles ... - Sports PerspectivesInsider Trading at Heidrick &amp; Struggles International Inc.? - BBNS'
p9
aS"Does Heidrick &amp; Struggles International Inc's  February stock price ... Simply Wall St - Feb 21, 2017 Heidrick &amp; Struggles International Inc  is considered a high growth stock but its last closing price of $21.8 made some investors wonder if it can be still rationalized by the high growth potential."
p10
a.