(lp0
S'Stocks: The Healthcare Trust of America, Inc.  Shares Sold by PNC ... Petro Global News 24 - Jan 9, 2017 Other hedge funds and other institutional investors also recently bought and sold shares of the company. Neuberger Berman Group LLC boosted its position in Healthcare Trust of America by 12.7% in the second quarter. Neuberger Berman Group LLC now&nbsp;...'
p1
aS'Market: The Healthcare Trust of America, Inc.  Position Cut by ... Petro Global News 24 - Jan 25, 2017 Other hedge funds and other institutional investors also recently made changes to their positions in the company. Pacad Investment Ltd.'
p2
aS'Healthcare Trust of America, Inc. Sets Dates to Report 2017 First Quarter ... PR Newswire  - Mar 30, 2017 SCOTTSDALE, Ariz., March 29, 2017 /PRNewswire/ -- Healthcare Trust of America, Inc. , the largest dedicated owner and operator of medical office buildings in the United States, announced today that on Wednesday, April 26, 2017, after the&nbsp;...Healthcare Trust of America, Inc.  Ex-Dividend Date Scheduled for March ... - NasdaqHealthcare Trust of America, Inc. Revises Record and Pay Dates for First ... - Yahoo Finance'
p3
aS'Healthcare Trust of America, Inc.  Ex-Dividend Date Scheduled for April ... Nasdaq - Apr 5, 2017 Healthcare Trust of America, Inc.  will begin trading ex-dividend on April 06, 2017. A cash dividend payment of $0.3 per share is scheduled to be paid on April 13, 2017.87700 Shares in Healthcare Trust Of America Inc  Acquired by Highbridge ... - The Cerbat GemOppenheimer Holdings Research Analysts Decrease Earnings Estimates for ... - Chaffey Breeze'
p4
aS'Healthcare Trust of America, Inc. Sets Dates to Report 2016 Fourth Quarter and ... PR Newswire  - Jan 10, 2017 SCOTTSDALE, Ariz., Jan. 10, 2017 /PRNewswire/ -- Healthcare Trust of America, Inc. , the largest dedicated owner and operator of medical office buildings in the United States, announced today that on Wednesday, February 15, 2017, after the&nbsp;...'
p5
aS'Healthcare Trust of America, Inc. Announces $187 Million of New Medical Office ... PR Newswire  - Sep 7, 2016 SCOTTSDALE, Ariz., Sept. 7, 2016 /PRNewswire/ -- Healthcare Trust of America, Inc. , the largest dedicated owner and operator of medical office buildings in the United States, announced today that it closed on approximately $187 million of&nbsp;...Investors Snatch HTA Even Cheaper Than Its Secondary Stock Offering - ForbesHealthcare Trust buys St. Joseph Health medical buildings for $150 million - Healthcare Finance News'
p6
aS'Healthcare Trust of America, Inc. Announces 1Q 2016 Acquisitions and ... PR Newswire  - Apr 5, 2016 SCOTTSDALE, Ariz., April 5, 2016 /PRNewswire/ -- Healthcare Trust of America, Inc.   announced today its investment activity for the beginning of 2016.'
p7
aS"Healthcare Trust Of America Inc  Receives $33.57 Consensus PT from Analysts Sports Perspectives - 6 hours ago Healthcare Trust Of America logo Shares of Healthcare Trust Of America Inc  have received an average recommendation of Buy from the nine analysts that are currently covering the stock.Healthcare Trust Of America Inc  Stake Held by Spirit of America ... - The Cerbat GemWatch-list Stock of Traders: Healthcare Trust of America, Inc.'s  stock ... - WsNews 4investors"
p8
aS'A Back-To-School Checkup For Healthcare Trust Of America Seeking Alpha - Aug 8, 2016 Healthcare REITs have been some of the top performers for investors over the last 10 years, as healthcare real estate has benefited from both strong healthcare fundamentals with an aging population and the Affordable Care Act, and increasing interest ...'
p9
aS'What are Brokerage Firms Saying About Healthcare Trust of America, Inc. (NYSE ... Aiken Advocate - Apr 14, 2017 Sell-side analysts are currently looking for Healthcare Trust of America, Inc.  to post quarterly EPS of $0.42.'
p10
a.