(lp0
S'The Independent Bank Corp.  General Counsel Sells $126400.00 in Stock Petro Global News 24 - Jan 31, 2017 Independent Bank Corp.  General Counsel Edward H. Seksay sold 2,000 shares of Independent Bank Corp. stock in a transaction dated Wednesday, January 25th.'
p1
aS'Independent Bank Corporation Announces Date for Its First Quarter 2017 ... GlobeNewswire  - Mar 23, 2017 GRAND RAPIDS, Mich., March 23, 2017  -- Independent Bank Corporation , the holding company of Independent Bank, a Michigan-based community bank, announced that it expects to issue its 2017 first quarter financial&nbsp;...'
p2
aS"Independent Bank Corp.  IBCP  Wall Street Journal - Feb 11, 2011 P/E Ratio : The Price to Earnings  ratio, a key valuation measure, is calculated by dividing the stock's most recent closing price by the sum of the diluted earnings per share from continuing operations for the trailing 12 month period ..."
p3
aS'Independent Bank Corporation Announces Date for Its Fourth Quarter 2016 ... GlobeNewswire  - Dec 22, 2016 GRAND RAPIDS, Mich., Dec. 22, 2016  -- Independent Bank Corporation , the holding company of Independent Bank, a Michigan-based community bank, announced that it expects to issue its 2016 fourth quarter financial&nbsp;...'
p4
aS'Independent Bank Co.  Receives Consensus Recommendation of &quot;Hold ... Sports Perspectives - 1 hour ago Independent Bank Co.  has been assigned an average broker rating score of 3.00  from the three analysts that provide coverage for the company, Zacks Investment Research reports. Three equities research analysts have rated the&nbsp;...Independent Bank Co.  Given Daily Media Impact Rating of 0.30 - The Cerbat Gem'
p5
aS'Independent Bank Corp. announces 6 branch closings across Michigan MLive.com - Jan 23, 2015 IONIA, MI - Independent Bank Corp. announced Friday, Jan. 23, it will close six branches in out-state Michigan as part of its continuing strategy to improve its balance sheet and bottom line. The branch closings include its Broadway branch in Bay City,&nbsp;...'
p6
aS'Independent Bank Corporation Reports 2016 Third Quarter Results GlobeNewswire  - Oct 27, 2016 GRAND RAPIDS, Mich., Oct. 27, 2016  -- Independent Bank Corporation  reported third quarter 2016 net income of $6.4 million, or $0.30 per diluted share, versus net income of $5.0 million, or $0.22 per diluted share,&nbsp;...'
p7
aS'Form 8-K INDEPENDENT BANK CORP For: Dec 16 StreetInsider.com - Dec 19, 2016 19, 2016 - Independent Bank Corporation , the holding company of Independent Bank, a Michigan-based community bank, announced that its Board of Directors appointed Christina Keller to the boards of the Corporation and the Bank.'
p8
aS"Independent Bank reports growth for 2016 MiBiz - Jan 26, 2017 IONIA - Independent Bank Corp. today reported higher earnings for the fourth quarter and all of 2016. The Ionia-based Independent Bank  reported net income of $5.8 million, or 27 cents per diluted share, for the last three months of 2016.Independent Bank Corp's  CEO Brad Kessel on Q4 2016 Results - Earnings ... - Seeking Alpha"
p9
aS'Two Sigma Investments LP Cuts Stake in Independent Bank Co.  The Cerbat Gem - Apr 15, 2017 Other hedge funds have also recently modified their holdings of the company. Renaissance Technologies LLC boosted its position in Independent Bank Co. by 11.9% in the fourth quarter. Renaissance Technologies LLC now owns 743,600 shares of the&nbsp;...Independent Bank Co.  to Repurchase 500% of Outstanding Shares - Markets DailyLadenburg Thalmann Financial Services Inc. Has $126000 Stake in Independent ... - Community Financial News'
p10
a.