(lp0
S"Stock Returns: Iconix Brand Group Inc  is Beating Fossil Group ... CML News - Feb 26, 2017 This is a snapshot to compare the stock returns for Fossil Group Inc  versus Iconix Brand Group Inc  .Positive Media Coverage Likely to Effect Iconix Brand Group  Share Price - Markets DailyInvestors Traded Stock: Iconix Brand Group, Inc.'s  - Is stories"
p1
aS'Why Iconix Brand Group Inc. Shares Tumbled Today Motley Fool - Mar 29, 2016 Without adjustments, however, the company recorded a net loss of $263 million, or $5.44 per share. Revenue declined 1% $94.7 million but beat expectations of $93.3 million.Iconix Brand Group Reports Financial Results For The Fourth Quarter And Full ... - PR Newswire '
p2
aS'Iconix Brand Group Announces Hiring Of Jamie Cygielman As Chief Marketing Officer PR Newswire  - Dec 7, 2016 NEW YORK, Dec. 7, 2016 /PRNewswire/ -- Iconix Brand Group, Inc.  , today announced that Jamie Cygielman will be joining the Company as Executive Vice President and Chief Marketing Officer on January 3, 2017.'
p3
aS'Iconix: New Developments And Upcoming Catalysts Seeking Alpha - Apr 6, 2017 Iconix Brand Group  is a New York-based company that owns and manages 30 brands in categories ranging from clothing to footwear to home goods.'
p4
aS'Iconix Brand Group to Present at Cowen and Company Future of the Consumer ... Yahoo Finance - Mar 30, 2017 NEW YORK, March 30, 2017 /PRNewswire/ -- Iconix Brand Group, Inc.  , today announced that its Chief Executive Officer, John Haugh is scheduled to present at the Cowen and Company Future of the Consumer Conference&nbsp;...Iconix Brand Group Inc.  Moves Higher on Volume Spike for March 28 - Equities.comBuy or Sell? What Analysts Recommends: Flowers Foods, Inc. , Iconix Brand ... - StockNewsJournal'
p5
aS'Iconix Brand Group To Present At Multiple Upcoming Investor Conferences PR Newswire  - Mar 7, 2017 NEW YORK, March 7, 2017 /PRNewswire/ -- Iconix Brand Group, Inc.  , today announced that John Haugh, President and Chief Executive Officer of Iconix, will present at the following investor conferences.'
p6
aS'Iconix Brand Group To Announce Fourth Quarter And Full Year 2016 Financial ... PR Newswire  - Feb 13, 2017 NEW YORK, Feb. 15, 2017 /PRNewswire/ -- Iconix Brand Group, Inc.  , plans to report its fourth quarter and full year ended December 31, 2016 financial results after the close of market on Wednesday, February 22,&nbsp;...'
p7
aS"Why Iconix Brand Group Inc Stock Tumbled Today Motley Fool - Nov 8, 2016 Despite the guidance cut, Iconix's steps toward profitability look promising as sellling, general, and administrative expenses have fallen sharply.Iconix Brand Group  Q3 2016 Results - Earnings Call Transcript - Seeking Alpha"
p8
aS"Iconix Brand Group's  CEO John Haugh on Q4 2016 Results - Earnings Call ... Seeking Alpha - Feb 23, 2017 Good afternoon, and welcome to the Iconix Brand Group fourth quarter and full year 2016 earnings conference call. On today's call, we ... We will provide guidance for 2017 and we will update you on the key initiatives for the Company. Before going into ..."
p9
aS"Guess Who Picked Iconix Brand Group Inc.  Shares Small Cap Exclusive  - Mar 31, 2017 For those not familiar with the company, Iconix Brand Group, Inc. is a brand management company. The Company owns a diversified portfolio of consumer brands across women's, men's, home and entertainment categories."
p10
a.