(lp0
S'Icahn Enterprises LP Announces Pricing Terms for Rights Offering GlobeNewswire  - Jan 10, 2017 NEW YORK, Feb. 06, 2017  -- Icahn Enterprises L.P.   announced today that it has set the pricing terms for its previously announced rights offering.Carl Icahn Reveals Pricing Terms on Rights Offering - InvestopediaIcahn Enterprises prices rights offering at $53.71 per newly issued depositary ... - MarketWatch'
p1
aS'Icahn Enterprises LP Announces Hiring of Dr. Richard C. Mulligan GlobeNewswire  - Mar 1, 2017 NEW YORK, March 01, 2017  -- Icahn Enterprises L.P.  today announced that Icahn Capital LP, its wholly owned subsidiary, has hired Dr.Billionaire Carl Icahn, Trump Adviser On Regulatory Overhaul, Targets Biotech - Forbes'
p2
aS'Icahn Enterprises LP Becomes Oversold Nasdaq - Apr 11, 2017 But making Icahn Enterprises LP an even more interesting and timely stock to look at, is the fact that in trading on Tuesday, shares of IEP entered into oversold territory, changing hands as low as $47.571 per share.Icahn Enterprises LP  Receives An Update From Brokers - The De Soto Edge'
p3
aS'Icahn Enterprises LP Announces Q4 and Full Year 2016 Earnings Conference Call GlobeNewswire  - Aug 3, 2015 NEW YORK, Feb. 21, 2017  -- Icahn Enterprises L.P.  announced today that it will discuss its fourth quarter and full year 2016 results on a conference call and webcast on Wednesday, March 1, 2017 - 10:00 a.m.'
p4
aS"Icahn Enterprises LP Announces Results Of Federal-Mogul Tender Offer PR Newswire  - Jan 19, 2017 NEW YORK, Jan. 19, 2017 /PRNewswire/ -- Icahn Enterprises L.P.   announced today the results of the tender offer , through its indirect wholly owned subsidiary, IEH FM Holdings LLC , to purchase all ...Icahn to take full ownership of Federal-Mogul in $300 million deal - Crain's Detroit Business"
p5
aS'Icahn Enterprises LP Announces Closing of $1195 Million Senior Notes Offering GlobeNewswire  - Jan 12, 2017 NEW YORK, Jan. 18, 2017  -- Icahn Enterprises L.P.  - Icahn Enterprises L.P.  announced today that it, together with Icahn Enterprises Finance Corp.'
p6
aS'Icahn Enterprises Completes Acquisition of Federal-Mogul PR Newswire  - Jan 23, 2017 NEW YORK, Jan. 23, 2017 /PRNewswire/ -- Federal-Mogul Holdings Corporation  and Icahn Enterprises L.P.  today announced that Icahn Enterprises has closed its acquisition of&nbsp;...'
p7
aS"Icahn Enterprises May Be Cut to Junk by S&amp;P on Portfolio Drop Bloomberg - Feb 19, 2016 Icahn Enterprises LP, billionaire investor Carl Icahn's publicly traded holding company, may be cut to junk after losing a significant amount of value in the last several months, Standard &amp; Poor's Ratings Services said Friday.Icahn Enterprises LP  May Be Cut Junk at S&amp;P - StreetInsider.com"
p8
aS'Icahn Enterprises LP  Announces Completion of Pep Boys  Acquisition StreetInsider.com - Feb 4, 2016 Icahn Enterprises L.P.  announced that it has closed its acquisition of The Pep Boys - Manny, Moe &amp; Jack   in an all-cash transaction for $18.50 per share, or approximately $1.03 billion in aggregate equity value.Icahn Enterprises Completes Acquisition of Pep Boys - GlobeNewswire '
p9
aS"Tracking Carl Icahn's Portfolio - Q4 2016 Update Seeking Alpha - Feb 21, 2017 The portfolio is very concentrated, with the largest five positions accounting for over two-thirds of the entire holdings: Icahn Enterprises , American International Group , CVR Energy , Federal Mogul , and&nbsp;..."
p10
a.