(lp0
S'Institutional Financial Markets, Inc.  Ex-Dividend Date Scheduled for ... Nasdaq - Mar 23, 2017 Institutional Financial Markets, Inc.  will begin trading ex-dividend on March 24, 2017. A cash dividend payment of $0.02 per share is scheduled to be paid on April 11, 2017.'
p1
aS'Institutional Financial Markets, Inc.  Ex-Dividend Date Scheduled for ... Nasdaq - May 17, 2016 Institutional Financial Markets, Inc.  will begin trading ex-dividend on May 18, 2016. A cash dividend payment of $0.02 per share is scheduled to be paid on June 03, 2016.'
p2
aS"Institutional Financial Markets' [IFMI] CEO Lester Brafman on Q4 2016 Results ... Seeking Alpha - Mar 14, 2017 Good morning, ladies and gentlemen, and welcome to Institutional Financial Markets' Fourth Quarter and Yearend 2016 Earnings Call."
p3
aS"Institutional Financial Markets'  CEO Lester Brafman on Q3 2016 Results ... Seeking Alpha - Nov 1, 2016 Good morning, ladies and gentlemen, and welcome to Institutional Financial Markets' Third Quarter 2016 Earnings Call. My name is Maria and I'll be your operator for today."
p4
aS"BRIEF-Institutional Financial Markets enters agreement with Sandler O'neill ... Reuters - Mar 17, 2017 SAO PAULO, April 8 Brazilian President Michel Temer said his government has offered &quot;all it could&quot; to ease lawmakers' resistance to a landmark pension reform bill, key to rebalance the government's strained finances, according to an interview published ..."
p5
aS"Top Loser Mover of Monday: Institutional Financial Markets, Inc.'s (IFMI ... WsNews 4investors - Mar 14, 2017 Institutional Financial Markets, Inc.  stock price tumbled -7.38% to finalize at $1.13 throughout previous buying and selling session."
p6
aS"INSTITUTIONAL FINANCIAL MARKETS,INC.  Files An 8-K Results of ... Market Exclusive - Mar 14, 2017 The Company's whose businesses provide consumers, corporations, governments and institutions with a range of financial products and services, including consumer banking and credit, corporate and investment banking, securities brokerage, trade and&nbsp;..."
p7
aS"Revenue Update on Institutional Financial Markets Inc Money Flow Index & Trends - Mar 20, 2017 Institutional Financial Markets Inc announced the earnings results for Fiscal Year 2016 and Q4. The results came in during Pre-Market on Mar 14, 2017.Top Positive Mover of Friday: Institutional Financial Markets, Inc.'s (IFMI ... - WsNews 4investorsInstitutional Financial Markets Inc  Declares $0.02 Quarterly Dividend - Chaffey Breeze"
p8
aS'Institutional Financial Markets Inc Declares Quarterly Dividend of $0.02  The Cerbat Gem - Apr 4, 2017 Institutional Financial Markets logo Institutional Financial Markets Inc  announced a quarterly dividend on Tuesday, March 14th.'
p9
aS"Noteworthy Stock Inside Spotlight: Institutional Financial Markets, Inc.'s ... WsNews 4investors - Mar 8, 2017 Institutional Financial Markets, Inc.  stock price tumbled -3.03% to finalize at $1.28 throughout previous buying and selling session."
p10
a.