(lp0
S'Why Infinera Corp. Plunged More Than 50% Lower in 2016 Motley Fool - Jan 4, 2017 Shares of Infinera  fell 53.1% in 2016, according to data from S&amp;P Global Market Intelligence. The optical-networking expert had no problem churning out positive earnings surprises throughout the year, but those good tidings were always&nbsp;...'
p1
aS'Why Infinera Corp. Fell 26% in April Motley Fool - May 9, 2016 What: Shares of Infinera  fell 26% in April 2016, according to data from S&amp;P Global Market Intelligence. The maker of optical networking systems was having a quietly difficult month until April 28.'
p2
aS'Infinera Corp.  Receives Media Sentiment Score of 0.30 Markets Daily - 9 hours ago Infinera Corp. logo News articles about Infinera Corp.  have trended positive this week, Alpha One reports.Infinera Corp.  Position Held by State Board of Administration of ... - Sports PerspectivesInfinera Corp.  Reaches $9.67 After 7.00% Up Move, Darling International ... - NormanObserver.com'
p3
aS'Infinera Corp. INFN  Wall Street Journal - Feb 12, 2011 News Infinera Corp.INFN. Significant News Only. 04/06/17; Press Release. Infinera Sets May 4, 2017 for its First Quarter Fiscal 2017 Financial Results Conference Call and Webcast.'
p4
aS"How Did Microsoft Corporation Sink Infinera Corp. Stock? Motley Fool - Apr 5, 2016 Microsoft's  comments regarding DCI  solutions during the optical industry's annual OFC conference recently boosted shares of Inphi  and Ciena  while punishing shares of Infinera&nbsp;..."
p5
aS'BRIEF-Infinera Corp reports Q4 and fiscal year 2016 financial results Reuters - Feb 9, 2017 BRIEF-Infinera Corp reports Q4 and fiscal year 2016 financial results. Feb 9 Infinera Corp. * Infinera Corporation reports fourth quarter and fiscal year 2016 financial results.'
p6
aS'Why Infinera Corp. Stock Got Slammed by 14% Today Motley Fool - Oct 27, 2016 Infinera stock held steady through the morning, but fell in the afternoon on news of a possible merger between Level 3 Communications  and CenturyLink , which are two of the its biggest customers.'
p7
aS"Instinet Upgrades Infinera Corp.  to Buy StreetInsider.com - Feb 10, 2017 Instinet upgraded Infinera Corp.  from Neutral to Buy with a price target of $15.00 . Analyst Jeffrey Kvaal commented, &quot;1Q guidance was in line with to below consensus estimatesdisappointing, given that it was INFN's fourth&nbsp;...Infinera Corp.  Has Jumped To A 6-Month High On Q4 Earnings - NasdaqInfinera  Q4 2016 Results - Earnings Call Transcript - Seeking Alpha"
p8
aS"Infinera Corp: Better optics as Goldman upgrades to &quot;buy&quot; Times of India - Mar 16, 2017 Now, of 17 analysts covering INFN, 6 rate stock a &quot;buy&quot; or higher, 10 rate &quot;hold&quot; or equivalent, one recommends selling; median PT $10, up from $8.50 three months ago.Here's Why Infinera Is Rising Today - Motley FoolInfinera Corp.  Shares Bought by Guggenheim Capital LLC - BNB Daily "
p9
aS"Infinera Corp. Reports Fast Growth, but Guidance Fails to Impress Motley Fool - Apr 28, 2016 Infinera  reported its first-quarter results on April 27 after the market closed. While the results came in a bit ahead of its own guidance, traders were selling off shares in Thursday's trading as the company projected that growth is ...Analysts Weigh In On Two Falling Stocks: Infinera Corp. , Ocwen ... - Smarter Analyst"
p10
a.