(lp0
S"Summit Hotel Properties Inc : Earnings Expected To Remain Subdued Simply Wall St - 16 hours ago Summit Hotel Properties Inc  is expected to experience a -17.7% decline in earnings over the next year. However, investors must be concerned whether it's just a hiccup or a long-term trend.Summit Hotel Properties Inc  Receives Average Recommendation of &quot;Buy ... - Chaffey BreezeSummit Hotel Properties, Inc.  Under Analyst Spotlight - UK Market News"
p1
aS'Summit Hotel Properties Reaches Analyst Target Price Nasdaq - Apr 14, 2017 In recent trading, shares of Summit Hotel Properties Inc  have crossed above the average analyst 12-month target price of $16.08, changing hands for $16.21/share.Summit Hotel Properties Inc  Shares Sold by Dimensional Fund Advisors LP - Alive For FootballBreaking: Summit Hotel Properties Inc  Stock Through Resistance ... - CML News'
p2
aS'Summit Hotel Properties Names Jonathan P. Stanner Executive Vice President And ... PR Newswire  - Apr 4, 2017 AUSTIN, Texas, April 4, 2017 /PRNewswire/ -- Summit Hotel Properties, Inc.   today announced that Jonathan P. Stanner will join the Company as Executive Vice President &amp; Chief Investment Officer effective April 17, 2017.'
p3
aS'Summit Hotel Properties Announces First Quarter 2017 Earnings Release Date PR Newswire  - Apr 12, 2017 Summit Hotel Properties, Inc., is a publicly-traded real estate investment trust focused primarily on owning premium-branded, select-service hotels in the upscale segment of the lodging industry.Summit Hotel Properties Inc  Downgraded by Zacks Investment Research to ... - The Cerbat GemBanced Corp Sells 470 Shares of Summit Hotel Properties Inc  - Markets Daily'
p4
aS'Summit Hotel Properties Acquires Two Hotels For $60.2 Million PR Newswire  - Apr 3, 2017 ... Inc. is a publicly-traded real estate investment trust focused on owning premium-branded hotels with efficient operating models primarily in the upscale segment of the lodging industry.'
p5
aS'Summit Hotel Properties, Inc.  Ex-Dividend Date Scheduled for February 10 ... Nasdaq - Feb 9, 2017 Summit Hotel Properties, Inc.  will begin trading ex-dividend on February 10, 2017. A cash dividend payment of $0.162 per share is scheduled to be paid on February 28, 2017.'
p6
aS'Summit Hotel Properties Aligns with Ecova for Data Insights to Reduce Utility ... Yahoo Finance - Apr 6, 2017 Ecova, a leading energy and sustainability management company, has been selected by Summit Hotel Properties, Inc. , to provide comprehensive energy management strategy and minimize utility costs across 82 hotels with a total of 11,095 guestrooms&nbsp;...'
p7
aS"American Realty Capital Hospitality Trust Acquires Six Hotels from Summit ... PR Newswire  - Feb 16, 2016 NEW YORK, Feb. 16, 2016 /PRNewswire/ -- American Realty Capital Hospitality Trust, Inc.  announced today that it has completed its previously announced acquisition of six hotels totaling 707 rooms for a purchase ...ARC Hospitality Takes More Hotels Off Summit's Hands - Commercial Property Executive"
p8
aS'Summit Hotel Properties: A Couple Of Things To Watch Out For Before Diving ... Seeking Alpha - Dec 29, 2015 Summit Hotel Properties Inc.  is undertaking significant changes in its portfolio. A total of 26 properties have been earmarked for disposition out of a total of 95 properties owned by the company as of June 2015.'
p9
aS'Summit Hotel Properties Announces The Sale Of A Hotel For $10.5 Million PR Newswire  - May 31, 2016 AUSTIN, Texas, May 31, 2016 /PRNewswire/ -- Summit Hotel Properties, Inc.   announced today that on May 13, 2016, it completed the sale of the Holiday Inn Express &amp; Suites located in Irving , Texas containing 128&nbsp;...'
p10
a.