(lp0
S'Form 4 INTERGROUP CORP For: Mar 27 Filed by: GONZALEZ DAVID C StreetInsider.com - Mar 28, 2017 Check this box if no longer subject to Section 16. Form 4 or Form 5 obligations may continue. See Instruction 1. 1. Name and Address of Reporting Person *. GONZALEZ DAVID C. , , . 1100 GLENDON AVENUE,. SUITE PH-1. &nbsp;...'
p1
aS'Company Stock Watch: The InterGroup Corporation  BVN - 8 hours ago Taking a closer look at some quality ratios for The InterGroup Corporation , the firm has a Gross Margin  ratio of 0.156365.'
p2
aS'InterGroup  EPS Estimated At $0.00, Leucadia National Has 0.92 Sentiment MoneyMakingArticles - Apr 14, 2017 Analysts expect InterGroup Corp  to report $0.00 EPS on May, 12. The stock decreased 0.18% or $0.05 on April 13, reaching $27.55.'
p3
aS'Company Scope: Tracking Shares of The InterGroup Corporation  Benton Bulletin - Apr 4, 2017 The InterGroup Corporation  has a current Piotroski F-Score of 5. The mission of the F-Score is to help spot companies with strengthening balance sheets, and to weed out poor performers.'
p4
aS"Corp Intergroup Buys 600 Shares of Portsmouth Square Inc  Stock The Cerbat Gem - Apr 12, 2017 Portsmouth Square logo Portsmouth Square Inc  major shareholder Corp Intergroup acquired 600 shares of the company's stock in a transaction dated Monday, March 20th."
p5
aS"Euclid recycler InterGroup International shuts down Crain's Cleveland Business - Feb 17, 2017 Recycling firm InterGroup International Ltd. has closed its doors after 11 years in business. Euclid-based InterGroup may operate on a reduced basis through the end of the month, owner Neil Gloger said in a Feb. 14 interview with Plastics News. The ..."
p6
aS"Corp Intergroup Purchases 600 Shares of Portsmouth Square Inc  Stock Sports Perspectives - Apr 11, 2017 Portsmouth Square logo Portsmouth Square Inc  major shareholder Corp Intergroup purchased 600 shares of the firm's stock in a transaction on Monday, March 20th."
p7
aS"Portsmouth Square Inc  Major Shareholder Corp Intergroup Purchases 600 ... Sports Perspectives - Mar 21, 2017 Portsmouth Square logo Portsmouth Square Inc  major shareholder Corp Intergroup bought 600 shares of the business's stock in a transaction that occurred on Monday, March 20th."
p8
aS"Chancery Deals A Blow To Supermajority Bylaw Provisions Law360  - Feb 10, 2017 In Frechter v. Zier, C.A. No. 12038-VCG , the Delaware Court of Chancery held that a corporation's bylaw requiring a supermajority stockholder vote for the removal of directors was invalid. According to the court, the ..."
p9
aS'Liberty Media Corporation Announces Completion of Rights Offering Business Wire  - Jun 24, 2016 BUSINESS WIRE)--Liberty Media Corporation   announced today the completion of its rights offering, which expired in accordance with its terms at 5:00 p.m.'
p10
a.