(lp0
S'INTL FCStone Ltd Becomes Direct Participant to LBMA Gold Auction Nasdaq - 2 hours ago NEW YORK, April 18, 2017  -- INTL FCStone Inc. , a leader in the development of specialized financial services in commodities, securities, global payments, foreign exchange and other markets, today announced that its&nbsp;...'
p1
aS'BRIEF-INTL FCSTONE INC SAYS ITS UNIT LAUNCHES PMXECUTE+ Reuters - Feb 27, 2017 BIGUGLIA, Corsica, April 1 - Conservative presidential candidate Francois Fillon warned in Corsica on Saturday that France faced the same fate as debt-ridden Greece, deliberately reviving the &quot;failing state&quot; controversy he stoked on the Mediterranean ...'
p2
aS"INTL FCStone Inc. Agrees to Acquire Correspondent Clearing and Independent ... GlobeNewswire  - Jun 27, 2016 NEW YORK, June 27, 2016  -- INTL FCStone Inc.   announced today that it has signed a definitive agreement with Sterne Agee LLC, a wholly-owned subsidiary of Stifel Financial Corp.Stifel to Sell Legacy Sterne Agee Businesses to INTL FCStone - Wall Street JournalStifel to Sell Sterne Agee's Legacy Independent Brokerage, Clearing, and RIA ... - Marketwired "
p3
aS'INTL FCStone Inc. Substantially Completes the Acquisition of the Correspondent ... GlobeNewswire  - Jul 5, 2016 NEW YORK, July 05, 2016  -- INTL FCStone Inc.   today announced that it has substantially completed, effective July 1, 2016, its acquisition of the correspondent securities clearing business and independent&nbsp;...INTL FCStone Completes Substantial Part of Sterne Agee LLC Acquisition - Finance Magnates'
p4
aS"INTL FCStone Inc. Reports Fiscal Fourth Quarter and 2015 Annual Financial Results GlobeNewswire  - Dec 9, 2015 Sean M. O'Connor, CEO of INTL FCStone Inc., stated, &quot;We achieved very strong results for the fourth quarter which was a record in almost every respect."
p5
aS'INTL FCStone Financial to Host Inaugural Global Correspondent Outlook Conference Yahoo Finance - Mar 23, 2017 NEW YORK, NY-- - INTL FCStone Inc.  today announced that the Correspondent Clearing Group in the BD Division of its wholly owned subsidiary, INTL FCStone Financial Inc. , will convene its&nbsp;...'
p6
aS'INTL FCStone Announces Unique Online Physical Gold Trading Platform GlobeNewswire  - Oct 17, 2016 INTL FCStone Ltd, a company registered in England &amp; Wales and a wholly owned subsidiary of INTL FCStone Inc., is authorised &amp; regulated by the Financial Conduct Authority [FRN: 446717].'
p7
aS"INTL FCStone Expands Capabilities with Acquisition of ICAP's EMEA Oils Broking ... GlobeNewswire  - Sep 8, 2016 NEW YORK, Sept. 08, 2016  -- INTL FCStone Inc. , a diversified global financial services organization delivering execution and advisory services in commodities, currencies and securities, today announced that its&nbsp;...INTL FCStone Acquires ICAP's EMEA Oils Broking Business - Finance Magnates"
p8
aS"INTL FCStone Ltd's Global Payments Division Bolsters Executive Team With Key ... Marketwired  - Dec 8, 2016 LONDON, UNITED KINGDOM-- - INTL FCStone Inc.  today announced that its London-based subsidiary, INTL FCStone Ltd's Global Payments Division , has appointed Franois Beau&nbsp;..."
p9
aS'INTL FCStone Inc.  Moves Lower on Volume Spike for March 17 Equities.com - Mar 17, 2017 INTL FCStone Inc.  traded on unusually high volume on Mar. 17, as the stock lost 7.56% to close at $36.81. On the day, INTL FCStone Inc. saw 562,250 shares trade hands on 2,565 trades. Considering that the stock averages only a daily volume of&nbsp;...Next Weeks Broker Price Targets For INTL FCStone Inc.  - Fiscal Standard'
p10
a.