(lp0
S'60.55 MarketWatch - Feb 18, 2011 Innospec Inc. Watchlist CreateIOSPAlert. Open. Last Updated: Apr 17, 2017 12:23 p.m. Real time quote. $ 60.55. 0.15 0.25%.'
p1
aS'Innospec Inc. IOSP  Wall Street Journal - Feb 12, 2011 Innospec Inc. IOSP . search. View All companies. AT CLOSE 4:00 PM EDT 04/13/17. $60.40 USD; -1.10 -1.79%.'
p2
aS'Innospec Inc. Common Stock Quote &amp; Summary Data Nasdaq - Aug 20, 2011 When we use the terms &quot;Innospec,&quot; &quot;the Corporation,&quot; &quot;the Company,&quot; &quot;Registrant,&quot; &quot;we,&quot; &quot;us&quot; and &quot;our,&quot; we are referring to Innospec Inc. and its consolidated subsidiaries unless otherwise indicated or the context otherwise requires. General Innospec&nbsp;...'
p3
aS"BRIEF-Innospec Inc says co, units entered into third amendment, restatement ... Reuters - Dec 16, 2016 Reuters is the news and media division of Thomson Reuters. Thomson Reuters is the world's largest international multimedia news agency, providing investing news, world news, business news, technology news, headline news, small business news, news&nbsp;..."
p4
aS'Innospec Schedules First Quarter 2017 Earnings Release and Conference Call GlobeNewswire  - Apr 13, 2017 ENGLEWOOD, Colo., April 13, 2017  -- Innospec Inc.  today announced that it will release first quarter 2017 earnings results on Tuesday, May 9, 2017, after market close.'
p5
aS'Stock Returns: Innospec Inc  versus Innophos Holdings Inc (NASDAQ ... CML News - Apr 10, 2017 This is a snapshot to compare the stock returns for Innospec Inc  versus Innophos Holdings Inc  .'
p6
aS"Insider Trading Activity Innospec Inc.   CEO Sold 3000 shares of ... Market Exclusive - Mar 20, 2017 Patrick Williams , CEO of Innospec Inc.  reportedly Sold 3,000 shares of the company's stock at an average price of 63.01 for a total transaction amount of $189,030.00 SEC Form."
p7
aS'Innospec Inc.  Moves Higher on Volume Spike for March 17 Equities.com - Mar 17, 2017 Innospec Inc.  traded on unusually high volume on Mar. 17, as the stock gained 1.28% to close at $63.30. On the day, Innospec Inc. saw 260,872 shares trade hands on 1,649 trades. Considering that the stock averages only a daily volume of 147,664&nbsp;...Innospec Inc.  Broker Price Targets For The Coming Week - Fiscal StandardState Board of Administration of Florida Retirement System Holds Position in ... - Sports Perspectives'
p8
aS"Innospec Commits to Acquire European Personal Care and Home Care Business From ... GlobeNewswire  - Aug 3, 2016 ENGLEWOOD, Colo., Aug. 03, 2016  -- Innospec Inc.  today announced that it commits to acquiring the European Personal Care and Home Care business of Huntsman Corp.Huntsman Corp. to sell European facilities for $225M - Houston Business JournalInnospec Commits To Purchase Huntsman's European Surfactants Business For $225 ... - PR Newswire "
p9
aS'Stock Returns: Quaker Chemical Corporation  is Beating Innospec Inc ... CML News - Mar 20, 2017 This is a snapshot to compare the stock returns for Innospec Inc  versus Quaker Chemical Corporation  .'
p10
a.