(lp0
S'No More Ambiguity, Investors Bancorp, Inc.  And Its Chart Is Now Crystal ... NY Stock News - 15 hours ago The technicals for Investors Bancorp, Inc.  has spoken via its technical chart and the message is loud and clear. Based on that message, this is the relevant information necessary to make sense of that current setup.'
p1
aS'Revenue Approximations Analysis: Investors Bancorp, Inc. , Zions ... StockNewsJournal - 17 hours ago Investors Bancorp, Inc.  have shown a high EPS growth of 17.40% in the last 5 years and has earnings decline of 17.10% yoy.'
p2
aS'Investors Bancorp Inc. performed Poor with a change of -1.85% in the Last Trade Free Observer - 21 hours ago Investors Bancorp Inc.  belongs to the Financial sector with an industry focus on Savings &amp; Loans, with Mr. Kevin Cummings as Chief Exec.The Investors Bancorp, Inc.  Position Maintained by Minerva Advisors LLC - Petro Global News 24Federated Investors Inc. PA Boosts Position in Old Second Bancorp Inc.  - The Cerbat Gem'
p3
aS"Investors Bancorp Directors Dodge Lawsuit Over Compensation Bloomberg BNA - Apr 6, 2017 Investors Bancorp Inc. directors don't have to face shareholder claims that they awarded themselves too much pay, the Delaware Chancery Court ruled April 5 ( In re Investors Bancorp Inc. Stockholder Litig. , 2017 BL 111738, Del. Ch., No. 12327-VCS, 4/5 ..."
p4
aS'Investors Bancorp Inc.  Moves Lower on Volume Spike for April 14 Equities.com - Apr 14, 2017 Investors Bancorp Inc.  traded on unusually high volume on Apr. 14, as the stock lost 1.85% to close at $13.83. On the day, Investors Bancorp Inc. saw 3.81 million shares trade hands on 22,682 trades. Considering that the stock averages only a ...'
p5
aS'Stock Returns: Investors Bancorp Inc  versus ServisFirst ... CML News - Apr 16, 2017 This is a snapshot to compare the stock returns for Investors Bancorp Inc  versus ServisFirst Bancshares Inc  .'
p6
aS'Do Analysts See Any Upside to Investors Bancorp, Inc.  Shares? Rockville Register - 13 hours ago During the most recent trading session, shares of Investors Bancorp, Inc.  ended up with a move of +1.95%. Sell-side analysts have given a consensus target price of $15.13 on company shares.'
p7
aS'Chancery Tosses Challenge To Investors Bancorp Director Pay Law360  - Apr 6, 2017 Law360, Wilmington  -- A Delaware Chancery judge threw out Wednesday shareholder derivative claims challenging more than $50 million in equity incentive awards Investors Bancorp Inc. doled out to directors and top&nbsp;...'
p8
aS'Investors Bancorp Inc.  Moves Lower on Volume Spike for March 22 Equities.com - Mar 22, 2017 Investors Bancorp Inc.  traded on unusually high volume on Mar. 22, as the stock lost 0.58% to close at $13.68. On the day, Investors Bancorp Inc. saw 3.39 million shares trade hands on 23,417 trades. Considering that the stock averages only a ...'
p9
aS'Investors Bancorp Inc.  Moves Lower on Volume Spike for March 29 Equities.com - Mar 29, 2017 Investors Bancorp Inc.  traded on unusually high volume on Mar. 29, as the stock lost 1% to close at $13.85. On the day, Investors Bancorp Inc. saw 3.23 million shares trade hands on 18,884 trades. Considering that the stock averages only a daily&nbsp;...Investors Bancorp, Inc.  And Its Technical Chart Creates A Compelling ... - NY Stock News'
p10
a.