(lp0
S"Invesco Mortgage Capital Inc. Announces 2017 Annual Stockholders Meeting PR Newswire  - Feb 23, 2017 ATLANTA, Feb. 23, 2017 /PRNewswire/ -- Invesco Mortgage Capital Inc.   today announced it will hold its 2017 Annual Meeting of Stockholders on Wednesday, May 3, 2017 at 2:00 pm ET at the Company's headquarters, located&nbsp;...Invesco Mortgage Capital's  CEO Richard King on Q4 2016 Results ... - Seeking Alpha"
p1
aS'Invesco Mortgage Capital Inc.  Reaches a New Pinnacle Aiken Advocate - 9 hours ago Shares of Invesco Mortgage Capital Inc.  have shifted north recently, touching a new 52-week high. A recent bid put the stock price near $15.91.Invesco Mortgage Capital  Getting Somewhat Negative Press Coverage, Study ... - Sports PerspectivesEarnings Growth Research: Invesco Mortgage Capital Inc. , Vista Outdoor ... - USA Commerce Daily'
p2
aS'INVESCO MORTGAGE CAPITAL INC  Ex-Dividend Date Scheduled for March 23, 2017 Nasdaq - Mar 22, 2017 INVESCO MORTGAGE CAPITAL INC  will begin trading ex-dividend on March 23, 2017. A cash dividend payment of $0.4 per share is scheduled to be paid on April 26, 2017.INVESCO MORTGAGE CAPITAL INC  Moves Higher on Volume Spike for March 22 - Equities.comInvesco Mortgage Capital Inc.  Technicals Are Painting A Bleak Picture - USA Commerce Daily'
p3
aS'INVESCO MORTGAGE CAPITAL INC  Ex-Dividend Date Scheduled for December 22 ... Nasdaq - Dec 21, 2016 INVESCO MORTGAGE CAPITAL INC  will begin trading ex-dividend on December 22, 2016. A cash dividend payment of $0.4 per share is scheduled to be paid on January 26, 2017.'
p4
aS'15.77 MarketWatch - Oct 18, 2010 Invesco Mortgage Capital Inc. Watchlist CreateIVRAlert. After Hours. Last Updated: Apr 13, 2017 4:02 p.m.. $ 15.77.'
p5
aS'Invesco Mortgage: The Need To Know Seeking Alpha - Nov 28, 2016 Well, the key question really is: &quot;How is the name performing relative to the sector?&quot; To address this question I will discuss the key metrics of the company, which are summarized in table 1. Table 1. Summary of Key Metrics of Invesco Mortgage Capital ...'
p6
aS'Invesco Mortgage Capital Closes on $21 Million Mezzanine Loan PR Newswire  - Jul 7, 2015 ATLANTA, July 7, 2015 /PRNewswire/ -- Invesco Mortgage Capital Inc.  is pleased to announce the closing of a commercial real estate loan investment.'
p7
aS'Invesco Mortgage Capital Inc  Upgraded to Hold by Zacks Investment Research The Cerbat Gem - Apr 12, 2017 Zacks Investment Research upgraded shares of Invesco Mortgage Capital Inc  from a sell rating to a hold rating in a research note published on Tuesday morning.Earnings Clues on Ladder Capital Corp , Invesco Mortgage Capital Inc ... - StockNewsJournal'
p8
aS"Analyst's Predictions on Global Eagle Entertainment Inc. , Invesco ... StockNewsJournal - Mar 30, 2017 Invesco Mortgage Capital Inc. , maintained return on investment for the last twelve months at 5.76, higher than what Reuters data shows regarding industry's average.Average Brokerage Rating Of Invesco Mortgage Capital Inc. , Ares ... - The USA CommerceInvesco Mortgage Capital Inc.  traded with Volume of 1.37 Million shares ... - The Newburgh Press"
p9
aS'Successful Earnings Option Trading: Invesco Mortgage Capital Inc  CML News - Apr 6, 2017 As we look at Invesco Mortgage Capital Inc we note that a short put is one of the most common implementations of an option strategy, but the analysis completed when employing the short put often times lacks the necessary rigor especially surrounding&nbsp;...'
p10
a.