(lp0
S'John Bean Technologies Corporation Prices Public Offering of Common Stock PR Newswire  - Mar 8, 2017 CHICAGO, March 7, 2017 /PRNewswire/ -- JBT Corporation ,  a global technology solutions provider to high-value segments of the food and beverage industry, announced today that it has priced an underwritten public offering of&nbsp;...'
p1
aS'JBT Corporation Announces First Quarter 2017 Earnings Release and Conference ... PR Newswire  - Apr 6, 2017 John Bean Technologies Corporation  is a leading global technology solutions provider to high-value segments of the food &amp; beverage industry with a focus on proteins, liquid foods and automated systems.John Bean Technologies Corp  Stake Reduced by Foundry Partners LLC - The Cerbat GemJohn Bean Technologies Corp  Given Average Rating of Buy by Analysts - Sports Perspectives'
p2
aS'Is John Bean Technologies Corporation  In Sound Financial Health? Simply Wall St - Mar 24, 2017 Although mid-cap stocks, such as John Bean Technologies Corporation  with a market-capitalization of USD $2.77 Billion, are hardly popular among investors, they have delivered the most impressive risk adjusted returns.John Bean Technologies Corporation  Moves Lower on Volume Spike for March 24 - Equities.com'
p3
aS'Favorable News Coverage Likely to Affect John Bean Technologies Corp (JBT ... The Cerbat Gem - 9 hours ago John Bean Technologies Corp logo News headlines about John Bean Technologies Corp  have been trending positive this week, according to Alpha One.How Does John Bean Technologies Corporation  Stack Up In Terms of Value? - TCTNorges Bank Buys Shares of 199774 John Bean Technologies Corp  - Sports Perspectives'
p4
aS'Market Desk: Share Update for John Bean Technologies Corporation  Baldwin Journal - 5 hours ago John Bean Technologies Corporation  presently has an EV or Enterprise Value of 3202473. The EV helps show how the market assigns value to a company as a whole.'
p5
aS'Option Market Alert: John Bean Technologies Corporation Implied Price Swing ... CML News - Apr 16, 2017 No Risk Alert Here: Before we dive into any analysis we simply note that John Bean Technologies Corporation  risk is neither elevated nor depressed.'
p6
aS'John Bean Technologies: Doubts About The Acquisition Strategy Seeking Alpha - Apr 20, 2016 EV/EBITDA is 18 at MIDD and 16 at John Bean. The much higher operating margin at Middleby is the outlier, and it would seem that the company is deserving of a higher value than JBT.'
p7
aS"John Bean Technologies'  CEO Thomas Giacomini on Q3 2016 Results ... Seeking Alpha - Oct 27, 2016 Good morning and welcome to JBT Corporation's Third Quarter 2016 Earnings Conference Call. My name is Sally and I will be your conference operator today."
p8
aS'Stock Returns: Graco Inc  versus John Bean Technologies Corporation ... CML News - Mar 25, 2017 This is a snapshot to compare the stock returns for Graco Inc  versus John Bean Technologies Corporation  .'
p9
aS'Analyst Upgrades  John Bean Technologies Corp  Stock Gets Upgraded ... Market Exclusive - Apr 10, 2017 On 2/17/2017 John Bean Technologies Corp announced a Quarterly dividend of $0.10 0.46% with an ex dividend date of 2/23/2017 which will be payable on 3/13/2017.John Bean Technologies  Was Upgraded by CL King; PG&amp;E  Shorts Raised ... - Key GazetteJohn Bean Technologies Corp  Receives $91.80 Consensus Target Price from ... - The Cerbat Gem'
p10
a.