(lp0
S"Why Lannett Company, Inc. Shares Got Pummeled Today Motley Fool - Oct 17, 2016 Lannett Company, Inc.  ended the day down almost 13% after the Food and Drug Administration proposed withdrawing a generic version of Johnson &amp; Johnson's  Concerta sold by Lannett's subsidiary Kremers Urban Pharmaceuticals."
p1
aS"Lannett Company, Inc. Stock Gained 25.2% Last Month: Here's Why Motley Fool - Aug 7, 2016 What: Shares of Lannett Company, Inc. , a midsized generic drugmaker, packed on 25.2% last month, according to data from S&amp;P Global Market Intelligence."
p2
aS'Why Lannett Company, Inc. Jumped Higher Today Motley Fool - Aug 24, 2016 What: Shares of Lannett Company  are up 14% at 12:54 p.m. EDT Wednesday after reporting solid fiscal fourth quarter earnings and guidance for its next fiscal year after the bell on Tuesday.Stock Earnings under Review: Lannett Company, Inc.  - Post Registrar'
p3
aS'Why is Lannett Company Inc  intrinsic value above its April share price? Simply Wall St - Apr 7, 2017 Does the April share price for Lannett Company  reflect its intrinsic value? I am going to calculate it now using a method called discounted cash flow or DCF.'
p4
aS'Lannett Voluntarily Pays Down Additional $25 Million Of Revolving Credit Facility PR Newswire  - Mar 30, 2017 PHILADELPHIA, March 30, 2017 /PRNewswire/ -- Lannett Company, Inc.  today announced that the company voluntarily made a $25 million payment against its existing revolving credit facility.Lannett Company, Inc.  Stock Rating Upgraded by Zacks Investment Research - Chaffey Breeze'
p5
aS'Lannett Announces Addition To Management Team PR Newswire  - Feb 23, 2017 PHILADELPHIA, Feb. 23, 2017 /PRNewswire/ -- Lannett Company, Inc.  today announced that Kristin A. Arnold, Ph.'
p6
aS'Lannett Voluntarily Pays Down $75 Million Of Revolving Credit Facility PR Newswire  - Jan 23, 2017 PHILADELPHIA, Jan. 23, 2017 /PRNewswire/ -- Lannett Company, Inc.  today announced that the company voluntarily made a $75 million payment against its existing revolving credit facility.'
p7
aS'Zacks Investment Research Downgrades Lannett Company, Inc.  to Hold BBNS - 3 hours ago Lannett Company, Inc. logo Zacks Investment Research lowered shares of Lannett Company, Inc.  from a buy rating to a hold rating in a research note released on Friday morning.Lannett Company  Receiving Positive News Coverage, AlphaOne Reports - The Cerbat Gem23 hedge funds buy Lannett Company, Inc.  for the first time - Post Analyst'
p8
aS"Lannett Company, Inc.  Reaches $25.15 After 4.00% Gap Down; Cantab ... Herald KS - 15 hours ago The stock of Lannett Company, Inc.  gapped down by $0.05 today and has $24.14 target or 4.00% below today's $25.15 share price."
p9
aS'Lannett Reports Fiscal 2017 Second-Quarter Financial Results PR Newswire  - Feb 1, 2017 PHILADELPHIA, Feb. 1, 2017 /PRNewswire/ -- Lannett Company, Inc.  today reported financial results for its fiscal 2017 second quarter ended December 31, 2016.'
p10
a.