(lp0
S'Lennar Corporation lowers first-quarter earnings after litigation charge MarketWatch - Apr 10, 2017 Lennar Corporation LEN, +0.97% said Monday that it recorded a one-time litigation charge of $140 million, relating to a property case from 2008, meaning the company has to restate its first quarter earnings.Lennar to restate earnings after losing $140M to lawsuit - South Florida Business JournalWedbush on Lennar Corporation  - Smrt Stck Nws'
p1
aS"Lennar Corporation Retreats From Recent Highs After Reporting Mixed Results Motley Fool - Mar 24, 2017 In this segment from Market Foolery, Chris Hill is joined by Bill Barker as they discuss what Lennar Corporation's  first quarter numbers say about the state of the housing market."
p2
aS'Lennar reports Q1 earnings down 9 percent The Real Deal Magazine - Mar 21, 2017 Miami-based homebuilder Lennar Corp. on Tuesday reported a 9 percent drop in first quarter earnings, but expressed optimism, saying the pace of home sales has picked up post-election.4 Reasons Why You Should Invest in Lennar Corporation  Right Now - Investorplace.comLENNAR CORPORATION  Files An 8-K Results of Operations and Financial ... - Market Exclusive'
p3
aS"Lennar Corp's  CEO Stuart Miller on Q1 2017 Results - Earnings Call ... Seeking Alpha - Mar 21, 2017 Welcome to Lennar's First Quarter Earnings Conference Call. [Operator Instructions]. Today's conference is being recorded."
p4
aS'Guess Who Picked Lennar Corporation  Shares Small Cap Exclusive  - Mar 29, 2017 For those not familiar with the company, Lennar Corporation is a provider of real estate related financial services, commercial real estate, investment management and finance company.Billionaire Investor Mario Gabelli Now Has His Sights Set on this Homebuilder - TheStreet.comFY2018 EPS Estimates for Lennar Co.  Increased by Analyst - The Cerbat Gem'
p5
aS"Technicals in Focus for Lennar Corporation  The USA Commerce - 17 hours ago We have gathered the technical data on Lennar Corporation , and see some interesting trends in the stock's behavior of late."
p6
aS'Where Lennar Corporation  is sitting on the technical charts? USA Commerce Daily - 20 hours ago With all other things going on, Lennar Corporation  has been on a run - rising 16.67 percent in just three months.'
p7
aS"Lennar Corporation  closed at $51.79 in the last trading session TopChronicle - 20 hours ago The share of Lennar Corporation  currently has a value of $51.79 while the company's 52 week low is at $39.65, the shares dropped to the 52 week low on 11/09/16.Breaking: Lennar Corporation  Stock Through Resistance -- Technicals ... - CML NewsThe Lennar Corporation  Earns Buy Rating from Analysts at BTIG Research - Petro Global News 24"
p8
aS"Analyst's Earnings Expectations: Lennar Corporation's  Is stories - 21 hours ago Lennar Corporation's  witnessed a gain of 0.97% in recent trading period with closing price of $ 51.79. The company's last traded volume of 2.6 million shares was more it's an average volume of 2.51 million shares."
p9
aS'Stock Recommendations &amp; Consensus on Lennar Corporation  The Herald - 14 hours ago Investors have the ability to follow analyst projections in order to help compile valuable information. Out of the 8 covering sell-side analysts giving share ratings for Lennar Corporation , 5 have pegged the stock as a Strong Buy while 1 ...'
p10
a.