(lp0
S'Market: The 4548 Shares in Lincoln National Corporation  Acquired by ... Petro Global News 24 - Jan 27, 2017 A number of other hedge funds also recently added to or reduced their stakes in the company. AGF Investments America Inc. acquired a new stake in Lincoln National Corporation during the second quarter valued at about $716,000. Chicago Equity Partners&nbsp;...'
p1
aS'Lincoln National Corporation  Ex-Dividend Date Scheduled for April 06, 2017 Nasdaq - Apr 5, 2017 Lincoln National Corporation  will begin trading ex-dividend on April 06, 2017. A cash dividend payment of $0.29 per share is scheduled to be paid on May 01, 2017.Lincoln National Corporation Posted gains of 1.8% in the Last Trade - Free ObserverWhere Lincoln National Corporation  Stands on Analytical Review Chart? - Post Registrar'
p2
aS'Technical Clues For Lincoln National Corporation  Investors USA Commerce Daily - 13 hours ago With all other things going on, Lincoln National Corporation  has been on a free fall - declining -4.55 percent in just three months.'
p3
aS"Stock Perspective: Lincoln National Corporation  Company Earnings Watch Aiken Advocate - Apr 16, 2017 Company earnings numbers are typically highly analyzed by investors and analysts alike. Earnings are important because they can provide insight into a company's profitability."
p4
aS"Analytical Guide for EQT Corporation , Lincoln National Corporation (LNC ... The USA Commerce - 20 hours ago Shares of EQT Corporation  dropped -1.17% to $62.62. During the trading on 04/13/2017, Company's stock ranged from $63.70 to $62.47."
p5
aS'The Consensus Has Spoken: Ratings update on Lincoln National Corporation (NYSE ... The Herald - Apr 15, 2017 Out of the 7 covering Street analysts offering stock ratings for Lincoln National Corporation , 1 have shares pegged as a Strong Buy while 1 analysts have the stock rated a Buy.'
p6
aS'Lincoln National Corporation  Moves Lower on Volume Spike for March 21 Equities.com - Mar 21, 2017 Lincoln National Corporation  traded on unusually high volume on Mar. 21, as the stock lost 5.28% to close at $63.50. On the day, Lincoln National Corporation saw 3.51 million shares trade hands on 32,507 trades. Considering that the stock ...'
p7
aS'Experts Analysis on Share Price: Lincoln National Corporation  Post Registrar - Apr 14, 2017 Lincoln National Corporation  plunged -1.16% during previous trade, a total of 1.53M shares exchanged hands compared with its average trading volume of 2.05M shares whereas its relative volume is 0.82.Lookout for this Stock: Lincoln National Corporation  - StandardOracle'
p8
aS'Market View: Watching the Numbers for Lincoln National Corporation  Searcy News - 18 hours ago Lincoln National Corporation  has an EV  of 16389643. Enterprise Value measures the complete value of a specific company.'
p9
aS"Lincoln National Corporation  Moves Lower on Volume Spike for March 22 Equities.com - Mar 22, 2017 Lincoln National Corporation  traded on unusually high volume on Mar. 22, as the stock lost 0.25% to close at $63.34. On the day, Lincoln National Corporation saw 2.92 million shares trade hands on 26,884 trades. Considering that the stock ...Equity Perception: Analyst's Indicator Review for TechnipFMC plc (FTI ... - The USA CommerceAll The Recent Sell-Side Sentiment On Lincoln National Corporation  and ... - USA Commerce Daily"
p10
a.