(lp0
S"Was LinnCo LLC's Exchange Offer Really a Success? Motley Fool - Apr 26, 2016 Matt DiLallo owns shares of LinnCo, LLC and LINN Energy, LLC. The Motley Fool has no position in any of the stocks mentioned.LINN Energy  Completes LINN Energy  Exchange Offer; Begins ... - StreetInsider.com"
p1
aS'LinnCo LLC  Surges as Momentum Shifts The Oracle Dispatch - Oct 19, 2016 LinnCo LLC  is an affiliate interest in Linn Energy, LLC, which is another victim of the oil bath that soaked the market from 2014 to earlier this year.What a Move on Linn Energy LLC - MicroCap DailyLinn Energy: Restructuring Plan Calls For Current Equity To Be Wiped Out - Seeking Alpha'
p2
aS'LinnCo LLC  Hangs in the Balance The Oracle Dispatch - Dec 2, 2016 LinnCo LLC  is, as we have noted in the past, an affiliate interest in Linn Energy, LLC, which is another one of the many victims of the oil glut that drowned the market from 2014 to earlier this year.'
p3
aS"3 Reasons LinnCo LLC's Stock Could Fall Motley Fool - Sep 9, 2014 Since going public in late 2012, shares of LinnCo LLC  have lost about 20% of their value. Even after factoring back in the $5.76 per share in dividends the company has paid investors since going public, those who bought shares around the&nbsp;..."
p4
aS'This Is What Fueled the Devastating 50% July Plunge of LINN Energy LLC and ... Motley Fool - Aug 4, 2015 What: July was an absolutely devastating month for investors in LINN Energy LLC  and LinnCo LLC  as both were off more than 50% for the month.'
p5
aS"LINNCO, LLC  Files An 8-K Termination of a Material Definitive ... Market Exclusive - Mar 3, 2017 LinnCo, LLC owns limited liability company interest in its affiliate, Linn Energy, LLC. Linn Energy, LLC's properties are located in over eight operating regions in the United States, such as Hugoton Basin, including properties located in Kansas, the ..."
p6
aS'LinnCo Announces Commencement of Exchange Offer GlobeNewswire  - Mar 22, 2016 HOUSTON, March 22, 2016  -- LinnCo, LLC   announced today that LinnCo has commenced an offer to exchange each outstanding unit of LINN Energy, LLC   for one LinnCo share&nbsp;...Linn Energy/LinnCo Exchange To Precede Bankruptcy - Seeking AlphaLinn Energy Exchange Offer May Avoid Tax Headache - TheStreet.com'
p7
aS'Linn Energy LLC  and LinnCo LLC  Receive NASDAQ Delisting Notification Smarter Analyst - May 23, 2016 Linn Energy LLC  and LinnCo LLC  announced that NASDAQ determined that LINN and LinnCo securities will be delisted from The NASDAQ Stock Market.LINN Energy and LinnCo Receive NASDAQ Delisting Notification - GlobeNewswire '
p8
aS"Important Issue Regarding Linn Energy's Bankruptcy Seeking Alpha - Jun 6, 2016 Linn Energy LLC , which now trades using LINEQ, and LinnCo LLC  filed to bankruptcy to enable a restructuring of its excessive debt."
p9
aS'Linn Energy LLC , LinnCo LLC  and Berry Petroleum Enter ... Smarter Analyst - May 12, 2016 Linn Energy LLC , LinnCo LLC  and Berry Petroleum Company, LLC announced that the Company has entered into a Restructuring Support Agreement with holders of at least 66.67% by aggregate outstanding principal&nbsp;...Linn Energy: Bankruptcy Blowout - Seeking AlphaLinn Energy files for Chapter 11 bankruptcy - MarketWatch'
p10
a.