(lp0
S'Why Lindsay Corporation, Extreme Networks, and Universal Display Jumped Today Motley Fool - Mar 30, 2017 But several individual stocks enjoyed more pronounced gains today, including Lindsay Corporation , Extreme Networks , and Universal Display Corporation .'
p1
aS"Lindsay Corporation Reports Fiscal 2017 Second Quarter Results Yahoo Finance - Mar 30, 2017 Lindsay Corporation , a leading provider of irrigation systems and infrastructure products, today announced results for its second quarter ended February 28, 2017.Lindsay Corporation  PT Raised to $76 at Stifel; Reiterates Hold - StreetInsider.comWhat are analysts saying about Lindsay Corporation's  future? - Simply Wall St"
p2
aS"Lindsay Corporation - Estimating Mid-Cycle Earnings For A Cyclical Business Seeking Alpha - May 9, 2016 Lindsay Corp.'s business is highly cyclical, and has spent the past several years enjoying record high profits. The last twelve months have seen operating profits fall more than 50% from the peak in 2013, and the business appear to be exiting the ..."
p3
aS"Lindsay Corporation's  CEO Richard Parod on Q4 2016 Results - Earnings ... Seeking Alpha - Oct 13, 2016 Good morning. My name is Karen, and I'll be your conference operator today. At this time, I would like to welcome everyone to the Lindsay Corporation Fiscal Fourth Quarter 2016 Earnings Call. All lines have been placed on mute to prevent any background&nbsp;...Omaha-based Lindsay Corp. sees rise in shares, profit margins - Omaha World-Herald"
p4
aS"Lindsay Corp. CEO plans to step down in December Omaha World-Herald - Feb 9, 2017 The head of Omaha agribusiness Lindsay Corp. will retire Dec. 1, and the company's board has launched a search for his replacement."
p5
aS'Lindsay Corporation Announces Fiscal 2017 Second Quarter Earnings Conference ... Business Wire  - Mar 20, 2017 OMAHA, Neb.----Lindsay Corporation , a leading provider of irrigation systems and infrastructure products, today announced it plans to release financial results for its fiscal 2017 second quarter ended February 28, 2017 ...'
p6
aS'Lindsay Corporation  Moves Higher on Volume Spike for March 17 Equities.com - Mar 17, 2017 Lindsay Corporation  traded on unusually high volume on Mar. 17, as the stock gained 1.42% to close at $82.85. On the day, Lindsay Corporation saw 183,543 shares trade hands on 995 trades. Considering that the stock averages only a daily volume&nbsp;...Next Weeks Broker Price Targets For Lindsay Corporation  - Fiscal Standard'
p7
aS"After Guardrail Crash, Questions of Safety in NY WGRZ.com - Mar 27, 2017 This article has been updated to reflect new legislation filed in the New York State Legislature. Lindsay Corporation has also issued an additional statement about its guardrail devices.State lawmaker wants to outlaw 'deadly' guardrails - News 10NBCTeen's Family Gets Bill to Repair Damage to Guardrail She Damaged in Fatal Car ... - Inside Edition"
p8
aS"Sell-side is Weighing in on Lindsay Corporation  Earnings Aiken Advocate - Apr 16, 2017 Investors and analysts will be looking ahead to Lindsay Corporation 's next earnings report which is slated to be released sometime on or around 2017-06-29 for the period ending on 2017-05-31."
p9
aS'Lindsay Chief Executive Officer, Rick Parod, Announces Intention to Retire Business Wire  - Feb 8, 2017 OMAHA, Neb.----Lindsay Corporation , a leading provider of irrigation systems and infrastructure products, announced today that its president and chief executive officer, Rick Parod, 63, has informed the Board of Directors of&nbsp;...'
p10
a.