(lp0
S"LogMeIn Completes Merger with Citrix's GoTo Business GlobeNewswire  - Feb 1, 2017 BOSTON, Feb. 01, 2017  -- LogMeIn, Inc.  announced the completion of its previously disclosed merger with Citrix Systems, Inc.'s  GetGo, Inc. subsidiary, a wholly owned subsidiary consisting of Citrix's&nbsp;...LogMeIn Completes Merger With Citrix - Retail TouchPoints  Citrix Completes Spin-Off and Merger of GoTo Family of Service Offerings with ... - Yahoo Finance"
p1
aS"LogMeIn Announces Merger with Citrix's GoTo Family of Products to Create ... GlobeNewswire  - Jul 26, 2016 BOSTON and SANTA CLARA, Calif., July 26, 2016  -- LogMeIn, Inc.  and Citrix Systems, Inc.  today announced that the companies have entered into a definitive merger agreement for LogMeIn to&nbsp;...Why LogMeIn, Inc. Shares Jumped Today - Motley FoolLogMein: The Mouse Is Swallowing The Cat - On Favorable Terms - Seeking Alpha"
p2
aS"LogMeIn Announces Stockholder Approval in Connection with Merger with Citrix's ... GlobeNewswire  - Jan 25, 2017 BOSTON, Jan. 25, 2017  -- LogMeIn, Inc.  today announced that at a special meeting of its stockholders, the proposal to approve the issuance of shares of LogMeIn common stock to equityholders of Citrix Systems, Inc."
p3
aS'Market Desk: Share Update for LogMeIn, Inc.  Baldwin Journal - 5 hours ago LogMeIn, Inc.  presently has an EV or Enterprise Value of 5400232. The EV helps show how the market assigns value to a company as a whole.'
p4
aS"LogMeIn: Log Me Out! Seeking Alpha - Feb 16, 2017 Shares of LogMeIn Inc  are up about 98% over the past 12 months and in this article I'm going to suggest reasons why it makes sense for current shareholders to sell and other investors to avoid the stock at these levels."
p5
aS'LogMein Inc.  Moves Higher on Volume Spike for April 07 Equities.com - Apr 7, 2017 LogMein Inc.  traded on unusually high volume on Apr. 07, as the stock gained 2.87% to close at $100.40. On the day, LogMein Inc. saw 1.25 million shares trade hands on 9,040 trades. Considering that the stock averages only a daily volume of&nbsp;...Stock Returns: LogMeIn Inc  is Beating Shutterstock Inc  - CML News$0.53 EPS Expected for LogMeIn Inc  This Quarter - The Cerbat Gem'
p6
aS"LogMeIn Announces New Board of Directors for Combined Company Following Merger ... GlobeNewswire  - Jan 6, 2017 BOSTON, Jan. 06, 2017  -- LogMeIn, Inc.  today named the nine directors who will serve on the Board of Directors for the combined company effective upon the close of its proposed merger with Citrix Systems, Inc.'s&nbsp;...Citrix Announces Details for Anticipated Completion of Spin-Off and Subsequent ... - Business Wire "
p7
aS"Here's Why LogMeIn Inc Shares Rose 32% in July Motley Fool - Aug 7, 2016 That's what happened in late July when LogMeIn  agreed to buy Citrix Systems'  GoTo business."
p8
aS'LogMeIn Completes SOC 2 Attestation Report GlobeNewswire  - Nov 21, 2016 BOSTON, Nov. 21, 2016  -- LogMeIn, Inc.  today announced the successful acquisition of a Service Organization Control  2 attestation report.'
p9
aS'Option Market Alert: LogMein Inc Implied Price Swing Hits An Inflection Point CML News - Apr 16, 2017 No Risk Alert Here: Before we dive into any analysis we simply note that LogMein Inc  risk is neither elevated nor depressed.'
p10
a.