(lp0
S"Why Did Macy's, Inc. Shares Lose 11% in March? Motley Fool - Apr 7, 2017 Macy's  shareholders need some good news, and they didn't get it in late February when the company reported fourth-quarter and full-year results."
p1
aS"Macy's, Inc. Should Be Able to Reduce Its Debt Quickly in 2017 Motley Fool - Apr 6, 2017 After spending huge sums of money on share repurchases in recent years, Macy's  has indicated that it will focus on reducing its debt in 2017."
p2
aS"Sales slump didn't prevent raises for Macy's Inc. bosses WCPO - Apr 3, 2017 CINCINNATI - Macy's Inc. paid Terry Lundgren $12.1 million in his last full year as CEO, a 4.7 percent increase over last year."
p3
aS"Better Buy: JC Penney Company, Inc. vs. Macy's Motley Fool - Apr 10, 2017 At first glance, JCPenney  and Macy's  both look like awful investments. JCPenney stock plunged more than 40% over the past 12 months, and Macy's stock declined nearly 30%. Both department stores were hit hard by e-commerce&nbsp;..."
p4
aS"The Chart Is Speaking Loud And Clear For Macy's, Inc.  NY Stock News - 16 hours ago Macy's, Inc.  has been having a set of eventful trading activity and it is clear from an examination of the charts that traders are now fully aware of the company's key metrics."
p5
aS"Macy's, Inc. Board of Directors Elects Jeff Gennette Chief Executive Officer Yahoo Finance - Mar 23, 2017 Macy's, Inc.  today announced that its board of directors has unanimously elected Jeff Gennette chief executive officer, effective today.What We Know About Macy's New CEO Jeff Gennette - BenzingaWhy Is Macy's  Down 12.3% Since the Last Earnings Report? - Zacks.com"
p6
aS"Macy's: Needs To Do More Seeking Alpha - Mar 21, 2017 It used to be that if you're in New York City for the first time as a tourist, you must go to see Macy's Inc.'s  flagship store, Macy's Herald Square at West 34th Street and Broadway."
p7
aS"Drilling Down Into Macy's, Inc.  StockNewsJournal - 15 hours ago Macy's, Inc.  is an interesting player in the Services space, with a focus on Department Stores. The stock has been active on the tape, currently trading at $29.17, up from yesterday's close by 0.00%."
p8
aS"Is This Retailer Worth More Than Its Stock Price? Seeking Alpha - Apr 3, 2017 Macy's, Inc., together with its subsidiaries, operates stores, websites, and mobile applications. Its stores and websites sell a range of merchandise, including apparel and accessories for men, women, and children; cosmetics; home furnishings; and ..."
p9
aS"Macy's: Starboard's Trash Can Be Your Treasure Seeking Alpha - Mar 19, 2017 Activist Starboard Value exits their position in Macy's. The stock has fallen significantly over the last 2 years. But if you haven't been along for the ride, and if you haven't considered the thesis, &quot;it's new to you&quot;."
p10
a.