(lp0
S"MercadoLibre Inc's Massive Growth Potential in 4 Charts Motley Fool - Feb 14, 2017 As the chart below shows, Mercadolibre has consistently grown its user base over the last five years, increasing its users annually by 22% on average."
p1
aS'MercadoLibre, Inc. Reports Fourth Quarter and Full Year 2016 Financial Results GlobeNewswire  - Feb 23, 2017 Pedro Arnt, Chief Financial Officer of MercadoLibre, Inc., commented, Last year was one of our most significant in terms of the tangible results of the quality work and level of execution that the entire team at MELI delivered.Mercadolibre Inc : Is it a good long term opportunity? - Simply Wall StMercadolibre Inc  Releases Earnings Results, Beats Expectations By $0.23 EPS - Highland Mirror'
p2
aS'Is MercadoLibre Inc  Worth Its Current Price? Simply Wall St - Mar 19, 2017 MercadoLibre Inc  has been on a steady uptrend this year, returning an impressive 35.32% year-to-date. The online marketplace, headquartered in Buenos Aires, Argentina, is one of the largest e-commerce platforms in Latin America and has&nbsp;...1 Key Reason MercadoLibre Shares Nearly Doubled in a Year - Motley FoolMercadolibre Inc Announces Quarterly Dividend of $0.15  - BBNS'
p3
aS'Is Mercadolibre Inc. a Buy? Motley Fool - Apr 29, 2016 Shares of Latin American e-commerce giant Mercadolibre  are on a nice run of late, up about 30% over the past three months .'
p4
aS'MercadoLibre, Inc. Announces Pricing of Follow-on Offering by Stockholders GlobeNewswire  - Oct 14, 2016 BUENOS AIRES, Argentina, Oct. 13, 2016  -- MercadoLibre, Inc. , a leading Latin American e-commerce technology company, announced today the pricing of an underwritten public offering of 7,100,000 shares of its&nbsp;...EBay to Raise More Than $1 Billion Selling Stake in MercadoLibre - BloombergEbay to sell stake in MercadoLibre - Seeking Alpha'
p5
aS'MercadoLibre: A Unique Growth Opportunity Seeking Alpha - Feb 8, 2017 MercadoLibre  is the undisputed e-commerce leader in Latin America, and the company is growing at an impressive speed.'
p6
aS'Are These Analysts Making the Right Call on MercadoLibre Inc? Motley Fool - Feb 13, 2017 MercadoLibre has historically exhibited strong growth in non-financial metrics, while falling victim to currency translation.'
p7
aS'MercadoLibre Inc. - The Strongest Player In The Industry Seeking Alpha - May 10, 2016 MercadoLibre Inc.  hosts an online commerce platform in Latin America, which is focused on enabling e-commerce and its related services.'
p8
aS'MercadoLibre, Inc.  Ex-Dividend Date Scheduled for March 29, 2017 Nasdaq - Mar 28, 2017 MercadoLibre, Inc.  will begin trading ex-dividend on March 29, 2017. A cash dividend payment of $0.15 per share is scheduled to be paid on April 17, 2017.Barclays PLC Initiates Coverage on Mercadolibre Inc  - The Cerbat GemMercadolibre Inc  VP Stelleo Tolda Sells 2000 Shares - Sports Perspectives'
p9
aS'MercadoLibre, Inc. to Report Second Quarter 2016 Financial Results GlobeNewswire  - Jul 28, 2016 BUENOS AIRES, Argentina, July 28, 2016  -- MercadoLibre, Inc.  (http://www.mercadolibre.'
p10
a.