(lp0
S'Market: The Maria R. Morris Buys 400 Shares of S&amp;P Global Inc.  Stock Petro Global News 24 - Jan 27, 2017 S&amp;P Global Inc.  opened at 121.12 on Friday. The stock has a market capitalization of $31.38 billion, a price-to-earnings ratio of 17.86 and a beta of 1.45.'
p1
aS'Market: The S&amp;P Global Inc.  Plans Dividend Increase  $0.41 Per Share Petro Global News 24 - Jan 26, 2017 S&amp;P Global Inc.  announced a quarterly dividend on Thursday, January 26th. Investors of record on Friday, February 24th will be paid a dividend of 0.41 per share on Friday, March 10th.'
p2
aS'The Diageo plc  PT Set at GBX 2550 by S&amp;P Global Inc. Petro Global News 24 - Jan 30, 2017 Several other brokerages also recently weighed in on DGE. Liberum Capital assumed coverage on shares of Diageo plc in a research note on Monday, October 3rd.'
p3
aS'S&amp;P Global Inc  Upgraded at Raymond James Financial, Inc. The Cerbat Gem - 19 hours ago S&amp;P Global Inc  was upgraded by research analysts at Raymond James Financial, Inc. from a market perform rating to an outperform rating in a research note issued on Monday.S&amp;P Global Inc  Stake Held by CGOV Asset Management - Markets DailyBrokerages Set S&amp;P Global Inc  Target Price at $138.75 - Sports Perspectives'
p4
aS'Traders Take Note: SandP Global Inc  Stock Drops, Weakness in ... CML News - 21 hours ago Take Note: S&amp;P Global Inc  has hit some technical weakness in its momentum, and while it has not broken down all the way through support -- watch the key levels that we discuss below and further, watch the stochastics and technical ...'
p5
aS'S&amp;P Global Inc  Given Average Recommendation of &quot;Buy&quot; by Brokerages The Cerbat Gem - Apr 14, 2017 S&amp;P Global logo S&amp;P Global Inc  has been given a consensus recommendation of Buy by the eight analysts that are currently covering the stock.Integrated Wealth Management Has $1608000 Position in S&amp;P Global Inc  - Markets DailyPrivate Trust Co. NA Has $563000 Position in S&amp;P Global Inc  - Community Financial News'
p6
aS"S&amp;P Global Inc  Receives Average Recommendation of &quot;Buy&quot; from Analysts The Cerbat Gem - Apr 12, 2017 S&amp;P Global logo S&amp;P Global Inc  has received an average rating of Buy from the eight ratings firms that are covering the stock.Today's Brokerage Rating: General Dynamics Corporation , S&amp;P Global Inc ... - StockNewsJournalS&amp;P Global Inc  Upgraded to Buy by Zacks Investment Research - Sports Perspectives"
p7
aS'S&amp;P Global Inc  Upgraded to &quot;Buy&quot; by Zacks Investment Research The Cerbat Gem - Apr 11, 2017 S&amp;P Global logo S&amp;P Global Inc  was upgraded by Zacks Investment Research from a hold rating to a buy rating in a note issued to investors on Tuesday.How Does S&amp;P Global Inc.  Stack Up Right Now? - StockNewsJournalS&amp;P Global Inc.  from Business Services  Todays Top Gains - Twin County News'
p8
aS'US LNG Positioned for Anchor Role in Global Markets: S&amp;P Global Platts PR Newswire  - Mar 22, 2017 HOUSTON, March 22, 2017 /PRNewswire/ -- The U.S. shale revolution and resulting increased exports of U.S. liquefied natural gas  has positioned the U.S.ICE, S&amp;P to Launch LNG Derivative Contracts - Wall Street Journal ICE to offer first US Gulf Coast LNG futures contract - Yahoo Finance'
p9
aS'S&amp;P Global Inc.  Moves Higher on Volume Spike for March 22 Equities.com - Mar 22, 2017 S&amp;P Global Inc.  traded on unusually high volume on Mar. 22, as the stock gained 0.23% to close at $128.49. On the day, S&amp;P Global Inc. saw 2.04 million shares trade hands on 17,353 trades. Considering that the stock averages only a daily volume ...Large Inflow of Money Witnessed in S&amp;P Global Inc.  - Highland MirrorDodge &amp; Cox Buys New Position in S&amp;P Global Inc  - Chaffey Breeze'
p10
a.