(lp0
S'The The Middleby Corporation  Stake Decreased by Boston Family Office LLC Petro Global News 24 - Jan 31, 2017 Other hedge funds and other institutional investors also recently added to or reduced their stakes in the company. Artisan Partners Limited Partnership boosted its position in The Middleby Corporation by 171.0% in the second quarter. Artisan Partners ...'
p1
aS'The Middleby Corporation Acquires Lynx Grills PR Newswire  - Dec 16, 2015 DOWNEY, Calif., Dec. 15, 2015 /PRNewswire/ -- The Middleby Corporation  announced today that it has acquired the privately held Lynx Grills, Inc.  from Century Park Capital Partners, LLC.Middleby Buys Lynx Grills - Twice'
p2
aS'Middleby Corp.  Poised to Grow Amid Macro Headwinds Nasdaq - Mar 2, 2017 We issued an updated research report on the premium diversified machinery company Middleby Corp. MIDD on Mar 2, 2017. Over the last one month, shares of this Zacks Rank #3  yielded a 6.55% return - outperforming the gain of 2.09% provided by&nbsp;...Middleby Corp  Releases Earnings Results, Beats Expectations By $0.14 EPS - Highland Mirror'
p3
aS'Middleby: Buy It And Forget It Seeking Alpha - Feb 3, 2017 The Middleby Corporation  designs, manufactures, distributes, and services a broad line of foodservice equipment used in commercial, institutional, and residential markets.'
p4
aS'The Middleby Corporation to Acquire Follett Corporation Business Wire  - May 18, 2016 ELGIN, Ill.----The Middleby Corporation  today announced the acquisition of Follett Corporation, a leading manufacturer of ice machines, ice and water dispensing equipment, ice storage and transport products and medical&nbsp;...Forks Township manufacturer acquired by Illinois company - Allentown Morning Call'
p5
aS'Middleby - Viking Acquisition Turned Around Seeking Alpha - Aug 11, 2016 The next stock GameDay Trades would like to serve up is food equipment maker, Middleby Corp. . This report was actually ready to release earlier this week but when the company changed their earnings release date from the 8th to the 10th&nbsp;...'
p6
aS'Middleby Corp  Getting Somewhat Favorable News Coverage, Study Shows The Cerbat Gem - Apr 9, 2017 Middleby Corp logo Media headlines about Middleby Corp  have trended somewhat positive this week, according to Alpha One Sentiment.Middleby Corp  Receives Consensus Recommendation of Hold from Brokerages - Markets DailyThe Middleby Corp  Receives Average Recommendation of Hold from Analysts - Petro Global News 24'
p7
aS'Middleby Corp  Stake Lowered by Orrstown Financial Services Inc. The Cerbat Gem - Apr 12, 2017 Middleby Corp logo Orrstown Financial Services Inc. reduced its position in Middleby Corp  by 16.8% during the first quarter, according to its most recent filing with the Securities and Exchange Commission.Foundry Partners LLC Sells 677 Shares of Middleby Corp  - BNB Daily Chesapeake Lodging Trust  Analysts See $0.36 EPS, Middleby  Shorts ... - Herald KS'
p8
aS'Insider Trading Activity Middleby Corp   Director Sold 2199 ... Market Exclusive - Mar 10, 2017 On 8/9/2012 Timothy John Fitzgerald, CFO, sold 9,000 with an average share price of $108.00 per share and the total transaction amounting to $972,000.00.'
p9
aS'Middleby Corp  Expected to Announce Earnings of $1.16 Per Share The Cerbat Gem - Apr 14, 2017 Middleby Corp logo Wall Street brokerages predict that Middleby Corp  will report $1.16 earnings per share  for the current fiscal quarter, Zacks reports.Middleby Corp  Earning Somewhat Positive Press Coverage, AlphaOne Reports - Sports Perspectives'
p10
a.