(lp0
S'MarketAxess: Credit Trading Needs To Be Disrupted Seeking Alpha - Apr 12, 2017 Its market share gain from 1% to 16.5% is the best proof of its solution. However, I think the market is not pricing all the potential.'
p1
aS"MarketAxess Holdings Inc. Earnings Surge 36% Motley Fool - Oct 28, 2016 The scalability of MarketAxess' platform was fully visible in the third quarter: A 13.1% increase in total expenses to $43.9 million -- due mostly to higher employee compensation costs -- trailed revenue growth."
p2
aS"What to Watch When MarketAxess Holdings Inc. Reports Earnings Motley Fool - Apr 26, 2016 The more dealers that join MarketAxess' platform, the more bonds are available for trading and the tighter the spreads."
p3
aS'MarketAxess Holdings Inc.  Cut to &quot;Hold&quot; at Zacks Investment Research Sports Perspectives - 1 hour ago MarketAxess Holdings Inc.  was downgraded by Zacks Investment Research from a strong-buy rating to a hold rating in a research report issued to clients and investors on Tuesday.Market Desk: Stock Update for MarketAxess Holdings Inc.  - Baldwin JournalZacks Investment Research Upgrades MarketAxess Holdings Inc.  to &quot;Hold&quot; - The Cerbat Gem'
p4
aS'MarketAxess Holdings Inc. Delivers 28% Revenue Growth Motley Fool - Jul 29, 2016 MarketAxess Holdings  reported second-quarter results on July 28. Revenue surged 28% year over year to $96.6 million as the electronic bond-trading network enjoyed record trading across all of its core product lines.'
p5
aS'Share Gains Boost MarketAxess Holdings Inc. Earnings Motley Fool - Apr 28, 2016 MarketAxess Holdings  reported first-quarter results on April 27. Revenue leapt 15.4% year over year to $88.6 million, as the electronic bond-trading network enjoyed record trading across all of its core product lines.'
p6
aS"MarketAxess Holdings Inc.  Moves Lower on Volume Spike for April 05 Equities.com - Apr 5, 2017 MarketAxess Holdings Inc.  traded on unusually high volume on Apr. 05, as the stock lost 3.1% to close at $180.10. On the day, MarketAxess Holdings Inc. saw 412,465 shares trade hands on 4,249 trades. Considering that the stock averages only a&nbsp;...MarketAxess Holdings'  Buy Rating Reaffirmed at Keefe, Bruyette &amp; Woods - Sports PerspectivesFirst Republic Investment Management Inc. Buys 39 Shares of MarketAxess ... - Community Financial News"
p7
aS'MarketAxess Appoints Christophe Roupie as Head of Europe and Asia GlobeNewswire  - Feb 27, 2017 LONDON, Feb. 27, 2017  -- MarketAxess Holdings Inc. , the operator of a leading electronic trading platform for fixed-income securities, and the provider of market data and post-trade services for the global fixed income&nbsp;...MarketAxess Holdings Taps Christophe Roupie as its Head of Europe and Asia - Finance MagnatesMOVES-Marketaxess names Christophe Roupie head of Europe, Asia - Reuters'
p8
aS'Record Trading Volume Fuels MarketAxess Holdings Inc. Earnings Motley Fool - Jan 27, 2016 MarketAxess again benefited from its operating leverage during the fourth quarter, as an 8.1% increase in total expenses to $39.7 million -- due mostly to higher employee compensation costs -- trailed revenue growth.'
p9
aS"Why You Should Buy MarketAxess Holdings  Stock Now February 22, 2017 Zacks.com - Feb 22, 2017 Shares of MarketAxess Holdings Inc.  surged 67.2% in a year's time, significantly outperforming the 27.8% gain for the Zacks categorized Securities Exchanges industry."
p10
a.