(lp0
S'Market: The Wrapmanager Inc. Buys Shares of 8216 Mercury Systems Inc  Petro Global News 24 - Jan 25, 2017 A number of other large investors also recently modified their holdings of MRCY. Neuberger Berman Group LLC boosted its stake in shares of Mercury Systems by 0.5% in the third quarter. Neuberger Berman Group LLC now owns 1,700,102 shares of the&nbsp;...'
p1
aS'Market: The Jefferies Group LLC Raises Mercury Systems Inc  Price Target ... Petro Global News 24 - Jan 27, 2017 Several other equities research analysts also recently commented on the company. SunTrust Banks, Inc. assumed coverage on Mercury Systems in a report on Thursday, January 19th. They set a buy rating and a $36.00 target price for the company.'
p2
aS'Market: The Mercury Systems Inc  Trading Up -2.6% Following Analyst Upgrade Petro Global News 24 - Jan 25, 2017 Several other analysts have also weighed in on MRCY. SunTrust Banks, Inc. began coverage on Mercury Systems in a report on Thursday, January 19th.'
p3
aS'Mercury Systems makes third big acquisition in the past year Boston Business Journal - Apr 4, 2017 Andover-based Mercury Systems Inc., which provides electronic technologies to the defense industry, has acquired California-based Delta Microwave for $40.5 million, continuing an acquisition spree that stretches back more than a year.'
p4
aS'Mercury Systems Receives $4M High Density Secure Memory Order for Military ... Nasdaq - Apr 13, 2017 ANDOVER, Mass., April 13, 2017  -- Mercury Systems, Inc.   announced it received a $4M follow-on order from a leading defense prime contractor for high density secure memory devices deployed in an&nbsp;...Mercury Systems  Secures $4M Memory Order for Military Avionics Application - StreetInsider.comThe Top Three Holders Of Mercury Systems, Inc.  - Post Analyst'
p5
aS"Mercury Systems Inc  Given Hold Rating at Jefferies Group LLC The Cerbat Gem - 3 hours ago Mercury Systems logo Mercury Systems Inc 's stock had its hold rating reaffirmed by equities research analysts at Jefferies Group LLC in a research report issued to clients and investors on Monday.What's Happening To These Stocks? - Mercury Systems, Inc. , iStar Inc ... - Post AnalystZacks Investment Research Upgrades Mercury Systems Inc  to Buy - Sports Perspectives"
p6
aS"Defense Industry's First 8GB DDR3 High Density Secure Memory Device Introduced ... GlobeNewswire  - Mar 23, 2017 ANDOVER, Mass., March 23, 2017  -- Mercury Systems, Inc.  , announced volume production of its newest high density secure memory device, embedding 8GB of double data rate third-generation&nbsp;...Mercury Systems Inc - Receive News &amp; Ratings Daily - BBNS"
p7
aS'Mercury Systems to Report Third Quarter Fiscal 2017 Financial Results on April ... Yahoo Finance - Apr 11, 2017 To learn more, visit www.mrcy.com. Mercury Systems and Innovation That Matters are trademarks of Mercury Systems, Inc. Other product and company names mentioned may be trademarks and/or registered trademarks of their respective holders.The Mercury Systems Inc  Expected to Announce Earnings of $0.14 Per Share - Petro Global News 24'
p8
aS'Mercury Systems Acquires Delta Microwave GlobeNewswire  - Apr 3, 2017 ANDOVER, Mass., April 03, 2017  -- Mercury Systems, Inc.  , today announced that it has acquired Delta Microwave, LLC .Mercury Systems  to Acquire Delta Microwave fro $40.5M in Cash - StreetInsider.comMercury Systems Inc  Plunges 5.22% on April 03 - Equities.com'
p9
aS'Mercury Systems Completes Previously Announced Acquisition of Creative ... GlobeNewswire  - Nov 4, 2016 The Company undertakes no obligation to update any forward-looking statement to reflect events or circumstances after the date on which such statement is made.'
p10
a.