(lp0
S'Cash Dividend On The Way From MSC Industrial Direct  Nasdaq - Apr 11, 2017 Looking at the universe of stocks we cover at Dividend Channel , on 4/13/17, MSC Industrial Direct Co Inc  will trade ex-dividend, for its quarterly dividend of $0.45, payable on 5/2/17.MSC Industrial Direct Co. Inc.: MSC Reports Fiscal 2017 Second Quarter Results - The Wall Street TranscriptMSC Industrial Direct Co., Inc.  Files An 8-K Results of Operations ... - Market Exclusive'
p1
aS"What Type of Consensus Views Analysts hold about MSC Industrial Direct Co ... Hot Stocks Point - 18 hours ago USA based company, MSC Industrial Direct Co., Inc. 's latest closing price distance was 4.81% from the average-price of 200 days while it maintained a distance from the 50 Day Moving Average at -12.39% and -10.55% compared with the 20 Day&nbsp;...MSC Industrial Direct Co Inc  Shares Sold by American Research ... - The Cerbat GemMSC Industrial Direct Co Inc  Downgraded by Zacks Investment Research - Markets Daily"
p2
aS"MSC Industrial Direct Co., Inc.  Short Interest Update Midway Monitor - 12 hours ago Investors are looking at MSC Industrial Direct Co., Inc. 's short data, trying to figure out market sentiment on which way the market thinks the stock is moving."
p3
aS'MSC Industrial Direct Company Inc.  Moves Lower on Volume Spike for April 13 Equities.com - Apr 13, 2017 MSC Industrial Direct Company Inc.  traded on unusually high volume on Apr. 13, as the stock lost 1.71% to close at $89.23.Drilling Down Into MSC Industrial Direct Co., Inc.  - StockNewsJournalHow much upside really exists in NOW Inc.  and MSC Industrial Direct Co ... - USA Commerce Daily'
p4
aS'Market Focus: Zooming in on Shares of MSC Industrial Direct Co., Inc.  Baldwin Journal - 5 hours ago MSC Industrial Direct Co., Inc.  has a current EV or Enterprise Value of 5629719. The EV displays how the market assigns value to a firm as a whole.'
p5
aS'Traders Take Note: MSC Industrial Direct Co. Inc  Stock Drops ... CML News - 22 hours ago Take Note: MSC Industrial Direct Co. Inc  has hit some technical weakness in its momentum, and while it has not broken down all the way through support -- watch the key levels that we discuss below and further, watch the stochastics and&nbsp;...'
p6
aS"MSC Industrial Direct  Q4 2016 Results - Earnings Call Transcript Seeking Alpha - Nov 1, 2016 John G. Chironna - MSC Industrial Direct Co., Inc. Thank you, and good morning, everyone. I'd like to welcome you to our fiscal 2016 fourth quarter and full year conference call.MSC Sales Down 1.6% in Fiscal 2016 - Modern Distribution Management"
p7
aS"MSC Industrial Direct Co.: Near-Term Pain, Long-Term Gain? Motley Fool - Oct 31, 2015 Anyone with lingering doubts that the manufacturing sector is in a slowdown need only take a look at MSC Industrial Direct's  fiscal fourth-quarter results, which were released on Tuesday. Just as rival W.W. Grainger  indicated in&nbsp;..."
p8
aS"MSC Industrial Direct: A Metalworking Supply Company Seeking Alpha - Aug 4, 2016 (This post is a reprint of one of the nine sections that make up last month's Singular Diligence issue on MSC Industrial Direct."
p9
aS"MSC Industrial's Struggles Shouldn't Be Ignored Seeking Alpha - Jul 13, 2016 As of this summer, I've been following MSC Industrial  in one capacity or another for 20 years. That's a long time to pay attention to any one company, but throughout that time I have been impressed with MSC Industrial's business plan and the&nbsp;..."
p10
a.