(lp0
S'The Meritor, Inc.  Set to Announce Earnings on Wednesday Petro Global News 24 - Feb 5, 2017 Meritor, Inc.  is set to announce its Q117 earnings results on Wednesday, February 1st. Analysts expect the company to announce earnings of $0.19 per share and revenue of $721.43 million for the quarter.'
p1
aS"Meritor Hosts Conference Call and Webcast to Present Fiscal Year 2017 Second ... PR Newswire  - Mar 31, 2017 TROY, Mich., April 4, 2017 /PRNewswire/ -- Meritor, Inc.  will host a conference call and webcast to discuss the company's second-quarter results for fiscal year 2017 on Wednesday, May 3 at 10 a.m."
p2
aS"Meritor, Inc. Announces Conversion Option for 7.875% Convertible Senior Notes ... PR Newswire  - Mar 31, 2017 TROY, Mich., March 31, 2017 /PRNewswire/ -- Meritor, Inc.  today announced that it is notifying holders of its 7.875% Convertible Senior Notes due 2026  that they are entitled to convert all or a portion of their Notes at any ...Meritor Inc  Receives $14.00 Average PT from Analysts - The Cerbat GemNoteworthy Stock to Observe: Meritor, Inc.'s  - Is stories"
p3
aS'Meritor Announces P600 Series Tridem Heavy-Haul Planetary Axle for Severe ... PR Newswire  - Mar 7, 2017 TROY, Mich., March 7, 2017 /PRNewswire/ -- Meritor, Inc.  today announced at CONEXPO-CON/AGG 2017 the introduction of its new P600 Series Tridem Heavy-Haul Planetary Axle for heavy-duty, long-haul, oil field, mining and logging&nbsp;...Meritor introduces 14X HE line-haul tandem axle - Fleet Equipment Magazine'
p4
aS'Meritor Virtual Reality App Showcases Advanced Product Solutions from Meritor PR Newswire  - Jan 24, 2017 Meritor, Inc. is a leading global supplier of drivetrain, mobility, braking and aftermarket solutions for commercial vehicle and industrial markets.'
p5
aS'Meritor Expands FastSet No-Ream King Pin Kit Product Line PR Newswire  - Jan 24, 2017 Meritor, Inc. is a leading global supplier of drivetrain, mobility, braking and aftermarket solutions for commercial vehicle and industrial markets.'
p6
aS"Meritor EX+L Air Disc Brakes Available on Navistar's International Trucks ... PR Newswire  - Feb 27, 2017 Meritor, Inc. is a leading global supplier of drivetrain, mobility, braking and aftermarket solutions for commercial vehicle and industrial markets.Meritor Launches New Tandem Drive Axle - Transport Topics OnlineMeritor unveils new high-efficiency tandem drive axle - Truck News"
p7
aS'Doctor Preload Distributed by Meritor Named No. 1 Tool by Shop Owners and ... PR Newswire  - Jan 24, 2017 Meritor, Inc. is a leading global supplier of drivetrain, mobility, braking and aftermarket solutions for commercial vehicle and industrial markets.'
p8
aS"Meritor Launches New Global Brand Identity as Company Focuses on Strategic Growth PR Newswire  - Oct 3, 2016 TROY, Mich., Oct. 3, 2016 /PRNewswire/ -- Meritor, Inc.  today announced the launch of its new brand identity &quot;Run With The Bull,&quot; which reinforces the company's increased emphasis on sustainable growth."
p9
aS"Meritor Earns Diamond Supplier Award from Navistar PR Newswire  - Feb 20, 2017 TROY, Mich., Feb. 20, 2017 /PRNewswire/ -- Meritor, Inc.  announced today that it was among 34 suppliers to earn Navistar's Diamond Supplier Award, which recognizes the top 2 percent of Navistar's supply chain."
p10
a.