(lp0
S"BRIEF-NBT Bancorp Inc's unit acquired Downeast Pension Services Reuters - Apr 3, 2017 LIMA, April 15 Peru's copper production rose by 5.42 percent in February from the same month a year earlier, the slowest growth rate in two years as the Andean country wrestles with infrastructure damage caused by torrential rains, official data showed ..."
p1
aS'NBT Bancorp Inc. Successfully Closes Merger With Alliance Financial Corporation GlobeNewswire  - Mar 8, 2013 NORWICH, N.Y., March 8, 2013  -- NBT Bancorp Inc.   announced today the successful closing of its previously announced merger with Alliance Financial Corporation  .'
p2
aS'Peoples Financial Services CORP. Lowers Stake in NBT Bancorp Inc.  Markets Daily - 14 hours ago NBT Bancorp logo Peoples Financial Services CORP. decreased its stake in NBT Bancorp Inc.  by 49.3% during the first quarter, according to its most recent disclosure with the Securities and Exchange Commission.Stock Returns: ConnectOne Bancorp Inc  is Beating NBT Bancorp Inc ... - CML News'
p3
aS'Technical Study: Following Indicators for NBT Bancorp Inc  Midway Monitor - 16 hours ago The 14-day ADX for NBT Bancorp Inc  is currently 35.05. Many chart analysts believe that an ADX reading over 25 would suggest a strong trend.'
p4
aS'NBT Bancorp Inc. Elects New Chairman, Announces Succession Plan And Expanded ... GlobeNewswire  - May 4, 2016 NORWICH, N.Y., May 04, 2016  -- The Board of Directors of NBT Bancorp Inc.   elected President and CEO Martin A. Dietrich to the position of chairman on May 3, 2016, following the retirement of Daryl R. Forsythe.'
p5
aS'NBT Bancorp Inc.  Moves Lower on Volume Spike for March 21 Equities.com - Mar 21, 2017 NBT Bancorp Inc.  traded on unusually high volume on Mar. 21, as the stock lost 5.66% to close at $37.84. On the day, NBT Bancorp Inc. saw 176,109 shares trade hands on 2,319 trades. Considering that the stock averages only a daily volume of&nbsp;...'
p6
aS"Stock Returns: NBT Bancorp Inc  versus People's United Financial ... CML News - Mar 23, 2017 This is a snapshot to compare the stock returns for NBT Bancorp Inc  versus People's United Financial Inc  ."
p7
aS'Stock Returns: NBT Bancorp Inc  versus United Bankshares Inc ... CML News - Apr 5, 2017 This is a snapshot to compare the stock returns for NBT Bancorp Inc  versus United Bankshares Inc  .'
p8
aS'Sheets Smith Wealth Management Holds Stake in NBT Bancorp Inc.  BNB Daily  - Apr 15, 2017 NBT Bancorp logo Sheets Smith Wealth Management held its position in shares of NBT Bancorp Inc.  during the first quarter, Holdings Channel reports.'
p9
aS'Stock Returns: NBT Bancorp Inc  is Beating Opus Bank  CML News - Mar 20, 2017 This is a snapshot to compare the stock returns for NBT Bancorp Inc  versus Opus Bank  . The stock return points we compare look at the last three-months, six-months and twelve-months.NBT Bancorp Inc.  Broker Price Targets For The Coming Week - Fiscal Standard'
p10
a.