(lp0
S'Nike Inc.  Closes 1.63% Up on the Day for April 17 Equities.com - 12 hours ago Shares of Nike Inc.  ended the trading day Monday at $56.24, representing a move of 1.63%, or $0.9 per share, on volume of 7.64 million shares.NIKE, Inc. declined in the Previous Trading Session with the Change of -0.41% - Free ObserverCastleark Management LLC Continues to Hold Position in Nike Inc  - The Cerbat Gem'
p1
aS"Earnings Preview: All Eyes On Nike's Sales Growth Benzinga - Mar 21, 2017 Nike Inc  is scheduled to report Q3 earnings on Tuesday after market close. After hitting a record high in 2015, Nike was the worst-performing stock in the Dow  in 2016 and was down 18.67% versus the S&amp;P 500's  11.96% positive&nbsp;...NIKE, Inc. Reports Fiscal 2017 Third Quarter Results - Yahoo Finance"
p2
aS"Nike Inc Will Be Just Fine Motley Fool - Mar 30, 2017 Nike Inc.  shares tumbled following the company's earnings report last week. The 7% drop was the worst day for the sneaker king in nearly five years.Nike Inc.  Closes 0.55% Down on the Day for March 31 - Equities.comNike - I See A Lot To Like Despite Margin Compression - Seeking Alpha"
p3
aS'Complete Analysis of: NIKE, Inc.  StandardOracle - 23 hours ago NIKE, Inc.  plummeted -0.41 percent and ended the day at $55.34. The Average Volume of the company is 9.25 Million and P/E  ratio is 23.11, while Forward P/E ratio is 21.58.'
p4
aS"Better Buy: Nike Inc. vs. Under Armour Inc. Motley Fool - Apr 6, 2017 But over the past three years, shares of Under Armour have lost more than half their value, while shares of Nike rallied nearly 50% -- making the &quot;next Nike&quot; a much worse investment than the &quot;original&quot; one. Will that trend continue this year? Let's ...Nike's 2020 Revenue Goal - Should It Consider Buying Under Armour? - Seeking AlphaNike Inc.  Closes 0.29% Up on the Day for April 06 - Equities.com"
p5
aS"Better Buy: Walt Disney Co vs. Nike Inc Motley Fool - Apr 6, 2017 Nike's primary moat is its brand. The swoosh is one of the most recognizable sports symbols in the world. That's important because it isn't that difficult for a company to make shoes, shirts, or other athletic wear. Forbes has Nike listed as the 18th ..."
p6
aS"Nike In The Garden Portfolio Seeking Alpha - Apr 17, 2017 No company can be continuously accelerating their DGR, but I like to compare DGRs across different time periods to see if there's been any significant deceleration."
p7
aS"Nike Inc.  CEO Mark Parker on Q3 2017 Results - Earnings Call Transcript Seeking Alpha - Mar 22, 2017 Good afternoon, everyone. Welcome to NIKE, Inc.'s Fiscal 2017 Third Quarter Conference Call. For those who need to reference today's press release, you'll find it at investors."
p8
aS"Nike Continues To Struggle Seeking Alpha - Apr 13, 2017 As I warned in my last article on the company, Nike's fiscal Q3 2017 earnings were unimpressive, leading to a sharp dip in share price."
p9
aS'Nike: Legendary Company, But Still Not A Buy Seeking Alpha - Apr 6, 2017 It is a high ROIC business backed by conservative financing and a durable competitive advantage. It has a history of repurchasing shares and making increasing, sustainable dividend payments.'
p10
a.