(lp0
S"Natural Resource Partners LP : Set To Experience A Decrease In Earnings? Simply Wall St - Apr 14, 2017 Natural Resource Partners LP  may see a decline of -38.5% over the next 12 months if analysts' estimates will turn out to be correct.Natural Resource Partners  Receiving Somewhat Positive News Coverage ... - Markets Daily"
p1
aS"Why Natural Resource Partners LP Stock Rocketed 20% in February While Other ... Motley Fool - Mar 6, 2017 However, Natural Resource Partners' competitors didn't fare as well in February. For example, Alliance Resource Partners LP , one of the best positioned coal miners, was down roughly 4% last month. Other competitors fared even worse,&nbsp;...Natural Resource Partners Announces 2016 Tax Information is Available - PR Newswire Natural Resource Partners LP Announces 2016 Fourth Quarter and Full Year ... - BOE Report "
p2
aS"Moody's downgrades Natural Resource Partners to B3, outlook negative Moodys.com   - Mar 15, 2016 New York, March 14, 2016 -- Moody's Investors Service,  Moody's today downgraded the corporate family rating  of Natural Resource Partners, L.P. to B3 from B1. At the same time, Moody's downgraded the probability of default rating &nbsp;..."
p3
aS'Cook Up 18.8% Yields With Natural Resource Partners, Matures October 2018 Seeking Alpha - Sep 3, 2016 This week, we revisit a diversified natural resource company that continues to improve its balance sheet and recently posted superb performance for the first half of 2016.'
p4
aS'Natural Resources Partners Has Officially Completed A Rounding Bottom Seeking Alpha - Nov 25, 2016 NRP generates revenues by leasing out its minerals and other natural resources to mine operators under long-term contracts.'
p5
aS"Teck Resources Limited's and Natural Resource Partners' Fantastic Run in 2016 ... Motley Fool - Jan 20, 2017 It would be an understatement to call 2016 a good year for Teck Resources Limited's  investors. A 418% gain is simply incredible."
p6
aS'Option Market Alert: Natural Resource Partners LP Implied Price Swing Hits An ... CML News - Apr 16, 2017 No Risk Alert Here: Before we dive into any analysis we simply note that Natural Resource Partners LP  risk is neither elevated nor depressed.'
p7
aS'Highlighting Recommendations on Natural Resource Partners LP  The Herald - Apr 15, 2017 Out of the 3 covering Street analysts providing stock ratings for Natural Resource Partners LP , 0 have shares listed as a Strong Buy while 0 analysts have the stock rated a Buy.'
p8
aS'Stock Returns: Natural Resource Partners LP  is Beating Alliance ... CML News - Mar 21, 2017 This is a snapshot to compare the stock returns for Alliance Resource Partners, L.P.  versus Natural Resource Partners L.P.  . The stock return points we compare look at the last three-months, six-months and twelve-months.'
p9
aS'Checking Indicator Levels for Natural Resource Partners LP  Midway Monitor - 15 hours ago At the time of writing, the 14-day ADX for Natural Resource Partners LP  is standing at 12.83. Many chart analysts believe that an ADX reading over 25 would suggest a strong trend.'
p10
a.