(lp0
S'The NeutriSci International  and Lexaria Bioscience  Team-Up is ... SmallCap Network - Jan 19, 2017 It was only in late November NeutriSci International Inc  and Lexaria Bioscience Corp  announced they were jointly developing a cannabis-containing health supplement, but that new product is ready to put on store shelves.'
p1
aS'NeutriSci Announces Distribution Agreement &amp; Initial Order of Neuenergy From ... Marketwired  - Mar 16, 2017 VANCOUVER, BC-- - NeutriSci International Inc.     the innovator and pioneer behind neuenergy, is pleased to announce that&nbsp;...'
p2
aS'NeutriSci Announces Results of AGM, Adds John Bell and Arlene Dickinson to Board Marketwired  - Apr 27, 2016 VANCOUVER, BC-- - NeutriSci International Inc.   the innovator and pioneer behind neuenergy, is pleased to announce the results of its Annual General Meeting  held&nbsp;...'
p3
aS'NeutriSci Adds Sobeys &amp; Safeway to Its List of Canadian Retailers Marketwired  - Jan 17, 2017 VANCOUVER, BC-- - NeutriSci International Inc.    the innovator and pioneer behind neuenergy, announces its latest distribution agreement with&nbsp;...'
p4
aS'NeutriSci Announces Successful Development and Positive Results From Initial ... Marketwired  - Jan 19, 2017 VANCOUVER, BC-- - NeutriSci International Inc.    and Lexaria Bioscience Corp.'
p5
aS'NeutriSci Launches National Television Ad Campaign Marketwired  - Mar 9, 2017 VANCOUVER, BC-- - NeutriSci International Inc.     the innovator and pioneer behind neuenergy, is pleased to announce the launch&nbsp;...'
p6
aS'NeutriSci Announces Strategic Distribution Agreement With Wallace &amp; Carey Marketwired  - Mar 9, 2016 VANCOUVER, BRITISH COLUMBIA-- - NeutriSci International Inc.   the innovator and pioneer behind NeuEnergy, is pleased to announce that it has entered into a long term&nbsp;...'
p7
aS"NeutriSci Announces Initial Order of neuenergy From Mac's Convenience and ... Marketwired  - Nov 28, 2016 VANCOUVER, BC-- - NeutriSci International Inc.   , the innovator and pioneer behind neuenergy, is pleased to announce that neuenergy is now&nbsp;..."
p8
aS'NeutriSci Forms Cannabinoid Joint Venture With Lexaria Bioscience Marketwired  - Apr 10, 2017 VANCOUVER, BC-- - NeutriSci International Inc.     and Lexaria Bioscience Corp.Lexaria and Neutrisci Enter Cannabinoid Joint Venture - Yahoo FinanceNutraceutical Stock Pops on Cannabinoid Joint Venture - SmallCapPower '
p9
aS'NeutriSci Welcomes Olympic Gold Medalists Michelle Cameron Coulter and Al ... Yahoo Finance - Mar 30, 2017 VANCOUVER, BC-- - NeutriSci International Inc.    (1N9.Neutrisci Intl Inc  | NeutriSci Announces Advanced Talks With ... - MilTech'
p10
a.