(lp0
S'The Pitney Bowes Inc.  Posts Earnings Results, Misses Expectations By $0 ... Petro Global News 24 - Feb 2, 2017 Shares of Pitney Bowes  opened at 15.92 on Wednesday. The stock has a market capitalization of $2.96 billion, a price-to-earnings ratio of 11.59 and a beta of 1.33.'
p1
aS"The Case for and Against Pitney Bowes Inc.  StockNewsJournal - 14 hours ago Pitney Bowes Inc.  is an interesting player in the Consumer Goods space, with a focus on Business Equipment. The stock has been active on the tape, currently trading at $12.91, up from yesterday's close by 0.00%.Highly Traded Stock: Pitney Bowes Inc.  - HugoPressDoes These Stocks Deserve Your Investment Dollars? - Pitney Bowes Inc. (PBI ... - USA Commerce Daily"
p2
aS'TRACK Taps Pitney Bowes for Digital Transformation of Customer Engagement ... Yahoo Finance - Apr 12, 2017 Pitney Bowes Inc.  today announced that TRACK, the collaborative digital marketing network dedicated to CRM, Customer Loyalty and Data, has entered into an agreement with Pitney Bowes to license technologies that will drive the digital ...'
p3
aS'Pitney Bowes Inc.  Ex-Dividend Date Scheduled for February 15, 2017 Nasdaq - Feb 14, 2017 Pitney Bowes Inc.  will begin trading ex-dividend on February 15, 2017. A cash dividend payment of $0.188 per share is scheduled to be paid on March 13, 2017.Payments Solutions Provider TSYS Selects Pitney Bowes IntelliJet 20 Printing ... - Business Wire '
p4
aS'Pitney Bowes: Heading In The Right Direction Seeking Alpha - Jan 23, 2017 Over the past 12 months, shares of Pitney Bowes  are down approximately 15%. Does this price decline represent a good buying opportunity for investors or is Pitney Bowes a value trap? In my view, now is a very good time to acquire the shares&nbsp;...'
p5
aS'Pitney Bowes: No Catalysts To Drive Upside Seeking Alpha - Feb 3, 2017 It has been about a year since I cut Pitney Bowes  in that manner, and the deteriorating situation at the company has only continued.Pitney Bowes Inc.  Issues FY17 Earnings Guidance - Sports PerspectivesBuy, Sell or Hold? Analysts Approach: Pitney Bowes , Pandora Media, ? - The USA Commerce'
p6
aS'Linc Global Innovates Returns Process by Using API Technology from Pitney Bowes Yahoo Finance - Mar 21, 2017 Pitney Bowes Inc. , the global technology leader that provides innovative solutions and services powering anywhere-to-everywhere commerce, today announced at ShopTalk 2017 that Linc Global, a customer relationship management company&nbsp;...Hot Stock Overview: Pitney Bowes Inc.  - HugoPress'
p7
aS'Pitney Bowes Creates New Route for US Retailers to Reach Global Consumers Yahoo Finance - Mar 20, 2017 Pitney Bowes Inc. , the global technology leader that provides innovative solutions and services powering anywhere-to-everywhere commerce, at ShopTalk 2017 today, launched Complete Marketplace, the capable and scalable way for retailers to&nbsp;...'
p8
aS'Stock Sheet: Reviewing the Levels for Pitney Bowes Inc.  Baldwin Journal - 5 hours ago Investors are constantly examining different company financial indicators to assess trading opportunities. Pitney Bowes Inc.  presently has an EV or Enterprise Value of 5770250. The EV is used to show how the market assigns value to a company&nbsp;...'
p9
aS"Pitney Bowes Given 5-Star Rating in CRN's 2017 Partner Program Guide Business Wire  - Apr 10, 2017 STAMFORD, Conn.----Pitney Bowes, , a global technology company that provides innovative products and solutions to power commerce, announced today that CRN, a brand of The Channel Company, has given Pitney Bowes&nbsp;..."
p10
a.