(lp0
S'The Pacific Continental Corporation   Releases Earnings Results ... Petro Global News 24 - Feb 4, 2017 Shares of Pacific Continental Corporation  opened at 25.80 on Monday. Pacific Continental Corporation has a 52-week low of $14.08 and a 52-week high of $26.85.'
p1
aS"Why Shares of Pacific Continental Corporation Jumped 26% Today Motley Fool - Jan 10, 2017 Shares of bank holding company Pacific Continental Corporation  are up by about 26% as of 11:45 a.m. EST Tuesday after news broke that it would merge with Columbia Banking System, Inc.  in an all-stock deal.Columbia Banking System's  CEO Melanie Dressel Presents at Merger of ... - Seeking Alpha"
p2
aS'Pacific Continental Corporation To Release First Quarter Earnings on Thursday ... Yahoo Finance - Apr 6, 2017 EUGENE, Ore., April 6, 2017 /PRNewswire/ -- Pacific Continental Corporation , the holding company of Pacific Continental Bank, will distribute a press release related to its first quarter earnings on Thursday, April 27, 2017, at 5:00 a.m.49 hedge funds sold their entire positions in Pacific Continental Corporation ... - Post AnalystBrokerages Set Pacific Continental Co.  PT at $28.00 - Sports Perspectives'
p3
aS'Pacific Continental Corporation Announces Plan to Acquire Foundation Bancorp, Inc. PR Newswire  - Apr 26, 2016 BELLEVUE, Wash., April, 26, 2016 /PRNewswire/ -- Pacific Continental Corporation  , the holding company of Pacific Continental Bank, and Foundation Bancorp, Inc.  , the holding company of&nbsp;...Eugene bank buys Bellevue lender - The Register-Guard'
p4
aS'A Look at Analyst Consensus for Pacific Continental Corporation  (NASDAQ ... The Herald - 9 hours ago Out of the 2 covering Street analysts providing stock ratings for Pacific Continental Corporation  , 0 have shares listed as a Strong Buy while 0 analysts have the stock rated a Buy.'
p5
aS'Pacific Continental Corporation Completes Acquisition of Capital Pacific ... PR Newswire  - Mar 7, 2015 EUGENE, Ore., March 6, 2015 /PRNewswire/ -- Pacific Continental Corporation , the holding company of Pacific Continental Bank, today announced the completion of the acquisition of Portland, Oregon-based Capital Pacific Bancorp and its&nbsp;...Pacific Continental closes its acquisition of a Portland bank - Portland Business Journal '
p6
aS'Pacific Continental Corporation Names Richard Sawyer as Executive Vice ... PR Newswire  - Jul 9, 2015 EUGENE, Ore., July 9, 2015 /PRNewswire/ -- Pacific Continental Corporation , the holding company of Pacific Continental Bank, announced today that Richard R. Sawyer has been named executive vice president and chief financial officer.'
p7
aS'Pacific Continental Corporation Announces Acquisition Of Capital Pacific Bancorp PR Newswire  - Nov 20, 2014 EUGENE, Ore., Nov. 19, 2014 /PRNewswire/ -- Pacific Continental Corporation  , the holding company of Pacific Continental Bank, announced the signing of a definitive agreement to acquire Capital Pacific Bancorp (OTCQB:&nbsp;...'
p8
aS'Pacific Continental Corporation Announces Capital Pacific Bancorp Final Merger ... PR Newswire  - Mar 10, 2015 EUGENE, Ore., March 10, 2015 /PRNewswire/ -- Pacific Continental Corporation , the holding company of Pacific Continental Bank, today announced the final results of the elections made by former shareholders of Capital Pacific Bancorp&nbsp;...'
p9
aS'Pacific Continental Corporation Announces Retirement of Michael (Mick ... PR Newswire  - Feb 26, 2015 26, 2015 /PRNewswire/ -- Pacific Continental Corporation , the holding company of Pacific Continental Bank, announced today that after 16 years, Executive Vice president and Chief Financial Officer Michael  Reynolds will retire ...'
p10
a.