(lp0
S'Park City Group to Present at the Southwest IDEAS Investor Conference on ... GlobeNewswire  - Nov 2, 2016 SALT LAKE CITY, Nov. 02, 2016  -- Park City Group, Inc. , a cloud-based software company that uses big data management to help retailers and their suppliers &quot;Sell more, Stock less and See everything&quot;, today&nbsp;...'
p1
aS"Park City Group's  CEO Randy Fields on Q2 2017 Results - Earnings Call ... Seeking Alpha - Feb 7, 2017 Such risks are more fully discussed in the Company's filings with the Securities and Exchange Commission. The information set forth herein should be considered in light of such risks.Park City Group, Inc.  Releases Quarterly Earnings Results - Sports Perspectives"
p2
aS"Park City Group Reports Record Fiscal 4Q and Full-Year 2016 Results GlobeNewswire  - Sep 7, 2016 07, 2016  -- Park City Group , a cloud-based software company that uses big data management to help retailers and their suppliers 'sell more, stock less and see everything', today announced results for its fiscal fourth&nbsp;..."
p3
aS"ReposiTrak MarketPlace Automates Sourcing Of Compliant Suppliers from Search ... GlobeNewswire  - Feb 23, 2017 SALT LAKE CITY, Feb. 23, 2017  -- Park City Group's ReposiTrak Inc., the leading provider of Compliance Management and Track &amp; Trace solutions for food, pharma and dietary supplement safety, announces the launch of the&nbsp;..."
p4
aS'Park City Group Inc.  Plunges 6.61% on March 22 Equities.com - Mar 22, 2017 Park City Group Inc.  had a rough trading day for Wednesday March 22 as shares tumbled 6.61%, or a loss of $-0.85 per share, to close at $12.00.'
p5
aS"Superior Nut &amp; Candy Co., Inc. Expands ReposiTrak Food Safety Compliance ... GlobeNewswire  - Apr 12, 2017 SALT LAKE CITY, April 12, 2017  -- Park City Group's ReposiTrak Inc., the leading provider of Compliance Management and Track &amp; Trace solutions for food, pharma and dietary supplement safety, announces today that Chicago-based&nbsp;..."
p6
aS'Park City Group Inc Risk Points versus Technology CML News - Mar 28, 2017 This is a scatter plot analysis of the critical risk points from the option market for Park City Group Inc  compared to its own past and the Technology ETF.'
p7
aS"One Company's Success With ReposiTrak: Central Grocers to Present Case Study ... GlobeNewswire  - Nov 30, 2016 SALT LAKE CITY, Nov. 30, 2016  -- Park City Group's ReposiTrak, the leading provider of Compliance Management and Track &amp; Trace solutions for food, pharma and dietary supplement safety, announces that Mary Jo Panagos, Director&nbsp;..."
p8
aS"H&amp;H Products Company Adopts ReposiTrak Food Safety Compliance Management Solution GlobeNewswire  - Mar 9, 2017 SALT LAKE CITY, March 09, 2017  -- Park City Group's ReposiTrak Inc., the leading provider of Compliance Management and Track &amp; Trace solutions for food, pharma and dietary supplement safety, announces today that Florida-based,&nbsp;..."
p9
aS'Park City Group  Receiving Favorable News Coverage, Analysis Finds The Cerbat Gem - Apr 14, 2017 Park City Group logo News stories about Park City Group  have been trending positive recently, Alpha One reports.In Volatile Markets Do Analysts Think You Should Buy Park City Group, Inc. ? - The De Soto Edge'
p10
a.