(lp0
S'Peoples Bancorp of North Carolina, Inc.  EPS Estimated At $0.00 ... Herald KS - Apr 10, 2017 Analysts expect Peoples Bancorp of North Carolina, Inc.  to report $0.00 EPS on April, 24. About 2,297 shares traded.'
p1
aS"Top Positive Mover of Friday: Peoples Bancorp of North Carolina, Inc.'s (PEBK ... WsNews 4investors - Mar 20, 2017 Peoples Bancorp of North Carolina, Inc.  stock price escalated 6.01% to finalize at $30.00 throughout previous buying and selling session."
p2
aS'Peoples Bancorp of NC Issued BSA Consent Order American Banker - Nov 13, 2015 Peoples Bancorp of North Carolina in Newton has been hit with an enforcement action related to its compliance with anti-money-laundering laws.'
p3
aS"Most Sizzling Mover of Friday: Peoples Bancorp of North Carolina, Inc.'s (PEBK ... WsNews 4investors - Apr 3, 2017 Peoples Bancorp of North Carolina, Inc.  stock price escalated 4.06% to finalize at $29.70 throughout previous buying and selling session."
p4
aS"Trending Stock of Tuesday: Peoples Bancorp of North Carolina, Inc.'s (PEBK ... WsNews 4investors - Apr 5, 2017 Peoples Bancorp of North Carolina, Inc.  stock price escalated 0.61% to finalize at $29.88 throughout previous buying and selling session."
p5
aS"EPS for Trimble  Expected At $0.26; Peoples Bancorp Of North Carolina ... MoneyMakingArticles - Apr 12, 2017 Analysts expect Trimble Inc  to report $0.26 EPS on April, 27.They anticipate $0.05 EPS change or 23.81% from last quarter's $0.21 EPS."
p6
aS"THE LIST: Charlotte's largest community banks Charlotte Business Journal - Oct 14, 2016 This week's Charlotte Business Journal ranks both the Charlotte area's and North Carolina's largest community banks by deposits as of June."
p7
aS"Here's what the impact of CommunityOne's merger with Capital Bank will look ... Charlotte Business Journal  - Nov 23, 2015  45 more branches in North Carolina. Capital Bank executives were especially excited ... We are partnering with people we know well in markets we have decades of experience in, Taylor said. Together we will better leverage costs, improve&nbsp;...Capital Bank moved charter to NC days before CommunityOne deal - Triad Business JournalCapital Bank to acquire CommunityOne - Asheboro Courier Tribune"
p8
aS'Park Sterling picks up team of bankers, regional president from CommunityOne Charlotte Business Journal  - Jun 13, 2016 The hires include a new regional president who will cover western North Carolina. ... The bank was based in Coral Gables, Fla.'
p9
aS"Bullish Trend Inside Spotlight: OvaScience, Inc.'s  stock price is at $1 ... WsNews 4investors - Mar 10, 2017 OvaScience, Inc.  stock price escalated 5.11% to finalize at $1.44 throughout previous buying and selling session. A total of 0.87 million shares exchanged at hands and its average trading volume is standing at 1.27 million shares."
p10
a.