(lp0
S'Market: The Principal Financial Group Inc.  Price Target Increased to $58 ... Petro Global News 24 - Feb 1, 2017 Several other research analysts also recently issued reports on PFG. Zacks Investment Research downgraded shares of Principal Financial Group from a hold rating to a sell rating in a research report on Tuesday, October 4th. Credit Suisse Group AG ...'
p1
aS"The Principal Financial Group Inc  Announces Quarterly Dividend of $0.45 Petro Global News 24 - Jan 30, 2017 Principal Financial Group  opened at 57.74 on Tuesday. The firm's 50 day moving average is $58.57 and its 200 day moving average is $53.00."
p2
aS"Does Relative Valuation Indicate Mispricing In Principal Financial Group Inc ... Simply Wall St - 16 hours ago Principal Financial Group Inc , a company with a decent past earnings performance and future growth potential, is currently trading at a PE multiple of 13.5, below the industry average of 23.2.Principal Financial Group Inc  is Iowa State Bank's 3rd Largest Position - The Cerbat GemPrincipal Financial Group Inc Risk Points versus Financials - CML News"
p3
aS"Zacks.com featured highlights: Foot Locker, Principal Financial Group, CBRE ... Yahoo Finance - Apr 11, 2017 Chicago, IL - April 11, 2017 - Stocks in this week's article include Foot Locker, Inc. , Principal Financial Group, Inc. , CBRE Group, Inc. , TransUnion (NYSE: TRU - Free ..."
p4
aS'Principal Financial Group, Inc. : Honing in on the Technicals Rockville Register - 19 hours ago At the time of writing, Principal Financial Group, Inc.  has a Piotroski F-Score of 9. The F-Score may help discover companies with strengthening balance sheets.'
p5
aS"Who gained the most today? Principal Financial Group, Inc. : PFG The News Journal - 16 hours ago Principal Financial Group, Inc.'s P/B is valued at 1.73 exhibiting the investor sentiment on the value of the stock to its actual value."
p6
aS'Stock Alert: Principal Financial Group Inc Price Volatility Hits A Tumbling Low CML News - Apr 16, 2017 Before we cover the full analysis we make a quick alert here that Principal Financial Group Inc  has seen its stock price move at a rock bottom low level.'
p7
aS"Principal Financial Group Inc  Insider Luis E. Valdes Sells 10000 Shares ... The Cerbat Gem - Apr 14, 2017 Principal Financial Group logo Principal Financial Group Inc  insider Luis E. Valdes sold 10,000 shares of the company's stock in a transaction on Thursday, April 13th.EPS for Cesca Therapeutics  Expected At $0.00, Principal Financial Group ... - Key GazetteFederated Investors Inc. PA Decreases Stake in Principal Financial Group Inc  - Sports Perspectives"
p8
aS"Principal Financial Group Inc  Dips 2.93% for March 21 Equities.com - Mar 21, 2017 Among the S&amp;P 500's biggest fallers on Tuesday March 21 was Principal Financial Group Inc . The stock experienced a 2.93% decline to $61.26 with 1.43 million shares changing hands.Analyst's Indicator Review for Iridium Communications Inc. , Principal ... - The USA CommercePrincipal Financial Group Inc  Position Maintained by Franklin Resources Inc. - BNB Daily "
p9
aS"Notable Stock of Traders: Principal Financial Group, Inc.'s  stock price ... WsNews 4investors - 18 hours ago Principal Financial Group, Inc.  stock price tumbled -0.68% to finalize at $61.51 throughout previous buying and selling session."
p10
a.