(lp0
S'What makes Provident Financial Services Inc  a good dividend stock? Simply Wall St - Apr 13, 2017 Over the past 10 years Provident Financial Services Inc  has returned an average of 3.28% per year from dividend payouts.IntelliPharmaCeutics Intl   Reaches $2.16 After 8.00% Up Move ... - Key GazetteProvident Financial Services, Inc.  Stake Maintained by Metropolitan Life ... - Community Financial News'
p1
aS'Provident Financial Services  Earns Daily Media Impact Rating of 0.37 The Cerbat Gem - 15 hours ago Provident Financial Services logo Press coverage about Provident Financial Services  has trended positive this week, AlphaOne Sentiment reports.Provident Financial Services, Inc.  Shares Sold by Berkshire Asset ... - BBNS'
p2
aS'Provident Financial Services, Inc  Ex-Dividend Date Scheduled for ... Nasdaq - Feb 10, 2017 Provident Financial Services, Inc  will begin trading ex-dividend on February 13, 2017. A cash dividend payment of $0.19 per share is scheduled to be paid on February 28, 2017.'
p3
aS'PROVIDENT FINANCIAL SERVICES, INC.  Files An 8-K Regulation FD ... Market Exclusive - Mar 28, 2017 Provident Financial Services Inc. is a holding company for The Provident Bank . The Bank is a New Jersey-chartered capital stock savings bank.Provident Financial Services Inc  Moves Lower on Volume Spike for March 27 - Equities.comBroker Outlook For The Week Ahead Provident Financial Services, Inc  - Fiscal Standard'
p4
aS'Provident Financial Services, Inc. Schedules Second Quarter Earnings ... GlobeNewswire  - Jul 1, 2016 ISELIN, N.J., July 01, 2016  -- Provident Financial Services, Inc.  announced that it expects to release financial results for the quarter ended June 30, 2016 on Friday July 29, 2016 at approximately 8:00 a.m.'
p5
aS"Market: The Provident Financial Holdings, Inc.  Issues Quarterly ... Petro Global News 24 - Jan 27, 2017 Provident Financial Holdings, Inc.  released its earnings results on Friday. ... In other Provident Financial Holdings news, insider David Weiant sold 2,909 shares of the firm's stock in a transaction that occurred on Thursday, November ..."
p6
aS"Provident Financial Services'  CEO Chris Martin on Q4 2016 Results ... Seeking Alpha - Jan 27, 2017 Good morning and welcome to the Provident Financial Services Fourth Quarter 2016 Earnings Conference Call. [Operator Instructions] Please also note that this event is being recorded."
p7
aS"Provident Financial Services'  CEO Chris Martin on Q3 2016 Results ... Seeking Alpha - Oct 28, 2016 The presenters for our third quarter earnings call are Chris Martin, President, Chairman and CEO and Tom Lyons, our Executive Vice President and Chief Financial Officer. Before beginning a review of our financial results we ask that you please take ..."
p8
aS'Decision Time: Provident Financial Services Inc  Stock Technicals ... CML News - Mar 16, 2017 Decision Time: Provident Financial Services Inc  now sits in the perhaps the most difficult technical position -- the stock has no urgency in its direction and that has left it at an inflection point.'
p9
aS'Provident Financial Services, Inc.  Stake Boosted by Comerica Bank The Cerbat Gem - Apr 7, 2017 Provident Financial Services logo Comerica Bank boosted its stake in Provident Financial Services, Inc.  by 6.1% during the fourth quarter, according to its most recent filing with the SEC.Provident Financial Services  Receiving Positive Media Coverage, Analysis ... - Sports PerspectivesProvident Financial Services, Inc.  Upgraded by Zacks Investment Research ... - Community Financial News'
p10
a.