(lp0
S'The Doug Bailey Sells 3099 Shares of Power Integrations, Inc.  Stock Petro Global News 24 - Feb 5, 2017 Power Integrations, Inc.  VP Doug Bailey sold 3,099 shares of Power Integrations stock in a transaction that occurred on Tuesday, January 24th.'
p1
aS'Power Integrations to Release First-Quarter Financial Results on April 27 Yahoo Finance - Apr 14, 2017 Power Integrations  will release its first-quarter financial results after market hours on Thursday, April 27, 2017, and will host a conference call that day beginning at 1:30 p.m.Analysts Expect Power Integrations Inc  Will Announce Earnings of $0.48 ... - Chaffey BreezeTygh Capital Management Has Decreased By $1.33 Million Its Power Intergrations ... - Key Gazette'
p2
aS'Power Integrations Looking To Grow Share In Growing Markets Seeking Alpha - Mar 28, 2017 Power Integrations is looking to gain share with more efficient power management solutions in fast-growing markets like rapid charging and LED lighting.'
p3
aS'Tracking the Numbers on Shares of Power Integrations, Inc.  Baxter Review - 19 hours ago Investors may be focusing on Return on Invested Capital  information for Power Integrations, Inc. .'
p4
aS'Power Integrations Inc  Now Covered by Sidoti Markets Daily - 13 hours ago Investment analysts at Sidoti assumed coverage on shares of Power Integrations Inc  in a report issued on Monday.Power Integrations, Inc.  Valuation at a Glance - TCT'
p5
aS"Power Integrations  Q4 2016 Results - Earnings Call Transcript Seeking Alpha - Feb 2, 2017 Good afternoon. My name is Jody and I will be your conference operator today. At this time, I would like to welcome everyone to the Power Integrations' Fourth Quarter 2016 Earnings Conference Call. All lines have been placed on mute to prevent any&nbsp;..."
p6
aS'Trading Desk: What are the Numbers Saying About Power Integrations, Inc ... The Standard - 14 hours ago Checking the Value Composite score for Power Integrations, Inc. , we see that the company has a rank of 62.'
p7
aS"Power Integrations  Q3 2016 Results - Earnings Call Transcript Seeking Alpha - Oct 28, 2016 Good afternoon. My name is Mariama, and I will be your conference operator today. At this time, I would like to welcome everyone to the Power Integrations' Third Quarter 2016 Earnings Call. Thank you. I would now like to turn the call over to Joe ..."
p8
aS'Power Integrations Denied Extra Damages In $140M IP Win Law360  - Jan 14, 2017 Law360, Los Angeles  -- Power Integrations Inc. is not entitled to enhanced damages for its $140 million jury win against rival chip maker Fairchild Semiconductor International Inc. for patent infringement, a California ...'
p9
aS'Power Integrations, Inc.  Files An 8-K Departure of Directors or ... Market Exclusive - Mar 20, 2017 On March 16, 2017, the Board of Directors  of Power Integrations, Inc.  appointed Wendy Arienzo to serve as a director beginning on April 1, 2017.'
p10
a.