(lp0
S'The FBR &amp; Co Boosts Pacific Premier Bancorp Inc  Price Target to $40.00 Petro Global News 24 - Jan 30, 2017 PPBI has been the subject of a number of other reports. FIG Partners upgraded Pacific Premier Bancorp from a market-perform rating to an outperform rating in a report on Friday, January 6th.'
p1
aS"Market: The Q2 2017 EPS Estimates for Pacific Premier Bancorp Inc (PPBI ... Petro Global News 24 - Jan 25, 2017 Pacific Premier Bancorp  last issued its quarterly earnings data on Tuesday, January 24th. The financial services provider reported $0.43 EPS for the quarter, topping analysts' consensus estimates of $0.41 by $0.02."
p2
aS'Market: The Pacific Premier Bancorp Inc  Shares Up 2.6% on Earnings Beat Petro Global News 24 - Jan 25, 2017 The financial services provider reported $0.43 earnings per share  for the quarter, topping the consensus estimate of $0.41 by $0.02.'
p3
aS'Want to invest in Pacific Premier Bancorp Inc  today? Read this before Simply Wall St - Apr 14, 2017 Pacific Premier Bancorp Inc  is considered a high growth stock but its last closing price of $34.7 made some investors wonder if it can be still rationalized by the high growth potential.Market: The Q3 2018 Earnings Forecast for Pacific Premier Bancorp Inc Issued ... - Petro Global News 24Should You Buy Pacific Premier Bancorp Inc  On Current Analyst Views? - Fiscal Standard'
p4
aS'34.70 MarketWatch - Mar 29, 2011 Pacific Premier Bancorp Inc. Pacific Premier Bancorp, Inc. operates as a bank holding company, which engages in the provision of banking services through its subsidiary, Pacific Premier Bank.'
p5
aS'Pacific Premier Bancorp, Inc. Announces Completion of Acquisition of Heritage ... Yahoo Finance - Apr 3, 2017 Pacific Premier Bancorp, Inc.  , the holding company of Pacific Premier Bank , announced today that it has completed the acquisition, effective as of April 1, 2017, of Heritage Oaks Bancorp  , the&nbsp;...Pacific Premier Bancorp, Inc. to Announce First Quarter 2017 Financial Results ... - Business Wire '
p6
aS"Pacific Premier Bancorp Seems To Be Living Up To Its Name Seeking Alpha - Feb 10, 2017 To be sure, my growth expectations for Pacific Premier Bancorp  aren't conservative, but I do believe the bank could double its adjusted earnings between 2017 and 2020/2021 and double them again over the ensuing five years."
p7
aS'Heritage Oaks Bank acquired by Pacific Premier Bancorp Paso Robles Daily News - Apr 4, 2017 Pacific Premier Bancorp, Inc. is the holding company for Pacific Premier Bank, one of the largest banks headquartered in Southern California with approximately $6 billion in assets.'
p8
aS'Pacific Premier Bancorp Announces Receipt of Stockholder Approval and ... Yahoo Finance - Mar 28, 2017 Pacific Premier Bancorp, Inc.  , the holding company of Pacific Premier Bank , announced today that the Company received stockholder approval of the issuance of shares of its common stock in the proposed merger&nbsp;...Heritage Oaks Bancorp  Files An 8-K Regulation FD Disclosure - Market Exclusive'
p9
aS'Pacific Premier Bancorp Named Recipient of 2016 Raymond James Community ... Yahoo Finance - Mar 22, 2017 Pacific Premier Bancorp, Inc. , the holding company of Pacific Premier Bank, announced today that it was named as a recipient of the 2016 Raymond James Community Bankers Cup, according to a report published by Raymond James &amp; Associates on&nbsp;...'
p10
a.