(lp0
S'BRIEF-US Auto Parts Network Inc resigned ceo will serve as a consultant to co Reuters - Mar 31, 2017 LONDON, April 13 Facebook said on Thursday it is taking action against tens of thousands of fake accounts in France as the social network giant seeks to demonstrate it is doing more to halt the spread of spam as well as fake news, hoaxes and&nbsp;...'
p1
aS'US Auto Parts Sets First Quarter 2017 Conference Call for Wednesday, May 10 ... PR Newswire  - Apr 10, 2017 CARSON, Calif., April 10, 2017 /PRNewswire/ -- U.S. Auto Parts Network, Inc. , one of the largest online providers of aftermarket automotive parts and accessories, will hold a conference call on Wednesday, May 10, 2017 after market close ...U.S. Auto Parts Network, Inc.  Under Analyst Spotlight - UK Market News'
p2
aS'US Auto Parts Network, Inc. Reports Second Quarter 2015 Results PR Newswire  - Aug 11, 2015 CARSON, Calif., Aug. 11, 2015 /PRNewswire/ -- U.S. Auto Parts Network, Inc. , one of the largest online providers of automotive aftermarket parts and accessories , today reported net sales for the second quarter ended July ...US Auto Parts Network Reports Second Quarter 2015 Results - AftermarketNews.com '
p3
aS"Is US Auto Parts Network Inc's  Balance Sheet Strong Enough To Weather A ... Simply Wall St - Apr 6, 2017 While small-cap stocks, such as US Auto Parts Network Inc  with its market cap of USD $110 Million, are popular for their explosive growth, investors should also pay heed to their balance sheet to judge whether the company can survive a&nbsp;...Which Analysts Are Watching US Auto Parts Network, Inc. ? - Fiscal Standard"
p4
aS'US Auto Parts Network, Inc. Names Neil Watanabe, Chief Financial Officer PR Newswire  - Mar 23, 2015 CARSON, Calif., March 23, 2015 /PRNewswire/ -- U.S. Auto Parts Network, Inc. , one of the largest online providers of automotive aftermarket parts and accessories, today announced the appointment of Neil Watanabe as Chief Financial&nbsp;...'
p5
aS"US Auto Parts Network seeks fix for red ink Los Angeles Times - Nov 10, 2014 A Carson company is trying to position itself at the perfect intersection of online DIY and the nation's aging fleet of personal vehicles."
p6
aS"US Auto Parts Network  co-Founder Nia Reccomends Company Explore Sale StreetInsider.com - May 5, 2015 Mehran Nia, the Co-Founder and former Chief Executive Officer at U.S. Auto Parts Network, Inc. , announced today that he has delivered a letter to the Company's Board of Directors .US Auto Parts Co-Founder and Former CEO Mehran Nia Recommends the Board ... - GlobeNewswire US Auto Parts Founder Wants Company to Sell - Los Angeles Business Journal"
p7
aS'US Auto Parts to Present at the 5th Annual Liolios Gateway Conference on ... GlobeNewswire  - Aug 22, 2016 CARSON, Calif., Aug. 23, 2016  -- U.S. Auto Parts Network, Inc. , one of the largest online providers of aftermarket automotive parts and accessories, has been invited to present at the 2016 Liolios Gateway Conference&nbsp;...'
p8
aS"US Auto Parts Network Inc : How Well Does It Fare Against This Financial ... Simply Wall St - Mar 6, 2017 Investors are always looking for growth in small-cap stocks like US Auto Parts Network Inc  with its market cap of USD $117 Million.US Auto Parts Network's  CEO Shane Evangelist on Q4 2016 Results ... - Seeking Alpha"
p9
aS'Company Focus on Shares of U.S. Auto Parts Network, Inc.  BVN - 17 hours ago Looking at shares of U.S. Auto Parts Network, Inc. , the company presently has a Gross Margin  ratio of 1.123554.'
p10
a.