(lp0
S'The Quidel Corporation  Position Decreased by Swiss National Bank Petro Global News 24 - Feb 5, 2017 Other institutional investors have also made changes to their positions in the company. Brown Capital Management LLC raised its position in shares of Quidel Corporation by 0.4% in the second quarter. Brown Capital Management LLC now owns 5,748,536&nbsp;...'
p1
aS"22.4629 MarketWatch - Dec 21, 2009 Quidel Corporation's  CEO Doug Bryant on Q4 2016 Results - Earnings Call Transcript. Quidel Corporation's  CEO Doug Bryant on Q4 2016 Results - Earnings Call Transcript. Feb. 8, 2017 at 10:07 p.m. ET; on Seeking Alpha&nbsp;..."
p2
aS"Quidel Corporation's  CEO Doug Bryant on Q4 2016 Results - Earnings Call ... Seeking Alpha - Feb 9, 2017 Ladies and gentlemen, thank you for standing by. Welcome to the Quidel Corporation Fourth Quarter and Full Year 2016 Earnings Conference Call."
p3
aS"Investor Alert: Quidel Corporation  Price Target Update Rockville Register - 17 hours ago Let's take a quick look at where covering equity analysts see Quidel Corporation  going in the future. Analysts polled by Thomson Reuters have a current consensus target on company stock of $22.670."
p4
aS'Quidel Corp  Granted FDA 510 Clearance for New Solana Molecular Assay StreetInsider.com - Nov 29, 2016 Quidel Corporation  received 510 clearance from the United States Food and Drug Administration  to market its Solana HSV-1+2/VZV Assay for the qualitative detection and differentiation of herpes simplex virus type 1, herpes&nbsp;...'
p5
aS'Quidel Corp  Announces FDA Clearance for Its Solana Influenza A+B Assay StreetInsider.com - Sep 27, 2016 Quidel Corporation , a provider of rapid diagnostic testing solutions, cellular-based virology assays and molecular diagnostic systems, announced today that it has received 510 clearance from the United States Food and Drug&nbsp;...'
p6
aS"Quidel Corp  Receives FDA 510 Clearance for Solana Strep Complete Assay StreetInsider.com - Oct 25, 2016 Quidel Corporation  announced that it has received 510 clearance from the United States Food and Drug Administration  to market Quidel's new Solana Strep Complete Assay for the rapid and qualitative detection and differentiation ..."
p7
aS'Quidel Corporation  Moves Lower on Volume Spike for March 17 Equities.com - Mar 17, 2017 Quidel Corporation  traded on unusually high volume on Mar. 17, as the stock lost 0.65% to close at $21.27. On the day, Quidel Corporation saw 231,490 shares trade hands on 1,642 trades. Considering that the stock averages only a daily volume of&nbsp;...'
p8
aS'Quidel Corporation  Moves Lower on Volume Spike for March 14 Equities.com - Mar 14, 2017 Quidel Corporation  traded on unusually high volume on Mar. 14, as the stock lost 2.62% to close at $20.48. On the day, Quidel Corporation saw 248,141 shares trade hands on 2,039 trades. Considering that the stock averages only a daily volume of&nbsp;...'
p9
aS'Quidel Corporation Risk Points versus Health Care CML News - Apr 8, 2017 This is a scatter plot analysis of the critical risk points from the option market for Quidel Corporation  compared to its own past and the Health Care ETF.'
p10
a.