(lp0
S'Market: The Reinsurance Group of America Inc.  Given New $127.00 Price ... Petro Global News 24 - Feb 2, 2017 A number of other research analysts have also issued reports on RGA. Zacks Investment Research lowered shares of Reinsurance Group of America from a buy rating to a hold rating in a research report on Monday, October 3rd. JPMorgan Chase &amp; Co.'
p1
aS'The Reinsurance Group of America, Incorporated  Plans Quarterly Dividend ... Petro Global News 24 - Feb 1, 2017 Advisor Group Inc. bought a new position in Reinsurance Group of America, during the second quarter worth about $199,000.'
p2
aS'Brokerages Anticipate Reinsurance Group of America Inc  Will Post ... Markets Daily - 8 hours ago Reinsurance Group of America logo Wall Street brokerages predict that Reinsurance Group of America Inc  will announce $2.11 earnings per share for the current fiscal quarter, according to Zacks.Reinsurance Group of America  to Buyback $400 million in Shares - The Cerbat GemReinsurance Group of America Inc  Stake Raised by Teachers Advisors LLC - Sports Perspectives'
p3
aS"Reinsurance Group of America's  CEO Anna Manning on Q4 2016 Results ... Seeking Alpha - Jan 31, 2017 Good day and welcome to the Reinsurance Group of America Fourth Quarter 2016 Results Conference. Today's call is being recorded."
p4
aS"Fitch Downgrades Reinsurance Group of America's  IDR to 'BBB+'; Outlook ... StreetInsider.com - Jul 1, 2016 Fitch Ratings has downgraded Reinsurance Group of America, Inc.'s  Long-Term Issuer Default Rating  to 'BBB+' from 'A-' and the Insurer Financial Strength  rating of RGA Reinsurance Company  to 'A' from 'A+'."
p5
aS"$2.10 EPS Expected for Reinsurance Group of America , Venor Capital ... Key Gazette - Apr 12, 2017 Analysts expect Reinsurance Group of America Inc  to report $2.10 EPS on April, 27.They anticipate $0.25 EPS change or 13.51% from last quarter's $1.85 EPS."
p6
aS"3 Reasons Value Stock Investors Will Love Reinsurance Group of America (RGA ... Zacks.com - Sep 27, 2016 This method discovered several great candidates for value-oriented investors, but today let's focus on Reinsurance Group of America Inc.  as this stock is looking especially impressive right now. And while there are numerous reasons ..."
p7
aS'Narrowing in on Chart Levels for Reinsurance Group of America Inc  Baldwin Journal - 16 hours ago When applying indicators for technical analysis, traders and investors might want to examine the ATR or Average True Range. The current 14-day ATR for Reinsurance Group of America Inc  is currently sitting at 0.32. The ATR basically measures the&nbsp;...'
p8
aS"Reinsurance Group names new CFO St. Louis Business Journal - Mar 8, 2016 Reinsurance Group of America Inc. named Todd Larson senior executive vice president and chief financial officer, effective May 1. Larson, 52, currently RGA's executive vice president and chief risk officer, will succeed Jack Lay.RGA Names Todd Larson as Chief Financial Officer; Jack Lay to Retire at End of ... - Business Wire RGA Names Todd Larson Finance Chief as Jack Lay Will Retire - Bloomberg"
p9
aS'MIBW 2016: Anna Manning, president, Reinsurance Group of America St. Louis Business Journal - Aug 12, 2016 Manning is president of Reinsurance Group of America, the Chesterfield-based company that is among the largest global providers of life reinsurance with about $3.1 trillion of life reinsurance in force and assets of $52.2 billion.'
p10
a.