(lp0
S"RGC Resources, Inc. Declares Quarterly Dividend Nasdaq - Mar 27, 2017 ROANOKE, Va., March 27, 2017  -- The Board of Directors of RGC Resources, Inc. , at its meeting on March 27, 2017, declared a quarterly dividend of $0.145 per share on the Company's common stock."
p1
aS'Investor List: Watching Shares of RGC Resources, Inc.  Baxter Review - 10 hours ago RGC Resources, Inc. presently has an ROIC of 0.075698. The current ROIC 5 year average is 0.093283 and the ROIC Quality ratio is currently 6.016642.'
p2
aS"Insider Trading Activity RGC Resources Inc.   VP Bought 14 ... Market Exclusive - Apr 5, 2017 Paul W Nester , VP of RGC Resources Inc.  reportedly Bought 14 shares of the company's stock at an average price of 21.8 for a total transaction amount of $305.20 SEC Form."
p3
aS'RGC Resources Inc.  to Issue Quarterly Dividend of $0.15 The Cerbat Gem - 20 hours ago RGC Resources logo RGC Resources Inc.  announced a quarterly dividend on Tuesday, March 28th. Stockholders of record on Monday, April 17th will be given a dividend of 0.145 per share on Monday, May 1st.'
p4
aS"Top Sizzling Mover of Thursday: RGC Resources, Inc.'s  stock price ... WsNews 4investors - 21 hours ago RGC Resources, Inc.  stock price tumbled -1.81% to finalize at $22.82 throughout previous buying and selling session."
p5
aS'Rgc Resources Inc  Files Form 4 Insider Buying : Paul W Nester Buys 14 ... Energy Index - Apr 6, 2017 Rgc Resources Inc : Paul W Nester , VP, Treasurer, Secretary &amp; CFO of Rgc Resources Inc purchased 14 shares on Apr 3, 2017.'
p6
aS'RGC Resources Inc.  Reaches $21.72 After 8.00% Gap Down; Profile of 12 ... MoneyMakingArticles - 13 hours ago Among 19 analysts covering Lennar , 12 have Buy rating, 0 Sell and 7 Hold. Therefore 63% are positive. Lennar had 29 analyst reports since September 22, 2015 according to SRatingsIntel.'
p7
aS'Rgc Resources Inc  Files Form 4 Insider Buying : Nancy H Agee Buys 41 Shares Energy Index - Apr 13, 2017 Rgc Resources Inc : Nancy H Agee , director of Rgc Resources Inc purchased 41 shares on Apr 3, 2017. The Insider buying transaction was reported by the company on Apr 10, 2017 to the Securities and Exchange Commission.'
p8
aS'RGC Resources Inc  Stock Technicals Hit Extreme Weakness CML News - Mar 12, 2017 This is a technical analysis stock rating for RGC Resources Inc  . The company has a one bull technical rating which indicates extreme weakness.'
p9
aS'Traders Take Note: RGC Resources Inc  Stock Drops, Weakness in ... CML News - Mar 20, 2017 Take Note: RGC Resources Inc  has hit some technical weakness in its momentum, and while it has not broken down all the way through support -- watch the key levels that we discuss below and further, watch the stochastics and technical&nbsp;...'
p10
a.