(lp0
S'The Regulus Therapeutics Inc.  Lowered to Market Perform at Wells Fargo ... Petro Global News 24 - Jan 31, 2017 Other analysts have also issued research reports about the stock. Needham &amp; Company LLC lowered their target price on shares of Regulus Therapeutics from $10.00 to $9.00 and set a buy rating for the company in a research note on Wednesday,&nbsp;...'
p1
aS'Regulus Therapeutics Inc.  Soars 6.9% on April 17 Equities.com - 12 hours ago Regulus Therapeutics Inc.  had a good day on the market for Monday April 17 as shares jumped 6.9% to close at $1.55. About 204,838 shares traded hands on 885 trades for the day, compared with an average daily volume of 1.02 million shares out&nbsp;...'
p2
aS'Stock Overview: Moving Average Check on Regulus Therapeutics Inc  Rives Journal - 13 hours ago In terms of moving averages for Regulus Therapeutics Inc , the 200-day is currently at 2.53, the 50-day is 1.31, and the 7-day is resting at 1.5.'
p3
aS'Trading Sheet: Watching the Levels for Regulus Therapeutics Inc.  Benton Bulletin - 18 hours ago Regulus Therapeutics Inc.  presently has a Piotroski F-Score of 1. The goal of the F-Score is to help locate companies with strengthening balance sheets, and to weed out poor performers.Regulus Therapeutics Inc.  added to 7 new portfolios - Post AnalystRegulus Therapeutics  Getting Somewhat Favorable Media Coverage ... - Sports Perspectives'
p4
aS'Increased Volume Spurs Stock Prices of Benitec Biopharma, Regulus Therapeutics Yahoo Finance - Mar 27, 2017 Regulus Therapeutics advanced 12.00% to close at $1.40 on Friday. The stock traded between $1.54 and $1.25 on volume of 4,282,684 shares traded.'
p5
aS"Regulus Therapeutics Inc.  Plunges 11.76% on March 28 Equities.com - Mar 28, 2017 Regulus Therapeutics Inc.  had a rough trading day for Tuesday March 28 as shares tumbled 11.76%, or a loss of $-0.2 per share, to close at $1.50.Regulus Therapeutics Inc. closed with a change of 12% in the Previous Trading ... - Free ObserverRegulus Therapeutics Inc. : What's the Story? - StockNewsJournal"
p6
aS'Regulus Therapeutics Inc.  Soars 12% on March 24 Equities.com - Mar 24, 2017 Regulus Therapeutics Inc.  had a good day on the market for Friday March 24 as shares jumped 12% to close at $1.40. About 4.28 million shares traded hands on 5,712 trades for the day, compared with an average daily volume of 814,219 shares out&nbsp;...'
p7
aS'Stock with Unusual Volume: Regulus Therapeutics Inc.  StandardOracle - Apr 13, 2017 Regulus Therapeutics Inc.  plummeted -3.33 percent and ended the day at $1.45. The Average Volume of the company is 1.13 Million and P/E  ratio is 0, while Forward P/E ratio is 0. Needham Downgrade its coverage for Regulus&nbsp;...Inspecting more closely technicals of Regulus Therapeutics Inc.  - USA Commerce DailyStelios Papadopoulos Buys 500000 Shares of Regulus Therapeutics Inc  Stock - The Cerbat Gem'
p8
aS'Stock Highlights: Regulus Therapeutics Inc.  StandardOracle - Apr 3, 2017 Regulus Therapeutics Inc.  added 3.12% to reach $1.65 in the previous trading session. Overall, 677360 shares exchanged hands versus its average trading volume of 1.12 Million shares.Regulus Therapeutics Inc.  Soars 6.67% on April 04 - Equities.comRegulus Therapeutics Inc  Downgraded by Zacks Investment Research - The Cerbat Gem'
p9
aS'SHAREHOLDER ALERT: Goldberg Law PC Announces Securities Class Action Lawsuit ... Business Wire  - Mar 27, 2017 LOS ANGELES----Goldberg Law PC, a national shareholder rights litigation firm, announces the filing of a class action lawsuit against Regulus Therapeutics Inc.  . Investors who purchased or&nbsp;...IMPORTANT SHAREHOLDER ALERT: Khang &amp; Khang LLP Announces Securities Class ... - Yahoo Finance'
p10
a.