(lp0
S'Stockport chain firm Renold plc considers 231 job cuts BBC News - Aug 27, 2013 More than 200 jobs look set to be lost at a Greater Manchester factory by a firm that makes industrial chains, gearboxes and couplings.'
p1
aS"How Renold plc  Delivered A Better ROE Than Its Industry? Simply Wall St - Mar 24, 2017 Renold plc  delivered 120.6% ROE in the last year. However, to put Renold's Return on Equity in perspective, we must compare it to the performance of its industry, which averaged an ROE of 21.3%."
p2
aS'Pension Funds Insider Pension Funds Online - Oct 23, 2013 Members of The Renold Group Pension Scheme  and the Jones and Shipman Retirement Benefits Plan   have been merged into the Renold Supplementary Pension Scheme 1967 , which has now been renamed the Renold&nbsp;...'
p3
aS'Renold plc  Given &quot;Buy&quot; Rating at N+1 Singer Sports Perspectives - Apr 12, 2017 Renold plc logo N+1 Singer reissued their buy rating on shares of Renold plc  in a research note released on Tuesday.Cantor Fitzgerald Issues Price Target With 15.56% Upside On Renold PLC - The De Soto EdgeN+1 Singer Gives Renold PLC Price Target With Potential 18.64% Upside - UK Market News'
p4
aS"Renold plc's  Buy Rating Reiterated at N+1 Singer Markets Daily - Apr 14, 2017 Renold plc logo N+1 Singer reiterated their buy rating on shares of Renold plc  in a research report report published on Tuesday morning."
p5
aS"Renold plc  Stock Rating Reaffirmed by N+1 Singer The Cerbat Gem - Apr 11, 2017 Renold plc logo Renold plc 's stock had its buy rating reaffirmed by stock analysts at N+1 Singer in a report released on Tuesday.N+1 Singer announced Renold PLC , boosting its stock price target to ... - Breaking Finance News"
p6
aS'Tower International  Forms $24.55 Double Top, Profile of 4 Analysts ... MoneyMakingArticles - 20 hours ago Among 5 analysts covering Renold PLC , 4 have Buy rating, 0 Sell and 1 Hold. Therefore 80% are positive. Renold PLC had 36 analyst reports since August 5, 2015 according to SRatingsIntel. The stock has Hold rating by FinnCap on Monday,&nbsp;...'
p7
aS'37.75% to Target, Deutsche Keeps Buy Rating for Shire Plc  Stock ... NormanObserver.com - Apr 7, 2017 Among 5 analysts covering Renold PLC , 4 have Buy rating, 0 Sell and 1 Hold. Therefore 80% are positive. Renold PLC had 34 analyst reports since August 5, 2015 according to SRatingsIntel. The rating was maintained by Numis Securities with&nbsp;...'
p8
aS'Renold fined 180000 over Nigel Lindley crush death BBC News - May 25, 2011 A gear box manufacturer has been fined 180,000 over the death of a worker who was crushed by a slab of metal. Father-of-five Nigel Lindley, 47, from Oldham, was putting together a large metal gear case when one of the sides collapsed on him in 2008.'
p9
aS"Renold plc  Rating Reiterated by N+1 Singer Chaffey Breeze - Apr 13, 2017 Renold plc logo Renold plc 's stock had its buy rating reissued by investment analysts at N+1 Singer in a report released on Tuesday."
p10
a.