(lp0
S'Market: The RPM International Inc. to Post FY2017 Earnings of $2.65 Per Share ... Petro Global News 24 - Jan 27, 2017 RPM International  last released its quarterly earnings results on Thursday, January 5th. The company reported $0.52 earnings per share for the quarter, missing the consensus estimate of $0.61 by $0.09. RPM International had a return on ...'
p1
aS"Only 3 days left to RPM International Inc 's ex-dividend date, is it ... Simply Wall St - Apr 7, 2017 Important news for shareholders and potential investors in RPM International : The dividend payment of $0.3 will be distributed into shareholder's accounts on Fri 28 Apr 2017 but the stock will begin trading ex-dividend already on the Tue 11 ..."
p2
aS'Earnings Reaction History: RPM International Inc., 30.0% Follow-Through ... Nasdaq - Apr 6, 2017 RPM International Inc.  is due to issue its quarterly earnings report in the upcoming extended-hours session. Given its history, traders can expect light trading in the issue immediately following its quarterly earnings announcement.'
p3
aS'Which Way Traders Signposts Groupon, Inc. , RPM International Inc. (RPM ... StockNewsJournal - 16 hours ago RPM International Inc. , at its latest closing price of $49.94, it has a price-to-book ratio of 5.20, compared to an industry average at 4.73.CENTRAL TRUST Co Has $170000 Stake in RPM International Inc.  - The Cerbat GemPositive News Coverage Very Likely to Affect RPM International  Stock Price - Markets Daily'
p4
aS'RPM International Inc.  Ex-Dividend Date Scheduled for April 11, 2017 Nasdaq - Apr 10, 2017 RPM International Inc.  will begin trading ex-dividend on April 11, 2017. A cash dividend payment of $0.3 per share is scheduled to be paid on April 28, 2017.Buy or Sell? What Analysts Recommends: RPM International Inc. (RPM ... - StockNewsJournalFY2017 EPS Estimates for RPM International Inc. Decreased by Analyst  - The Cerbat Gem'
p5
aS'Ex-Dividend Reminder: Eagle Materials, RPM International and Quaker Chemical Nasdaq - Apr 7, 2017 Looking at the universe of stocks we cover at Dividend Channel , on 4/11/17, Eagle Materials Inc , RPM International Inc , and Quaker Chemical Corp.  will all trade ex-dividend for their respective upcoming&nbsp;...'
p6
aS'Winslow Asset Management Inc Buys Wyndham Worldwide, Lululemon Athletica, RPM ... Nasdaq - Apr 13, 2017 Winslow Asset Management Inc initiated holdings in Lululemon Athletica Inc. The purchase prices were between $50.76 and $69.9, with an estimated average price of $65.83.'
p7
aS"RPM International Inc.  Moves Lower on Volume Spike for April 06 Equities.com - Apr 6, 2017 RPM International Inc.  traded on unusually high volume on Apr. 06, as the stock lost 3.58% to close at $51.77. On the day, RPM International Inc. saw 2.13 million shares trade hands on 16,764 trades. Considering that the stock averages only a ...RPM International shares fall on third quarter earnings, outlook - Akron Beacon Journal RPM International's  CEO Frank Sullivan on Q3 2017 Results - Earnings ... - Seeking Alpha"
p8
aS'Market Focus: Zooming in on Shares of RPM International Inc.  Baldwin Journal - 6 hours ago RPM International Inc.  has a current EV or Enterprise Value of 8655173. The EV displays how the market assigns value to a firm as a whole.'
p9
aS"Northcoast Research Weighs in on RPM International Inc.'s Q4 2017 Earnings  The Cerbat Gem - Apr 12, 2017 RPM International logo RPM International Inc.  - Northcoast Research lowered their Q4 2017 earnings estimates for RPM International in a note issued to investors on Monday.Equity in Focus as Analysts Weigh in  RPM International Inc.  - The HeraldResearch Analysts Issue Forecasts for RPM International Inc.'s Q4 2017 ... - Markets Daily"
p10
a.