(lp0
S'Donnelley announces newco names as it prepares for split printweek.com - Feb 10, 2016 CMCo, the $7bn  turnover, 42,000-employee multi-channel marketing communications business, will retain the 150-year-old RR Donnelley name as RR Donnelley &amp; Sons Company. This part of the company includes business process outsourcing,&nbsp;...'
p1
aS'RR Donnelley to Announce First-Quarter Results on May 2nd and Host a ... Yahoo Finance - 14 hours ago R.R. Donnelley &amp; Sons Company   announced today that it will report first-quarter results after the close of business on Tuesday, May 2, 2017 and host a conference call on Wednesday, May 3, 2017.Which Way Traders Signposts HollyFrontier Corporation , RR Donnelley ... - StockNewsJournalR.R. Donnelley &amp; Sons Company  Quarterly Analysis - The Newburgh Press'
p2
aS'RR Donnelley &amp; Sons Company Completes Separation Plan Business Wire  - Oct 3, 2016 CHICAGO----R.R. Donnelley &amp; Sons Company   today announced the completion of its previously announced tax-free spin-offs of its publishing and retail-centric print services and office&nbsp;...Donnelley Financial Solutions  Debuts as Independent Company Following ... - StreetInsider.comWhat Happened to RR Donnelly &amp; Sons Co Stock Today - Motley Fool'
p3
aS"Moody's Downgrades RR Donnelley's CFR to B1; outlook now stable Moodys.com   - Sep 15, 2016 Toronto, September 14, 2016 -- Moody's Investors Service,  downgraded RR Donnelley &amp; Sons Company's corporate family rating to B1 from Ba3 and probability of default rating to B1-PD from Ba3-PD as part of an action related to the company's&nbsp;..."
p4
aS'Xerox Rejects Proposed Merger Deal With RR Donnelley Wall Street Journal - Jul 15, 2016 Xerox Corp. privately rejected a bid to merge its document business with R.R. Donnelley &amp; Sons Co., according to people familiar with the matter.RR Donnelley Drops on Speculation Xerox Deal to Fall Through - BloombergXerox rejects RR Donnelley merger proposal: WSJ - Reuters'
p5
aS"Jim Cramer Gives His Opinion On McCormick, RR Donnelley &amp; Sons And New Relic Benzinga - Jan 13, 2017 On CNBC's Mad Money, Jim Cramer said that McCormick &amp; Company, Incorporated  is a great company and it dominates the spice market."
p6
aS'RR Donnelley &amp; Sons Announces Early Tender Results for Previously Announced ... GlobeNewswire  - Sep 15, 2016 CHICAGO, Sept. 15, 2016  -- R.R. Donnelley &amp; Sons Company  today announced the early tender results for the previously announced cash tender offers to purchase a portion of its outstanding debt&nbsp;...'
p7
aS'Struggling Xerox Is Reportedly in M&amp;A Talks with This Major Printing Firm Fortune - Jul 12, 2016 Xerox , which is on track to split into two companies by the end of the year, has been in talks to acquire financial printing firm RR Donnelley &amp; Sons Co  , according to two people familiar with the matter. The companies still ...Xerox in Talks to Merge Copier Business With RR Donnelley - BloombergXerox Reportedly In Merger Talks With RR Donnelley - CRN'
p8
aS'RR Donnelley &amp; Sons Company  Ex-Dividend Date Scheduled for November 10, 2016 Nasdaq - Nov 9, 2016 R.R. Donnelley &amp; Sons Company  will begin trading ex-dividend on November 10, 2016. A cash dividend payment of $0.14 per share is scheduled to be paid on December 01, 2016.'
p9
aS'Jim Cramer Shares His Thoughts On Whiting Petroleum, RR Donnelley, Donnelley ... Benzinga - Dec 14, 2016 RR Donnelley &amp; Sons Co , Donnelley Financial Solutions Inc  and LSC Communications Inc  are worth much more than people think, said Cramer.'
p10
a.