(lp0
S'Select Comfort Corporation  Moves Higher on Volume Spike for April 17 Equities.com - 12 hours ago Select Comfort Corporation  traded on unusually high volume on Apr. 17, as the stock gained 1.42% to close at $24.92.Select Comfort Corp.  Raised to Hold at Zacks Investment Research - BNB Daily Analyst Views And Outlook On Two Stocks: Select Comfort Corporation (SCSS ... - Post Analyst'
p1
aS'Progress MN: Select Comfort Corp. Finance and Commerce - Apr 7, 2017 Select Comfort Corp. had a novel idea in 1987 when it introduced mattresses to the bedding market that consumers can adjust for firmness and support to meet their individual sleep needs.Select Comfort Corporation  Soars 5.05% on April 06 - Equities.comSelect Comfort Corp.  Position Decreased by New York State Teachers ... - The Cerbat Gem'
p2
aS'Select Comfort Corporation to Announce First Quarter Results Business Wire  - Apr 5, 2017 MINNEAPOLIS----Select Comfort Corporation  will release results for the first quarter ended April 1, 2017, after close of the regular trading session on April 19, 2017.'
p3
aS"Shares of Select Comfort Corp. Get Annihilated After Posting Deep Loss and ... Motley Fool - Feb 12, 2016 What: Shares of Select Comfort Corporation , a Minneapolis-based company that designs, manufactures, and markets a line of mattresses, are getting completely crushed today after releasing fourth-quarter results after the market close on&nbsp;...Select Comfort Corporation's  CEO Shelly Ibach on Q4 2015 Results ... - Seeking AlphaSelect Comfort Announces Fourth-Quarter and Full-Year 2015 Results - Business Wire "
p4
aS'Select Comfort Announces Fourth-Quarter and Full-Year 2016 Results BedTimes Magazine - Feb 16, 2017 MINNEAPOLISSelect Comfort Corporation  today reported fourth quarter and full-year 2016 results for the period ended December 31, 2016.'
p5
aS'Select Comfort  Q4 2016 Results - Earnings Call Transcript Seeking Alpha - Feb 9, 2017 Good afternoon and welcome to the Select Comfort Corporation fourth-quarter 2016 earnings conference call. Thank you for joining us.Select Comfort misses mark in fourth-quarter results - Minneapolis Star Tribune'
p6
aS"Latest Updates :Select Comfort Corporation's  stock price is Worth at ... Hot Stocks Point - 19 hours ago Select Comfort Corporation  stock price ended its day with loss -1.01% and finalized at the price of $24.57. During its last trading session, Stock traded with the total exchanged volume of 0.95 million shares."
p7
aS'Select Comfort moving headquarters to downtown Minneapolis Minneapolis Star Tribune - Oct 26, 2016 Select Comfort will move its headquarters to downtown Minneapolis next October - the latest and one of the largest moves by companies into Minneapolis in the past few years.'
p8
aS"Minnesota's Fastest Growing Retailer? Select Comfort Twin Cities Business Magazine - Apr 6, 2017 Select Comfort is a unique case because it is both a manufacturer and retailer for its signature product: the Sleep Number bed. Although the beds are expensive, the company is the exclusive source for the proprietary productcustomers can't find it in ..."
p9
aS'Select Comfort Wants Out Of $8M Mattress Antitrust Suit Law360  - May 10, 2016 Law360, New York  -- Select Comfort Corp. on Friday asked a California federal court to dismiss an $8 million antitrust suit in which rivals in the air mattress market accuse it of using &quot;predatory&quot; litigation to block U.S ...'
p10
a.