(lp0
S'SandRidge Energy, Inc. Announces 2017 First Quarter Shareholder Update and ... PR Newswire  - Apr 10, 2017 OKLAHOMA CITY, April 10, 2017 /PRNewswire/ -- SandRidge Energy, Inc.  will release its 2017 first quarter shareholder update and financial results after the close of trading on the New York Stock Exchange on Wednesday, May 10, 2017.'
p1
aS'SandRidge Energy, Inc. Announces New $600 Million Reserve Based Credit ... PR Newswire  - Feb 13, 2017 OKLAHOMA CITY, Feb. 13, 2017 /PRNewswire/ -- SandRidge Energy, Inc.  today announced that it has entered into a new $600 million reserve based credit facility with a $425 million borrowing base  effective February 10, 2017&nbsp;...SandRidge: 1L Refinance Is A Coup - Seeking Alpha'
p2
aS"SandRidge Energy Files for Bankruptcy Protection Wall Street Journal - May 16, 2016 SandRidge Energy Inc., an early player in the American shale boom and onetime Wall Street darling, became the latest oil and gas company to file for bankruptcy Monday in what is becoming the largest wave of corporate restructurings since the financial&nbsp;...Examining Sandridge Energy's Bankruptcy - Seeking AlphaSandRidge Energy Files &quot;Pre-Arranged&quot; Reorganization Under Chapter 11 ... - PR Newswire "
p3
aS'SandRidge Energy emerges from bankruptcy NewsOK.com - Oct 4, 2016 SandRidge Energy Inc. emerged from bankruptcy protection Tuesday, shedding $3.7 billion in its reorganization, the company said.'
p4
aS"SandRidge overcomes shareholder fight to exit bankruptcy Reuters - Sep 9, 2016 CHICAGO SandRidge Energy Inc SDOCQ.PK won court approval for a plan to exit bankruptcy on Friday, overcoming opposition from shareholders who had accused the oil and gas producer of misrepresenting its value.SandRidge Energy's Plan of Reorganization Confirmed by Court - PR Newswire SandRidge Energy to emerge from bankruptcy protection - NewsOK.com"
p5
aS'SandRidge Energy Will Stack Profits Without The Permian Seeking Alpha - Mar 28, 2017 This is just the kind of news that SandRidge shareholders need to hear. The company has had tons of acreage in Oklahoma for a long time.'
p6
aS'Here Comes The New And Improved SandRidge Energy Seeking Alpha - Oct 10, 2016 SandRidge Energy  filed bankruptcy earlier in the year and wiped out the equity shareholders .'
p7
aS'SandRidge Energy: Soon Emerging From Bankruptcy Seeking Alpha - Sep 14, 2016 SandRidge has received court approval to exit bankruptcy. It has eliminated much of its debt and most of its interest costs.'
p8
aS'SandRidge Energy Has Now Emerged From Bankruptcy Seeking Alpha - Oct 7, 2016 The high breakeven point is due to the high cost of its Mississippian Lime wells relative to the value of their production .'
p9
aS'SEC slaps SandRidge Energy for $1.4 million in whistlleblower case FuelFix  - Dec 20, 2016 Oklahoma City-based SandRidge Energy Inc. has agreed to pay a $1.4 million fine after the U.S. Securities and Exchange Commission accused the bankrupt oil and gas company of firing an internal whistleblower who questioned how company officials&nbsp;...Regulators Rap Firms Using Severance to Silence Whistleblowers - Wall Street Journal'
p10
a.