(lp0
S'Calgary-based Enbridge sheds another 1000 jobs, 6% of its workforce Calgary Herald - Mar 22, 2017 Those cuts, which the company said were not related to the Spectra deal, included 370 jobs lost in Canada and 160 in the United States.Enbridge sheds 1000 jobs after takeover of Spectra Energy - CBC.caEnbridge cuts 1000 jobs in wake of Spectra Energy takeover - Calgary Sun'
p1
aS"Bye Bye, Spectra Energy - It Was Good To Know Ya; Hello Enbridge! Seeking Alpha - Feb 26, 2017 Next Monday, Spectra - and it's &quot;SE&quot; symbol - will go away due to the merger with Enbridge. But for those shareholders that didn't sell, their new Enbridge shares will deliver accelerated dividend growth.Enbridge completes acquisition of Houston's Spectra Energy - FuelFix Enbridge and Spectra Energy Complete Merger - BOE Report "
p2
aS'Spectra Energy Corp.  Receives Daily Coverage Optimism Score of 0.26 The Cerbat Gem - 10 hours ago Spectra Energy Corp. logo News coverage about Spectra Energy Corp.  has trended positive recently, Alpha One reports.Analysts Set Spectra Energy Corp.  Price Target at $40.71 - BBNS'
p3
aS'Company Outlook on Spectra Energy Corp  : Analyst Consensus in Focus The Herald - 8 hours ago The N/A analysts offering target price estimates on shares of Spectra Energy Corp  have set a consensus target of $N/A on shares.'
p4
aS'Analyst Tracker: Spectra Energy Corp  in Focus The Herald - Apr 15, 2017 Investors have the option to track analyst projections in order to help piece together valuable information. Out of the N/A covering Wall Street analysts providing share ratings for Spectra Energy Corp , N/A have rated the stock as a Strong ...'
p5
aS"Spectra Energy Corporation's About To Put More Money In Your Pocket Nasdaq - Mar 27, 2017 On 3/29/17, Spectra Energy Corporation's  will trade ex-dividend, for its quarterly dividend of $0.35, payable on 4/15/17."
p6
aS'Spectra Energy Corp.  Stake Reduced by UBS Asset Management Americas Inc. The Cerbat Gem - Apr 4, 2017 Spectra Energy Corp. logo UBS Asset Management Americas Inc. decreased its stake in Spectra Energy Corp.  by 1.5% during the fourth quarter, according to its most recent 13F filing with the Securities and Exchange Commission .Spectra Energy Corp.  Stake Cut by Beacon Financial Group - Sports PerspectivesThe Spectra Energy Corp.  Position Held by High Point Bank &amp; Trust Co. - Petro Global News 24'
p7
aS'Catawba Capital Management Buys Alphabet, Visa, Enbridge, Sells Spectra Energy ... Nasdaq - Apr 7, 2017 Catawba Capital Management initiated holdings in Enbridge Inc. The purchase prices were between $40.31 and $44.37, with an estimated average price of $42.25.'
p8
aS'Favorable Press Coverage Extremely Likely to Effect Spectra Energy Corp. (SE ... Community Financial News - Apr 15, 2017 Spectra Energy Corp. logo News coverage about Spectra Energy Corp.  has trended positive this week, according to Alpha One.The Spectra Energy Partners, LP  Shares Bought by Spirit of America ... - Petro Global News 24Spectra Energy Partners, LP  Shares Bought by Spirit of America ... - Markets Daily'
p9
aS'Enbridge cutting 1000 jobs after completing takeover of Spectra Energy Vancouver Sun - Mar 22, 2017 CALGARY - The cuts have come swiftly at energy giant Enbridge Inc. , which is laying off about 1,000 staff less than a month after closing its blockbuster takeover of Houston-based Spectra Energy Corp. Calgary-based Enbridge says the layoffs,&nbsp;...'
p10
a.