(lp0
S"Seneca Foods Corp acquires remaining 50% of Truitt Bros FreshPlaza - Apr 5, 2017 Truitt Bros. is a leader in developing shelf stable meals in trays and pouches,&quot; stated Kraig Kayser, Seneca Foods' President and CEO. &quot;For the last three years, we have worked with David and his team as equity partners, and we are pleased that they ..."
p1
aS'BRIEF-Seneca Foods Corp acquires the remaining 50pct of Truitt Bros Inc Reuters - Apr 3, 2017 NEW YORK, April 16 An engaged couple were removed from a United Airlines flight to Costa Rica on Saturday, as the airline remained under scrutiny following outrage caused by a video last week of a passenger being forcibly removed from a flight.'
p2
aS'Seneca Foods reports $3M profit Rochester Democrat and Chronicle - Aug 3, 2015 Wayne County-based Seneca Foods Corp. reported on Monday a $3 million profit in its latest quarterly results, an improvement over the same period a year earlier when the fruit and vegetable processing company reported a loss of $100,000.'
p3
aS'Seneca Foods, Monsanto Announce Long-Term Tolling Agreement to Drive ... GlobeNewswire  - Aug 4, 2016 MARION, N.Y., Aug. 04, 2016  -- Monsanto Company  and Seneca Foods Corporation   announced today a 10-year tolling agreement for vegetable large seed processing operations in&nbsp;...'
p4
aS'Seneca Foods selling California plant Rochester Democrat and Chronicle - Mar 23, 2015 Wayne County-based Seneca Foods Corp. said Monday it had signed a deal to sell its Modesto, California, fruit processing plant.Seneca Foods Announces Definitive Agreement with Pacific Coast Producers - GlobeNewswire Seneca will sell Modesto fruit cannery - Modesto Bee'
p5
aS'Seneca Foods Completes the Acquisition of Diana Fruit Company GlobeNewswire  - Feb 17, 2016 MARION, N.Y. and SANTA CLARA, Calif., Feb. 17, 2016  -- Seneca Foods Corporation    and Diana Fruit Co.Seneca Foods buys Diana Fruit Co. - Good Fruit Grower'
p6
aS'Seneca Foods Corp. Wants to Buy Allens Inc. In $148M Deal Arkansas Business Online - Dec 17, 2013 Seneca Foods Corp. of Marion, N.Y., said Tuesday that it has entered into an asset purchase agreement to acquire &quot;substantially all the operating assets&quot; of Allens Inc. of Siloam Springs, the privately held canning company that filed Chapter 11 ...'
p7
aS'Seneca Foods acquires all of Kentucky-based Truitt Bros. Rochester Business Journal - Apr 4, 2017 Seneca Foods Corp. has acquired the remaining 50 percent stake in Truitt Bros. Inc. The Marion, Wayne County-based Seneca Foods now owns 100 percent of Truitt.'
p8
aS'Seneca Foods Corp. Class A Common Stock  Moves Higher on Volume Spike ... Equities.com - Mar 29, 2017 Seneca Foods Corp. Class A Common Stock  traded on unusually high volume on Mar. 29, as the stock gained 0.71% to close at $35.40.'
p9
aS'Seneca Foods Corp. Class A Common Stock  Moves Lower on Volume Spike ... Equities.com - Mar 31, 2017 Seneca Foods Corp. Class A Common Stock  traded on unusually high volume on Mar. 31, as the stock lost 1.1% to close at $36.10.'
p10
a.