(lp0
S"Dutch bank renews and expands space at SL Green's 100 Park Avenue The Real Deal Magazine - Apr 12, 2017 ABN AMRO is renewing its lease at SL Green Realty Corp.'s 100 Park Avenue, taking more than 54,000 square feet in the Midtown tower.ABN AMRO expands to 54000 s/f at SL Green's 100 Park Avenue - Real Estate Weekly"
p1
aS"SL Green  to Report Q1 Earnings: What's in the Cards? Yahoo Finance - 21 hours ago The positive outlook indicates the rating agency's assumption of SL Green effectively managing the development risk of One Vanderbilt."
p2
aS"Marc Holliday, CEO of SL Green Realty Corp to Speak at Scarsdale Library Scarsdale10583.com - Apr 12, 2017 Mr. Holliday's talk is entitled &quot;One Vanderbilt: The Blueprint for Rebuilding East Midtown.&quot; One Vanderbilt Avenue is adjacent to Grand Central Terminal and has been the topic of much conversation in the New York real estate world. The project will be ..."
p3
aS"SL Green Realty Corp  to Release Earnings on Wednesday Normangee Star - 17 hours ago 12/15/2016 - SL Green Realty Corporation was upgraded to overweight by analysts at KeyBanc. Mitsubishi UFJ Trust &amp; Banking Corp now owns 654,705 shares of the company's stock valued at $43,819,000 after buying an additional 49,005 shares during&nbsp;...Federated Investors Inc. PA Reduces Position in SL Green Realty Corp  - Sports Perspectives"
p4
aS'SL Green Realty Corporation  Ex-Dividend Date Scheduled for March 29, 2017 Nasdaq - Mar 28, 2017 SL Green Realty Corporation  will begin trading ex-dividend on March 29, 2017. A cash dividend payment of $0.775 per share is scheduled to be paid on April 17, 2017.SL Green Realty Corp. to Release First Quarter 2017 Financial Results after ... - Business Wire Putnam Investments LLC Lowers Stake in SL Green Realty Corp  - Sports Perspectives'
p5
aS'SL Green Realty Corp. Risk Points versus Real Estate CML News - Apr 10, 2017 This is a scatter plot analysis of the critical risk points from the option market for SL Green Realty Corp.  compared to its own past and the Real Estate ETF.SL Green Realty Corp  Plans $0.78 Quarterly Dividend - The Cerbat GemSL Green Realty Corp  Getting Somewhat Positive News Coverage, Analysis Finds - Sports Perspectives'
p6
aS'Ex-Dividend Reminder: CareTrust REIT, Ryman Hospitality Properties and SL ... Nasdaq - Mar 27, 2017 Looking at the universe of stocks we cover at Dividend Channel , on 3/29/17, CareTrust REIT Inc , Ryman Hospitality Properties Inc , and SL Green Realty Corp  will all trade ex-dividend for their respective&nbsp;...'
p7
aS'Relative Strength Alert For SL Green Realty Forbes - Nov 1, 2016 SL Green Realty Corp  presently has an above average rank, in the top 50% of the coverage universe, which suggests it is among the top most &quot;interesting&quot; ideas that merit further research by investors.'
p8
aS"SL Green Realty Corp's 6.50% Series I Cumulative Redeemable Preferred Stock ... Nasdaq - Mar 27, 2017 On 3/29/17, SL Green Realty Corp's 6.50% Series I Cumulative Redeemable Preferred Stock  will trade ex-dividend, for its quarterly dividend of $0.4062, payable on 4/17/17."
p9
aS'SL Green Realty Corp  Set to Announce Earnings on Wednesday Sports Perspectives - 20 hours ago SL Green Realty Corp logo SL Green Realty Corp  is set to post its quarterly earnings results on Wednesday, April 19th.SL Green Realty Corp  Getting Favorable News Coverage, Study Finds - Alive For FootballSL Green Realty Corp  Expected to Announce Quarterly Sales of $282.63 Million - The Cerbat Gem'
p10
a.