(lp0
S'Under the Lens: Stock Review for Determine, Inc.  BVN - 9 hours ago Taking a closer look at some quality ratios for Determine, Inc. , the firm has a Gross Margin  ratio of 0.313403.'
p1
aS'Buy or Sell Unilife Corporation  Determine, Inc. (NASDAQ:DTRM ... Rives Journal - 19 hours ago Equity Research firms currently have a positive stance on shares of Unilife Corporation . The majority of analysts covering the equity have either a Buy or Strong Buy recommendation on the stock, yielding a consensus score of 2.00.'
p2
aS'Determine Inc  Short Interest Up 0.3% in March The Cerbat Gem - Apr 16, 2017 Determine logo Determine Inc  was the recipient of a significant increase in short interest during the month of March.'
p3
aS"What's Happening To These Stocks? - Determine, Inc. , Mammoth Energy ... Post Analyst - Apr 12, 2017 Determine, Inc. has a consensus outperform rating from 3 Wall Street analysts, and the number of shares currently sold short amount to at least 0.38% of shares outstanding."
p4
aS"Lucrative Stocks in today's market: Determine, Inc. : DTRM The News Journal - Apr 11, 2017 With the amassed value of the company based on its existing stock price alongside the total amount of outstanding stocks, today's market cap for Determine, Inc. is valued at 36.88. The value of the Market cap relatively ensures a stable and secure ..."
p5
aS"Top Positive Mover of Friday: Determine, Inc.'s  stock price finalizes ... WsNews 4investors - Mar 27, 2017 Determine, Inc.  stock price escalated 5.87% to finalize at $3.61 throughout previous buying and selling session."
p6
aS"Big Gainer Stock of Tuesday: Determine, Inc.'s  stock price finalizes at ... WsNews 4investors - Apr 12, 2017 Determine, Inc.  stock price distance from twenty day simple moving average surged at 6.41% while its distance from fifty day simple moving average raised 20.40% along with 68.13% above distance from two hundred simple moving averages."
p7
aS'Pharmaceutical leader Orion Corporation selects Determine to optimize their ... Marketwired  - Apr 11, 2017 CARMEL, IN-- - Determine, Inc. , the pioneering leader in global Source-to-Pay and Enterprise Contract Lifecycle Management  Cloud Platform solutions, announced today that Orion Corporation&nbsp;...'
p8
aS'LOST MONEY ON INVUITY, INC.? Contact Levi &amp; Korsinsky, LLP to Determine if You ... Yahoo Finance - Apr 3, 2017 To: All persons or entities who purchased or otherwise acquired securities of Invuity, Inc.   between July 19, 2016 and November 3, 2016.'
p9
aS"Today's Top Gainers in the Market Determine, Inc.  from Technology The Daily Leicester - Apr 11, 2017 Today's top gainers include the company Determine, Inc.  which is in the industry Application Software, gaining 13.79% today.Stocks: The Determine, Inc.  Receives Consensus Rating of Strong Buy ... - Petro Global News 24Determine  Earning Somewhat Positive Press Coverage, Study Finds - Chaffey Breeze"
p10
a.