(lp0
S'Summit Midstream Partners, LP Announces Closing of Drop Down Assets from ... PR Newswire  - Mar 4, 2016 THE WOODLANDS, Texas, March 4, 2016 /PRNewswire/ -- Summit Midstream Partners, LP  announced today that on March 3, 2016 , it closed the previously announced drop down acquisition of substantially all of  the&nbsp;...'
p1
aS"How Safe Is Summit Midstream Partners, LP Stock? Motley Fool - Apr 5, 2016 As that slide notes, Summit Midstream Partners' current debt-to-EBITDA ratio is 4.23 times, which is elevated compared to its long-term target ratio of 3.5 to 4.0 times."
p2
aS'Summit Midstream Partners, LP  Ex-Dividend Date Scheduled for February ... Nasdaq - Feb 2, 2017 Summit Midstream Partners, LP  will begin trading ex-dividend on February 03, 2017. A cash dividend payment of $0.575 per share is scheduled to be paid on February 14, 2017.'
p3
aS"News Summit Midstream Partners LPSMLP Wall Street Journal - Sep 21, 2012 News Summit Midstream Partners L.P.SMLP. Significant News Only. 04/01/17; Dow Jones Newswires. High Energy Investing Our Panelists' Picks."
p4
aS"The Biggest Problem With Summit Midstream Partners, LP Stock Motley Fool - Mar 22, 2016 The reason the transaction needed to be structured this way is because Summit Midstream Partners' unit price has been cut in half over the past year making it impossible to issue equity at a favorable price, while its balance sheet, which is noted on ..."
p5
aS'Stock Returns: Summit Midstream Partners, LP  is Beating Ship ... CML News - Apr 17, 2017 This is a snapshot to compare the stock returns for Ship Finance International Limited  versus Summit Midstream Partners, LP  . The stock return points we compare look at the last three-months, six-months and twelve-months.'
p6
aS'Summit Midstream Partners, LP Announces Drop Down of All Operating Assets from ... PR Newswire  - Feb 25, 2016 25, 2016 /PRNewswire/ -- Summit Midstream Partners, LP  announced today that it has entered into an agreement with a wholly owned subsidiary of Summit Midstream Partners, LLC , to acquire all of the issued and&nbsp;...'
p7
aS'Successful Earnings Option Trading: Summit Midstream Partners, LP  CML News - 20 hours ago As we look at Summit Midstream Partners, LP we note that a short put is one of the most common implementations of an option strategy, but the analysis completed when employing the short put often times lacks the necessary rigor especially surrounding&nbsp;...'
p8
aS'Summit Midstream Partners LP  Expected to Announce Earnings of $0.08 Per ... Markets Daily - 16 hours ago Summit Midstream Partners logo Wall Street brokerages predict that Summit Midstream Partners LP  will post earnings per share  of $0.08 for the current fiscal quarter, Zacks Investment Research reports.'
p9
aS'23.55 MarketWatch - Sep 28, 2012 Summit Midstream Partners L.P.. Watchlist CreateSMLPAlert. After Hours. Last Updated: Apr 13, 2017 4:02 p.m.. $ 23.55.'
p10
a.