(lp0
S"Here's Who Just Picked Up Echo Therapeutics Inc.  Shares Small Cap Exclusive  - Apr 6, 2017 In a just published Form 13, filed with the US Securities and Exchange Commission , Echo Therapeutics Inc.  reported that Schoenbart Alan Wayne has picked up 774,500 of common stock as of 2017-04-06."
p1
aS'Echo Therapeutics Announces New Patents for Non-Invasive Sensing Technology PR Newswire  - Feb 22, 2016 ISELIN, N.J., Feb. 22, 2016 /PRNewswire/ -- Echo Therapeutics, Inc. , a medical device company focused on non-invasive continuous glucose monitoring  and associated technologies, today announced new patents covering its system&nbsp;...'
p2
aS"Echo Therapeutics Separation Agreement With Scott Hollander ValueWalk - Sep 26, 2016 Late Friday afternoon, buried in an 8k and without a press release, Echo Therapeutics announced that it had entered into a Separation Agreement with Scott Hollander, the company's President, CEO and Director. The company did not name a replacement for&nbsp;..."
p3
aS'Echo Therapeutics, Inc. Announces First Quarter 2015 Financial Results PR Newswire  - May 15, 2015 ISELIN, N.J., May 15, 2015 /PRNewswire/ -- Echo Therapeutics, Inc. , a medical device company focused on non-invasive continuous glucose monitoring and associated technologies, today announced its financial results for the quarter&nbsp;...'
p4
aS"Echo Therapeutics' Continuous Glucose Monitoring System to be Profiled on ... PR Newswire  - Oct 21, 2015 ISELIN, N.J., Oct. 21, 2015 /PRNewswire/ -- Echo Therapeutics, Inc. , a medical device company focused on non-invasive continuous glucose monitoring and associated technologies, today announced that it was informed that, due to&nbsp;..."
p5
aS'Echo Therapeutics Announces New Patent for its Non-Invasive Sensing Technology PR Newswire  - Jun 22, 2016 ISELIN, N.J., June 22, 2016 /PRNewswire/ -- Echo Therapeutics, Inc. , a medical device company focused on non-invasive continuous glucose monitoring  and associated technologies, today announced a new patent covering its&nbsp;...'
p6
aS"More Trouble Ahead For Echo Therapeutics Inc ? ValueWalk - Jul 21, 2016 It appears the company failed to raise any equity in the over 6 month period it had to meet the Nasdaq requirement. We estimate ECTE needed to raise only approximately $7 million, which shouldn't have been that difficult considering the market is at ..."
p7
aS'Echo Therapeutics faces uncertain future in whistleblower case Mass Device - Dec 2, 2016 The company is exploring its alternatives, but if the company is unable to overturn the temporary restraining order or otherwise settle these actions, the company will be unable to continue as a going concern, Echo Therapeutics wrote in an SEC filing.Echo Therapeutics target of whistleblower suit, survival at stake; shares down 21% - Seeking Alpha'
p8
aS'Echo Therapeutics Inc   A Stock With No Revenue And A Short Catalyst ValueWalk - Jun 27, 2016 Echo Therapeutics  has no revenue, is losing money, is facing delisting from the Nasdaq exchange, needs capital, recently filed a shelf offering (very late in the day on a Friday!'
p9
aS'Echo Therapeutics Announces Scott W. Hollander as President &amp; Chief Executive ... PR Newswire  - Dec 23, 2014 23, 2014 /PRNewswire/ -- Echo Therapeutics, Inc. , a medical device company focused on skin permeation, continuous glucose monitoring and associated technologies, today announced that Scott W. Hollander has been appointed Chief&nbsp;...Echo Therapeutics names new CEO - Philadelphia Business Journal '
p10
a.