(lp0
S"SP Bancorp acquired by Houston bank for nearly $50M Dallas Business Journal - Oct 21, 2014 SP Bancorp Inc. , parent of SharePlus Bank, was acquired by Houston's Green Bancorp Inc.  in a nearly $50 million deal that closed on Monday."
p1
aS'Green Bancorp closes acquisition of Dallas bank Houston Business Journal - Oct 20, 2014 As of June 30, 2014, Green Bancorp had total assets of $1.8 billion, total loans of $1.4 billion and total deposits of $1.5 billion, while SP Bancorp had total assets of $335.1 million, total loans of $250.2 million and total deposits of $269 million ...'
p2
aS'Green Bancorp  Prices 4.7M Common IPO at $15/Share StreetInsider.com  - Aug 8, 2014 The Company intends to use the net proceeds from the offering to pay a portion of the purchase price of its proposed acquisition of SP Bancorp, Inc., which owns SharePlus Bank, a Texas charted state bank, and for general corporate purposes.'
p3
aS'Bank CFO to step down, become CEO at investment co. Houston Business Journal - Aug 31, 2016 Green Bancorp Inc. , the holding company of Green Bank N.A., announced Aug. 30 that CFO John Durie will step down on Oct. 31 to become CEO of Redstone Group Ltd.'
p4
aS'The Zacks Analyst Blog Highlights: SPDR S&amp;P Regional Banking, Farmers ... Nasdaq - Apr 5, 2017 Stocks recently featured in the blog include SPDR S&amp;P Regional Banking , Farmers &amp; Merchants Bancorp, Inc. , Park Sterling Corporation  and Two River&nbsp;...'
p5
aS'Fine Print: Real estate transfers, new mortgages March 1-April 4 Brown County Democrat - Apr 13, 2017  Somerset Lake Owners Assn. Inc to Paul Serex Jr. and Juanita Ann Hart. Donald E. DePrez Jr. and Janet M. DePrez to Cordry ...  German American Bancorp Holdings to David G. Lambert. Charles E. Martin to John Brent Sohn and Angela&nbsp;...'
p6
aS'Blackrock Set to Join the S&amp;P 100; Hewlett Packard Enterprise to Join the S&amp;P ... PR Newswire  - Oct 27, 2015  will be added to the S&amp;P 500 after the close of trading on Friday, October 30, replacing Hudson City Bancorp Inc. , which will be removed from the S&amp;P 500 after the close of trading on Monday, November 2. Hewlett Packard&nbsp;...'
p7
aS"Bull trend intact: Charting the S&amp;P 500's garden-variety pullback MarketWatch - Nov 29, 2016 Sucampo Pharmaceuticals, Inc. SCMP, +1.03% is a well positioned small-cap name. Earlier this month, the shares knifed to 11-month highs, rising amid a post-election spike, combined with the company's Nov. 9 earnings release."
p8
aS"Market bears fire shot across the bow, S&amp;P 500 ventures under the breakout point MarketWatch - Jan 31, 2017 Texas Instruments, Inc. TXN, -0.82% is a large-cap semiconductor name positioned to rise.  Earlier this month, the shares knifed to 16-year highs, rising after the company's strong quarterly results."
p9
aS'Fine Print: New mortgages, real estate transfers March 1-28 Brown County Democrat - Apr 6, 2017  Somerset Lake Owners Assn. Inc to Paul Serex Jr. and Juanita Ann Hart. Donald E. DePrez Jr. and Janet M. DePrez to Cordry Sweetwater Conservancy District and CSCD.'
p10
a.