(lp0
S'The Simon Property Group, Inc.  Issues FY17 Earnings Guidance Petro Global News 24 - Jan 31, 2017 A number of brokerages recently issued reports on SPG. Barclays PLC decreased their target price on Simon Property Group from $247.00 to $202.00 and set an overweight rating on the stock in a report on Monday, January 23rd.'
p1
aS"Louisiana State Employees Retirement System Sells 100 Shares of Simon Property ... The Cerbat Gem - 11 hours ago Simon Property Group logo Louisiana State Employees Retirement System lowered its stake in shares of Simon Property Group Inc  by 0.5% during the first quarter, according to its most recent disclosure with the Securities and Exchange&nbsp;...Zacks Investment Research Downgrades Simon Property Group Inc  to Sell - Sports PerspectivesThursday Trading Recap: Simon Property Group, Inc.'s  - Is stories"
p2
aS'Simon Opens Siheung Premium Outlets - Fourth Premium Outlet Center In South Korea PR Newswire  - Apr 6, 2017 SIHEUNG, South Korea, April 6, 2017 /PRNewswire/ -- Shinsegae Simon, a joint venture between Shinsegae Group and Simon Property Group, Inc.  announced today that it has opened Siheung Premium Outlets, its fourth Premium Outlet Center&nbsp;...'
p3
aS'Retail REITs GGP, Simon Property Collaborate with Life Time Zacks.com - 12 hours ago This included Simon Property and GGP coming together for the acquisition of teen clothing retailer - Aeropostale - last year.'
p4
aS'Trading Ledger: Keeping an Eye on Simon Property Group, Inc.  Benton Bulletin - Apr 16, 2017 Interested investors may be tracking the Piotroski F-Score. Simon Property Group, Inc.  currently has a Piotroski F-Score of 5. The aim of the F-Score is to help discover companies with strengthening balance sheets, and to eliminate the poor&nbsp;...'
p5
aS'SIMON PROPERTY GROUP,INC.  Files An 8-K Departure of Directors or ... Market Exclusive - Apr 6, 2017 On April 6, 2017, Simon Property Group, Inc.  reported that on April 4, 2017, David Contis, its Senior Executive Vice President, had provided notice that he was resigning effective May 5, 2017  in order to spend ...'
p6
aS'Simon Property Group Inc Risk Points versus Real Estate CML News - Apr 8, 2017 This is a scatter plot analysis of the critical risk points from the option market for Simon Property Group Inc  compared to its own past and the Real Estate ETF.Simon Property Group Inc  Earns Buy Rating from BTIG Research - The Cerbat GemSimon Property Group Inc.  Moves Lower on Volume Spike for April 04 - Equities.com'
p7
aS'Simon Property Group Inc.: Simon Property Group Schedules First Quarter 2017 ... The Wall Street Transcript - Mar 23, 2017 Simon is a global leader in retail real estate ownership, management and development and an S&amp;P100 company  . Our industry-leading retail properties and investments across North America, Europe and Asia provide&nbsp;...SIMON PROPERTY GROUP,INC.  Files An 8-K Amendments to Articles of ... - Market Exclusive'
p8
aS'Decision Time: Simon Property Group Inc  Stock Technicals Hit ... CML News - Apr 15, 2017 Decision Time: Simon Property Group Inc  now sits in the perhaps the most difficult technical position -- the stock has no urgency in its direction and that has left it at an inflection point.'
p9
aS'Analysts Observable Stock: Simon Property Group Inc.  StandardOracle - Mar 30, 2017 Simon Property Group Inc.  added 1.08% to reach $169.86 in the previous trading session. Overall, 1.92 Million shares exchanged hands versus its average trading volume of 1.92 Million shares.Simon Property Group Inc  Downgraded by Zacks Investment Research to Sell - The Cerbat Gem'
p10
a.