(lp0
S"The Brokers Set Expectations for Stoneridge, Inc.'s FY2016 Earnings  Petro Global News 24 - Feb 4, 2017 Stoneridge, Inc.  - Equities research analysts at KeyCorp issued their FY2016 earnings per share estimates for shares of Stoneridge in a report released on Tuesday."
p1
aS'Stoneridge, Inc. Mansfield News Journal - Apr 14, 2017 Product: Sensors, switches, solenoid valves. Product Description: Stoneridge is a global automotive supplier of sensors, switches, solenoid valves and other similar products.'
p2
aS'Stoneridge To Present At The 2017 Global Auto Industry Conference Hosted By ... PR Newswire  - Jan 6, 2017 NOVI, Mich., Jan. 6, 2017 /PRNewswire/ -- Stoneridge, Inc.  today announced that Jonathan B. DeGaynor, President and Chief Executive Officer; and Robert R. Krakowiak, Chief Financial Officer and Treasurer, will participate in the 2017 Global&nbsp;...'
p3
aS'Market View: Checking on the Technicals for Stoneridge, Inc.  Searcy News - 15 hours ago Tracking shares of Stoneridge, Inc. , the company has a current EV  of 561192. Enterprise Value measures the total value of a specific company.'
p4
aS'Stoneridge Inc.  Moves Higher on Volume Spike for April 05 Equities.com - Apr 5, 2017 Stoneridge Inc.  traded on unusually high volume on Apr. 05, as the stock gained 0.99% to close at $17.39. On the day, Stoneridge Inc. saw 273,786 shares trade hands on 2,201 trades. Considering that the stock averages only a daily volume of 151 ...'
p5
aS'Stoneridge Inc.  Moves Lower on Volume Spike for March 31 Equities.com - Mar 31, 2017 Stoneridge Inc.  traded on unusually high volume on Mar. 31, as the stock lost 1.41% to close at $18.14. On the day, Stoneridge Inc. saw 217,614 shares trade hands on 1,875 trades. Considering that the stock averages only a daily volume of 137,292&nbsp;...70700 Shares in Stoneridge, Inc.  Acquired by Russell Investments Group Ltd. - BNB Daily Stoneridge, Inc.  Expected to Earn FY2017 Earnings of $1.47 Per Share - Sports Perspectives'
p6
aS'Stoneridge acquires Orlaco Products Seeking Alpha - Feb 1, 2017 Stoneridge  announces that it completed the acquisition of Orlaco Products BV for 75M, with financial contingent payments also in play for the future.'
p7
aS'Stoneridge Inc.  Moves Lower on Volume Spike for March 20 Equities.com - Mar 20, 2017 Stoneridge Inc.  traded on unusually high volume on Mar. 20, as the stock lost 0.21% to close at $18.86. On the day, Stoneridge Inc. saw 225,041 shares trade hands on 2,115 trades. Considering that the stock averages only a daily volume of 103,535&nbsp;...'
p8
aS'Stoneridge Inc.  Moves Lower on Volume Spike for March 17 Equities.com - Mar 17, 2017 Stoneridge Inc.  traded on unusually high volume on Mar. 17, as the stock lost 1.1% to close at $18.90. On the day, Stoneridge Inc. saw 223,968 shares trade hands on 1,110 trades. Considering that the stock averages only a daily volume of 103,216&nbsp;...Stoneridge, Inc.  Broker Price Targets For The Coming Week - Fiscal Standard'
p9
aS"Stoneridge Inc.  Drops 21.67% on October 27 Equities.com - Oct 27, 2016 Stoneridge Inc.  was one of the Russell 2000's biggest losers for Thursday October 27 as the stock slid 21.67% to $14.28, a loss of $-3.95 per share."
p10
a.