(lp0
S'Scisys Plc  Given Corporate Rating at FinnCap The Cerbat Gem - 8 hours ago Scisys Plc logo FinnCap restated their corporate rating on shares of Scisys Plc  in a report issued on Monday morning.'
p1
aS"SciSys PLC  Receives 'Corporate' Rating From Brokers At Finncap UK Market News - Mar 31, 2017 SciSys PLC  yesterday was the subject of a new research report issued by Finncap in which it was reiterated as 'Corporate' by analysts at the firm.Scisys Plc  Rating Reiterated by FinnCap - BNB Daily Scisys Plc  Declares Dividend of GBX 1.43 - The Cerbat Gem"
p2
aS"Does SciSys plc's  Low Debt-Load Make It Financially Strong? Simply Wall St - Mar 29, 2017 Small-cap companies such as SciSys plc  with its market cap of USD $38 Million, have high growth potential but financial strength is the deciding factor in their long-term survival."
p3
aS'Scisys Says 2017 Outlook &quot;Encouraging&quot; As 2016 Profit Rises London South East   - Mar 30, 2017 LONDON  - Scisys PLC on Thursday said its outlook for 2017 is &quot;encouraging&quot;, as it reported a significant rise in pretax profit for 2016.'
p4
aS"Analysts At FinnCap Reiterated SciSys PLC  As Corporate Fiscal Standard - Mar 30, 2017 Today analysts at finnCap reiterated SciSys PLC's  shares as 'Corporate' in a report released to investors.Scisys Plc  Earns Corporate Rating from FinnCap - Sports Perspectives"
p5
aS"FinnCap Reiterates Corporate Rating for Scisys Plc  The Cerbat Gem - Mar 29, 2017 Scisys Plc logo Scisys Plc 's stock had its corporate rating reaffirmed by FinnCap in a research note issued on Monday.SciSys PLC  Issued With 'Corporate' Rating At FinnCap - UK Market News"
p6
aS"Scisys Plc's  Corporate Rating Reaffirmed at FinnCap BBNS - Apr 16, 2017 Scisys Plc logo FinnCap reissued their corporate rating on shares of Scisys Plc  in a research note released on Monday.Scisys Plc  Releases Earnings Results - Chaffey Breeze"
p7
aS'Scisys Plc  Receives Corporate Rating from FinnCap Markets Daily - Apr 6, 2017 Scisys Plc logo FinnCap restated their corporate rating on shares of Scisys Plc  in a research note released on Wednesday morning.The Scisys Plc  Given Corporate Rating at FinnCap - Petro Global News 24'
p8
aS'SciSys PLC  Stock Rating Kept by finnCap; The GBX 155.00 Target ... MoneyMakingArticles - Apr 5, 2017 SciSys PLC  had its stock rating noted as Corporate by analysts at finnCap. finnCap currently has a GBX 155.00 TP on the 30.77 million GBP market cap company or 40.27% upside potential.'
p9
aS"The Scisys Plc  Stock Rating Reaffirmed by FinnCap Petro Global News 24 - Apr 12, 2017 Scisys Plc  opened at 108.00 on Wednesday. The firm's market cap is GBX 31.38 million. Scisys Plc has a 12 month low of GBX 66.23 and a 12 month high of GBX 117.99."
p10
a.