(lp0
S'26.65 MarketWatch - Jul 28, 2009 State Auto Financial Corp. is a property and casualty insurance holding company, which engages in the provision of personal and commercial insurance for both the standard and nonstandard insurance market.'
p1
aS"State Auto Financial's  CEO Michael LaRocco on Q3 2016 Results ... Seeking Alpha - Nov 5, 2016 Today I'm joined by our Chairman, President, and CEO, Mike LaRocco; Senior Vice President and CFO, Steve English; Senior Vice President of Standard Lines and Managing Director of State Auto Labs, Kim Garland; Senior Vice President, Director of&nbsp;..."
p2
aS'State Auto Financial Q1 2016 Results Fall, Combined Ratio Rises Insurance Journal - May 2, 2016 Ohio-based State Auto Financial Corp. announced first quarter 2016 net income of $3.0 million, or $0.07 per diluted share, versus net income of $24.7 million, or $0.60 per diluted share, for the first quarter of 2015.'
p3
aS"State Auto Realigns Units, Announces Leadership Hires, Changes Insurance Journal - Aug 25, 2015 State Auto Financial Corp. today announced changes to the company's leadership and a redefining of the company's key business units.State Auto's new CEO stressing accountability with leadership changes - Columbus Business First"
p4
aS'State Auto Financial Corp  Earning Somewhat Positive Press Coverage ... BBNS - Apr 15, 2017 State Auto Financial Corp logo Media headlines about State Auto Financial Corp  have been trending somewhat positive on Saturday, according to Alpha One Sentiment.State Auto Financial Corp  Stake Held by State Board of Administration ... - Sports Perspectives'
p5
aS'State Auto Financial Corp  Given Media Impact Score of 0.00 The Cerbat Gem - Apr 13, 2017 State Auto Financial Corp logo News stories about State Auto Financial Corp  have been trending somewhat positive on Tuesday, according to AlphaOne.'
p6
aS'State Auto Financial Corp  Earning Somewhat Favorable News Coverage ... The Cerbat Gem - Apr 5, 2017 State Auto Financial Corp logo News headlines about State Auto Financial Corp  have trended somewhat positive recently, according to Alpha One.'
p7
aS'State Auto Financial Corp  Stake Held by Allianz Asset Management AG Sports Perspectives - Apr 15, 2017 State Auto Financial Corp logo Allianz Asset Management AG continued to hold its stake in State Auto Financial Corp  during the fourth quarter, according to its most recent Form 13F filing with the Securities and Exchange Commission.'
p8
aS'State Auto cutting more than 100 jobs Columbus Business First - Nov 3, 2015 State Auto Financial Corp. will cut more than 100 jobs as part of its effort to reduce expenses, company executives said Tuesday in reporting another disappointing quarter.'
p9
aS'Force Capital Management LLC Has $2927000 Position in State Auto Financial ... The Cerbat Gem - Mar 29, 2017 State Auto Financial Corp logo Force Capital Management LLC decreased its position in shares of State Auto Financial Corp  by 9.2% during the fourth quarter, according to its most recent filing with the Securities and Exchange Commission&nbsp;...State Auto Financial Corp  Declares $0.10 Quarterly Dividend - Chaffey Breeze'
p10
a.