(lp0
S"Standard Financial Corp. and Allegheny Valley Bancorp, Inc. Announce ... PR Newswire  - Apr 7, 2017 The united company will operate under the Standard Bank name while incorporating the Allegheny Valley Bank logo to provide both banks' customers with a sense of familiarity."
p1
aS"Standard Financial Corp. and Allegheny Valley Bancorp, Inc. Announce Merger of ... PR Newswire  - Aug 29, 2016 The combined company will operate under the Standard Bank name while incorporating the Allegheny Valley Bank logo to provide both banks' customers with a sense of familiarity.Standard Financial and Allegheny Valley merging in $56.5M deal - Pittsburgh Business Times"
p2
aS'Standard AVB Financial  Analysts See $0.00 EPS; Peoples Bancorp Inc ... Key Gazette - Apr 12, 2017 Analysts expect Standard AVB Financial Corp  to report $0.00 EPS on April, 27. It closed at $26.8 lastly. It is down 15.02% since September 6, 2016 and is uptrending.'
p3
aS'Standard Financial, Allegheny Valley deal approved by shareholders Pittsburgh Business Times - Mar 28, 2017 Standard Financial Corp. and Allegheny Valley Bancorp on Tuesday announced that their respective shareholders approved their previously announced merger, which is expected to be completed on April 7. The $56.5 million stock transaction will create a $1&nbsp;...'
p4
aS'Cobalt International Energy, Inc.  Files An 8-K Notice of Delisting ... Market Exclusive - Feb 28, 2017 Cobalt International Energy, Inc.  Files An 8-K Notice of Delisting or Failure to Satisfy a Continued Listing Rule or Standard; Transfer of Listing. By ... Sign up for the Market Exclusive daily email newsletter with the latest financial news ...'
p5
aS"VESTIN REALTY MORTGAGE II, INC  Files An 8-K Notice of Delisting ... Market Exclusive - Jan 9, 2017 On January 5, 2017 Vestin Realty Mortgage II, Inc., a Maryland corporation  received a letter from NASDAQ that the Company had not yet held an annual meeting of shareholders within twelve months of the end of the Company's 2015 fiscal&nbsp;..."
p6
aS'STRATA SKIN SCIENCES, INC.  Files An 8-K Notice of Delisting or ... Market Exclusive - Dec 2, 2016 STRATA SKIN SCIENCES, INC.  Files An 8-K Notice of Delisting or Failure to Satisfy a Continued Listing Rule or Standard; Transfer of Listing Item 3.01. Notice of Delisting or Failure to Satisfy a Continued Listing Rule or Standard ...'
p7
aS'LINEAR TECHNOLOGY CORPORATION  Files An 8-K Completion of ... Market Exclusive - Mar 10, 2017 Linear Technology Corporation is engaged in designing, manufacturing and marketing a line of analog integrated circuits. The Company produces power management, data conversion, signal conditioning, radio frequency  and interface integrated&nbsp;...'
p8
aS'ALPHA PRO TECH, LTD.  Files An 8-K Departure of Directors or ... Market Exclusive - Mar 16, 2017 The Company is engaged in developing, manufacturing and marketing a line of disposable protective apparel and infection control products for the cleanroom, industrial, pharmaceutical, medical and dental markets through its subsidiary, Alpha Pro Tech, Inc.'
p9
aS'Applied Optoelectronics, Inc.  Files An 8-K Results of Operations ... Market Exclusive - Jan 12, 2017 Applied Optoelectronics, Inc. is a vertically integrated provider of fiber-optic networking products. The Company offers its products for approximately three networking end markets, such as Internet data center; cable television , and fiber-to ...'
p10
a.