(lp0
S'News Schweitzer-Mauduit International Inc.SWM Wall Street Journal - Feb 11, 2011 News Schweitzer-Mauduit International Inc.SWM. Significant News Only. 03/30/17; Press Release. Press Release: SWM ANNOUNCES CEO TRANSITION AND BOARD APPOINTMENTS.'
p1
aS"Schweitzer-Mauduit: A Slow Burn To Growth Seeking Alpha - Dec 19, 2016 SWM is acquiring Conwed for $295 million; after $75 million in tax benefits, this will go down to $220 million. The acquisition is a good strategic fit for the company's resin division and should generate substantial synergies. Acquisition multiple is ..."
p2
aS'Watching Stock Levels for Schweitzer-Mauduit International, Inc.  Baxter Review - 14 hours ago Schweitzer-Mauduit International, Inc. presently has an ROIC of 0.247471. The current ROIC 5 year average is 0.222755 and the ROIC Quality ratio is currently 5.370897.'
p3
aS'SCHWEITZER-MAUDUIT INTERNATIONAL, INC.  Files An 8-K Completion of ... Market Exclusive - Apr 7, 2017 The Company operates through two segments: Engineered Papers, and Advanced Materials and Structures. Its Engineered Papers segment produces both tobacco-related papers and non-tobacco-related papers.'
p4
aS'Decision Time: Schweitzer-Mauduit International Inc  Stock ... CML News - Mar 22, 2017 Decision Time: Schweitzer-Mauduit International Inc  now sits in the perhaps the most difficult technical position -- the stock has no urgency in its direction and that has left it at an inflection point.'
p5
aS'Levels in View on Shares of Schweitzer-Mauduit International Inc  Midway Monitor - 16 hours ago One technical indicator that may assist in measuring the strength of market momentum is the Average Directional Index or ADX. At the time of writing, the 14-day ADX for Schweitzer-Mauduit International Inc  is standing at 13.96. Many chart ...Schweitzer-Mauduit International, Inc.  Reviewed By Analysts - The De Soto Edge'
p6
aS'Conwed Plastics bought by Schweitzer-Mauduit International in $295M deal Minneapolis / St. Paul Business Journal - Dec 15, 2016 Minneapolis-based plastic netting manufacturer Conwed Plastics has been purchased by precision engineering giant Schweitzer-Mauduit International Inc.  for $295 million. Conwed Plastics was previously owned by Leucadia National Corp.Schweitzer-Mauduit to buy Conwed Plastics - Filtration + SeparationDelStar owner buys plastic net maker Conwed - Plastics News'
p7
aS'A New Kind of Stock Chart: Schweitzer-Mauduit International Inc (NYSE:SWM ... CML News - Apr 15, 2017 This is a real time view of the critical technical pivot points for Schweitzer-Mauduit International Inc  . The technical pivot points we look at all surround the stock price movement from the last 10-trading days through the last year.'
p8
aS"Trading Options During Earnings in Schweitzer-Mauduit International Inc  CML News - Apr 4, 2017 With the right tool kit it's easy to find an explicit answer: Buying out of the money strangles during earnings for Schweitzer-Mauduit International Inc has been a winner. This is the information that the top 0.1% have and now it's time for us all to ..."
p9
aS"Schweitzer-Mauduit International's  CEO Frederic Villoutreix on Q4 2016 ... Seeking Alpha - Feb 16, 2017 Welcome to the SWM Fourth Quarter 2016 Earnings Conference Call. Hosting the call today from SWM is Frederic Villoutreix, Chairman and Chief Executive Officer.SWM Announces Rebranding of Acquired Companies - Nasdaq"
p10
a.