(lp0
S"Market: The Stock Yards Bancorp, Inc.  Releases Quarterly Earnings Results Petro Global News 24 - Jan 27, 2017 Stock Yards Bancorp, Inc.  issued its quarterly earnings results on Thursday. The company reported $0.46 EPS for the quarter, beating the Zacks' consensus estimate of $0.45 by $0.01."
p1
aS'38.65 MarketWatch - Apr 18, 2011 Stock Yards Bancorp Inc. Watchlist CreateSYBTAlert. After Hours. Last Updated: Apr 13, 2017 4:00 p.m.. $ 38.65. 0.00 0.00%.'
p2
aS'Stock Yards Bancorp Announces Three-for-Two Stock Split Business Wire  - May 2, 2016 LOUISVILLE, Ky.----Stock Yards Bancorp, Inc. , parent company of Stock Yards Bank &amp; Trust Company, with offices in the Louisville, Indianapolis and Cincinnati metropolitan markets, today announced that its Board of&nbsp;...'
p3
aS'Insider Trading Activity Stock Yards Bancorp Inc   CEO Sold 1000 ... Market Exclusive - Apr 3, 2017 On 8/15/2012 Carl G Herde, Director, bought 1,000 with an average share price of $22.82 per share and the total transaction amounting to $22,820.00.Stock Returns: Preferred Bank  is Beating Stock Yards Bancorp Inc ... - CML NewsStock Yards Bancorp Inc  Downgraded to Sell at Zacks Investment Research - The Cerbat Gem'
p4
aS'Stock Yards Bancorp Inc.  Moves Higher on Volume Spike for March 17 Equities.com - Mar 17, 2017 Stock Yards Bancorp Inc.  traded on unusually high volume on Mar. 17, as the stock gained 1.04% to close at $43.70. On the day, Stock Yards Bancorp Inc. saw 152,332 shares trade hands on 558 trades. Considering that the stock averages only a&nbsp;...'
p5
aS'Stock Yards Bancorp Inc  Raised to &quot;Hold&quot; at Zacks Investment Research The Cerbat Gem - Apr 15, 2017 Zacks Investment Research upgraded shares of Stock Yards Bancorp Inc  from a sell rating to a hold rating in a research report sent to investors on Saturday morning.The Stock Yards Bancorp Inc  Raised to Hold at Zacks Investment Research - Petro Global News 24Stock Yards Bancorp  Getting Favorable News Coverage, Study Shows - Markets Daily'
p6
aS'Stock Yards Bancorp Inc.  Moves Higher on Volume Spike for April 11 Equities.com - Apr 11, 2017 Stock Yards Bancorp Inc.  traded on unusually high volume on Apr. 11, as the stock gained 0.25% to close at $39.50. On the day, Stock Yards Bancorp Inc. saw 96,783 shares trade hands on 1,333 trades. Considering that the stock averages only a&nbsp;...'
p7
aS'Stock Yards Bancorp Inc.  Moves Higher on Volume Spike for March 28 Equities.com - Mar 28, 2017 Stock Yards Bancorp Inc.  traded on unusually high volume on Mar. 28, as the stock gained 1.4% to close at $39.80. On the day, Stock Yards Bancorp Inc. saw 87,349 shares trade hands on 1,157 trades. Considering that the stock averages only a ...Stock Returns: Tristate Capital Holdings Inc  is Beating Stock ... - CML NewsStock Yards Bancorp Inc  CEO Sells $40005.70 in Stock - Sports Perspectives'
p8
aS'Sell-side Recommendations on Stock Yards Bancorp, Inc.  The Herald - Apr 15, 2017 Equity research firms covering public U.S companies have a workforce of analysts dedicating their time covering the most popular stocks.'
p9
aS'How Stock Yards Bancorp  Stock Stands Out in a Strong Industry Nasdaq - Feb 9, 2017 One stock that might be an intriguing choice for investors right now is Stock Yards Bancorp, Inc. SYBT . This is because this security in the Banks - Southeast space is seeing solid earnings estimate revision activity, and is in great company from a ...'
p10
a.