(lp0
S'Stocks: The Sykes Enterprises, Incorporated  Given Consensus Rating of ... Petro Global News 24 - Jan 8, 2017 Separately, Zacks Investment Research raised shares of Sykes Enterprises, from a sell rating to a hold rating in a research note on Saturday, December 10th.'
p1
aS'Is Sykes Enterprises Incorporated  As Financially Strong As It Appears ... Simply Wall St - Apr 14, 2017 Companies with small market capitalization such as Sykes Enterprises Incorporated , while they can deliver high growth, financial strength is the deciding element in their long-term existence.Sell-side Review on Sykes Enterprises, Incorporated  - Rockville Register'
p2
aS'Q3 2017 Earnings Forecast for Sykes Enterprises, Incorporated Issued By ... Sports Perspectives - 5 hours ago Sykes Enterprises, logo Sykes Enterprises, Incorporated  - Equities research analysts at SunTrust Banks lifted their Q3 2017 earnings per share  estimates for Sykes Enterprises, in a report released on Sunday, Zacks Investment&nbsp;...Sykes Enterprises,  Receiving Somewhat Favorable Media Coverage, Study Finds - Markets DailySykes Enterprises, Incorporated Expected to Earn FY2017 Earnings of $2.03 Per ... - BBNS'
p3
aS"Sykes Enterprises, Incorporated  CFO Sells $176824.00 in Stock Sports Perspectives - 21 hours ago Sykes Enterprises, logo Sykes Enterprises, Incorporated  CFO John Chapman sold 6,200 shares of the business's stock in a transaction dated Tuesday, March 28th.Q3 2017 EPS Estimates for Sykes Enterprises, Incorporated Raised by SunTrust ... - The Cerbat GemSykes Enterprises, Incorporated  Sees Large Growth in Short Interest - Chaffey Breeze"
p4
aS'Sykes Enterprises, Incorporated Completes Acquisition of Tech-Enabled Demand ... Marketwired  - Apr 1, 2016 TAMPA, FL-- - Sykes Enterprises, Incorporated  , a global business process outsourcing  leader in providing comprehensive inbound customer engagement services to Global&nbsp;...'
p5
aS'Insider Trading Activity Sykes Enterprises, Incorporated (NASDAQ:SYKE ... Market Exclusive - Apr 3, 2017 On 8/21/2012 Iain A Macdonald, Director, bought 6,000 with an average share price of $14.12 per share and the total transaction amounting to $84,720.00.'
p6
aS'Insider Trading Activity Sykes Enterprises, Incorporated (NASDAQ:SYKE ... Market Exclusive - Mar 21, 2017 On 8/21/2012 Iain A Macdonald, Director, bought 6,000 with an average share price of $14.12 per share and the total transaction amounting to $84,720.00.'
p7
aS'Insider Trading Activity Sykes Enterprises, Incorporated   CFO ... Market Exclusive - Mar 28, 2017 On 8/21/2012 Iain A Macdonald, Director, bought 6,000 with an average share price of $14.12 per share and the total transaction amounting to $84,720.00.'
p8
aS'GSA Capital Partners LLP Takes Position in Sykes Enterprises, Incorporated  The Cerbat Gem - Apr 16, 2017 Sykes Enterprises, logo GSA Capital Partners LLP acquired a new stake in shares of Sykes Enterprises, Incorporated  during the fourth quarter, according to its most recent 13F filing with the SEC.Sykes Enterprises, Incorporated  Receives An Update From Brokers - The De Soto Edge'
p9
aS"Sykes Enterprises,  EPS Estimated At $0.40; Paramount Group (PGRE ... Key Gazette - Apr 12, 2017 Analysts expect Sykes Enterprises, Incorporated  to report $0.40 EPS on May, 1.They anticipate $0.02 EPS change or 4.76% from last quarter's $0.42 EPS.Norges Bank Buys Shares of 662599 Sykes Enterprises, Incorporated  - Markets DailySykes Enterprises, Incorporated  Insider Sells $172980.00 in Stock - The Cerbat Gem"
p10
a.