(lp0
S'The Hanover Insurance Group, Inc.  Scheduled to Post Earnings on Thursday Petro Global News 24 - Feb 1, 2017 The Hanover Insurance Group, Inc.  opened at 83.94 on Wednesday. The company has a 50-day moving average of $87.85 and a 200-day moving average of $81.89.'
p1
aS'Oversold Conditions For Hanover Insurance Group  Nasdaq - Apr 13, 2017 In trading on Thursday, shares of Hanover Insurance Group Inc  entered into oversold territory, hitting an RSI reading of 29.98, after changing hands as low as $86.17 per share.'
p2
aS'The Hanover Insurance Group, Inc. Appoints Jeffrey M. Farber Executive Vice ... PR Newswire  - Sep 22, 2016 WORCESTER, Mass., Sept. 22, 2016 /PRNewswire/ -- The Hanover Insurance Group, Inc.  today announced that Jeffrey M. Farber has been appointed executive vice president and chief financial officer.Hanover hires new CFO, executive VP - PropertyCasualty360'
p3
aS'The Hanover Insurance Group, Inc. Will Hold Investor Day Meeting On February 23 PR Newswire  - Jan 27, 2017 The Hanover Insurance Group, Inc., based in Worcester, Mass., is the holding company for several property and casualty insurance companies, which together constitute one of the largest insurance businesses in the United States.'
p4
aS'The Hanover Insurance Group, Inc. To Issue Fourth Quarter 2016 Financial ... PR Newswire  - Jan 9, 2017 WORCESTER, Mass., Jan. 9, 2017 /PRNewswire/ -- The Hanover Insurance Group, Inc.  expects to release its fourth quarter financial results after the market closes on Thursday, February 2. The company will webcast a discussion of its results ...'
p5
aS'Hanover Insurance Restructures Agency Business; Eyes Specialty Expansion Insurance Journal - Feb 23, 2017 The Hanover Insurance Group Inc. is making some organizational changes as it implements what its CEO calls its go-forward business strategy, Hanover 2021 that is focused on growing responsibly, managing volatility and generating strong returns for&nbsp;...The Hanover Outlines Go-Forward Strategy at Investor Day; Aligns Organization ... - PR Newswire '
p6
aS'Hanover Insurance Group Becomes Oversold Forbes - Sep 8, 2016 But making Hanover Insurance Group Inc an even more interesting and timely stock to look at, is the fact that in trading on Thursday, shares of THG entered into oversold territory, changing hands as low as $76.62 per share.'
p7
aS'Hanover Insurance Group Inc  Downgraded by Zacks Investment Research to ... The Cerbat Gem - Apr 17, 2017 Hanover Insurance Group Inc logo Zacks Investment Research lowered shares of Hanover Insurance Group Inc  from a buy rating to a hold rating in a report issued on Tuesday morning.Hanover Insurance Group Inc  Moves Lower on Volume Spike for April 14 - Equities.com'
p8
aS'The Hanover Launches Professional Liability Risk Management Portal PR Newswire  - Mar 21, 2017 WORCESTER, Mass., March 21, 2017 /PRNewswire/ -- The Hanover Insurance Group, Inc.  recently introduced HanoverProRisk, an online portal featuring risk management tools tailored to the specific needs of the professional liability industry.'
p9
aS"The Hanover Insurance Group, Inc. Reports the Passing of Its Chief Financial ... PR Newswire  - Oct 19, 2015 WORCESTER, Mass., Oct. 19, 2015 /PRNewswire/ -- The Hanover Insurance Group, Inc.,  today announced that David B. Greenfield, the company's chief financial officer, passed away over the weekend, following a health event late last week.Hanover CFO Dies at 53, Forcing Departing CEO Into Dual Role - BloombergCFO Moves: Hanover Insurance, MYR Group - Wall Street Journal "
p10
a.