(lp0
S'One Of The Hottest Stocks On The NYSE Is A Company Most Of Us Have Never Heard ... Business Insider - Aug 7, 2014 The Texas Pacific Land Trust has traded under ticker symbol TPL since ticker tape was an emerging technology. But at a time when billions of shares change hands every day and a high-frequency head start measured in milliseconds can be enough to game&nbsp;...'
p1
aS'Texas Pacific Land Trust  Reuters - May 23, 2008 Texas Pacific Land Trust  is engaged in managing land, including royalty interests, for the benefit of its owners.'
p2
aS'280.02 MarketWatch - Dec 21, 2009 Texas Pacific Land Trust Sub. Share Cert. Texas Pacific Land Trust engages in managing land, including royalty interests, for the benefit of its owner.'
p3
aS'Texas Pacific Land Trust Is Slowly Liquidating Itself Seeking Alpha - Oct 16, 2016 Texas Pacific Land Trust was created in 1888 as a result of a reorganization of the Texas and Pacific Railway Company following receivership.'
p4
aS'Murray Stahl Adds to Stake in Texas Pacific Land Trust GuruFocus.com - Apr 23, 2016 Texas Pacific Land Trust was created in 1888 to receive and hold title to extensive tracts of land in Texas, previously the property of the Texas and Pacific Railway Company, and to issue transferable Certificates of Proprietary Interest pro rata to ...'
p5
aS"Texas Pacific Land Trust, A Good Value Seeking Alpha - Aug 4, 2016 &quot;At the end of the year, the Trust's royalty wells totaled 3,509 consisting of 1,167 oil wells and 60 gas wells, each subject to a 1/16 royalty interest, and 2,214 oil wells and 68 gas wells, each subject to a 1/128 royalty interest."
p6
aS"A Quick Look at Texas Pacific Land Trust  Nelson Research - 1 hour ago Shares out, the common shares that have been authorized, issued, and purchased by investors, belonging to Texas Pacific Land Trust  are 7930. Market capitalization refers the total dollar market value of a company's outstanding shares, Texas ..."
p7
aS'In Search Of A Price Target For Texas Pacific Land Trust Seeking Alpha - Mar 22, 2017 The Texas Pacific Land Trust  is not your typical company. It produces no products. It provides no services. Its only real asset is land, much of it dry, arid, and not very habitable.'
p8
aS"Texas Pacific Land Trust - Land For Sale At A Discount Seeking Alpha - Nov 29, 2015 Summary. Texas Pacific Land Trust has an unusual but profitable business model. Oil production increase in Texas contributes to a substantial increase in TPL's revenue."
p9
aS"Can Texas Pacific Land Trust  Continue To Outperform Its Industry? Simply Wall St - Mar 28, 2017 Texas Pacific Land Trust  delivered 79.8% ROE in the last year. However, to put Texas Pacific Land Trust's Return on Equity in perspective, we must compare it to the performance of its industry, which averaged an ROE of 11.97%. Although ...Robert J. Packer Buys 100 Shares of Texas Pacific Land Trust  Stock - Chaffey Breeze"
p10
a.