(lp0
S'United Bankshares, Inc. Secures Remaining Regulatory and Shareholder Approvals ... Yahoo Finance - Apr 7, 2017 United Bankshares, Inc.   shareholders approved the acquisition of Cardinal Financial Corporation   during a special shareholder meeting on April 7, 2017.Federal Reserve approves United Bankshares buyout of Cardinal Bank - Reuters'
p1
aS'United Bankshares Enters Oversold Territory Nasdaq - Apr 13, 2017 But making United Bankshares Inc an even more interesting and timely stock to look at, is the fact that in trading on Thursday, shares of UBSI entered into oversold territory, changing hands as low as $38.55 per share.'
p2
aS'United Bankshares Said in Talks to Buy Cardinal Financial Bloomberg - Aug 17, 2016 United Bankshares Inc. is in talks to acquire rival Washington-area lender Cardinal Financial Corp., according to people familiar with the matter, as regional banks seek to pair up to counter low interest rates and mounting regulatory costs.United Bankshares to Buy Cardinal Financial in DC Bank Merger - Wall Street Journal'
p3
aS'Technical Study: Following Indicators for United Bankshares Inc  Midway Monitor - 18 hours ago At the time of writing, the 14-day ADX for United Bankshares Inc  is standing at 35.48. Many chart analysts believe that an ADX reading over 25 would suggest a strong trend.'
p4
aS"What Type of Consensus Views Analysts hold about United Bankshares, Inc.'s ... Hot Stocks Point - 17 hours ago United Bankshares, Inc.  stock price ended its day with loss -2.52% and finalized at the price of $38.65. During its last trading session, Stock traded with the total exchanged volume of 0.94 million shares."
p5
aS'United Bankshares Inc.  Moves Lower on Volume Spike for April 12 Equities.com - Apr 12, 2017 United Bankshares Inc.  traded on unusually high volume on Apr. 12, as the stock lost 2.46% to close at $39.65. On the day, United Bankshares Inc. saw 1.7 million shares trade hands on 12,520 trades. Considering that the stock averages only a ...Digging Up the Facts on United Bankshares, Inc.  - StockNewsJournalMost Active Volume Stock: United Bankshares Inc.  - HugoPress'
p6
aS"Which Way is The Street Betting United Bankshares, Inc.  Will Go? Midway Monitor - 13 hours ago According to the latest data, investors are looking at United Bankshares, Inc. 's short data and trying to figure out market sentiment on which way the market thinks the stock is moving."
p7
aS'United Bankshares Set to Join S&amp;P MidCap 400 and Oclaro to Join S&amp;P SmallCap 600 Yahoo Finance - Apr 6, 2017  in the S&amp;P MidCap 400, and Oclaro Inc.  will replace United Bankshares in the S&amp;P SmallCap 600 effective prior to the open on Wednesday, April 12.Oclaro, Inc.  Climbs 3.35% Pre-session - Benchmark Monitor'
p8
aS'United Bankshares, Inc.  Files An 8-K Other Events Market Exclusive - Apr 7, 2017 United Bankshares, Inc.  is a bank holding company. The Company has approximately two banking subsidiaries  doing business under the name of United Bank, one operating under the laws of West Virginia referred to as&nbsp;...United Bankshares, Inc.  Given a $44.00 Price Target by Keefe, Bruyette ... - Sports Perspectives'
p9
aS'How United Bankshares, Inc.  And Its Latest Technicals Are Playing Out NY Stock News - Apr 12, 2017 United Bankshares, Inc.  is now trading with a very clear set of technicals. Taken together they paint a very compelling picture of how investors and traders should be approaching UBSI.'
p10
a.