(lp0
S"It's Time to Absorb Domtar Corp.'s 4.4% Yield The Motley Fool Canada - Oct 19, 2016 It's not often that investors get the opportunity to invest in a company that's almost 170 years old, but that's exactly the case with Domtar Corp. , which was founded in 1848. At one time, Domtar had its hands in many pies ..."
p1
aS"Best Stocks of 2016: Domtar Corp   Could Make a Comeback Investorplace.com - Oct 5, 2016 Best Stocks of 2016: Domtar Corp   Could Make a The last time we took a look at Domtar Corp  , my pick for this year's Best Stocks for 2016 competition, the stock had suffered from increased volatility due to pressure from ...Domtar-HDIS a done deal - HME News"
p2
aS'36.692 MarketWatch - Dec 21, 2009 Please email us at mwfeedback@marketwatch.com. Learn about the new look  or Dismiss this message. Home &middot; Investing &middot; Quotes &middot; Stocks &middot; United States; UFS ... Domtar Corp. Watchlist CreateUFSAlert. After Hours. Last Updated: Apr 13, 2017 4:16 p.m.&nbsp;...'
p3
aS'News Domtar Corp.UFS Wall Street Journal - Feb 12, 2011 News Domtar Corp.UFS. Significant News Only. 04/03/17; Press Release. Media Advisory: Domtar Corporation First Quarter 2017 Financial Results.'
p4
aS'Domtar to spend $25M to update two US paper plants Charlotte Business Journal - Jan 27, 2017 Fort Mill-based Domtar Corp. will spend about $25 million to convert boilers to natural gas from coal and modernize equipment at two paper plants in Pennsylvania.'
p5
aS'Domtar Corp  Down 7.2% Since Earnings Report: Can It Rebound? Nasdaq - Mar 15, 2017 Domtar reported lackluster fourth-quarter 2016 results with adjusted earnings of $47 million or $0.75 per share compared with $70 million or $1.11 per share in the year-ago quarter.'
p6
aS'Wolf announces retention of 438 jobs, upgrades to Domtar Corp. in Elk ... WJAC Johnstown - Jan 25, 2017 Today, Domtar has renewed its commitment to both its employees and the communities in Elk and Clearfield counties, Wolf said.'
p7
aS"Domtar Corp  Given Underperform Rating at DA Davidson Sports Perspectives - 3 hours ago Domtar Corp logo Domtar Corp  's stock had its underperform rating reissued by equities research analysts at DA Davidson in a note issued to investors on Wednesday.Domtar Corp Plans Quarterly Dividend of $0.42  - BBNS"
p8
aS"International sales vital to Fort Mill's Domtar Corp. Charlotte Business Journal - Sep 15, 2016 Almost 30% of Domtar Corp.'s annual revenue comes from selling paper, pulp and personal-care products in international markets."
p9
aS"$0.39 EPS Expected for Domtar  , Norwood Financial  Shorts ... MoneyMakingArticles - Apr 12, 2017 After having $0.75 EPS previously, Domtar Corp 's analysts see -48.00% EPS growth. About 132,141 shares traded."
p10
a.