(lp0
S'Uranium Resources: An Intriguing Uranium And Lithium Play Seeking Alpha - Jan 24, 2017 Uranium Resources Inc is emerging as an intriguing play, with uranium and lithium projects all in either existing idle mine, permitting or appraisal mode.'
p1
aS"Is Uranium Resources Inc  Financially Strong Enough To Weather A Storm? Simply Wall St - Mar 3, 2017 Companies with small market capitalization such as Uranium Resources Inc , while they can deliver high growth, financial strength is the deciding element in their long-term existence.Uranium Resources'  CEO Christopher Jones on Q4 2016 Results - Earnings ... - Seeking Alpha"
p2
aS'Uranium Resources Announces Proposed Public Offering of Common Stock GlobeNewswire  - Jan 12, 2017 CENTENNIAL, Colo., Jan. 12, 2017  -- Uranium Resources, Inc.  , an energy metals exploration and development company, today announced that it intends to offer and sell, subject to market conditions, shares&nbsp;...'
p3
aS"Review of Price Trends: Uranium Resources, Inc.'s  Is stories - 20 hours ago Uranium Resources, Inc.'s  witnessed a gain of 4.81% in recent trading period with closing price of $ 1.96."
p4
aS'Uranium Resources, Inc.  held by 6 SEC 13F Filers Post Analyst - 1 hour ago Uranium Resources, Inc.  reached 95.88% versus a 1-year low price of $0.97. The stock was last seen -3.06% lower, reaching at $1.9 on Apr. 17, 2017.URANIUM RESOURCES,INC.  Files An 8-K Entry into a Material ... - Market Exclusive-$0.13 Earnings Per Share Expected for Uranium Resources, Inc.  This Quarter - Chaffey Breeze'
p5
aS'Uranium Resources Announces Positive Geophysical Results at its Columbus Basin ... GlobeNewswire  - Apr 5, 2017 CENTENNIAL, Colo., April 05, 2017  -- Uranium Resources, Inc.   , an energy metals development company, announced today that its independent geophysical consultant has completed the review,&nbsp;...'
p6
aS'Uranium Resources Announces Option Agreement to Purchase Lithium Brine Claims ... GlobeNewswire  - Mar 27, 2017 CENTENNIAL, Colo., March 27, 2017  -- Uranium Resources, Inc.   , announced today that its wholly-owned subsidiary, Lithium Holdings Nevada LLC, entered into an Option Agreement on March 24,&nbsp;...URANIUM RESOURCES, INC.  Files An 8-K Regulation FD Disclosure - Market ExclusiveUranium Resources, Inc. : Analyst Rating Changes and PT Levels - Post Analyst'
p7
aS'Uranium Resources Closes Sale of Assets GlobeNewswire  - Jan 5, 2017 CENTENNIAL, Colo., Jan. 05, 2017  -- Uranium Resources, Inc.  , an energy metals exploration and development company, has closed the sale of its Churchrock and Crownpoint properties in New Mexico (the&nbsp;...Laramide Resources Closes Churchrock and Crownpoint Acquisition - Canada NewsWire '
p8
aS'Uranium Resources Announces Update on Columbus Basin Lithium Project Activities GlobeNewswire  - Mar 6, 2017 CENTENNIAL, Colo., March 06, 2017  -- Uranium Resources, Inc.  , an energy metals development company, announced today that it has completed certain key activities in support of ongoing work at the&nbsp;...Stock Move to Focus: Uranium Resources, Inc.  - Is stories'
p9
aS'Uranium Resources Announces Management Promotion GlobeNewswire  - Jan 31, 2017 CENTENNIAL, Colo., Jan. 31, 2017  -- Uranium Resources, Inc.  , an energy metals development company, announced today that Matthew Hartmann has been promoted to the position of Director - Technical&nbsp;...'
p10
a.