(lp0
S'The Barrington Research Boosts Varian Medical Systems, Inc.  Price Target ... Petro Global News 24 - Feb 1, 2017 Evercore ISI lowered shares of Varian Medical Systems from a hold rating to a sell rating and set a $81.50 target price for the company. in a report on Thursday, January 26th. Jefferies Group LLC reissued a buy rating and issued a $102.00 target price ...'
p1
aS'The Zurcher Kantonalbank Zurich Cantonalbank Purchases 7069 Shares of Varian ... Petro Global News 24 - Jan 31, 2017 Several other hedge funds have also recently made changes to their positions in the company. Loomis Sayles &amp; Co.'
p2
aS"GlassHouse Research: Varian Medical System's Earnings May Be 'Cosmetically ... Yahoo Finance - Apr 11, 2017 Medical device stock Varian Medical Systems, Inc. 's share price may be artificially inflated due to what GlassHouse Research says are enhanced earnings."
p3
aS'BRIEF-Varian Medical Systems names new CFO Reuters - Apr 5, 2017 Varian medical systems inc says named Gary E. Bischoping of dell technologies as chief financial officer effective may 8, 2017.'
p4
aS'Varian Medical Systems Inc.  Moves Lower on Volume Spike for April 11 Equities.com - Apr 11, 2017 Varian Medical Systems Inc.  traded on unusually high volume on Apr. 11, as the stock lost 0.43% to close at $90.04. On the day, Varian Medical Systems Inc. saw 1.74 million shares trade hands on 16,025 trades. Considering that the stock averages&nbsp;...Why Is Varian Medical  Down 2.8% Since the Last Earnings Report? - Yahoo FinanceRevenue Approximations Analysis: Electronic Arts Inc. , Varian Medical ... - StockNewsJournal'
p5
aS"Analysts Take the Wheel on Varian Medical Systems, Inc.  Shares and ... Aiken Advocate - 16 hours ago Company earnings numbers are typically highly analyzed by investors and analysts alike. Earnings are important because they can provide insight into a company's profitability."
p6
aS"CFO Moves: Varian Medical Systems, STAAR Surgical, Federated National Holding ... Wall Street Journal   - Apr 6, 2017 Varian Medical Systems Inc., a Palo Alto, Calif., medical-devices manufacturer, named Gary Bischoping Jr. finance chief, effective May 8. He will receive an annual base salary of $550,000 and a one-time bonus of $300,000, according to a regulatory filing.Varian Medical Systems, Inc. : What's the Story? - StockNewsJournalVarian Medical Systems Appoints Gary Bischoping As CFO - Nasdaq"
p7
aS'Varian Medical Systems  Dow Wilson on Q1 2017 Results - Earnings Call ... Seeking Alpha - Jan 26, 2017 Greetings, and welcome to the Varian Medical Systems, Inc First Quarter Fiscal Year 2017 Earnings Results Conference Call.Varian Medical Systems Inc : What are the future prospects? - Simply Wall StVarian Medical  Misses on Q1 Earnings and Revenues - Yahoo Finance'
p8
aS'Varian Exhibiting New HyperArc Technology for High Definition Radiotherapy and ... PR Newswire  - Sep 26, 2016 PALO ALTO, Calif., Sept. 26, 2016 /PRNewswire/ -- Varian Medical Systems  today announced advances in its technology for high definition radiotherapy and radiosurgery.'
p9
aS'Varian Medical Systems Announces Company Name For Imaging Components Business PR Newswire  - Jul 21, 2016 PALO ALTO, Calif., July 21, 2016 /PRNewswire/ -- Varian Medical Systems  today announced that Varex Imaging Corporation will be the name for its Imaging Components business upon the completion of the planned spin-off of that business as&nbsp;...'
p10
a.