(lp0
S'Market: The Vascular Solutions, Inc.  Shares Sold by Swiss National Bank Petro Global News 24 - Feb 2, 2017 A number of other large investors also recently bought and sold shares of VASC. Mason Street Advisors LLC acquired a new stake in shares of Vascular Solutions during the second quarter valued at approximately $141,000. Campbell Newman Asset&nbsp;...'
p1
aS'Vascular Solutions and Howard Root Found Not Guilty on All Charges in Short ... GlobeNewswire  - Feb 26, 2016 MINNEAPOLIS, Feb. 26, 2016  -- Vascular Solutions, Inc.  today reported that the jury in its federal trial in the Western District of Texas in San Antonio has returned a unanimous verdict of not guilty on all charges ...Vascular Solutions, CEO acquitted of federal charges in off-label case - Minneapolis Star TribuneVascular Solutions  Announces CEO Howard Root Acquitted on All Charges ... - StreetInsider.com'
p2
aS'Vascular Solutions Reports Third Quarter Results GlobeNewswire  - Oct 24, 2016 MINNEAPOLIS, Oct. 24, 2016  -- Vascular Solutions, Inc.  today reported financial results for the third quarter ended September 30, 2016.'
p3
aS'Vascular Solutions Announces IND Submission for RePlas Freeze-Dried Plasma GlobeNewswire  - Oct 18, 2016 MINNEAPOLIS, Oct. 18, 2016  -- Vascular Solutions, Inc.  today announced the submission of an Investigational New Drug  application to the U.S.'
p4
aS'Vascular Solutions Receives 510 Clearance for Fluent Inflation Device GlobeNewswire  - Oct 21, 2016 MINNEAPOLIS, Oct. 21, 2016  -- Vascular Solutions, Inc.  today announced that it has received 510 clearance from the U.S.'
p5
aS'Teleflex Incorporated to Acquire Vascular Solutions Business Wire  - Dec 2, 2016 WAYNE, Pa.----Teleflex Incorporated   and Vascular Solutions, Inc. , today announced that the companies have entered into a definitive agreement under which Teleflex will acquire Vascular&nbsp;...'
p6
aS'Vascular Solutions, Inc. Acquisition May Not Be in the Best Interests of VASC ... PR Newswire  - Dec 13, 2016 NEW YORK, Dec. 13, 2016 /PRNewswire/ -- WeissLaw LLP is investigating possible breaches of fiduciary duty and other violations of law by the Board of Directors of Vascular Solutions, Inc.  in connection with the December 2,&nbsp;...'
p7
aS'Vascular Solutions Recalls Twin-Pass Dual Access Catheters Medscape - Oct 5, 2016 MINNEAPOLIS, MN - Vascular Solutions has issued a nationwide recall of Twin-Pass Dual Access catheters because of a potential for excess manufacturing material to remain at the tip of the catheter or within the distal portion of the rapid-exchange lumen.Vascular Solutions recalls more than 15000 catheters - Cardiovascular BusinessVascular Solutions Recalls Twin-Pass Catheters Over Embolism Concern - Twin Cities Business Magazine'
p8
aS'Vascular Solutions to Purchase Additional Manufacturing Facility GlobeNewswire  - Jan 28, 2015 MINNEAPOLIS, Jan. 28, 2015  -- Vascular Solutions, Inc.  today announced that it has entered into an agreement to acquire a 26,000-square-foot building located at 6420 Sycamore Court North in Maple Grove, Minnesota&nbsp;...'
p9
aS'Guardian II Hemostasis Valves Recalled by Vascular Solutions, Inc. Legal Reader  - Apr 11, 2016 Early last month, Guardian II hemostasis valves recalled by Vascular Solutions, Inc. The valves are used in catheterization procedures to stop the flow of blood and certain of the valves have a defect that could cause serious injury or death.'
p10
a.