(lp0
S'Traders Take Note: Veeco Instruments Inc  Stock Drops, Weakness ... CML News - Apr 15, 2017 Take Note: Veeco Instruments Inc  has hit some technical weakness in its momentum, and while it has not broken down all the way through support -- watch the key levels that we discuss below and further, watch the stochastics and technical&nbsp;...'
p1
aS'Veeco to buy California tech company Ultratech for $815M Newsday - Feb 2, 2017 The company will pay Ultratech shareholders $21.75 per share in cash and 0.2675 of a share of Veeco common stock for each Ultratech common share outstanding.Veeco Instruments  to Acquire Ultratech  in $815 Cash and Stock Deal - StreetInsider.com'
p2
aS"Veeco Instruments  Q4 2016 Results - Earnings Call Transcript Seeking Alpha - Feb 17, 2017 To the extent that this call discusses expectations about market conditions, market acceptance and future sales of the company's products, Veeco's proposed acquisition of Ultratech, future disclosures, future earning expectations or otherwise make ...Veeco Instruments-Ultratech Would Be a 'Dream' Merger - TheStreet.com"
p3
aS'Veeco Is Reinventing Itself, But Why Purchase Ultratech? Seeking Alpha - Feb 6, 2017 The acquisition of Ultratech by Veeco will enhance its product line and revenue growth in the Advanced Semiconductor Packaging market.Veeco to acquire Ultratech for $815 million - evertiq.comVeeco lines up Ultratech acquisition - Optics.org'
p4
aS'An End-of-Day Technical Review: Veeco Instruments Inc. , Triple-S ... Post Analyst - 17 hours ago Veeco Instruments Inc.  has made its way to a 12-month gain of 42.26%. Turning to Triple-S Management Corporation , its shares were trading at $17.87 a retreat of $-0.51, on the trading floor.Brokerage Views in Focus For Veeco Instruments Inc.  Digi ... - Davidson RegisterStock Returns: Entegris Inc  is Beating Veeco Instruments Inc ... - CML News'
p5
aS"Veeco Instruments  Q3 2016 Results - Earnings Call Transcript Seeking Alpha - Nov 2, 2016 Good day, everyone, and welcome to the Veeco Instruments Third Quarter 2016 Earnings Call. ... To the extent that this call discusses expectations about market conditions, market acceptance and future sales of the company's products, future disclosures ...Veeco Instruments swings to a loss on charge, lower revenue - Newsday"
p6
aS'Veeco Announces Pricing of Upsized Public Offering of Convertible Senior Notes ... Marketwired  - Jan 11, 2017 PLAINVIEW, NY-- - Veeco Instruments Inc.  today announced the pricing of its public offering of $300 million aggregate principal amount of its 2.70% Convertible Senior Notes due 2023 .Veeco boosts convertible debt offering to $300M - Seeking Alpha'
p7
aS"Hanging In With Veeco Instruments Seeking Alpha - May 10, 2016 Veeco Instruments  is a frustrating stock, I admit. It's the worst-performing stock in my portfolio, even after I averaged down late last year, and it's likely I'm not alone."
p8
aS'Veeco Instruments, Inc. Reports Mixed Q4 Results; Shares Jump 3.5% Motley Fool - Feb 20, 2014 Shares of Veeco Instruments  jumped 3.5% in after-hours trading, reacting to a mixed fourth-quarter report. The maker of manufacturing equipment for LED lights, hard drive components, and other high-tech components saw sales fall 31%&nbsp;...'
p9
aS"Veeco Instruments Inc.  Forms $27.40 Double Top, Clean Energy Fuels ... NormanObserver.com - 21 hours ago Veeco Instruments Inc.  formed double top with $29.32 target or 7.00% above today's $27.40 share price. Veeco Instruments Inc.  has $1.08B valuation. It closed at $27.4 lastly. It is down 32.43% since September 8, 2016 and is uptrending."
p10
a.