(lp0
S'Why Netflix Inc.  or Apple Inc.  Should Buy Viacom Inc.  Investorplace.com - Mar 22, 2017 It trades at a multiple of 12.6 - a discount to peers such as Time Warner Inc , Walt Disney Co  and Twenty-First Century Fox Inc . Although Viacom shares have already surged more than 20% on&nbsp;...Top News: Viacom, Inc. , Twitter Inc , ACADIA ... - Benchmark MonitorJim Gianopulos Nearing Deal to Be Named Paramount Chairman/CEO  - Variety'
p1
aS'Viacom Inc  is trading at a 45% discount to its intrinsic value Simply Wall St - Apr 11, 2017 I am going to run you through how I calculated the intrinsic value of Viacom  by estimating the Future Cash Flows and discounting them to their present value.'
p2
aS'Gulf International Bank UK Ltd Has $4.987 Million Stake in Viacom, Inc.  The Cerbat Gem - 22 hours ago Viacom logo Gulf International Bank UK Ltd raised its position in Viacom, Inc.  by 1.5% during the first quarter, according to its most recent disclosure with the Securities and Exchange Commission.Berkshire Asset Management LLC PA Has $6.166 Million Stake in Viacom, Inc.  - Markets DailyViacom, Inc.  Shares Bought by National Pension Service - Sports Perspectives'
p3
aS"Analyst's Indicator Review for Amazon.com, Inc. , Viacom, Inc.  The USA Commerce - 20 hours ago Shares of Amazon.com, Inc.  dropped -1.29% to $884.67. During the trading on 04/13/2017, Company's stock ranged from $894.97 to $884.49."
p4
aS"Viacom, Inc. closed with a change of 0.57% in the Previous Trading Session Free Observer - Apr 7, 2017 Currently the shares of Viacom, Inc.  has a trading volume of 4.05 Million shares, with an average trading volume of 3.94 Million shares - with shares dropping to a 52 week low of $33.94 on Dec 13, 2016, and the company's shares hitting a 52 week&nbsp;...Viacom, Inc.  Shares Bought by Thrivent Financial for Lutherans - The Cerbat GemAnalysts Set Viacom, Inc.  PT at $42.89 - Markets Daily"
p5
aS'A look at a High Market Cap Stock: Viacom, Inc., VIAB The Daily Leicester - 10 hours ago Friday February 24th 2017: Viacom, Inc., VIAB is in the exchange NASDAQ and its industry is Entertainment - Diversified in the sector of Services.The Viacom, Inc.  Short Interest Down 41.6% in March - Petro Global News 24'
p6
aS"Can We Learn Anything From The Technical Chart of Viacom, Inc. ? NY Stock News - Apr 12, 2017 Viacom, Inc.  has presented a rich pool of technical data in recent sessions. These are the trends we've been tracking and how we feel they should be played in the current environment."
p7
aS'Viacom, Inc.  Is Trying To Tell Investors Something Through Its Technicals NY Stock News - Apr 10, 2017 The technicals for Viacom, Inc.  has spoken via its technical chart and the message is loud and clear. Based on that message, this is the relevant information necessary to make sense of that current setup.'
p8
aS'Report: Viacom, Discovery, AMC discussing no-sports stream bundle Seeking Alpha - Apr 13, 2017 In the &quot;great unbundling&quot; of TV packages, while half the providers are working to figure out how to include the key draw of live sports in rights negotiations, another set is wondering why the expensive broadcasts have to drive up package prices.No-Sports TV? Viacom, AMC, Discovery Said Eyeing Web Bundle - Bloomberg'
p9
aS'Market View: Watching the Numbers for Viacom, Inc.  Searcy News - 18 hours ago Looking at shares of Viacom, Inc. , the company has an EV  of 30020810. Enterprise Value is a measure of the total value of a specific company.'
p10
a.