(lp0
S'Verso Corporation Names B. Christopher DiSantis as CEO PR Newswire  - Jan 12, 2017 MEMPHIS, Tenn., Jan. 12, 2017 /PRNewswire/ -- Verso Corporation  today announced that B. Christopher DiSantis will become the chief executive officer and a director of Verso effective as of February 1, 2017.'
p1
aS"Verso Corporation Reports Second Quarter 2016 Results PR Newswire  - Aug 16, 2016 Verso's net sales for the second quarter of 2016 decreased $148 million, or 19%, due primarily to weaker than expected demand, continued pricing pressure, impact of Wickliffe mill closure and downsizing of the Androscoggin mill, and imports."
p2
aS'Verso Corp. files for bankruptcy MarketWatch - Jan 26, 2016 Paper manufacturer Verso Corp. filed for chapter 11 bankruptcy protection Tuesday, its business battered by the turn to online channels that drove down demand for its products.Verso Corporation Positions Company for Long-Term Success by Initiating ... - PR Newswire '
p3
aS'Looking at the Levels for Verso Corporation  Baxter Review - 13 hours ago Verso Corporation presently has an ROIC of -0.003927. The current ROIC 5 year average is 0.018306 and the ROIC Quality ratio is currently 3.945683.'
p4
aS'Verso Corporation : Does Low Debt-Load Make It A Financially Strong Company? Simply Wall St - Apr 13, 2017 Small-cap companies such as Verso Corporation  with its market cap of USD $190 Million, have high growth potential but financial strength is the deciding factor in their long-term survival.The Zacks: Verso Corporation  Given $25.00 Consensus Target Price by Analysts - Petro Global News 24Zacks: Analysts Set $25.00 Target Price for Verso Co.  - Markets Daily'
p5
aS'Verso Corporation Reports Fourth Quarter and Year End 2016 Results PR Newswire  - Mar 15, 2017 MEMPHIS, Tenn., March 15, 2017 /PRNewswire/ -- Verso Corporation  today reported financial results for the fourth quarter of 2016, including net sales of $646 million, net income of $8 million, and adjusted EBITDA of $92 million, which ...'
p6
aS'Should You Get Rid of Verso Corp.  Now? Yahoo Finance - Apr 6, 2017 One such stock that you may want to consider dropping is Verso Corporation VRS, which has witnessed a significant price decline in the past four weeks, and it has seen negative earnings estimate revisions for the current quarter and the current year.Verso Co.  Upgraded at Zacks Investment Research - BBNS'
p7
aS'Verso Corporation Introduces GlazeGuard Family of Lightweight Oil and Grease ... PR Newswire  - Jun 2, 2016 MEMPHIS, Tenn., June 2, 2016 /PRNewswire/ -- Verso Corporation , a leading producer of flexible packaging, technical, and label and converting papers, today introduced GlazeGuard, a family of lightweight uncoated machine-glazed&nbsp;...'
p8
aS"Verso Corporation Reports Third Quarter 2015 Results PR Newswire  - Nov 16, 2015 Verso's net sales for the third quarter of 2015 increased $432 million, or 123%, compared to the third quarter of 2014, due primarily to the addition of net sales resulting from the NewPage acquisition.Verso Corp Considers Bankruptcy Following Wickliffe Mill Idling - WKMSConcerns about future of Verso Corporation - UPMatters.com"
p9
aS'Verso Announces Closure of Wickliffe, Kentucky Paper Mill PR Newswire  - Apr 5, 2016 MEMPHIS, Tenn., April 5, 2016 /PRNewswire/ -- Verso Corporation  today announced the closure of its paper mill located in Wickliffe, Kentucky.'
p10
a.