(lp0
S'Willbros Group Inc.   Soars 8% on April 17 Equities.com - 12 hours ago Willbros Group Inc.   had a good day on the market for Monday April 17 as shares jumped 8% to close at $2.70. About 90,402 shares traded hands on 831 trades for the day, compared with an average daily volume of 220,666 shares out of a total&nbsp;...Stock With Track Record &amp; Analyst Upside: Willbros Group, Inc.  - The HeraldWillbros Group  Reaches $2.67 After 5.00% Up Move, Leidos Holdings (LDOS ... - Herald KS'
p1
aS'Why Willbros Group Inc  Stock Blasted Down 57% Today Motley Fool - Mar 18, 2015 As a result, the Company is in discussions with its lenders regarding amendments and waivers to its credit agreements. Without a definitive waiver or amendment, all indebtedness under its credit agreements would become due in the next twelve months.'
p2
aS'Willbros Group, Inc.  CEO Michael Fournier on Q2 2016 Results - Earnings ... Seeking Alpha - Aug 1, 2016 Greetings and welcome to the Willbros Group Second Quarter Earnings Call. At this time, all participants are in a listen-only mode.'
p3
aS'Equity Check-in on Shares of Willbros Group, Inc.  Baxter Review - 10 hours ago Investors may be focusing on Return on Invested Capital  information for Willbros Group, Inc. . ROIC is a metric that can be used to assess the efficiency of a particular company at allocating controlled capital into investments that are&nbsp;...'
p4
aS'Willbros Appoints New Investor Relations Vice President PR Newswire  - Feb 1, 2016 HOUSTON, Feb. 1, 2016 /PRNewswire/ -- Willbros Group, Inc.  today announced that it has appointed Stephen W. Breitigam, as Vice President, Investor Relations &amp; Corporate Development, effective February 15, 2016.'
p5
aS'A Look Ahead For 2 Stocks: Meritor, Inc. , Willbros Group, Inc.  Post Analyst - 17 hours ago Meritor, Inc.  has made its way to a 12-month gain of 89.75%. Turning to Willbros Group, Inc. , its shares were trading at $2.5 a retreat of $-0.07, on the trading floor.'
p6
aS'Willbros Group Inc.   Soars 5.88% on March 16 Equities.com - Mar 16, 2017 Willbros Group Inc.   had a good day on the market for Thursday March 16 as shares jumped 5.88% to close at $2.70. About 102,429 shares traded hands on 872 trades for the day, compared with an average daily volume of 242,088 shares out of a&nbsp;...'
p7
aS'Willbros Group Inc.   Soars 21.43% on January 25 Equities.com - Jan 25, 2017 Willbros Group Inc.   had a good day on the market for Wednesday January 25 as shares jumped 21.43% to close at $3.74.'
p8
aS"Willbros Group Inc.   Plunges 8.04% on April 05 Equities.com - Apr 5, 2017 Willbros Group Inc.   had a rough trading day for Wednesday April 05 as shares tumbled 8.04%, or a loss of $-0.23 per share, to close at $2.63.Brokers Issue Forecasts for Willbros Group Inc's Q1 2017 Earnings  - The Cerbat GemZacks Investment Research disclosed Willbros Group Inc , hiking its ... - Breaking Finance News"
p9
aS'Willbros Group Announces Sale of Professional Services Segment PR Newswire  - Oct 5, 2015 HOUSTON, Oct. 5, 2015 /PRNewswire/ -- Willbros Group, Inc.  announced today that it has executed a purchase agreement for the sale of its Professional Services segment to TRC Companies, Inc.  for $130 million cash.One Reason Why Willbros  Stock Is Jumping Today - TheStreet.com'
p10
a.