(lp0
S"The Bokf Na Has $346000 Position in West Pharmaceutical Services, Inc.  Petro Global News 24 - Feb 5, 2017 AMG National Trust Bank increased its position in shares of West Pharmaceutical Services by 1.3% in the third quarter. AMG National Trust Bank now owns 7,310 shares of the company's stock valued at $545,000 after buying an additional 95 shares during&nbsp;..."
p1
aS'Stocks: The Emerald Advisers Inc. PA Maintains Position in West Pharmaceutical ... Petro Global News 24 - Jan 19, 2017 Other hedge funds have also recently made changes to their positions in the company. Insight Capital Research &amp; Management Inc. purchased a new stake in shares of West Pharmaceutical Services during the second quarter worth about $2,470,000.'
p2
aS'West Pharmaceutical Services, Inc.  Ex-Dividend Date Scheduled for April ... Nasdaq - Apr 13, 2017 West Pharmaceutical Services, Inc.  will begin trading ex-dividend on April 17, 2017. A cash dividend payment of $0.13 per share is scheduled to be paid on May 03, 2017.'
p3
aS'West Pharmaceutical Services Inc : Immense Growth Potential? Simply Wall St - Apr 13, 2017 West Pharmaceutical Services has outperformed the average growth in earnings of the Healthcare industry over the past year.West Pharmaceutical Services Inc.: West to Host First-Quarter 2017 Conference Call - The Wall Street TranscriptWest Pharmaceutical Services, Inc.  Receives An Update From Brokers - The De Soto Edge'
p4
aS"The Expectations For West Pharmaceutical Look Hard To Meet Seeking Alpha - Mar 17, 2017 I'm accustomed to finding a lot of companies/stocks with the basic pattern of &quot;love the company, not comfortable with the valuation on the stock,&quot; but West Pharmaceutical Services  dials that up to 11. I really like the company's strong share ..."
p5
aS'West Pharmaceutical Services  Shares Cross Below 200 DMA Nasdaq - Mar 22, 2017 In trading on Wednesday, shares of West Pharmaceutical Services, Inc.  crossed below their 200 day moving average of $79.93, changing hands as low as $79.06 per share.West Pharmaceutical Services Inc.  Moves Lower on Volume Spike for March 21 - Equities.comHigh Volume Healthcare Stocks Roundup: Catalent, Inc. , West ... - TWN'
p6
aS'West Appoints David A. Montecalvo Senior Vice President, Global Operations and ... PR Newswire  - Sep 26, 2016 EXTON, Pa., Sept. 26, 2016 /PRNewswire/ -- West Pharmaceutical Services, Inc. , a global leader in innovative solutions for injectable drug administration, today announced it has appointed David A. Montecalvo to serve as Senior Vice ...'
p7
aS'West Pharmaceutical Services of Uwchlan nabs awards Daily Local News - Dec 16, 2016 The awards include the 2016 UBM India Pharma Award for Leading Company in Delivery &amp; Safety Systems for Injectable Drugs, and the Irish Medtech Excellence Award for Partner of the Year.'
p8
aS"West Pharmaceutical Services' Karen Flynn Receives Silver Stevie Award in ... PR Newswire  - Dec 20, 2016 EXTON, Pa., Dec. 20, 2016 /PRNewswire/ -- West Pharmaceutical Services, Inc. , a global leader in innovative solutions for injectable drug administration and delivery, today announced that Senior Vice President and Chief Commercial Officer&nbsp;..."
p9
aS"West Pharmaceutical Services'  CEO Eric Green on Q3 2016 Results ... Seeking Alpha - Oct 27, 2016 Good day, ladies and gentlemen, and welcome to the West Pharmaceutical Services Q3 2016 Earnings Conference Call. ... I would now like to introduce you to your host for today's conference, Mr. Quintin Lai, Head of Investor Relations at West."
p10
a.