(lp0
S'Chart Review for Wayside Technology Group, Inc.  Benton Bulletin - 8 hours ago Interested investors may be tracking the Piotroski F-Score. Wayside Technology Group, Inc.  currently has a Piotroski F-Score of 4. The aim of the F-Score is to help discover companies with strengthening balance sheets, and to eliminate ...'
p1
aS'Wayside Technology Group, Inc. Reports 2016 Second Quarter Results and ... Marketwired  - Jul 28, 2016 Wayside Technology Group, Inc.  today announced financial results for the second quarter ended June 30, 2016.'
p2
aS'Why I Sold Wayside Technology Group This Morning Seeking Alpha - Feb 13, 2017 Wayside Technology Group Inc  describes itself as an information technology channel company that distributes software through resellers and also resells computer software and hardware.'
p3
aS"Wayside Technology Group's  CEO Simon Nynens on Q4 2016 Results ... Seeking Alpha - Feb 3, 2017 A detailed discussion of risks and uncertainties are discussed in our Form 10-Q and also in greater detail in our Form 10-K. Wayside Technology Group Inc. sees no obligation to update and does intend to update any forward-looking statement. Now I would&nbsp;..."
p4
aS"Wayside Technology Group Named one of New Jersey's Top Company Cultures by ... PR Web  - Nov 2, 2016 Wayside Technology Group Inc.  today announced that Simon Nynens, the company's Chairman and CEO, was honored November 1, 2016 by SmartCEO as one of New Jersey's Top CEO's with their Corporate Culture Award."
p5
aS'Wayside Technology Group  Given Coverage Optimism Rating of 0.56 Sports Perspectives - Apr 14, 2017 Press coverage about Wayside Technology Group  has trended very positive on Friday, Alpha One reports. The research group, a unit of ... Wayside Technology Group, Inc is an information technology  channel company. The Company&nbsp;...'
p6
aS'Wayside Technology Group  Board Authorizes Stock Buyback Plan Sports Perspectives - Apr 11, 2017 Wayside Technology Group logo Wayside Technology Group  declared that its board has authorized a stock repurchase plan, which permits the company to repurchase 500,000 shares on Wednesday, February 8th, EventVestor reports.Wayside Technology Group  Earns Daily News Impact Score of 0.56 - BBNS'
p7
aS"Wayside Technology Group, Inc.  Appoints Bill Botti as its ... WallStreetPR - Mar 27, 2014 Boston, MA 03/27/2014  - Shrewsbury-based Wayside Technology Group, Inc.  has announced the appointment of Bill Botti as the company's next executive president, effective of April 21, 2014."
p8
aS'Stock Returns: PCM Inc  is Beating Wayside Technology Group Inc ... CML News - Mar 12, 2017 This is a snapshot to compare the stock returns for PCM Inc  versus Wayside Technology Group Inc  .'
p9
aS'Breaking: Wayside Technology Group Inc  Stock Through Resistance ... CML News - Apr 12, 2017 Breaking: Wayside Technology Group Inc  has hit maximum technical strength -- watch the technical oscillators for momentum gaps.'
p10
a.