(lp0
S'Is DASAN Zhone Solutions Inc  As Financially Strong As It Appears Due To ... Simply Wall St - 5 hours ago DASAN Zhone Solutions Inc , with a market capitalization of USD $99 Million, is considered a small-cap company.'
p1
aS"BRIEF-Dasan Zhone Solutions Inc files for non timely 10-K Reuters - Apr 3, 2017 Reuters is the news and media division of Thomson Reuters. Thomson Reuters is the world's largest international multimedia news agency, providing investing news, world news, business news, technology news, headline news, small business news, news&nbsp;..."
p2
aS"Zhone Technologies, DASAN Network Solutions complete merger to form DASAN ... LightWave Online - Sep 12, 2016 Zhone Technologies has completed its merger with DASAN Network Solutions, Inc. to create DASAN Zhone Solutions, Inc. .S. Korea's Dasan Networks acquires Nasdaq-listed Zhone Technologies - pulse"
p3
aS'DASAN ZHONE SOLUTIONS, INC.  Files An 8-K Non-Reliance on ... Market Exclusive - Apr 3, 2017 As previously reported, the acquisition by the Company of Dasan Network Solutions, Inc.  on September 9, 2016  has been accounted for as a reverse acquisition under which DNS was considered the accounting acquirer of the Company&nbsp;...'
p4
aS'DASAN Zhone Solutions Inc  Scheduled to Post Earnings on Tuesday Markets Daily - Apr 16, 2017 DASAN Zhone Solutions logo DASAN Zhone Solutions Inc  is set to release its earnings data on Tuesday, April 18th.DASAN Zhone Solutions Inc  Set to Announce Quarterly Earnings on Tuesday - Sports Perspectives'
p5
aS"DASAN Zhone Solutions'  CEO Yung Kim on Q4 2016 Results - Earnings Call ... Seeking Alpha - Feb 22, 2017 Hello and welcome to the fourth quarter 2016 DASAN Zhone Solutions Inc. earnings conference call. I'm here today with Co-CEOs of DASAN Zhone Solutions, Yung Kim and Jim Norrod."
p6
aS'Zhone Technologies, DASAN Network Solutions to merge LightWave Online - Apr 12, 2016 Zhone Technologies, Inc.  will merge with fellow access and enterprise systems supplier DASAN Network Solutions, Inc., a wholly owned subsidiary of DASAN Networks, Inc. The stock-based transaction will result in DASAN Networks&nbsp;...Zhone Tech  Enters Agreement to Acquire Dasan Network Solutions - StreetInsider.com'
p7
aS'Zhone Technologies Merges With DASAN Network Solutions To Become A Significant ... Seeking Alpha - Sep 13, 2016 The new company was named DASAN Zhone Solutions Inc. It started trading on September 12, 2016 under the symbol DZSI. DASAN Zhone expects to become a leading global provider of broadband access, ethernet switching, mobile backhaul, passive&nbsp;...'
p8
aS'-$0.28 Earnings Per Share Expected for DASAN Zhone Solutions Inc  This ... Markets Daily - Apr 7, 2017 DASAN Zhone Solutions logo Equities analysts expect DASAN Zhone Solutions Inc  to post  earnings per share for the current quarter, according to Zacks Investment Research.'
p9
aS'DASAN Network Solutions to Merge with US-based Network Equipment Provider BusinessKorea - Apr 27, 2016 At a recent press conference in Yeouido, Seoul, DASAN Network Solutions Inc., a wholly owned subsidiary of DASAN Networks Inc. said that it has decided on a merger and acquisition  involving the Nasdaq-listed Zhone Technologies Inc. The M&amp;A&nbsp;...'
p10
a.