(lp0
S"Stocks: The Research Analysts Set Expectations for Zumiez Inc.'s Q1 2018 ... Petro Global News 24 - Jan 6, 2017 Zumiez Inc.  - Stock analysts at William Blair issued their Q1 2018 earnings per share estimates for Zumiez in a research report issued on Wednesday."
p1
aS'Why Zumiez Inc. Shares Plunged Today Motley Fool - Mar 10, 2017 Despite the strong fourth-quarter performance, Zumiez guidance was lacking as Brooks noted headwinds in the industry. Comparable sales turned negative in February, slipping 3.1%, but the company projected comparable-sales growth of 0% to 2% in the&nbsp;...'
p2
aS'Weakness Seen in Zumiez Inc.  Estimates: Should You Stay Away? Yahoo Finance - Apr 6, 2017 One such stock that you may want to consider dropping is Zumiez Inc. ZUMZ, which has witnessed a significant price decline in the past four weeks, and it has seen negative earnings estimate revisions for the current quarter and the current year.Zumiez Inc. Reports March 2017 Sales Results - Marketwired Zumiez Inc.  Files An 8-K Regulation FD Disclosure - Market Exclusive'
p3
aS'Russell Investments Group Ltd. Buys New Stake in Zumiez Inc.  The Cerbat Gem - 5 hours ago Zumiez logo Russell Investments Group Ltd. acquired a new position in shares of Zumiez Inc.  during the fourth quarter, according to its most recent Form 13F filing with the Securities and Exchange Commission.Zumiez Inc.  Reaches $16.70 After 6.00% Down Move, Spectrum ... - HuronReport'
p4
aS'Zumiez Inc. Announces Fiscal 2016 Fourth Quarter and Full Year Results Marketwired  - Mar 9, 2017 LYNNWOOD, WA-- - Zumiez Inc.  today reported results for the fourth quarter and fiscal year ended January 28, 2017.'
p5
aS'Why Zumiez Inc. Stock Popped Today Motley Fool - Oct 6, 2016 After more than a year of declining comparable sales, Zumiez finally seems to be emerging from those doldrums as same-store sales jumped 6.3% in September and overall sales were up 11.5%.Why Zumiez Inc.  Stock Is Soaring Today - Investorplace.com'
p6
aS"Zumiez: An Apparel Stock You Need To Avoid Seeking Alpha - Jan 20, 2017 Declining sales and margins are hurting the company's business on the back of falling footfalls and drop in same-store sales. Dollar appreciation throughout the last fiscal year coupled with inflationary trends and the inability to alter prices amidst ..."
p7
aS'Can Zumiez Survive The Death Of Retail? Seeking Alpha - May 24, 2016 Zumiez is increasingly relying on opening new retail locations to execute on its growth strategy. ZUMZ operates in the highly competitive and shrinking world of teen retail, making this strategy increasingly more difficult and risky.'
p8
aS'Why Zumiez Inc. Stock Dropped 10% in May Motley Fool - Jun 6, 2016 What: Shares of clothing retailer Zumiez Inc.  fell 10% last month, according to data from S&amp;P Global Market Intelligence, as the company reported weak comparable-store sales for April, and tracked with several other apparel retailers that ...'
p9
aS'Zumiez  Stock Down Despite Q4 Earnings Beat: Why? Yahoo Finance - Mar 10, 2017 Zumiez Inc. ZUMZ delivered robust fourth-quarter fiscal 2016 results, wherein both the top and bottom line grew year over year and topped estimates.'
p10
a.