(lp0
(lp1
I22
aI1056
aI37
aI186
aI3510
aI1610
aI18
aI3
aI4
aI333
aI1838
aI572
aI782
aI1055
aI822
aI1748
aI15
aI1056
aI1578
aI783
aI352
aI28
aI107
aI22
aI3510
aI1610
aI186
aI783
aI1055
aI2164
aI1056
aI188
aI186
aI3511
aI3512
aI18
aI3513
aI18
aI186
aI2692
aI1484
aI64
aI3510
aI1610
aI783
aI107
aI340
aI1368
aI3513
aI33
aI3514
aI3515
aI3
aI3516
aI75
aI783
aI287
aI572
aI77
aI15
aI163
aI2828
aI3512
aI3513
aI1462
aI465
aI3517
aI3510
aI1610
aI36
aI1039
aa(lp2
I3518
aI102
aI37
aI39
aI204
aI88
aI3519
aI3520
aI1576
aI2578
aI1446
aI107
aI156
aI1648
aI132
aI1342
aI493
aI2574
aI153
aI25
aI552
aI190
aI107
aI476
aI156
aI3518
aI1606
aI3521
aI156
aI132
aI1077
aI3522
aI3152
aI261
aI88
aI3523
aI77
aI3524
aI388
aI3525
aI178
aI1446
aI156
aI132
aI1726
aI15
aI668
aa(lp3
I486
aI1612
aI262
aI3526
aI91
aI118
aI800
aI3527
aI239
aI1342
aI493
aI2574
aI3528
aI3529
aI107
aI2714
aI2538
aI3530
aI3531
aI3183
aI118
aI3532
aI3533
aI1648
aI1434
aI3213
aI2774
aI1838
aI2282
aI455
aI6
aI284
aI1453
aI3534
aI3533
aI1217
aI2655
aI25
aI1283
aI2512
aI3181
aI3511
aI18
aI3511
aI3512
aI1201
aI1202
aI1037
aI1519
aI3535
aI2817
aI3536
aI3537
aa(lp4
I22
aI3511
aI3512
aI18
aI3
aI153
aI2
aI1896
aI114
aI186
aI602
aI3538
aI15
aI783
aI459
aI60
aI1407
aI3539
aI3540
aI114
aI616
aI186
aI3541
aI66
aa(lp5
I22
aI3511
aI3512
aI18
aI3
aI153
aI458
aI38
aI40
aI1446
aI107
aI3542
aI162
aI1045
aI3543
aI3544
aI432
aI155
aI5
aI978
aI65
aI38
aI583
aI36
aI1460
aI56
aI1449
aI998
aI1055
aI161
aI434
aI3511
aI3512
aI49
aI3
aa(lp6
I28
aI802
aI798
aI508
aI3545
aI1802
aI3546
aI18
aI3511
aI3512
aI18
aI3547
aI3548
aI18
aI566
aI589
aI3549
aI587
aI4
aI3550
aI1838
aI508
aI1035
aI1802
aI273
aI3551
aI1913
aI3
aI3552
aI3553
aI695
aI3554
aI348
aI793
aI1627
aI3547
aI3548
aI3555
aI282
aI283
aI465
aI566
aI385
aI664
aI508
aI1648
aI3556
aa(lp7
I1323
aI3480
aI1106
aI2123
aI68
aI510
aI2123
aI68
aI302
aI980
aI523
aI303
aI3475
aI3480
aI1323
aI915
aI3219
aI3557
aI147
aI207
aI1312
aI187
aI3558
aI129
aI383
aI1323
aI1288
aI692
aI3559
aI3560
aI59
aI306
aI22
aI299
aI300
aI102
aI380
aI3561
aI523
aI3562
aI385
aI656
aI315
aI383
aI3563
aI3564
aI2770
aI2121
aI2135
aI1856
aI207
aI3460
aI3565
aI222
aI3566
aI1071
aI626
aI3566
aI1074
aI346
aI96
aI191
aI275
aI3567
aI3568
aI1433
aI653
aI3569
aI361
aI626
aI3570
aI1615
aI1402
aI3571
aI266
aI3148
aI872
aI342
aI845
aI3572
aI3573
aI71
aI3574
aI587
aI2573
aI190
aI1312
aI493
aI190
aI998
aI1312
aI493
aI566
aI561
aI411
aI272
aI84
aI572
aI1838
aI190
aI2452
aI1176
aI790
aI587
aI2045
aI15
aI1316
aI1168
aI75
aI3503
aI569
aI223
aI163
aI1312
aI493
aI1025
aI569
aI3575
aI15
aI3576
aI1532
aI664
aI1317
aI541
aI23
aI1532
aI3
aI3549
aI656
aI380
aI963
aI147
aI3577
aI178
aI3578
aI23
aI1475
aI1901
aI345
aI3579
aI88
aI3580
aI3106
aI266
aI186
aI175
aI3574
aI3581
aI656
aI1306
aI164
aI147
aI3582
aI656
aI3555
aI695
aI231
aI1306
aI164
aI147
aI3583
aI15
aI385
aI3584
aI23
aI1460
aI3585
aI2613
aI587
aI68
aI302
aI2613
aI68
aI302
aI3
aI3549
aI656
aI3586
aI2347
aI147
aI3587
aI15
aI3588
aI1168
aI75
aI692
aI604
aI375
aI3589
aI3585
aI3590
aI566
aI569
aI3591
aI1838
aI3590
aI566
aI2977
aI845
aI1984
aI15
aI569
aI479
aI570
aI3
aI287
aI3271
aI1035
aI174
aI15
aI3585
aI1145
aI3592
aI650
aI1913
aI570
aI1145
aI1661
aI790
aI390
aI2487
aI1259
aI587
aI2567
aI695
aI465
aI656
aI380
aI2473
aI15
aI343
aI23
aI1491
aI2140
aI587
aI2573
aI508
aI3545
aI508
aI3545
aI1802
aI3546
aI3511
aI3512
aI3547
aI3548
aI566
aI571
aI587
aI479
aI570
aI3550
aI508
aI1035
aI1838
aI3593
aI3594
aI465
aI796
aI3595
aI3594
aI465
aI796
aI3595
aI3596
aI3001
aI96
aI145
aI1788
aI287
aI3219
aI340
aI157
aI25
aI695
aI3
aI3594
aI266
aI438
aI3565
aI3597
aI3598
aI3018
aI1476
aI3597
aI3281
aI3598
aI1119
aI2282
aI649
aI42
aI3597
aI123
aI1476
aI1113
aI427
aI123
aI649
aI3599
aI3600
aI10
aI18
aI839
aI292
aI107
aI2140
aI3601
aI3602
aI3603
aI3604
aI1429
aI1429
aI3605
aI1987
aI3606
aI3607
aI3608
aI648
aI42
aI466
aI1267
aI2565
aI3609
aI3610
aI3611
aI915
aI3612
aI141
aI3604
aI478
aI915
aI3613
aI107
aI1217
aI93
aI2140
aI930
aI89
aI655
aI2642
aI7
aI930
aI107
aI89
aI2642
aI257
aI1684
aI41
aI2032
aI930
aI459
aI1048
aI2832
aI1915
aI525
aI748
aI80
aI486
aI3614
aI1179
aI2140
aa(lp8
I222
aI163
aI3510
aI18
aI188
aI1648
aI1459
aI3615
aI44
aI860
aI1462
aI1948
aI1744
aI769
aI2797
aI1782
aI303
aI233
aI522
aI1350
aI531
aI318
aI3616
aI272
aI3617
aI3618
aI729
aI3619
aI1052
aI22
aI10
aI2183
aI3510
aI37
aI518
aI2580
aI153
aI902
aI107
aI625
aI508
aI1283
aI3620
aI2086
aI22
aI802
aI1459
aI508
aI3621
aI102
aI442
aI247
aI1196
aI232
aI15
aI892
aI3622
aI439
aI3510
aI3623
aI37
aI902
aI1902
aI3624
aI905
aI900
aI1736
aI175
aI128
aI1119
aI322
aI18
aI345
aI3625
aI3626
aI2539
aI2797
aI73
aI3627
aI1741
aI3628
aI3629
aI657
aI1626
aI506
aI3630
aI1901
aI3631
aI3632
aI428
aI10
aI188
aI508
aI1035
aI3102
aI2995
aI3478
aI1243
aI421
aa(lp9
I22
aI3511
aI3512
aI18
aI3
aI4
aI287
aI3633
aI3634
aI245
aI508
aI1648
aI770
aI664
aI2795
aI493
aI2282
aI1210
aI3526
aI66
aI22
aI1201
aI3033
aI107
aI1442
aI1071
aI3635
aI573
aI1266
aI245
aI770
aI3636
aI44
aI22
aI493
aI2282
aI2795
aI3526
aI66
aI3637
aI1613
aI107
aI3
aa(lp10
I1297
aI1407
aI3638
aI3639
aI2634
aI1196
aI74
aI15
aI153
aI2120
aI508
aI3545
aI3640
aI1460
aI819
aI3641
aI3642
aI508
aI99
aI3643
aI159
aI233
aI3644
aI1283
aI47
aI132
aI22
aI1648
aI42
aI487
aI3545
aI3645
aI18
aI1446
aI107
aI1732
aI970
aI3646
aI3647
aI15
aI2634
aI1446
aI602
aI3648
aI15
aI3645
aI3557
aI15
aI3649
aI1055
aI132
aI3650
aI3651
aI19
aI590
aI1094
aI3018
aI438
aa(lp11
I22
aI3511
aI3512
aI18
aI458
aI40
aI153
aI383
aI3652
aI60
aI2445
aI3653
aI508
aI1283
aI2150
aI3
aI128
aI3544
aI3459
aI3212
aI792
aI107
aI2
aI770
aI2177
aI2507
aI315
aI5
aI159
aI3652
aI3654
aI15
aI1082
aI2445
aI3655
aI351
aI1283
aa(lp12
I3656
aI3293
aI64
aI3
aI4
aI3535
aI186
aI5
aI159
aI3657
aI1460
aI770
aI3511
aI3512
aI18
aI22
aI1718
aI157
aI599
aI22
aI3511
aI186
aI23
aI1242
aI15
aI179
aI625
aI3658
aI114
aI508
aI1056
aI102
aI22
aI107
aI3
aI3656
aI3293
aI287
aI950
aI42
aI186
aI28
aI1052
aI3659
aI677
aI42
aI163
aI635
aI3656
aI3293
aI840
aI186
aI37
aI1619
aI1478
aI3656
aI3293
aI1326
aI3660
aI3444
aI3656
aI3293
aI3661
aI91
aI107
aI33
aI3662
aI1721
aI3
aI333
aI625
aI1791
aI970
aI994
aI365
aa(lp13
I22
aI3547
aI3548
aI18
aI3511
aI3512
aI18
aI3
aI918
aI287
aI3018
aI459
aI3663
aI3664
aI1896
aI3665
aI1648
aI22
aI1283
aI489
aI1619
aI1224
aI3666
aI3667
aI586
aI3668
aI3669
aI51
aI119
aI3670
aI3547
aI3548
aI33
aI3671
aI3672
aI2639
aI3545
aI3511
aI3512
aI33
aI3673
aI3674
aa(lp14
I22
aI348
aI291
aI1194
aI346
aI1120
aI469
aI4
aI2254
aI1961
aI187
aI3675
aI159
aI348
aI3676
aI0
aI1044
aI179
aI156
aI2093
aI241
aI1610
aI3677
aI18
aI3512
aI18
aI22
aI1120
aI409
aI3678
aI580
aI883
aI3679
aI327
aI3680
aI5
aI134
aI3681
aI167
aI1196
aI3682
aa(lp15
I22
aI10
aI217
aI68
aI291
aI566
aI4
aI285
aI389
aI3683
aI2695
aI147
aI3684
aI15
aI75
aI199
aI340
aI1569
aI392
aI292
aI3685
aI15
aI75
aI22
aI296
aI303
aI3686
aI15
aI75
aI120
aI223
aI199
aI22
aI285
aI389
aI297
aI163
aI2217
aI3687
aI15
aI75
aI128
aI297
aI285
aI389
aI190
aI68
aI291
aI380
aI303
aI3688
aI15
aI75
aI2045
aI15
aI223
aI199
aI22
aI296
aI303
aI1151
aI15
aI75
aI120
aI365
aI915
aI285
aI399
aI664
aI23
aI2565
aI68
aI267
aI159
aI1071
aI321
aI3317
aI252
aI253
aI408
aI23
aa(lp16
I22
aI493
aI2282
aI581
aI314
aI3533
aI1283
aI287
aI2470
aI802
aI3689
aI3690
aI2458
aI1224
aI3691
aI1182
aI3692
aI342
aI3693
aI22
aI1576
aI977
aI3545
aI493
aI2282
aI3
aI924
aa(lp17
I771
aI3694
aI3695
aI3696
aI3697
aI693
aI3698
aI292
aI2208
aI1838
aI1260
aI2347
aI147
aI790
aI1259
aI569
aI3699
aI15
aI1960
aI525
aI253
aI287
aI288
aI1135
aI1784
aI186
aI905
aI331
aI270
aI1784
aI3700
aI3701
aI3702
aI1784
aI525
aI253
aI3683
aI3703
aI3704
aI253
aI288
aI3705
aa(lp18
I3706
aI3707
aI915
aI1628
aI3708
aI1695
aI586
aI3709
aI3710
aI320
aI3711
aI3626
aI933
aI792
aI3712
aI88
aI3638
aI340
aI3713
aI130
aI2498
aI3709
aI3710
aI977
aI1766
aI802
aI3714
aI985
aI933
aI3706
aI3715
aa(lp19
I22
aI10
aI217
aI68
aI291
aI566
aI285
aI389
aI289
aI2894
aI15
aI75
aI199
aI340
aI1365
aI232
aI1306
aI3716
aI15
aI75
aI1350
aI2700
aI2137
aI262
aI147
aI75
aI917
aI96
aI400
aI285
aI389
aI365
aI3717
aI15
aI128
aI365
aI285
aI389
aI3718
aI1368
aI167
aI1396
aI273
aI3719
aI1976
aI22
aI1396
aI273
aI442
aI163
aI303
aI298
aI129
aI3720
aI15
aI75
aI1464
aI285
aa(lp20
I259
aI3721
aI3143
aI3638
aI3722
aI293
aI508
aI1035
aI792
aI3712
aI840
aI3271
aI802
aI3723
aI2282
aI608
aI1619
aI3639
aI3545
aI1940
aI3724
aI3725
aI1838
aI3726
aI66
aI155
aI3727
aI695
aI3
aI153
aI128
aI1850
aI1625
aI1066
aI647
aI3728
aI3627
aI1880
aI2332
aI792
aI3712
aI476
aI3629
aI3729
aI3638
aI3730
aI3614
aI2806
aI3726
aI66
aI695
aI102
aI475
aI3
aI1684
aI3511
aI18
aI3641
aI3731
aI3642
aI47
aI3732
aI3733
aI2303
aI431
aI3734
aI1684
aI439
aI3735
aI3736
aI3737
aI3729
aI902
aI381
aI142
aI80
aI3738
aI1217
aI66
aI2810
aI212
aa(lp21
I22
aI10
aI217
aI68
aI291
aI566
aI4
aI273
aI75
aI48
aI285
aI1362
aI408
aI360
aI2866
aI147
aI3717
aI15
aI2485
aI297
aI340
aI2593
aI232
aI22
aI273
aI3739
aI15
aI1276
aI392
aI296
aI566
aI3317
aI22
aI294
aI479
aI1042
aI1330
aI22
aI3740
aI1214
aI1021
aI220
aI207
aI3741
aI15
aI75
aI285
aI399
aI190
aI182
aI3742
aI107
aI273
aI75
aI1464
aI285
aI2565
aI48
aI1362
aI1261
aI360
aI3743
aI15
aI560
aI482
aI987
aI3744
aI2828
aI294
aI2496
aI3745
aI285
aI399
aI856
aI54
aI107
aI482
aI3744
aI18
aI3746
aI55
aI3744
aI48
aI2496
aI3745
aI285
aI286
aI482
aI287
aI2387
aa(lp22
I22
aI273
aI75
aI48
aI285
aI10
aI217
aI68
aI291
aI1362
aI408
aI380
aI3108
aI297
aI340
aI1569
aI392
aI164
aI15
aI1307
aI147
aI3747
aI15
aI3716
aI15
aI1365
aI232
aI96
aI400
aI566
aI4
aI22
aI1366
aI315
aI2620
aI296
aI297
aI22
aI289
aI3719
aI1976
aI36
aI163
aI1366
aI288
aI22
aI248
aI1366
aI442
aI3194
aI2711
aI3720
aI15
aI75
aI129
aI1289
aI3748
aI15
aI75
aI340
aI2584
aI1872
aa(lp23
I22
aI3749
aI18
aI3
aI4
aI3511
aI3512
aI18
aI287
aI134
aI3750
aI15
aI409
aI330
aI856
aI1247
aI55
aI3511
aI3751
aI375
aI3749
aI33
aI2723
aI2013
aI3
aI579
aI408
aI1009
aI3752
aI1071
aI783
aI330
aI1460
aI476
aI3511
aI3753
aI3754
aI114
aI186
aI3511
aI33
aI1201
aI1202
aI47
aI476
aI246
aI15
aI3755
aI465
aI134
aI160
aI779
aI15
aI340
aI199
aI3749
aI3
aI782
aI432
aI2554
aI19
aI40
aI287
aI292
aI3756
aI572
aI233
aI15
aI77
aI15
aI1688
aI1168
aI1466
aI1168
aI75
aI1045
aI570
aI1619
aI432
aI330
aa(lp24
I22
aI1606
aI508
aI3545
aI3757
aI2452
aI107
aI3518
aI2195
aI383
aI2790
aI4
aI3758
aI1933
aI3213
aI785
aI379
aI3759
aI249
aI427
aI493
aI2282
aI3760
aI783
aI2001
aI1446
aI107
aI315
aI581
aI478
aI1362
aI650
aI3761
aI1589
aI324
aI3762
aI493
aI2282
aI1446
aI25
aI872
aI2087
aI608
aI609
aI3763
aI3764
aI1446
aI238
aI1224
aI493
aI2282
aI3765
aI3766
aI2714
aI3767
aI1446
aI1647
aI1648
aa(lp25
I22
aI3639
aI1052
aI655
aI508
aI486
aI3614
aI1179
aI2674
aI432
aI22
aI1995
aI1106
aI190
aI642
aI2153
aI840
aI3768
aI541
aI3769
aI647
aI3770
aI1701
aI324
aa(lp26
I75
aI293
aI1803
aI229
aI380
aI4
aI3771
aI783
aI3511
aI3512
aI18
aI293
aI3772
aI75
aI380
aI63
aI1168
aI1524
aI22
aI412
aI19
aI3773
aI3774
aI15
aI783
aI3511
aI163
aI652
aI3775
aI348
aI3511
aI3512
aI33
aI1201
aI1202
aI459
aI229
aI114
aI652
aI383
aI2150
aI2133
aI3776
aI79
aI75
aI3511
aI3512
aI380
aI1803
aI1168
aI2071
aa(lp27
I869
aI3510
aI18
aI1397
aI2866
aI178
aI783
aI1446
aI1245
aI1453
aI1896
aI1484
aI3777
aI1238
aI1283
aI1283
aI3510
aI3181
aI1948
aI3639
aI1042
aI1962
aI3778
aI486
aI508
aI3545
aI3779
aI22
aI709
aI2790
aI3510
aI3780
aI3781
aI3782
aI915
aI3783
aI1612
aI402
aI3726
aI3784
aI493
aI2282
aI1413
aI471
aI3148
aI1011
aI238
aI1319
aI508
aI783
aI1598
aI385
aI1939
aI3783
aI3260
aI2885
aI1055
aI3785
aI25
aI609
aI3786
aI970
aa(lp28
I22
aI3511
aI3512
aI18
aI653
aI3756
aI880
aI456
aI15
aI3549
aI664
aI411
aI572
aI856
aI314
aI482
aI3510
aI1610
aI18
aI3511
aI3
aI880
aI287
aI3271
aI3549
aI3504
aI2808
aI3787
aI75
aI915
aI3788
aI656
aI231
aI570
aI3789
aI75
aI1064
aI479
aI88
aI3790
aI695
aI665
aI3511
aI566
aI3504
aI2808
aI1727
aI15
aI3362
aI75
aI606
aI3791
aI178
aI479
aI570
aI2725
aI3511
aI75
aI360
aI3792
aI3793
aI156
aI880
aI2217
aI239
aI3794
aI652
aI862
aI1571
aI482
aa(lp29
I22
aI3794
aI652
aI624
aI31
aI153
aI1571
aI3510
aI1610
aI18
aI333
aI145
aI3511
aI3512
aI18
aI851
aI263
aI42
aI798
aI508
aI3545
aI3795
aI647
aI802
aI3213
aI978
aI482
aI1843
aI1323
aI1168
aI3796
aI1802
aI3797
aI3798
aI3
aI156
aI3799
aI764
aI1989
aI2674
aI1869
aI769
aI22
aI314
aI482
aI1939
aI3798
aI1429
aI287
aI572
aI3464
aI653
aI1576
aI3800
aI3801
aI3192
aI1460
aI1354
aI2087
aI114
aI2092
aI342
aI469
aI2346
aa(lp30
I3796
aI1802
aI3797
aI3798
aI3
aI153
aI1049
aI840
aI1571
aI314
aI166
aI178
aI482
aI3510
aI1610
aI18
aI3511
aI3512
aI18
aI157
aI3802
aI3803
aI353
aI1782
aI161
aI239
aI1554
aI1059
aI1060
aI1915
aI1675
aI652
aI3794
aI287
aI624
aI1571
aI482
aI161
aI239
aI40
aI1782
aI3802
aI353
aI1576
aI1939
aI3798
aI3014
aI1350
aI3111
aa(lp31
I22
aI3510
aI1610
aI18
aI2201
aI3804
aI314
aI145
aI3511
aI3512
aI1049
aI1160
aI10
aI314
aI107
aI476
aI249
aI3805
aI3803
aI353
aI92
aI240
aI157
aI76
aI3806
aI280
aI272
aI1049
aI107
aI1104
aI1556
aI1497
aI813
aI3794
aI652
aI76
aI363
aI1571
aI412
aa(lp32
I22
aI3639
aI3794
aI652
aI608
aI3807
aI353
aI3510
aI1610
aI18
aI333
aI159
aI3511
aI3512
aI18
aI157
aI287
aI3808
aI1576
aI1459
aI1404
aI3809
aI1896
aI3665
aI114
aI788
aI2150
aI3
aI153
aI3810
aI1049
aI353
aI314
aI157
aI479
aI391
aI2150
aI3
aI3510
aI1610
aI287
aI1717
aI770
aI625
aI114
aI2037
aI3
aI1049
aI287
aI3730
aI157
aI3811
aa(lp33
I22
aI3510
aI1610
aI18
aI3
aI153
aI1049
aI3812
aI3730
aI333
aI55
aI3511
aI3512
aI18
aI1614
aI130
aI3628
aI76
aI2707
aI3263
aI1011
aI508
aI645
aI1369
aI1556
aI3640
aI1576
aI22
aI3213
aI652
aI3794
aI652
aI972
aI40
aI104
aI399
aI295
aI1114
aI1217
aI3807
aI353
aI157
aI1078
aI107
aI92
aI1049
aI1841
aI1571
aI145
aI1619
aI287
aI3719
aI3639
aI284
aI1626
aI1359
aI482
aI383
aI1838
aI572
aI3813
aI288
aI508
aI1035
aI1042
aI340
aI2287
aI2674
aa(lp34
I22
aI3510
aI1610
aI18
aI3814
aI153
aI1274
aI1022
aI586
aI342
aI1049
aI31
aI3815
aI3535
aI693
aI807
aI178
aI145
aI3511
aI3512
aI18
aI3816
aI3817
aI3188
aI130
aI867
aI858
aI107
aI3469
aI1904
aI241
aI1160
aI1049
aI287
aI3818
aI1196
aI3794
aI652
aI3803
aI3680
aa(lp35
I180
aI3510
aI1610
aI18
aI1049
aI720
aI498
aI3819
aI107
aI2898
aI178
aI145
aI3511
aI3512
aI18
aI3510
aI3152
aI3820
aI3821
aI3510
aI802
aI1467
aI508
aI3545
aI3822
aI1790
aI153
aI1049
aI647
aI1571
aI157
aI3803
aI1680
aI1940
aI867
aI2084
aa(lp36
I915
aI199
aI1049
aI554
aI2454
aI482
aI3510
aI1610
aI18
aI3511
aI3512
aI18
aI3510
aI458
aI40
aI1446
aI107
aI489
aI2516
aI1754
aI1049
aI637
aI3510
aI1446
aI802
aI42
aI487
aI508
aI3545
aI5
aI2891
aI1049
aI583
aI128
aI3823
aI5
aI3824
aI159
aI6
aI2445
aI1896
aI114
aa(lp37
I22
aI436
aI18
aI587
aI3825
aI18
aI587
aI360
aI176
aI147
aI223
aI570
aI2725
aI1128
aI1486
aI822
aI1067
aI3826
aI178
aI1611
aI652
aI566
aI3827
aI1232
aI1460
aI380
aI1363
aI147
aI822
aI1067
aI1741
aI3828
aI147
aI566
aI2217
aI1834
aI1035
aI80
aI1741
aI3829
aI479
aI1855
aI92
aI273
aI129
aI1556
aI3830
aI23
aI1478
aI3831
aI525
aI380
aI3832
aI147
aI292
aI822
aI1067
aI2807
aI15
aI3833
aI1648
aI132
aI3834
aI1913
aI3155
aI1292
aI523
aI132
aI3835
aI2753
aI360
aI1466
aI147
aI129
aa(lp38
I1217
aI3836
aI2133
aI3837
aI1693
aI107
aI3838
aI1773
aI699
aI2337
aI3839
aI3840
aI448
aI3841
aI821
aI819
aI207
aI3842
aI1051
aI3843
aI3844
aI1250
aI875
aI3643
aI2902
aI3845
aI3846
aI2888
aI400
aI751
aI3847
aI931
aI3848
aI645
aI3849
aI3850
aI1812
aa(lp39
I180
aI186
aI175
aI3640
aI142
aI3851
aI3852
aI939
aI3853
aI802
aI508
aI3545
aI54
aI3854
aI1319
aI3855
aI1016
aI1741
aI3275
aI3639
aI118
aI3856
aI71
aI1237
aI3857
aI266
aI2282
aI915
aI3858
aI3859
aI802
aI508
aI2842
aI2774
aI560
aI805
aI147
aI252
aI153
aI3860
aI120
aI1750
aI482
aI1011
aI508
aI3545
aI3861
aI28
aI2639
aI508
aI3545
aI1016
aI1446
aI107
aI3862
aI107
aI3510
aI1610
aI18
aa(lp40
I107
aI36
aI22
aI3863
aI263
aI482
aI145
aI1104
aI428
aI517
aI375
aI3864
aI3865
aI3866
aI974
aI1505
aI2828
aI56
aI102
aI613
aI292
aI293
aI157
aI223
aI163
aI128
aI1784
aI20
aI80
aI479
aI3627
aI5
aI159
aI3867
aI84
aI21
aI47
aI72
aI2624
aI3868
aI1429
aI2853
aI3869
aI3870
aI3871
aI1119
aI3872
aI3873
aI89
aI282
aI283
aI693
aI22
aI3263
aI3535
aI303
aI91
aI36
aI3510
aI1610
aI145
aI3511
aI3512
aI3001
aI3580
aI25
aI2557
aI2093
aI324
aI342
aI2756
aI537
aI1130
aI946
aI2458
aI3874
aI976
aI107
aI1125
aI8
aI375
aI92
aI331
aI157
aI2759
aI3875
aI3876
aI2001
aI3877
aI1993
aI2759
aI3878
aI3879
aI229
aa(lp41
I1973
aI1915
aI157
aI1114
aI266
aI3880
aI22
aI552
aI3510
aI1610
aI18
aI207
aI3881
aI2163
aI2898
aI178
aI2093
aI3511
aI3512
aI18
aI3510
aI75
aI380
aI295
aI3511
aI3882
aI978
aI411
aI1114
aI3883
aI432
aI712
aI42
aI107
aa(lp42
I3293
aI340
aI56
aI482
aI802
aI508
aI102
aI3510
aI1610
aI18
aI3884
aI333
aI2898
aI178
aI145
aI3511
aI3512
aI18
aI4
aI157
aI1049
aI3730
aI3803
aI1680
aI635
aI199
aI592
aI107
aI1049
aI3885
aI867
aI342
aI412
aI3510
aI3
aI4
aI249
aI1782
aI3817
aI579
aI331
aI1009
aI269
aa(lp43
I3510
aI88
aI1624
aI482
aI987
aI3511
aI3512
aI1940
aI36
aI3886
aI1049
aI3510
aI1610
aI3884
aI333
aI2898
aI178
aI145
aI3511
aI3512
aI18
aI22
aI970
aI1206
aI199
aI592
aI107
aI1049
aI3885
aI867
aI342
aI22
aI157
aI1751
aI3293
aI340
aI1750
aI3263
aI3887
aI508
aI102
aI2287
aI2674
aI340
aI2139
aI3888
aa(lp44
I915
aI130
aI326
aI3889
aI2968
aI153
aI3510
aI1610
aI18
aI314
aI807
aI178
aI145
aI3511
aI3512
aI18
aI3481
aI328
aI1049
aI557
aI412
aI1276
aI2635
aI326
aI3890
aI3891
aI186
aI175
aI336
aI867
aI3
aI3892
aI3893
aI1022
aI287
aI335
aI3837
aI858
aI107
aI250
aI328
aI1474
aI970
aI1686
aI365
aa(lp45
I22
aI3510
aI1610
aI18
aI3894
aI316
aI3229
aI2085
aI1556
aI3895
aI1049
aI249
aI1571
aI314
aI2898
aI178
aI2093
aI3511
aI3512
aI18
aI92
aI1989
aI1686
aI3896
aI1989
aI2674
aI42
aI1114
aI3572
aa(lp46
I128
aI3286
aI3794
aI652
aI580
aI3510
aI1610
aI18
aI3511
aI3512
aI18
aI3895
aI314
aI2898
aI178
aI482
aI4
aI1217
aI263
aI287
aI589
aI1576
aI1869
aI3464
aI3118
aI15
aI1323
aI163
aI625
aI508
aI102
aI509
aI22
aI3286
aI624
aI186
aI175
aI336
aI867
aI336
aI3897
aI298
aI28
aI239
aI3794
aI652
aI1684
aI3213
aI652
aI624
aI31
aI1571
aI157
aI1217
aI482
aI287
aI3898
aI287
aI3899
aI508
aI3900
aI1612
aI3317
aI120
aI580
aI465
aI754
aI328
aI854
aI2306
aI1686
aI1330
aa(lp47
I840
aI542
aI508
aI375
aI498
aI1628
aI2759
aI3510
aI1610
aI18
aI156
aI4
aI265
aI178
aI145
aI3901
aI18
aI229
aI3450
aI107
aI648
aI1049
aI28
aI434
aI646
aI22
aI157
aI859
aI3902
aI2065
aI3510
aI1610
aI28
aI199
aI646
aI3884
aI333
aI2898
aI178
aI2093
aI3511
aI3512
aI18
aI840
aI287
aI250
aI3510
aI3724
aI508
aI1460
aI22
aI3511
aI157
aI3806
aI1940
aI3213
aI652
aI2454
aI3803
aI1680
aa(lp48
I22
aI3511
aI3512
aI18
aI3903
aI186
aI175
aI508
aI3545
aI5
aI153
aI159
aI318
aI1464
aI1093
aI107
aI1637
aI15
aI626
aI3904
aI1491
aI79
aI80
aI6
aI130
aI1049
aI3511
aI3512
aI333
aI159
aI2
aI804
aI1383
aI64
aI33
aI3905
aI46
aI465
aI1802
aI606
aI1809
aI15
aI163
aI22
aI1093
aI107
aI247
aI1748
aI7
aI994
aI186
aI175
aI25
aI452
aa(lp49
I22
aI3511
aI3512
aI18
aI3
aI153
aI333
aI3271
aI1055
aI2282
aI3906
aI892
aI232
aI147
aI340
aI1638
aI1841
aI160
aI1576
aI376
aI3535
aI107
aI22
aI156
aI3907
aI420
aI9
aI281
aI199
aI333
aI145
aI3511
aI3510
aI1610
aI3806
aI1940
aI1049
aI3803
aI353
aI1042
aI3511
aI802
aI3903
aI3535
aI107
aI1574
aI68
aI2186
aI3155
aI2711
aI388
aI3813
aI3908
aI3643
aI107
aI3909
aI102
aI2877
aI28
aI1889
aI2001
aI1446
aI3510
aI3862
aa(lp50
I508
aI102
aI482
aI76
aI878
aI186
aI175
aI1475
aI361
aI3910
aI2023
aI970
aI223
aI239
aI1006
aI3535
aI693
aI3911
aI2574
aI921
aI3492
aI1606
aI2510
aI508
aI102
aI1442
aa(lp51
I266
aI915
aI1628
aI3912
aI68
aI266
aI191
aI505
aI486
aI3863
aI6
aI3913
aI3459
aI1754
aI3914
aI1476
aI393
aI473
aI3915
aI187
aI552
aI163
aI299
aI300
aI102
aI301
aI360
aI3916
aI147
aI3917
aI523
aI318
aI3918
aI2449
aI147
aI1330
aI1466
aI303
aI3919
aI191
aI100
aI282
aI283
aI88
aI3111
aI506
aI279
aI266
aI3920
aI253
aI294
aI232
aI233
aI147
aI280
aI2790
aI22
aI299
aI340
aI239
aI3921
aI3921
aI2121
aI2135
aI360
aI3921
aI523
aI3921
aI22
aI1067
aI2129
aI1057
aI350
aI360
aI3922
aI147
aI1181
aI38
aI1669
aI28
aI434
aI3923
aI3924
aI2114
aI3925
aI128
aI36
aI3803
aI2378
aI3923
aI1049
aI1565
aI3643
aI107
aI586
aI266
aI3926
aI2282
aI2114
aI358
aI3927
aI3928
aI3929
aI249
aI3930
aI3923
aI3931
aI130
aI175
aI2378
aI3
aI2277
aI3755
aI1707
aI2114
aI245
aI24
aI1768
aI3932
aI3933
aI381
aI1016
aI3923
aI851
aI2378
aI1841
aI3934
aI3217
aI375
aI823
aI1076
aI3935
aI3898
aI2262
aa(lp52
I22
aI3511
aI3512
aI18
aI682
aI2396
aI1462
aI422
aI1499
aI3936
aI531
aI302
aI132
aI1283
aI3511
aI331
aI3674
aI1446
aI107
aI849
aI2112
aI132
aI2495
aI163
aI625
aI448
aI163
aI1042
aI1872
aI1297
aI911
aI1326
aI3511
aI465
aI308
aI1748
aI399
aI163
aI340
aI2301
aI902
aI3937
aI3
aI3511
aI315
aI3938
aI682
aI10
aI1462
aI531
aI3636
aI44
aI3939
aI810
aI3940
aI3941
aI3942
aI1939
aI3937
aI3
aa(lp53
I222
aI199
aI282
aI283
aI3943
aI3944
aI1483
aI18
aI352
aI883
aI3945
aI102
aI872
aI3946
aI3947
aI3944
aI853
aI3948
aI2074
aI178
aI223
aI1474
aI1035
aI146
aI178
aI2461
aI3949
aI3950
aI3451
aI37
aI287
aI3951
aI2715
aI107
aI320
aI642
aI75
aI253
aI198
aI232
aI68
aI3952
aI162
aI163
aI378
aI1558
aI3413
aI3944
aI681
aI475
aI2504
aI261
aI3305
aI2066
aI479
aI438
aI5
aI283
aI107
aI1410
aI547
aI1094
aI352
aI92
aI25
aI609
aI481
aI3413
aI1104
aI1362
aI3953
aI3011
aI3849
aI3954
aI422
aI375
aI625
aI3944
aI1637
aI178
aI102
aI91
aI21
aI674
aI3955
aI387
aI3956
aI3944
aI2715
aI3957
aI479
aI438
aa(lp54
I22
aI3510
aI1610
aI18
aI3
aI4
aI602
aI783
aI578
aI1082
aI262
aI178
aI257
aI229
aI3958
aI114
aI3668
aI10
aI1210
aI3959
aI22
aI107
aI3
aI3510
aI1610
aI130
aI114
aI221
aI33
aI3960
aI46
aI287
aI3961
aI479
aI114
aI1396
aI1638
aI22
aI3959
aI1442
aI1776
aI328
aI1234
aI3674
aI3511
aI3512
aI18
aI3862
aI107
aI3510
aI3
aI783
aI33
aI297
aI141
aI1396
aI1638
aI28
aI3152
aI114
aa(lp55
I22
aI3510
aI1610
aI18
aI648
aI482
aI223
aI163
aI3510
aI18
aI1610
aI3677
aI18
aI1224
aI3547
aI3548
aI18
aI487
aI508
aI3545
aI3639
aI3
aI239
aI3510
aI1610
aI33
aI34
aI35
aI3962
aI178
aI783
aI2634
aI1265
aI163
aI340
aI223
aI1276
aI77
aI1289
aI2635
aI178
aI3547
aI3548
aI2787
aI1612
aI402
aI783
aI375
aI360
aI392
aI178
aI296
aI163
aa(lp56
I22
aI3511
aI3512
aI18
aI3
aI1066
aI333
aI6
aI1120
aI15
aI75
aI68
aI586
aI1275
aI3447
aI806
aI1911
aI1803
aI178
aI55
aI3944
aI1483
aI18
aI3213
aI1896
aI186
aI1297
aI1066
aI75
aI253
aI3963
aI3964
aI1168
aI6
aI1120
aI15
aI75
aI287
aI608
aI3965
aI15
aI740
aI572
aa(lp57
I22
aI1773
aI3966
aI3967
aI2620
aI439
aI3968
aI428
aI681
aI475
aI2123
aI488
aI107
aI1686
aI2046
aI393
aI547
aI1021
aI310
aI1404
aI3969
aI2880
aI793
aI3970
aI913
aI458
aI1543
aI105
aI970
aI683
aI823
aI3971
aI892
aI3972
aI1543
aI2058
aI1773
aI3136
aI3973
aI1757
aI1707
aI791
aI792
aI3974
aI677
aI3009
aI22
aI204
aI2195
aI3800
aI209
aI915
aI88
aI211
aI2691
aI679
aI3872
aI1919
aI1920
aI1812
aI88
aI475
aI3975
aI481
aI3976
aI709
aI3977
aI475
aI31
aa(lp58
I22
aI3511
aI3512
aI18
aI4
aI566
aI779
aI147
aI289
aI656
aI390
aI570
aI411
aI1044
aI145
aI3944
aI1483
aI18
aI508
aI1896
aI375
aI222
aI570
aI107
aI656
aI1246
aI15
aI3978
aI75
aI1289
aI2717
aI15
aI3979
aI75
aI570
aI163
aI2217
aI22
aI664
aI3335
aI3555
aI282
aI283
aI231
aI698
aI75
aI1064
aI514
aI695
aI479
aI88
aa(lp59
I22
aI3511
aI3512
aI18
aI3
aI48
aI1120
aI15
aI67
aI75
aI3980
aI608
aI3981
aI15
aI22
aI508
aI3545
aI33
aI1201
aI1202
aI3
aI1275
aI287
aI586
aI3271
aI806
aI3982
aI1803
aI178
aI145
aI508
aI1896
aI375
aI3944
aI1483
aI18
aI54
aI1044
aI262
aI22
aI75
aI241
aI3983
aI186
aI175
aI541
aI191
aI22
aI107
aI3
aI120
aI2995
aI650
aI3962
aI15
aI75
aI3984
aI663
aI3511
aI75
aI380
aI2958
aI4
aI3985
aI187
aI10
aI217
aI68
aI291
aa(lp60
I128
aI1024
aI3986
aI375
aI777
aI100
aI3271
aI806
aI3982
aI2074
aI178
aI145
aI3948
aI64
aI3944
aI1483
aI18
aI3
aI4
aI5
aI6
aI508
aI1896
aI114
aI375
aI3511
aI3512
aI18
aI1803
aI178
aI626
aI22
aI156
aI318
aI1206
aI3944
aI23
aI1569
aI3415
aI3987
aI21
aI3988
aI186
aI3989
aI3990
aI617
aI622
aI3991
aI15
aI1275
aI42
aI23
aI1271
aI107
aI3447
aI1616
aI147
aI806
aI3982
aI55
aI3948
aa(lp61
I128
aI3786
aI840
aI574
aI3263
aI508
aI3545
aI439
aI798
aI573
aI3510
aI1610
aI18
aI156
aI153
aI333
aI310
aI3992
aI18
aI775
aI157
aI388
aI246
aI178
aI22
aI156
aI298
aI3219
aI845
aI19
aI3510
aI1610
aI664
aI482
aI179
aI442
aI559
aI1591
aI263
aI92
aI156
aI1668
aI1237
aI266
aI3639
aI508
aI3545
aI272
aI1889
aI509
aI3263
aI3909
aI391
aI294
aI508
aI2842
aI2774
aa(lp62
I22
aI3511
aI3512
aI18
aI3
aI4
aI287
aI3993
aI3994
aI892
aI508
aI1648
aI770
aI420
aI9
aI340
aI163
aI3511
aI3512
aI508
aI3545
aI247
aI3995
aI892
aI270
aI478
aI3
aI294
aI1055
aI42
aI56
aI1648
aI66
aI3641
aI3731
aI3642
aI3996
aI1210
aI3533
aI476
aI1838
aI3997
aI22
aI333
aI3998
aI315
aI3999
aI572
aI1838
aI1122
aI3996
aI1460
aI3511
aI3512
aI33
aI1201
aI1202
aI3
aI1838
aI287
aI476
aI1330
aI262
aa(lp63
I22
aI186
aI175
aI436
aI1288
aI692
aI223
aI199
aI431
aI1622
aI4000
aI4001
aI1648
aI55
aI362
aI531
aI132
aI288
aI487
aI1292
aI246
aI199
aI1611
aI652
aI566
aI153
aI332
aI398
aI132
aI207
aI1081
aI147
aI129
aI663
aI1492
aI2495
aI4002
aI695
aI523
aI4003
aI262
aI147
aI289
aI132
aI3833
aI1238
aI1661
aI458
aI319
aI2581
aI436
aI439
aa(lp64
I281
aI915
aI4004
aI1532
aI1532
aI1533
aI107
aI566
aI3516
aI4005
aI178
aI223
aI163
aI625
aI4006
aI3915
aI163
aI878
aI1542
aI4007
aI486
aI1701
aI3920
aI4008
aI434
aI1224
aI10
aI681
aI1848
aI201
aI4009
aI10
aI2391
aI1741
aI2139
aI3888
aI3092
aI4010
aI915
aI587
aI1802
aI1533
aI3
aI465
aI790
aI587
aI630
aI570
aI287
aI3481
aI566
aI664
aI1058
aI142
aI118
aI391
aI54
aI1855
aI4011
aI577
aI987
aI4012
aI943
aI4013
aI1723
aI107
aI3
aI4012
aI943
aI4014
aI289
aI884
aI4015
aI586
aI3386
aI1404
aI4016
aI4017
aI1184
aI1022
aI608
aI609
aI2420
aI943
aI4018
aI3923
aI566
aI23
aI3923
aI566
aI385
aI23
aI248
aI570
aI587
aI295
aI2567
aI282
aI283
aI231
aI20
aI664
aI4019
aI854
aI2492
aI2943
aI10
aI1460
aI3705
aI807
aI147
aI3461
aI3627
aI1462
aI3627
aI4020
aI207
aI3460
aI223
aI163
aI186
aI175
aI288
aI4021
aI4022
aI15
aI1462
aI22
aI1292
aI245
aI3627
aI807
aI147
aI1451
aI147
aI1962
aI4023
aI4024
aI1206
aI4025
aI666
aI4026
aI4025
aI2461
aI228
aI897
aI4027
aI1326
aI4028
aI4024
aI3627
aI2150
aI880
aI107
aI4029
aI1041
aI4030
aI1413
aI3626
aI2254
aI4026
aI4031
aI1462
aI237
aI4023
aI4032
aI625
aI4033
aI4034
aI22
aI264
aI18
aI455
aI25
aI171
aI487
aI20
aI80
aI107
aI4035
aI4036
aI930
aI1255
aI4037
aI4038
aI186
aI175
aI1350
aI76
aI1214
aI2328
aI264
aI343
aI4039
aI785
aI4040
aI1016
aI592
aI310
aI4041
aI4042
aI4043
aI947
aI1351
aI1352
aI186
aI4044
aI2438
aI1623
aI4045
aI4046
aI239
aI4047
aI2452
aI1829
aI4048
aI1402
aI1277
aI3462
aI1936
aI1834
aI566
aI1593
aI2438
aI1590
aI4049
aI664
aI4045
aI4050
aI2748
aI4051
aI915
aI4052
aI4053
aI2747
aI22
aI4054
aI4053
aI4055
aI4056
aI504
aI525
aI414
aI4057
aI4058
aI18
aI2495
aI854
aI223
aI163
aI1940
aI609
aI4059
aI85
aI318
aI892
aI408
aI3705
aI4060
aI409
aI4061
aI31
aI22
aI652
aI2086
aI156
aI4060
aI944
aI5
aI134
aI4062
aI15
aI212
aI2797
aI4063
aI389
aI409
aI130
aI580
aI346
aI107
aI4064
aI4061
aI2514
aI4011
aI4065
aI266
aI662
aI282
aI283
aI2112
aI4066
aI1306
aI2206
aI1067
aI2096
aI4067
aI4068
aI591
aI660
aI266
aI525
aI634
aI892
aI3106
aI1320
aI4065
aI3697
aI3705
aI4069
aI563
aI4070
aI22
aI2244
aI822
aI3459
aI1675
aI4071
aI4072
aI1554
aI470
aI3135
aI830
aI525
aI163
aI1018
aI4073
aI1787
aI4074
aI3705
aI571
aI656
aI2496
aI299
aI300
aI299
aI300
aI107
aI566
aI3460
aI571
aI2693
aI656
aI2714
aI1288
aI23
aI162
aI930
aI145
aI3830
aI93
aI23
aI22
aI282
aI283
aI1080
aI4075
aI915
aI4076
aI436
aI22
aI248
aI1366
aI414
aI2574
aI436
aI1836
aI4077
aI2895
aI147
aI4006
aI4078
aI2588
aI434
aI4079
aI458
aI2861
aI4018
aI1898
aI587
aI1230
aI1466
aI147
aI1898
aI566
aI1466
aI147
aI289
aI1259
aI587
aI4080
aI4081
aI289
aI2831
aI4082
aI22
aI566
aI4083
aI4084
aI163
aI3285
aI4085
aI281
aI104
aI2759
aI375
aI4086
aI764
aI915
aI4087
aI1499
aI281
aI2689
aI4088
aI572
aI301
aI1562
aI15
aI4089
aI2880
aI292
aI127
aI92
aI42
aI4090
aI266
aI2707
aI625
aI3379
aI1035
aI361
aI591
aI1289
aI1354
aI2539
aI2946
aI93
aI3939
aI4091
aI4075
aI4092
aI1623
aI4093
aI2150
aI130
aI1413
aI4092
aI910
aI4094
aI2715
aI2679
aI4095
aI1389
aI880
aI4096
aI4097
aI1058
aI1006
aI2495
aI1178
aI4098
aI2879
aI525
aI4099
aI4100
aI2496
aI4101
aI1312
aI186
aI4101
aI21
aI1993
aI4102
aI2679
aI3855
aI190
aI186
aI3285
aI37
aI42
aI604
aI292
aI1032
aI4018
aI375
aI206
aI667
aI459
aI4103
aI42
aI508
aI3545
aI3510
aI1610
aI18
aI3511
aI3512
aI107
aI790
aI571
aI2693
aI656
aI1049
aI1035
aI213
aI439
aI508
aI3621
aI79
aI91
aI160
aI385
aI4104
aI4105
aI1321
aI4106
aI4107
aI4108
aI4109
aI3
aI2693
aI656
aI380
aI77
aI147
aI385
aI23
aI235
aI256
aI709
aI1460
aI661
aI571
aI253
aI4110
aI4111
aI4104
aI71
aI4112
aI865
aI176
aI178
aI4113
aI241
aI4114
aI4115
aI157
aI287
aI263
aI107
aI1946
aI4116
aI943
aI4117
aI4104
aa(lp65
I22
aI3511
aI3512
aI18
aI3640
aI656
aI2915
aI163
aI4
aI1838
aI231
aI1235
aI411
aI333
aI145
aI3753
aI64
aI23
aI3753
aI4118
aI375
aI3511
aI508
aI3545
aI315
aI1071
aI4119
aI665
aI2406
aI2407
aI656
aI1671
aI75
aI1234
aI1618
aI2217
aI239
aI3511
aI33
aI1201
aI1202
aI5
aI6
aI3753
aI4120
aI375
aI2159
aI21
aI157
aI388
aI4121
aI178
aI128
aI1330
aI3511
aI5
aI159
aI3753
aI33
aI4122
aI4123
aI178
aI68
aa(lp66
I22
aI3511
aI3512
aI18
aI508
aI3545
aI3
aI4
aI5
aI6
aI4124
aI147
aI4120
aI19
aI375
aI3753
aI64
aI2159
aI21
aI10
aI4125
aI4113
aI2112
aI4121
aI178
aI3511
aI465
aI54
aI55
aI3753
aI2001
aI508
aI3545
aI163
aI85
aI4126
aI178
aI626
aI2268
aI15
aI806
aI348
aI1501
aI4127
aI15
aI148
aI3753
aI4120
aI3
aI22
aI107
aI586
aI1275
aI2035
aI284
aI23
aI3753
aI3754
aI186
aI134
aI1316
aI178
aI806
aa(lp67
I1278
aI284
aI199
aI1619
aI2674
aI3853
aI121
aI4128
aI4129
aI68
aI266
aI92
aI878
aI1415
aI1354
aI1352
aI39
aI266
aI4130
aI1217
aI1913
aI240
aI266
aI2128
aI669
aI1442
aI186
aI175
aI4131
aI3094
aI180
aI664
aI479
aI458
aI3930
aI320
aI159
aI704
aa(lp68
I22
aI130
aI229
aI1194
aI1571
aI482
aI802
aI42
aI487
aI3450
aI113
aI3950
aI153
aI479
aI391
aI2100
aI163
aI1267
aI557
aI845
aI18
aI157
aI3898
aI1496
aI389
aI475
aI3450
aI107
aI4132
aI229
aI4133
aI186
aI1802
aI1533
aI3091
aI1896
aI3
aI160
aI347
aI157
aI287
aI2328
aI314
aI4134
aI4135
aI4136
aI3628
aI92
aI458
aI623
aI2312
aI431
aI4135
aI157
aI4137
aI1071
aI4138
aI335
aI3027
aI4139
aI4140
aI107
aI3481
aI2082
aI10
aI314
aI971
aI476
aa(lp69
I3719
aI4141
aI1976
aI273
aI75
aI48
aI285
aI1362
aI408
aI10
aI217
aI68
aI291
aI360
aI1256
aI2635
aI147
aI297
aI4142
aI4143
aI96
aI400
aI566
aI4
aI1297
aI340
aI297
aI410
aI232
aI285
aI389
aI360
aI3460
aI4144
aI15
aI75
aI1350
aI1181
aI293
aI1042
aI1368
aI128
aI296
aI297
aI285
aI389
aI2567
aI178
aI306
aI479
aI391
aa(lp70
I22
aI3511
aI3512
aI18
aI54
aI8297
aI178
aI145
aI3450
aI1321
aI3753
aI4
aI3403
aI3803
aI2515
aI865
aI412
aI22
aI3794
aI652
aI3
aI181
aI145
aI3511
aI3512
aI5
aI36
aI6
aI19
aI8319
aI987
aI3753
aI3511
aI310
aI402
aI178
aI822
aI3639
aI23
aI3753
aI33
aI4122
aI3511
aI33
aI1201
aI1202
aa(lp71
I4046
aI71
aI2579
aI2082
aI3511
aI3512
aI2106
aI178
aI238
aI3753
aI64
aI157
aI2277
aI3984
aI4170
aI3511
aI3794
aI652
aI4416
aI3510
aI1610
aI18
aI3639
aI8577
aI592
aI8578
aI8579
aI1019
aI1049
aI3511
aI8580
aI1484
aI2943
aI121
aI3776
aI3450
aI91
aa(lp72
I22
aI3511
aI3512
aI18
aI465
aI822
aI23
aI198
aI77
aI178
aI1618
aI383
aI223
aI239
aI55
aI3450
aI1321
aI3753
aI3511
aI25
aI802
aI487
aI508
aI3545
aI665
aI23
aI1081
aI178
aI1562
aI178
aI1235
aI2407
aI629
aI246
aI147
aI1234
aI1618
aI681
aI475
aI8250
aI8251
aI367
aI1915
aI1675
aI4
aI318
aI2895
aI178
aI3753
aI145
aa(lp73
I8581
aI96
aI400
aI215
aI798
aI3678
aI792
aI3712
aI215
aI2177
aI1558
aI8582
aI910
aI720
aI10
aI217
aI68
aI291
aI2244
aI69
aI2112
aI3841
aI3712
aI673
aI161
aI381
aI348
aI291
aI1194
aI481
aI3712
aI315
aI476
aI1626
aI8583
aI2774
aI3678
aI156
aI287
aI1684
aI289
aI1234
aI22
aI215
aI481
aI8582
aI156
aI314
aI2774
aI289
aI280
aI8341
aI1019
aI3678
aI8584
aI3259
aI1234
aI6745
aI22
aI840
aI1206
aI2087
aI1267
aI8585
aI362
aI8586
aI209
aI2051
aI771
aI8587
aI2903
aI8588
aI1920
aI8589
aI2139
aI3888
aa(lp74
I22
aI10
aI217
aI68
aI291
aI566
aI4
aI285
aI389
aI380
aI4124
aI147
aI4145
aI15
aI75
aI199
aI340
aI1276
aI232
aI292
aI4146
aI15
aI75
aI22
aI296
aI303
aI4147
aI15
aI75
aI120
aI1330
aI232
aI22
aI285
aI389
aI297
aI163
aI2217
aI167
aI4148
aI15
aI75
aI128
aI248
aI297
aI285
aI389
aI190
aI68
aI291
aI360
aI4149
aI75
aI4150
aI15
aI75
aI915
aI285
aI399
aI664
aI23
aI2565
aI68
aI267
aI159
aI1071
aI321
aI3317
aI252
aI253
aI408
aI23
aa(lp75
I798
aI22
aI10
aI217
aI68
aI291
aI566
aI4
aI285
aI389
aI380
aI2216
aI147
aI292
aI303
aI4151
aI297
aI340
aI1510
aI885
aI22
aI10
aI293
aI2567
aI306
aI120
aI2307
aI143
aI199
aI68
aI266
aI4152
aI4153
aI303
aa(lp76
I798
aI22
aI10
aI217
aI68
aI291
aI566
aI4
aI285
aI389
aI207
aI177
aI147
aI4151
aI297
aI340
aI1330
aI885
aa(lp77
I798
aI22
aI10
aI217
aI68
aI291
aI566
aI4
aI285
aI389
aI289
aI4154
aI262
aI147
aI4151
aI297
aI340
aI2306
aI232
aa(lp78
I798
aI22
aI10
aI217
aI68
aI291
aI566
aI4
aI285
aI389
aI96
aI400
aI3102
aI2137
aI262
aI147
aI4151
aI297
aI340
aI1664
aI232
aa(lp79
I798
aI22
aI248
aI1366
aI4155
aI4156
aI262
aI147
aI167
aI75
aI917
aI96
aI400
aI2569
aI285
aI23
aI315
aI292
aI303
aa(lp80
I22
aI10
aI217
aI68
aI291
aI566
aI4
aI273
aI75
aI48
aI285
aI1362
aI408
aI199
aI340
aI1365
aI232
aI289
aI4157
aI15
aI292
aI293
aI22
aI10
aI167
aI2717
aI147
aI296
aI292
aI120
aI199
aI2217
aI22
aI96
aI400
aI3
aI1396
aI579
aI3317
aI292
aI4158
aI15
aI75
aI1464
aI285
aI399
aI48
aI285
aI191
aI1362
aI408
aI1289
aI1486
aI167
aI4159
aI15
aI75
aI2593
aI232
aI22
aI248
aI1366
aI4155
aI4156
aI262
aI147
aI167
aI75
aI917
aI96
aI400
aI315
aI199
aI340
aI1365
aI232
aI190
aI68
aI291
aI566
aI285
aI23
aI1068
aI380
aI4160
aI15
aI75
aI292
aI167
aI4161
aI15
aI289
aI1741
aI262
aI147
aI296
aI292
aI167
aI566
aI297
aI340
aI2593
aI232
aI915
aI285
aI23
aI23
aI2565
aI68
aI4162
aI859
aI3107
aI253
aI68
aI288
aI1042
aI394
aI625
aI587
aI68
aI853
aI252
aI253
aI3143
aI1347
aI1018
aI607
aI695
aI3469
aI96
aI207
aI285
aI389
aI4163
aI4164
aI1018
aI1354
aI191
aI3190
aI68
aI266
aI1306
aI3187
aI1217
aI845
aI1306
aI285
aI389
aI287
aI4165
aI0
aI695
aI1021
aI3469
aI845
aI4166
aI75
aI48
aI285
aI3189
aI4163
aI458
aI75
aI3822
aI2458
aI853
aI212
aI128
aI1306
aI266
aI394
aI3863
aI408
aI399
aI320
aI4167
aI4168
aI4169
aI1237
aI253
aI259
aI1613
aI401
aI285
aI389
aI4165
aI22
aI3143
aI2277
aI10
aI4170
aI284
aI163
aI609
aI4171
aI388
aI285
aI389
aI480
aI1350
aI1214
aI2090
aI664
aI394
aI3746
aI976
aI2714
aI4172
aI24
aI314
aI2686
aI2093
aI2158
aI348
aI158
aI241
aI68
aI352
aI3406
aI3088
aI285
aI389
aI1366
aI76
aI431
aI1741
aI4173
aI2867
aI1217
aI845
aI1383
aI191
aI586
aI394
aI4174
aI884
aI309
aI1128
aI4175
aI76
aI315
aI4176
aI4177
aI1366
aI222
aI4178
aI695
aI1627
aI121
aI631
aI394
aI2584
aI856
aI4179
aI657
aI1274
aI22
aI273
aI75
aI285
aI399
aI1464
aI191
aI167
aI2485
aI291
aI100
aI802
aI1239
aI348
aI4180
aI22
aI1206
aI96
aI400
aI68
aI2574
aI1214
aI977
aI285
aI399
aI168
aI75
aI284
aI297
aI4181
aI389
aI348
aI550
aI4182
aI4183
aI4184
aI4185
aI4186
aI4187
aI4188
aI4189
aI51
aI4190
aI4191
aI4192
aI4193
aI4194
aI4195
aI4196
aI4197
aI2808
aI4198
aI4199
aI4200
aI51
aI4201
aI4202
aI1772
aI554
aI4203
aI4204
aI4205
aI1920
aI51
aI4206
aI4207
aI2538
aI3345
aI4208
aI4209
aI4210
aI4211
aI986
aI739
aI4212
aI4213
aI4214
aI4215
aI4216
aI4217
aI493
aI1460
aI4218
aI4219
aI4220
aI3655
aI4221
aI4222
aI4223
aI4224
aI1777
aI493
aI21
aI4225
aI4226
aI4227
aI4228
aI4229
aI915
aI4230
aI4231
aI4232
aI4233
aI4229
aI1546
aI4234
aI4235
aI4236
aI64
aI4237
aI4238
aI4239
aI4240
aI2817
aI4241
aI4242
aI337
aI64
aI4243
aI4244
aI4245
aI4246
aI4247
aI4248
aI4245
aI4249
aI4250
aI4251
aI4252
aI21
aI64
aI4253
aI4254
aI4255
aI64
aI4256
aI4257
aI2642
aI425
aI4258
aI4259
aI4188
aI4260
aI4261
aI4262
aI4188
aI4263
aI64
aI4264
aI4265
aI4266
aI4267
aI64
aI4268
aI621
aI4269
aI305
aI4270
aI4267
aI4271
aI4272
aI4273
aI4270
aI4274
aI4275
aI894
aI4188
aI4276
aI2
aI4277
aI4278
aI4279
aI51
aI4280
aI4281
aI4282
aI967
aI4283
aI4188
aI4282
aI4284
aI4249
aI4285
aI4286
aI4282
aI554
aI934
aI4287
aI4288
aI4282
aI673
aI51
aI4289
aI4290
aI4282
aI1802
aI4291
aI4292
aI4282
aI235
aI4293
aI4294
aI4295
aI4282
aI792
aI4296
aI4297
aI4298
aI4282
aI358
aI359
aI622
aI2231
aI4299
aI4282
aI4300
aI4301
aI4302
aI4303
aI4304
aI4282
aI944
aI934
aI4305
aI4306
aI4282
aI4307
aI4307
aI4308
aI4309
aI4282
aI3441
aI4310
aI4229
aI915
aI4311
aI4312
aI4313
aI4314
aI51
aI4315
aI4316
aI190
aI4317
aI934
aI4318
aI4319
aI190
aI4228
aI21
aI4320
aI4321
aI190
aI1869
aI4301
aI4322
aI4323
aI4324
aI51
aI4325
aI4326
aI4327
aI4328
aI4329
aI4330
aI4331
aI944
aI4332
aI4333
aI4334
aI64
aI4335
aI4336
aI4337
aI51
aI4338
aI4339
aI4340
aI64
aI4341
aI4342
aI1176
aI64
aI4343
aI4344
aI1176
aI64
aI4345
aI4346
aI4347
aI4348
aI4349
aI4350
aI4351
aI4352
aI4353
aI4354
aI4355
aI51
aI4356
aI4357
aI4358
aI4359
aI934
aI4360
aI4361
aI4362
aI51
aI4363
aI4364
aI4365
aI51
aI4366
aI4367
aI2379
aI2380
aI4368
aI4369
aI1766
aI1777
aI1676
aI4370
aI4371
aI4372
aI64
aI4373
aI4374
aI4375
aI486
aI936
aI4376
aI4377
aI4378
aI4379
aI4380
aI4381
aI4382
aI861
aI4383
aI4384
aI4385
aI64
aI4386
aI4387
aI4388
aI933
aI4389
aI4390
aI1476
aI1243
aI1352
aI4391
aI4392
aI1273
aI947
aI51
aI4393
aI4394
aI1239
aI4395
aI4396
aI4397
aI4398
aI1579
aI4399
aI64
aI4400
aI4401
aI1579
aI4402
aI4403
aI4404
aI919
aI920
aI4405
aI4406
aI4407
aI4408
aI4409
aI51
aI4410
aI4411
aI4412
aI64
aI4413
aI4414
aI4415
aI4416
aI152
aI4417
aI4418
aI4419
aI4415
aI1460
aI4420
aI4421
aI4422
aI3091
aI64
aI4423
aI4424
aI4425
aI51
aI4426
aI4427
aI4428
aI4429
aI51
aI4430
aI4431
aI4432
aI4396
aI4284
aI934
aI4433
aI4434
aI1418
aI4348
aI4435
aI4436
aI4437
aI25
aI51
aI4438
aI4439
aI4440
aI4441
aI4442
aI4443
aI4188
aI4444
aI64
aI4445
aI4446
aI1784
aI1417
aI51
aI4447
aI4448
aI1784
aI10
aI801
aI4449
aI4450
aI1784
aI10
aI217
aI4451
aI4452
aI1784
aI927
aI3433
aI4453
aI4454
aI4455
aI51
aI4456
aI4457
aI4458
aI1784
aI4442
aI915
aI4459
aI4460
aI4458
aI447
aI4442
aI1899
aI4461
aI4462
aI1784
aI64
aI4463
aI4464
aI1992
aI447
aI4442
aI4465
aI4466
aI324
aI4467
aI3847
aI4468
aI4469
aI4470
aI4471
aI64
aI4472
aI4473
aI4474
aI4228
aI4475
aI4476
aI4477
aI63
aI4474
aI2
aI4478
aI4479
aI279
aI4480
aI934
aI4481
aI4482
aI279
aI64
aI4483
aI4484
aI4485
aI447
aI4442
aI4486
aI4487
aI4488
aI3658
aI4489
aI4490
aI499
aI1579
aI51
aI4491
aI4492
aI4493
aI51
aI4494
aI4495
aI4496
aI934
aI64
aI4497
aI4498
aI4499
aI51
aI4500
aI4501
aI4502
aI21
aI4442
aI4503
aI4504
aI4505
aI4228
aI4506
aI4507
aI4508
aI2352
aI51
aI4509
aI4510
aI4511
aI1552
aI4512
aI4513
aI2080
aI2081
aI51
aI4514
aI4515
aI2159
aI4516
aI1718
aI4517
aI4518
aI2159
aI4271
aI4519
aI4520
aI4521
aI2159
aI2220
aI927
aI4522
aI4523
aI4524
aI2470
aI4525
aI4526
aI3563
aI3564
aI388
aI1352
aI4527
aI4528
aI1446
aI107
aI4529
aI4530
aI4531
aI4532
aI51
aI4533
aI4534
aI4535
aI4218
aI186
aI4536
aI4537
aI4535
aI64
aI4538
aI4539
aI4540
aI4541
aI4542
aI4543
aI4544
aI4545
aI4546
aI4547
aI1993
aI4548
aI4549
aI4550
aI1993
aI4551
aI4442
aI4552
aI4553
aI3861
aI64
aI4554
aI4555
aI4556
aI3627
aI4396
aI4557
aI4558
aI1935
aI4559
aI936
aI4560
aI4561
aI4562
aI51
aI4563
aI4564
aI4565
aI4566
aI64
aI4567
aI4568
aI4569
aI834
aI4570
aI4571
aI4572
aI1243
aI4293
aI4573
aI4574
aI4575
aI64
aI4576
aI4577
aI4578
aI51
aI4579
aI4580
aI4581
aI4582
aI64
aI4583
aI4584
aI4052
aI2831
aI4442
aI4585
aI4586
aI4587
aI114
aI4588
aI4589
aI4590
aI933
aI4396
aI4229
aI915
aI4591
aI4592
aI4593
aI3181
aI4594
aI4595
aI4596
aI3034
aI486
aI4597
aI4598
aI4599
aI64
aI4600
aI4601
aI4602
aI4603
aI934
aI4604
aI4605
aI425
aI485
aI4606
aI4607
aI425
aI712
aI934
aI4608
aI4609
aI4610
aI51
aI4611
aI4612
aI897
aI4249
aI183
aI4613
aI4614
aI2937
aI4615
aI4616
aI4617
aI4618
aI626
aI345
aI947
aI4619
aI4620
aI4621
aI4622
aI4623
aI3948
aI64
aI4624
aI4625
aI4626
aI51
aI4627
aI4628
aI4629
aI4630
aI51
aI4631
aI4632
aI929
aI930
aI4633
aI4634
aI4635
aI1784
aI4636
aI4188
aI3670
aI182
aI4637
aI4638
aI4639
aI4640
aI51
aI4641
aI4642
aI4643
aI3497
aI4644
aI4645
aI4188
aI4643
aI3497
aI4646
aI1558
aI4647
aI4648
aI4643
aI1505
aI51
aI4649
aI4650
aI4643
aI1505
aI4651
aI4652
aI4653
aI4654
aI4655
aI1784
aI4656
aI4657
aI4655
aI4658
aI4659
aI1546
aI4660
aI4661
aI4655
aI4658
aI4662
aI1546
aI4663
aI4664
aI4655
aI3441
aI4258
aI4665
aI4666
aI4667
aI51
aI4668
aI4669
aI4670
aI51
aI4671
aI4672
aI4673
aI1284
aI4674
aI4675
aI4676
aI4677
aI936
aI64
aI4678
aI4679
aI3566
aI51
aI4680
aI4681
aI1195
aI51
aI4682
aI4683
aI2105
aI1966
aI4684
aI4685
aI4686
aI51
aI4687
aI4688
aI4689
aI499
aI4690
aI4691
aI4692
aI4693
aI51
aI4694
aI4695
aI4696
aI4396
aI4284
aI934
aI4697
aI4698
aI4699
aI64
aI4700
aI934
aI4701
aI4702
aI4703
aI2354
aI51
aI4704
aI4705
aI2952
aI165
aI944
aI4706
aI4707
aI3367
aI3367
aI4708
aI4709
aI4710
aI1534
aI4711
aI4712
aI1534
aI4713
aI4714
aI166
aI4715
aI4716
aI1534
aI4659
aI3678
aI4714
aI4717
aI4718
aI165
aI802
aI51
aI4719
aI4720
aI4721
aI944
aI64
aI4722
aI4723
aI4724
aI525
aI64
aI4725
aI4726
aI4727
aI1628
aI4728
aI4188
aI4729
aI934
aI4730
aI4731
aI4732
aI21
aI64
aI4733
aI4734
aI4735
aI20
aI51
aI4736
aI4737
aI421
aI1869
aI4738
aI4739
aI4740
aI4741
aI4742
aI934
aI4743
aI4744
aI3582
aI2470
aI4745
aI4746
aI4747
aI4748
aI4749
aI4750
aI4751
aI4752
aI934
aI4753
aI4754
aI4755
aI303
aI2808
aI4756
aI4757
aI4755
aI4758
aI1788
aI4759
aI4188
aI4755
aI4760
aI4761
aI4762
aI4763
aI3897
aI4396
aI114
aI4764
aI4765
aI4766
aI64
aI4767
aI4768
aI4662
aI3450
aI4769
aI4770
aI4771
aI4228
aI4772
aI4773
aI4774
aI4399
aI4775
aI4776
aI229
aI4777
aI4778
aI4779
aI4780
aI4307
aI4781
aI4782
aI4188
aI4783
aI4784
aI1491
aI51
aI4785
aI4786
aI1491
aI4787
aI4228
aI4788
aI4789
aI1491
aI4790
aI4791
aI4792
aI4793
aI4794
aI4795
aI4796
aI4797
aI4798
aI64
aI4799
aI4800
aI4801
aI64
aI4802
aI4803
aI3263
aI4804
aI4805
aI4806
aI3263
aI4221
aI4807
aI4808
aI3263
aI4809
aI4396
aI4810
aI4811
aI3263
aI529
aI4812
aI4813
aI4814
aI4228
aI4815
aI4816
aI4817
aI1784
aI4818
aI4819
aI4820
aI4821
aI4822
aI51
aI4606
aI4823
aI997
aI1784
aI4824
aI4825
aI997
aI51
aI4826
aI4827
aI1484
aI920
aI51
aI4828
aI4829
aI4830
aI1491
aI51
aI4831
aI4832
aI1783
aI107
aI4833
aI4834
aI1783
aI936
aI64
aI4835
aI4836
aI1783
aI83
aI4837
aI4838
aI4839
aI1758
aI936
aI64
aI4840
aI4188
aI4841
aI64
aI4842
aI4843
aI4844
aI1320
aI4845
aI4846
aI4847
aI4228
aI64
aI4848
aI4849
aI4850
aI51
aI4851
aI4852
aI4853
aI934
aI4229
aI1546
aI1609
aI4188
aI4854
aI4855
aI506
aI4856
aI4857
aI4858
aI4859
aI4300
aI4860
aI915
aI4861
aI4862
aI4859
aI1869
aI4863
aI4864
aI4865
aI4866
aI4867
aI934
aI4868
aI4869
aI4870
aI64
aI4871
aI2231
aI2954
aI51
aI4872
aI4873
aI4874
aI1901
aI841
aI4875
aI4876
aI4874
aI4877
aI4878
aI4879
aI4880
aI4874
aI604
aI4249
aI4881
aI4882
aI4883
aI4228
aI64
aI4884
aI4885
aI4886
aI4804
aI934
aI4887
aI4888
aI4889
aI4890
aI4891
aI4892
aI4893
aI4894
aI934
aI4895
aI4896
aI4897
aI51
aI4898
aI4899
aI4900
aI51
aI4901
aI4902
aI4903
aI4904
aI4905
aI4906
aI4907
aI64
aI4908
aI4909
aI3869
aI3870
aI4197
aI4910
aI1199
aI4911
aI4912
aI934
aI4913
aI4914
aI4915
aI4916
aI51
aI4917
aI4918
aI4919
aI4249
aI4920
aI4921
aI4922
aI1298
aI493
aI819
aI64
aI4923
aI4924
aI4925
aI4804
aI934
aI4926
aI4927
aI4928
aI51
aI4929
aI4930
aI4931
aI64
aI4932
aI4933
aI4934
aI942
aI64
aI4935
aI4936
aI4937
aI4938
aI4939
aI4940
aI4941
aI64
aI4942
aI4943
aI1145
aI4662
aI4787
aI4944
aI4945
aI1145
aI1661
aI4946
aI4947
aI4948
aI4331
aI4229
aI915
aI4949
aI4950
aI4951
aI1869
aI1784
aI4952
aI4953
aI4954
aI1920
aI4955
aI4956
aI4957
aI64
aI4958
aI4959
aI4960
aI51
aI4961
aI4962
aI299
aI4655
aI934
aI4963
aI4964
aI299
aI300
aI934
aI64
aI4965
aI4966
aI4967
aI64
aI4968
aI4969
aI4970
aI4971
aI4972
aI4973
aI936
aI64
aI4974
aI4975
aI4976
aI51
aI4977
aI4978
aI4976
aI4795
aI4267
aI4979
aI4980
aI4654
aI4976
aI4795
aI4981
aI4982
aI4983
aI4984
aI4249
aI934
aI4985
aI4986
aI4987
aI4988
aI4989
aI4990
aI4991
aI4906
aI4992
aI4993
aI4994
aI4995
aI64
aI4996
aI4997
aI4998
aI936
aI4999
aI5000
aI1733
aI5001
aI5002
aI5003
aI2612
aI2613
aI934
aI5004
aI5005
aI5006
aI51
aI5007
aI5008
aI5009
aI64
aI5010
aI5011
aI5012
aI64
aI5013
aI5014
aI1557
aI915
aI1140
aI64
aI5015
aI5016
aI5017
aI64
aI5018
aI5019
aI5020
aI21
aI64
aI5021
aI2232
aI1095
aI5022
aI5023
aI5024
aI2238
aI5025
aI1483
aI934
aI5026
aI5027
aI5028
aI5029
aI1095
aI4442
aI5030
aI5031
aI5032
aI51
aI5033
aI5034
aI5035
aI5036
aI5037
aI5038
aI51
aI5039
aI5040
aI5041
aI51
aI5042
aI5043
aI5044
aI51
aI5045
aI5046
aI5047
aI114
aI5048
aI5049
aI1712
aI64
aI5050
aI5051
aI5052
aI1896
aI5053
aI4188
aI5054
aI51
aI5055
aI5056
aI5057
aI51
aI5058
aI5059
aI1556
aI841
aI20
aI5060
aI5061
aI5062
aI64
aI5063
aI5064
aI5065
aI554
aI51
aI5066
aI5067
aI5065
aI525
aI634
aI5068
aI5069
aI5070
aI5065
aI802
aI5068
aI5071
aI5072
aI5073
aI51
aI5074
aI5075
aI130
aI4809
aI5068
aI5076
aI5077
aI5078
aI130
aI1799
aI4760
aI5079
aI5080
aI5081
aI5082
aI5083
aI5084
aI51
aI5085
aI5086
aI5087
aI5088
aI5089
aI5090
aI479
aI1784
aI5091
aI64
aI5092
aI5093
aI479
aI967
aI51
aI5094
aI5095
aI479
aI2025
aI51
aI5096
aI5097
aI479
aI165
aI5098
aI5099
aI5100
aI5101
aI479
aI5102
aI4440
aI5103
aI5104
aI479
aI4738
aI39
aI5105
aI5106
aI479
aI5107
aI4659
aI5108
aI1546
aI5109
aI5110
aI479
aI5111
aI4348
aI5112
aI5113
aI479
aI900
aI5114
aI5115
aI479
aI5116
aI5117
aI5118
aI5119
aI479
aI3627
aI2401
aI4714
aI5120
aI5121
aI479
aI3627
aI51
aI5122
aI5123
aI479
aI13
aI1784
aI5124
aI5125
aI479
aI5126
aI51
aI5127
aI5128
aI5129
aI20
aI5130
aI4259
aI5131
aI4738
aI5132
aI5133
aI5134
aI2470
aI5135
aI5136
aI5137
aI107
aI5138
aI5139
aI5140
aI4228
aI5141
aI5142
aI905
aI5143
aI5144
aI5145
aI5146
aI936
aI64
aI5147
aI5148
aI5149
aI51
aI5150
aI5151
aI5152
aI51
aI5153
aI5154
aI5152
aI3847
aI107
aI5155
aI5156
aI5157
aI21
aI4229
aI915
aI5158
aI5159
aI1532
aI1533
aI934
aI5160
aI5161
aI5162
aI5163
aI5164
aI5165
aI5166
aI21
aI64
aI5167
aI5168
aI2023
aI2407
aI1352
aI5169
aI4188
aI5170
aI1920
aI5171
aI5172
aI5170
aI1389
aI5173
aI5174
aI5175
aI5176
aI3399
aI4188
aI5177
aI5178
aI64
aI5179
aI5180
aI5178
aI5181
aI5182
aI5183
aI1352
aI4282
aI4296
aI5184
aI5185
aI5186
aI887
aI675
aI5187
aI5188
aI1154
aI64
aI5189
aI4188
aI5190
aI64
aI5191
aI5192
aI5193
aI10
aI5194
aI5195
aI1802
aI5196
aI5197
aI5198
aI1802
aI3546
aI5199
aI5200
aI1802
aI1483
aI934
aI5201
aI5202
aI1802
aI2973
aI64
aI5203
aI5204
aI1802
aI1533
aI51
aI5205
aI5206
aI1802
aI5207
aI51
aI5208
aI5209
aI5210
aI2352
aI4229
aI915
aI5211
aI5212
aI5213
aI19
aI934
aI5214
aI5215
aI902
aI939
aI5216
aI5217
aI5218
aI5219
aI5220
aI5221
aI1460
aI934
aI5222
aI5223
aI5221
aI5224
aI5225
aI5226
aI2924
aI1352
aI64
aI5227
aI5228
aI5229
aI934
aI5230
aI5231
aI5232
aI712
aI4442
aI5233
aI5234
aI5235
aI5236
aI5237
aI1628
aI3669
aI5238
aI5239
aI1628
aI3669
aI5076
aI5240
aI5241
aI1628
aI5001
aI1352
aI1218
aI5242
aI3092
aI1377
aI5243
aI4662
aI5244
aI5245
aI3092
aI1377
aI1558
aI4662
aI5246
aI5247
aI1970
aI5248
aI64
aI5249
aI5250
aI1970
aI1909
aI3345
aI5251
aI5252
aI1970
aI841
aI5253
aI5254
aI5255
aI5256
aI5257
aI5258
aI3749
aI5259
aI934
aI5260
aI5261
aI5262
aI83
aI4837
aI5263
aI5264
aI3361
aI5265
aI934
aI5266
aI5267
aI5268
aI5269
aI64
aI5270
aI5271
aI940
aI4282
aI1784
aI5272
aI5273
aI5274
aI940
aI5275
aI1243
aI5276
aI5277
aI940
aI941
aI4655
aI5278
aI5279
aI940
aI5280
aI4738
aI5281
aI5282
aI1955
aI5283
aI751
aI5284
aI5285
aI5286
aI5287
aI5288
aI5289
aI5290
aI4934
aI51
aI5291
aI5292
aI3512
aI51
aI5293
aI5294
aI3877
aI51
aI5295
aI5296
aI5297
aI1460
aI5298
aI2292
aI5299
aI2973
aI64
aI5300
aI5301
aI939
aI5302
aI4218
aI51
aI5303
aI5304
aI939
aI5305
aI5001
aI5306
aI5307
aI5308
aI1571
aI64
aI5309
aI5310
aI5311
aI51
aI5312
aI5313
aI1893
aI5314
aI1546
aI934
aI5315
aI5316
aI5317
aI934
aI5318
aI5319
aI5320
aI21
aI1242
aI5321
aI5322
aI934
aI5323
aI5324
aI5325
aI5326
aI934
aI5327
aI5328
aI2586
aI447
aI4442
aI5329
aI5330
aI2586
aI447
aI5076
aI5331
aI305
aI5332
aI5333
aI5334
aI5335
aI5336
aI64
aI5337
aI5338
aI5339
aI5340
aI5341
aI5342
aI203
aI51
aI5343
aI5344
aI5345
aI5346
aI5347
aI5348
aI5349
aI51
aI5350
aI5351
aI5352
aI5287
aI5353
aI5354
aI5355
aI4749
aI934
aI5356
aI5357
aI5358
aI1558
aI679
aI934
aI5359
aI5360
aI5361
aI64
aI5362
aI5363
aI5364
aI934
aI5365
aI5366
aI5367
aI51
aI5368
aI5369
aI5370
aI51
aI4229
aI915
aI5371
aI5372
aI303
aI2808
aI4516
aI621
aI5373
aI5374
aI303
aI2808
aI4516
aI2988
aI5375
aI2953
aI303
aI1669
aI2808
aI5376
aI5377
aI5378
aI303
aI1669
aI4063
aI1352
aI5379
aI5380
aI5381
aI936
aI64
aI5382
aI5383
aI3297
aI652
aI5384
aI5385
aI5386
aI537
aI8
aI51
aI5387
aI5388
aI5389
aI2817
aI4442
aI5390
aI5391
aI525
aI5392
aI64
aI5393
aI5394
aI525
aI748
aI3504
aI5395
aI5396
aI5397
aI51
aI4700
aI5398
aI5399
aI5400
aI64
aI5401
aI5402
aI5403
aI18
aI5404
aI5405
aI5406
aI5407
aI934
aI5408
aI2231
aI2078
aI4228
aI5409
aI5410
aI879
aI936
aI64
aI5411
aI5412
aI4877
aI1041
aI4229
aI915
aI5413
aI5414
aI3091
aI2645
aI64
aI5415
aI5416
aI5417
aI64
aI5418
aI5419
aI5420
aI5421
aI5422
aI5423
aI5424
aI4249
aI934
aI5425
aI5426
aI3438
aI4249
aI934
aI5427
aI5428
aI3438
aI5429
aI1055
aI64
aI5430
aI5431
aI5432
aI5433
aI21
aI5434
aI5435
aI5436
aI21
aI64
aI5437
aI5438
aI5439
aI102
aI64
aI5440
aI5441
aI2142
aI4218
aI4442
aI5442
aI5443
aI5444
aI5445
aI934
aI5446
aI5447
aI5448
aI2352
aI936
aI5449
aI5450
aI5451
aI5452
aI5453
aI5454
aI4640
aI3387
aI5455
aI5456
aI5457
aI5458
aI64
aI5459
aI5460
aI5461
aI2808
aI5462
aI5463
aI5464
aI51
aI5465
aI5466
aI218
aI21
aI5467
aI5468
aI4228
aI375
aI5469
aI5470
aI5471
aI4228
aI5472
aI934
aI5473
aI5474
aI4228
aI5475
aI51
aI5476
aI5477
aI5478
aI1920
aI64
aI1609
aI4188
aI5479
aI5480
aI1552
aI5481
aI5482
aI5483
aI51
aI5484
aI5485
aI2507
aI3612
aI51
aI5486
aI5487
aI5488
aI51
aI5489
aI5490
aI685
aI1558
aI5491
aI934
aI5492
aI5493
aI2692
aI2692
aI5494
aI5495
aI2692
aI1484
aI64
aI5496
aI5497
aI5498
aI64
aI5499
aI5500
aI5501
aI64
aI5502
aI5503
aI2354
aI5504
aI51
aI5505
aI5506
aI903
aI165
aI4249
aI4920
aI5507
aI5508
aI903
aI4396
aI4284
aI5509
aI5510
aI5511
aI936
aI64
aI5512
aI5513
aI5514
aI3861
aI525
aI5515
aI5516
aI5517
aI934
aI5518
aI5519
aI5520
aI934
aI5521
aI5522
aI5523
aI51
aI5524
aI5525
aI5523
aI303
aI2808
aI5526
aI5527
aI5523
aI5528
aI5529
aI5530
aI5523
aI4267
aI4271
aI927
aI4645
aI2238
aI5531
aI5001
aI934
aI5532
aI5533
aI5534
aI5176
aI5535
aI51
aI5536
aI5537
aI5538
aI4228
aI64
aI5539
aI5540
aI5541
aI5542
aI51
aI5543
aI5544
aI5545
aI2578
aI5546
aI5547
aI5548
aI3408
aI493
aI5549
aI5550
aI5551
aI585
aI5552
aI5553
aI5554
aI107
aI5555
aI5556
aI5557
aI1456
aI64
aI5558
aI5559
aI1581
aI2912
aI1533
aI27
aI5560
aI5561
aI5562
aI4894
aI2817
aI5563
aI5564
aI5565
aI18
aI5566
aI5567
aI2501
aI340
aI64
aI5568
aI5569
aI5570
aI4228
aI64
aI5571
aI5572
aI5573
aI506
aI5574
aI5575
aI5576
aI2384
aI91
aI5577
aI5578
aI5579
aI5580
aI4296
aI5581
aI2663
aI5582
aI5583
aI5584
aI5585
aI5586
aI5587
aI4399
aI51
aI5588
aI5589
aI5590
aI5591
aI5592
aI5593
aI4115
aI4114
aI5076
aI5594
aI5595
aI4115
aI4114
aI934
aI5596
aI5597
aI861
aI64
aI22
aI5598
aI5599
aI824
aI802
aI5600
aI5601
aI5602
aI5603
aI936
aI64
aI5604
aI5605
aI3510
aI51
aI5606
aI5607
aI2754
aI51
aI5608
aI5609
aI5610
aI5611
aI5612
aI5613
aI5614
aI444
aI2317
aI936
aI64
aI5615
aI5616
aI103
aI943
aI944
aI5617
aI5618
aI5619
aI5620
aI934
aI5621
aI5622
aI3992
aI51
aI5623
aI5624
aI5625
aI5626
aI5627
aI1731
aI107
aI5628
aI5629
aI5630
aI51
aI5631
aI5632
aI5633
aI51
aI22
aI5634
aI5635
aI5636
aI2646
aI5637
aI5638
aI5639
aI21
aI5640
aI5641
aI5642
aI5643
aI5644
aI5645
aI5646
aI64
aI5647
aI5648
aI2415
aI256
aI64
aI5649
aI5650
aI5651
aI447
aI4442
aI5652
aI5653
aI5654
aI5655
aI5656
aI5657
aI5654
aI5655
aI4860
aI1546
aI5658
aI5659
aI5654
aI5655
aI5660
aI5661
aI2231
aI5662
aI51
aI5663
aI5664
aI5665
aI64
aI5666
aI5667
aI5668
aI5669
aI4301
aI4714
aI915
aI5670
aI5671
aI5672
aI5673
aI299
aI5674
aI5675
aI306
aI5676
aI5340
aI5677
aI5678
aI1
aI51
aI5679
aI5680
aI4041
aI506
aI4042
aI5681
aI5682
aI1610
aI3677
aI51
aI5683
aI5684
aI5685
aI51
aI5686
aI5687
aI5688
aI5689
aI4442
aI5690
aI5691
aI5692
aI64
aI5693
aI5694
aI76
aI652
aI944
aI5695
aI5696
aI5697
aI51
aI5698
aI5699
aI5700
aI64
aI5701
aI5702
aI3595
aI64
aI5703
aI5704
aI5705
aI930
aI2231
aI5706
aI5707
aI5708
aI5709
aI5710
aI1975
aI51
aI5711
aI5712
aI3547
aI3548
aI5713
aI5714
aI5715
aI64
aI5716
aI5717
aI5718
aI51
aI5719
aI5720
aI5721
aI64
aI5722
aI5723
aI5724
aI18
aI5725
aI5726
aI5727
aI5728
aI5729
aI5730
aI5731
aI1784
aI51
aI5732
aI5733
aI5734
aI944
aI934
aI5735
aI5736
aI5737
aI107
aI5738
aI5739
aI2985
aI1058
aI934
aI5740
aI4188
aI5741
aI5742
aI934
aI5743
aI5744
aI5745
aI5746
aI5747
aI5748
aI622
aI4818
aI5749
aI5750
aI5751
aI5748
aI622
aI5752
aI915
aI1312
aI5753
aI5754
aI5748
aI3709
aI675
aI5755
aI5756
aI208
aI1352
aI64
aI5757
aI5758
aI5759
aI738
aI2808
aI5760
aI2592
aI5759
aI4197
aI5761
aI5762
aI5763
aI5759
aI5764
aI675
aI5765
aI3634
aI5759
aI5107
aI64
aI927
aI5766
aI5767
aI5759
aI5768
aI4271
aI927
aI5769
aI5770
aI5771
aI585
aI5772
aI5773
aI5774
aI998
aI64
aI5775
aI5776
aI5777
aI4399
aI934
aI5778
aI5779
aI5780
aI51
aI5781
aI5782
aI5783
aI5784
aI4429
aI5785
aI5786
aI5787
aI5788
aI5789
aI5790
aI5791
aI5792
aI20
aI64
aI5793
aI5794
aI5795
aI51
aI5796
aI5797
aI5798
aI425
aI51
aI5799
aI5800
aI5801
aI934
aI5802
aI5803
aI5804
aI4249
aI934
aI5805
aI5806
aI2671
aI51
aI2817
aI5807
aI5808
aI3872
aI5809
aI934
aI5810
aI5811
aI3872
aI3873
aI21
aI5812
aI5813
aI5814
aI5815
aI5600
aI5816
aI5817
aI3697
aI1799
aI5818
aI5819
aI5820
aI4228
aI64
aI5821
aI5822
aI1102
aI64
aI5823
aI5824
aI5825
aI4193
aI64
aI5826
aI5827
aI5828
aI51
aI5829
aI5800
aI802
aI165
aI51
aI5830
aI5831
aI802
aI5832
aI5833
aI5834
aI802
aI5835
aI5836
aI5837
aI802
aI80
aI5838
aI5839
aI4395
aI5840
aI64
aI5841
aI233
aI4395
aI5842
aI64
aI5843
aI5844
aI4395
aI1204
aI2470
aI5845
aI5846
aI4395
aI5847
aI4442
aI5848
aI5849
aI5850
aI5851
aI5852
aI5853
aI5854
aI4348
aI5855
aI934
aI5856
aI5857
aI5858
aI4348
aI64
aI5859
aI5860
aI5861
aI51
aI5862
aI5863
aI3744
aI51
aI5864
aI5865
aI5866
aI21
aI5867
aI5868
aI3281
aI1661
aI5869
aI5870
aI5871
aI10
aI4282
aI5872
aI64
aI1352
aI5873
aI5874
aI10
aI5875
aI1095
aI114
aI5876
aI5877
aI10
aI217
aI175
aI5878
aI5879
aI5880
aI5881
aI3847
aI934
aI5882
aI5883
aI5881
aI4749
aI51
aI5884
aI5885
aI10
aI51
aI2817
aI4442
aI5886
aI5887
aI5888
aI5889
aI4860
aI5890
aI4188
aI5891
aI5892
aI4249
aI5893
aI5894
aI5891
aI75
aI51
aI5895
aI5896
aI5897
aI64
aI5898
aI5899
aI5900
aI64
aI1377
aI1546
aI5901
aI4188
aI5902
aI102
aI5903
aI5904
aI5905
aI102
aI5906
aI5907
aI2042
aI41
aI64
aI5908
aI5909
aI5910
aI1920
aI51
aI5911
aI5912
aI5913
aI5914
aI2987
aI4442
aI5915
aI5916
aI5917
aI64
aI5918
aI5919
aI228
aI5920
aI4348
aI5921
aI5922
aI3478
aI5065
aI51
aI5923
aI5924
aI3478
aI5001
aI5925
aI5926
aI3511
aI51
aI5927
aI5928
aI5929
aI51
aI5930
aI5931
aI5932
aI51
aI5933
aI5934
aI5935
aI5936
aI4442
aI5937
aI5938
aI5939
aI5305
aI4249
aI5940
aI5941
aI5939
aI5942
aI2817
aI5943
aI5944
aI5945
aI51
aI5946
aI5947
aI5948
aI5949
aI4267
aI5761
aI5950
aI5951
aI5952
aI5948
aI4760
aI5953
aI5954
aI4188
aI5948
aI4267
aI2808
aI5376
aI5955
aI1308
aI5948
aI5956
aI5957
aI5958
aI5959
aI5948
aI3433
aI4267
aI5957
aI1038
aI5960
aI5948
aI5961
aI1671
aI4267
aI5856
aI5962
aI5948
aI5963
aI4063
aI5964
aI5965
aI5948
aI1150
aI5966
aI5967
aI5968
aI525
aI51
aI5969
aI5970
aI5971
aI5972
aI5973
aI5974
aI5975
aI3710
aI5976
aI5977
aI5978
aI3514
aI51
aI5979
aI5980
aI3514
aI1135
aI64
aI5981
aI5982
aI901
aI4804
aI934
aI5983
aI5984
aI5985
aI51
aI5986
aI5987
aI5988
aI4396
aI1095
aI5989
aI5990
aI1482
aI5991
aI4228
aI5992
aI5993
aI5994
aI18
aI5995
aI5996
aI3455
aI21
aI64
aI5997
aI5998
aI5999
aI2817
aI6000
aI6001
aI6002
aI64
aI6003
aI6004
aI6005
aI2352
aI2973
aI6006
aI4188
aI6007
aI4399
aI107
aI6008
aI6009
aI6010
aI3669
aI51
aI6011
aI6012
aI2166
aI6013
aI6014
aI6015
aI6016
aI6017
aI6018
aI6019
aI1243
aI1552
aI6020
aI6021
aI1243
aI4396
aI4284
aI6022
aI6023
aI1243
aI6024
aI6025
aI6026
aI6027
aI6028
aI6029
aI6030
aI3703
aI6031
aI64
aI6032
aI6033
aI1740
aI6034
aI51
aI6035
aI6036
aI6037
aI1733
aI934
aI6038
aI6039
aI6040
aI114
aI6041
aI6042
aI6043
aI5421
aI6044
aI6045
aI6046
aI4662
aI6047
aI6048
aI6049
aI3710
aI934
aI6050
aI6051
aI6052
aI51
aI6053
aI6054
aI6055
aI229
aI6056
aI6057
aI2000
aI4275
aI6058
aI1788
aI6059
aI6060
aI6061
aI929
aI51
aI6062
aI6063
aI6061
aI4249
aI4920
aI934
aI6064
aI6065
aI6066
aI6067
aI934
aI6068
aI6069
aI892
aI4399
aI51
aI6070
aI6071
aI6072
aI6073
aI3247
aI3247
aI2242
aI6074
aI6075
aI6076
aI64
aI6077
aI6078
aI6079
aI51
aI6080
aI6081
aI3940
aI943
aI944
aI6082
aI6083
aI6084
aI944
aI51
aI6085
aI6086
aI816
aI64
aI6087
aI6088
aI6089
aI6090
aI51
aI6091
aI6092
aI6093
aI1483
aI934
aI6094
aI6095
aI1158
aI1159
aI4296
aI6096
aI6097
aI1158
aI6098
aI6099
aI6100
aI1526
aI4352
aI6101
aI6102
aI6103
aI51
aI712
aI6104
aI6105
aI6106
aI262
aI2943
aI6107
aI6108
aI6109
aI841
aI4083
aI6110
aI6111
aI6112
aI4738
aI4310
aI6113
aI6114
aI6115
aI2931
aI6116
aI6117
aI6118
aI107
aI6119
aI6120
aI6121
aI6122
aI64
aI6123
aI6124
aI3174
aI4352
aI934
aI6125
aI6126
aI2779
aI20
aI51
aI6127
aI6128
aI6129
aI51
aI6130
aI6131
aI1626
aI39
aI6132
aI6133
aI3598
aI6098
aI6134
aI6135
aI6136
aI506
aI6137
aI64
aI6138
aI6139
aI1792
aI6140
aI51
aI6141
aI6142
aI6143
aI51
aI6144
aI6145
aI6146
aI1095
aI4249
aI934
aI6147
aI6148
aI6149
aI936
aI64
aI6150
aI6151
aI3657
aI6152
aI6153
aI6154
aI6155
aI936
aI51
aI6156
aI6157
aI2639
aI1533
aI27
aI6158
aI6159
aI6160
aI51
aI6161
aI6162
aI6163
aI1125
aI6164
aI6165
aI5143
aI51
aI6166
aI6167
aI370
aI4296
aI64
aI6168
aI6169
aI6170
aI1920
aI64
aI6171
aI6172
aI6173
aI4310
aI934
aI1902
aI6174
aI6175
aI6173
aI4310
aI10
aI6176
aI6177
aI6178
aI1496
aI4714
aI2470
aI6179
aI6180
aI6181
aI1822
aI4249
aI4920
aI6182
aI6183
aI4043
aI6058
aI4275
aI64
aI6184
aI4188
aI4043
aI6185
aI4197
aI6186
aI6187
aI4043
aI6188
aI2808
aI6189
aI6190
aI4043
aI6188
aI6185
aI6191
aI4188
aI4043
aI6155
aI64
aI3745
aI6192
aI6193
aI6194
aI18
aI6195
aI849
aI6196
aI64
aI6197
aI6198
aI6199
aI6200
aI934
aI6201
aI6202
aI6203
aI51
aI6204
aI6205
aI6206
aI5942
aI4442
aI6207
aI6208
aI6209
aI6210
aI934
aI6211
aI6212
aI500
aI933
aI2817
aI6213
aI6214
aI3862
aI934
aI6215
aI6216
aI1590
aI1591
aI6217
aI6218
aI6219
aI800
aI6220
aI51
aI6221
aI6222
aI6223
aI4228
aI2817
aI6224
aI6225
aI6226
aI21
aI5855
aI6227
aI6228
aI6229
aI2643
aI4442
aI6230
aI6231
aI5991
aI3433
aI6232
aI6233
aI168
aI4188
aI6234
aI51
aI6235
aI6236
aI6237
aI3160
aI934
aI6238
aI6239
aI6240
aI6241
aI6242
aI6243
aI6244
aI4700
aI5076
aI6245
aI6246
aI6247
aI4396
aI1095
aI6248
aI6249
aI6250
aI188
aI6251
aI6252
aI6253
aI4228
aI51
aI6254
aI6255
aI6256
aI6257
aI934
aI6258
aI6259
aI6260
aI936
aI64
aI6261
aI6262
aI6263
aI4296
aI64
aI6264
aI6265
aI3408
aI6266
aI6267
aI290
aI6268
aI6269
aI6270
aI6271
aI64
aI6272
aI6273
aI6274
aI51
aI6275
aI6276
aI6277
aI21
aI64
aI6278
aI6279
aI6280
aI6281
aI6282
aI1829
aI6283
aI51
aI6284
aI6285
aI6286
aI64
aI6287
aI6288
aI6286
aI64
aI5076
aI6289
aI6290
aI6291
aI51
aI6292
aI6293
aI2853
aI64
aI6294
aI6295
aI6296
aI64
aI6297
aI6298
aI2115
aI6299
aI1243
aI51
aI6300
aI6301
aI6302
aI6303
aI51
aI6304
aI6305
aI6306
aI51
aI6307
aI6308
aI6309
aI51
aI6310
aI6311
aI6312
aI4700
aI934
aI6313
aI6314
aI6315
aI51
aI6316
aI6317
aI6318
aI2817
aI6319
aI6320
aI1776
aI955
aI2817
aI6321
aI6322
aI3594
aI934
aI2817
aI6323
aI6324
aI4867
aI493
aI51
aI6325
aI6326
aI2986
aI6327
aI934
aI6328
aI6329
aI348
aI1243
aI6330
aI6331
aI6332
aI215
aI4274
aI6333
aI6334
aI80
aI51
aI4228
aI6335
aI6336
aI6337
aI802
aI6338
aI6339
aI6340
aI6341
aI10
aI4442
aI6342
aI6343
aI6344
aI934
aI6345
aI6346
aI6347
aI64
aI6348
aI6349
aI6350
aI64
aI6351
aI6352
aI3293
aI6353
aI4229
aI915
aI6354
aI6355
aI6356
aI1784
aI51
aI6357
aI6358
aI1908
aI6359
aI6360
aI6361
aI2624
aI4228
aI64
aI6362
aI6363
aI2624
aI6364
aI4229
aI1546
aI6365
aI6366
aI6367
aI6368
aI4442
aI6369
aI6370
aI6371
aI6367
aI6368
aI4442
aI6372
aI6373
aI6374
aI6375
aI64
aI6376
aI6377
aI6378
aI51
aI4442
aI6379
aI6380
aI6381
aI4700
aI4229
aI915
aI6382
aI6383
aI6384
aI64
aI6385
aI6386
aI2285
aI1784
aI934
aI6387
aI6388
aI420
aI934
aI6389
aI6390
aI420
aI6391
aI4878
aI6392
aI6393
aI1315
aI998
aI6394
aI6395
aI1315
aI4396
aI51
aI6396
aI6397
aI6398
aI499
aI6399
aI6400
aI6398
aI4399
aI6401
aI6402
aI6398
aI6173
aI4310
aI6403
aI6404
aI3077
aI1352
aI64
aI6405
aI6406
aI319
aI936
aI4229
aI915
aI6407
aI6408
aI6409
aI18
aI6410
aI6411
aI2205
aI379
aI934
aI6412
aI6413
aI242
aI1243
aI6414
aI6415
aI242
aI1460
aI934
aI6416
aI6417
aI3873
aI1055
aI6418
aI6419
aI6420
aI1093
aI6421
aI6422
aI6423
aI10
aI5875
aI6424
aI6425
aI6426
aI6427
aI955
aI51
aI6428
aI6429
aI6430
aI5869
aI6431
aI6432
aI6433
aI1491
aI64
aI6434
aI6435
aI497
aI6436
aI51
aI6437
aI6438
aI6439
aI634
aI6440
aI6441
aI6442
aI6443
aI1784
aI64
aI6444
aI6445
aI2689
aI388
aI944
aI6446
aI6447
aI3700
aI91
aI6448
aI6449
aI922
aI20
aI6450
aI6451
aI6452
aI51
aI6453
aI6454
aI6455
aI51
aI6456
aI6457
aI6458
aI936
aI64
aI6459
aI6460
aI6461
aI1491
aI6462
aI6463
aI6464
aI51
aI6465
aI6466
aI6467
aI1552
aI6468
aI6469
aI6470
aI20
aI51
aI6471
aI6472
aI6473
aI2158
aI3678
aI6474
aI6475
aI6476
aI4399
aI6477
aI6478
aI6479
aI64
aI6480
aI6481
aI6482
aI4906
aI6483
aI4442
aI6484
aI6485
aI6486
aI5448
aI64
aI6487
aI6488
aI6489
aI1205
aI6490
aI6491
aI6489
aI1628
aI64
aI6492
aI6493
aI6494
aI64
aI5855
aI934
aI6495
aI6496
aI6497
aI64
aI6498
aI6499
aI6500
aI64
aI6501
aI6502
aI866
aI936
aI64
aI6503
aI6504
aI866
aI3658
aI6505
aI6506
aI866
aI5001
aI934
aI6507
aI6508
aI6509
aI64
aI6510
aI6511
aI22
aI6512
aI4296
aI64
aI6513
aI6514
aI6515
aI1896
aI51
aI6516
aI6517
aI3513
aI51
aI6518
aI6519
aI6520
aI64
aI6521
aI6522
aI1551
aI934
aI6523
aI6524
aI391
aI3090
aI64
aI6525
aI6526
aI391
aI3090
aI4714
aI379
aI6527
aI6528
aI391
aI62
aI934
aI22
aI6529
aI6530
aI6531
aI6532
aI51
aI6533
aI6534
aI6535
aI2854
aI1609
aI4188
aI6536
aI6537
aI51
aI6538
aI6539
aI6540
aI51
aI6541
aI6542
aI6543
aI934
aI6544
aI6545
aI6546
aI51
aI6547
aI6548
aI5584
aI201
aI6549
aI64
aI6550
aI6551
aI2107
aI2108
aI6552
aI6553
aI6554
aI3292
aI486
aI493
aI1251
aI6555
aI6556
aI6557
aI51
aI6558
aI6559
aI6560
aI3272
aI6561
aI6562
aI6563
aI4399
aI934
aI6564
aI6565
aI6566
aI6567
aI1609
aI4188
aI6568
aI6569
aI51
aI4661
aI6570
aI84
aI51
aI6571
aI6572
aI6573
aI5340
aI64
aI6574
aI6575
aI6576
aI934
aI6577
aI6578
aI6579
aI51
aI6580
aI6581
aI3753
aI64
aI6582
aI6583
aI6584
aI1095
aI4249
aI934
aI6585
aI6586
aI6587
aI51
aI6588
aI6589
aI6590
aI4193
aI64
aI6591
aI6592
aI6593
aI51
aI1609
aI4188
aI168
aI6594
aI3932
aI3435
aI51
aI6595
aI6596
aI6594
aI3932
aI841
aI64
aI6597
aI6598
aI1304
aI18
aI6599
aI6600
aI6601
aI20
aI6602
aI6603
aI6604
aI64
aI6605
aI6606
aI2826
aI6607
aI6372
aI6608
aI6609
aI2826
aI447
aI4442
aI6610
aI6611
aI3627
aI3957
aI51
aI6612
aI6613
aI3627
aI6614
aI51
aI6615
aI6616
aI3627
aI4284
aI934
aI6617
aI6618
aI3627
aI1243
aI51
aI6619
aI6620
aI6621
aI20
aI6622
aI6623
aI2149
aI51
aI6624
aI6625
aI2149
aI4714
aI915
aI4860
aI6626
aI6627
aI186
aI51
aI6628
aI6629
aI6630
aI1273
aI39
aI6631
aI6632
aI186
aI6633
aI6634
aI6635
aI186
aI6636
aI4429
aI6637
aI6638
aI186
aI5869
aI51
aI6639
aI6640
aI186
aI2759
aI6641
aI6642
aI1389
aI51
aI4700
aI6643
aI6644
aI1389
aI1041
aI51
aI5762
aI6645
aI6646
aI51
aI6647
aI6648
aI6646
aI6649
aI51
aI6650
aI6651
aI6652
aI51
aI6653
aI6654
aI6655
aI107
aI6656
aI6657
aI1312
aI6658
aI51
aI6659
aI6660
aI6661
aI21
aI64
aI6662
aI6663
aI6664
aI51
aI6665
aI6666
aI6667
aI51
aI6668
aI6669
aI6670
aI64
aI6671
aI6672
aI6673
aI51
aI6674
aI6675
aI6676
aI186
aI64
aI6677
aI6678
aI1341
aI4652
aI51
aI6679
aI6680
aI2626
aI6681
aI934
aI6682
aI6683
aI2626
aI6684
aI6685
aI6686
aI6687
aI6688
aI2626
aI6684
aI6685
aI2817
aI6689
aI6690
aI6691
aI4228
aI64
aI6692
aI6693
aI6694
aI4787
aI64
aI6695
aI6696
aI6697
aI51
aI6698
aI6699
aI617
aI944
aI6700
aI4188
aI6701
aI4655
aI934
aI6702
aI6703
aI6704
aI107
aI64
aI6705
aI6706
aI6707
aI64
aI6708
aI6709
aI6710
aI5047
aI6711
aI6712
aI6713
aI933
aI51
aI6714
aI6715
aI4060
aI944
aI64
aI6716
aI6717
aI6718
aI934
aI6719
aI6720
aI483
aI484
aI934
aI6721
aI6722
aI3090
aI3499
aI934
aI6723
aI6724
aI907
aI3601
aI4249
aI6725
aI6726
aI3441
aI39
aI6727
aI6728
aI6729
aI926
aI4760
aI6730
aI6731
aI4566
aI64
aI6732
aI6733
aI100
aI6734
aI934
aI6735
aI6736
aI100
aI6734
aI4714
aI915
aI6737
aI6738
aI6739
aI5107
aI6740
aI6741
aI5280
aI4396
aI5302
aI6742
aI3059
aI5280
aI3627
aI51
aI6743
aI6744
aI3944
aI6745
aI6746
aI6747
aI6748
aI6749
aI4442
aI6750
aI1199
aI6751
aI51
aI6752
aI6753
aI6754
aI934
aI6755
aI6756
aI6757
aI6758
aI6759
aI6760
aI51
aI6761
aI6762
aI6763
aI51
aI6764
aI6765
aI6766
aI6767
aI64
aI6768
aI6769
aI2177
aI4296
aI64
aI6770
aI6771
aI6772
aI6773
aI4442
aI6774
aI4188
aI6775
aI51
aI6776
aI6777
aI6778
aI944
aI6779
aI6780
aI6781
aI936
aI6782
aI6783
aI6784
aI4399
aI6785
aI6786
aI6787
aI18
aI6788
aI6789
aI6790
aI51
aI4700
aI6791
aI6792
aI6793
aI6794
aI496
aI6795
aI6796
aI6797
aI934
aI1609
aI4282
aI6798
aI6799
aI6800
aI4193
aI6801
aI6802
aI3442
aI51
aI6803
aI6804
aI6805
aI51
aI6806
aI6807
aI6808
aI51
aI6809
aI6810
aI6811
aI1896
aI6812
aI6813
aI6811
aI4395
aI384
aI6814
aI6815
aI6816
aI936
aI64
aI6817
aI6818
aI6819
aI6820
aI6821
aI6822
aI76
aI6823
aI3746
aI412
aa(lp81
I22
aI10
aI217
aI68
aI291
aI566
aI4
aI273
aI75
aI48
aI285
aI191
aI1362
aI408
aI289
aI146
aI15
aI75
aI295
aI1741
aI6824
aI262
aI147
aI199
aI340
aI1569
aI885
aI22
aI10
aI293
aI292
aI289
aI1556
aI3061
aI1306
aI4157
aI15
aI75
aI2717
aI147
aI199
aI340
aI1365
aI232
aI22
aI96
aI400
aI3
aI2584
aI579
aI3317
aI3748
aI15
aI75
aI1464
aI285
aI399
aI1289
aI1486
aI167
aI4158
aI15
aI75
aI296
aI292
aI293
aI1365
aI232
aI22
aI248
aI1366
aI4155
aI4156
aI262
aI147
aI167
aI75
aI917
aI96
aI400
aI2569
aI285
aI23
aI294
aI315
aI297
aI340
aI1569
aI885
aI190
aI68
aI291
aI3
aI273
aI75
aI48
aI285
aI294
aI6825
aI6826
aI15
aI75
aI1350
aI1366
aI859
aI294
aI1741
aI6827
aI262
aI147
aI292
aI293
aI1365
aI232
aI566
aI297
aI22
aI1365
aI232
aI167
aI1486
aI2160
aI15
aI75
aI915
aI285
aI23
aI23
aI2565
aI68
aI4162
aI859
aI3107
aI253
aI68
aI288
aI1042
aI6828
aI625
aI587
aI68
aI853
aI212
aI252
aI253
aI22
aI273
aI75
aI285
aI399
aI1464
aI191
aI167
aI2485
aI291
aI802
aI1239
aI348
aI4180
aI859
aI285
aI389
aI297
aI607
aI695
aI3469
aI96
aI207
aI285
aI389
aI4163
aI4164
aI1018
aI1354
aI191
aI3190
aI68
aI266
aI1306
aI3187
aI1217
aI845
aI1306
aI285
aI389
aI287
aI4165
aI0
aI695
aI1021
aI3469
aI845
aI4166
aI75
aI48
aI285
aI3189
aI4163
aI458
aI75
aI3822
aI2458
aI853
aI212
aI128
aI1306
aI266
aI394
aI3863
aI408
aI399
aI320
aI4167
aI4168
aI4169
aI1237
aI253
aI259
aI1613
aI401
aI285
aI389
aI4165
aI388
aI1366
aI480
aI6829
aI609
aI22
aI3143
aI2277
aI10
aI4170
aI284
aI163
aI609
aI4171
aI388
aI285
aI389
aI480
aI1350
aI1214
aI2090
aI664
aI394
aI3746
aI976
aI2714
aI4172
aI24
aI314
aI2686
aI2093
aI2158
aI348
aI158
aI241
aI68
aI352
aI3406
aI3088
aI4177
aI1366
aI76
aI431
aI1741
aI4173
aI2867
aI1217
aI845
aI1383
aI191
aI586
aI394
aI4174
aI884
aI309
aI1128
aI4175
aI76
aI315
aI4176
aI1366
aI222
aI4178
aI695
aI1627
aI121
aI631
aI394
aI2584
aI856
aI6830
aI657
aI1274
aI22
aI1206
aI96
aI400
aI68
aI2574
aI1214
aI977
aI285
aI399
aI168
aI75
aI284
aI297
aI4181
aI389
aI348
aI550
aI6831
aI4182
aI6832
aI4193
aI1377
aI915
aI6833
aI6834
aI4189
aI51
aI6835
aI4190
aI4192
aI4193
aI6836
aI4194
aI4196
aI4197
aI2808
aI6837
aI4198
aI4196
aI4197
aI6838
aI1242
aI6839
aI4196
aI39
aI4271
aI5117
aI6840
aI6841
aI4200
aI51
aI6842
aI4201
aI1772
aI554
aI6843
aI4203
aI4205
aI6844
aI1797
aI4475
aI6845
aI4188
aI4205
aI1920
aI51
aI6846
aI4206
aI2538
aI3345
aI4208
aI6847
aI4209
aI6848
aI21
aI6849
aI6850
aI4211
aI986
aI739
aI6851
aI4212
aI4214
aI4215
aI6852
aI4216
aI493
aI1460
aI4218
aI6853
aI4219
aI3655
aI4221
aI4222
aI6854
aI4223
aI1777
aI493
aI21
aI6855
aI4225
aI4227
aI4228
aI4229
aI915
aI6856
aI4230
aI4232
aI4233
aI4229
aI1546
aI6857
aI4234
aI4236
aI64
aI6858
aI4237
aI4239
aI4240
aI2817
aI6859
aI4241
aI6860
aI242
aI51
aI6861
aI6862
aI337
aI337
aI6863
aI6864
aI4245
aI4246
aI6865
aI4247
aI4245
aI4249
aI6866
aI4250
aI4255
aI64
aI6867
aI4256
aI4266
aI4267
aI64
aI4268
aI6868
aI6869
aI4269
aI4270
aI4267
aI4271
aI3634
aI4272
aI6870
aI18
aI6871
aI6872
aI6873
aI934
aI4282
aI6874
aI6875
aI6876
aI64
aI6877
aI6878
aI6879
aI51
aI6880
aI6881
aI4279
aI51
aI6882
aI4280
aI4282
aI967
aI6883
aI4283
aI4282
aI4284
aI4249
aI6884
aI4285
aI4282
aI554
aI934
aI6885
aI4287
aI4282
aI673
aI51
aI6886
aI4289
aI4282
aI1802
aI4472
aI4291
aI4282
aI235
aI4293
aI1609
aI4188
aI4294
aI4282
aI525
aI1460
aI6887
aI6888
aI4282
aI792
aI4296
aI6889
aI4297
aI4282
aI944
aI934
aI6890
aI4305
aI4282
aI4307
aI4307
aI6891
aI4308
aI4282
aI3441
aI4310
aI4229
aI915
aI6892
aI4311
aI4282
aI3601
aI1055
aI1609
aI4188
aI6893
aI4313
aI4314
aI51
aI6894
aI4315
aI190
aI6895
aI6896
aI6897
aI190
aI4317
aI934
aI6898
aI4318
aI190
aI4228
aI21
aI6899
aI4320
aI190
aI1869
aI4301
aI6900
aI4322
aI4324
aI51
aI6901
aI4325
aI4327
aI6902
aI4328
aI4330
aI4331
aI944
aI6903
aI4332
aI4334
aI64
aI6904
aI4335
aI4337
aI51
aI6905
aI4338
aI1176
aI64
aI6906
aI4343
aI1176
aI64
aI6907
aI4345
aI4347
aI4348
aI6908
aI4349
aI6909
aI64
aI6910
aI6911
aI4351
aI4352
aI6912
aI4353
aI4355
aI51
aI6913
aI4356
aI4358
aI4359
aI934
aI6914
aI4360
aI3134
aI1483
aI6915
aI6916
aI6917
aI936
aI64
aI6918
aI6919
aI3517
aI6920
aI6921
aI6922
aI2379
aI2380
aI6923
aI4368
aI1766
aI1777
aI1676
aI6924
aI4370
aI4372
aI64
aI6925
aI4373
aI6926
aI64
aI6927
aI6928
aI4375
aI486
aI936
aI6929
aI4376
aI6930
aI21
aI64
aI6931
aI6932
aI4378
aI936
aI64
aI6933
aI4380
aI1273
aI947
aI51
aI6934
aI4393
aI1713
aI4396
aI183
aI2647
aI6935
aI1579
aI4402
aI6936
aI4403
aI6937
aI4399
aI51
aI6938
aI4188
aI919
aI920
aI4405
aI6939
aI4406
aI4408
aI4409
aI51
aI6940
aI4410
aI4415
aI4416
aI152
aI6941
aI6942
aI4418
aI4415
aI1460
aI6943
aI4420
aI6944
aI51
aI6945
aI6946
aI4422
aI3091
aI64
aI6947
aI4423
aI4425
aI51
aI6948
aI4426
aI4428
aI4429
aI51
aI6949
aI4430
aI4432
aI4396
aI4284
aI934
aI6950
aI4433
aI1418
aI4348
aI6951
aI4435
aI4437
aI25
aI51
aI6952
aI4438
aI4440
aI4441
aI4442
aI166
aI4443
aI4444
aI64
aI6953
aI4445
aI1784
aI1417
aI51
aI6954
aI4447
aI1784
aI1417
aI4714
aI915
aI2231
aI6955
aI1784
aI10
aI801
aI6956
aI4449
aI1784
aI10
aI217
aI6957
aI4451
aI1784
aI927
aI3433
aI6958
aI4453
aI4455
aI51
aI6959
aI4456
aI2041
aI21
aI64
aI6960
aI4528
aI4462
aI1784
aI64
aI6961
aI4463
aI1992
aI447
aI4442
aI6962
aI4465
aI324
aI4467
aI3847
aI6963
aI4468
aI4470
aI4471
aI64
aI6964
aI4472
aI4474
aI2
aI6965
aI4478
aI6966
aI64
aI6967
aI6968
aI279
aI4480
aI934
aI6969
aI4481
aI4485
aI447
aI4442
aI6970
aI4486
aI4488
aI3658
aI6971
aI4489
aI499
aI1579
aI51
aI6972
aI4491
aI4493
aI51
aI6973
aI4494
aI4496
aI934
aI64
aI6974
aI4497
aI4499
aI51
aI6975
aI4500
aI4505
aI4228
aI6976
aI4506
aI4508
aI2352
aI2958
aI6977
aI6978
aI4508
aI2352
aI51
aI6979
aI4509
aI4511
aI1552
aI6980
aI4512
aI734
aI2352
aI934
aI6981
aI6982
aI2080
aI2081
aI51
aI6983
aI4514
aI2159
aI4271
aI4519
aI6984
aI4520
aI2159
aI2220
aI927
aI6985
aI4522
aI4524
aI2470
aI6986
aI4525
aI3563
aI3564
aI388
aI1352
aI6987
aI4527
aI1446
aI107
aI6988
aI4529
aI4531
aI4532
aI51
aI6989
aI4533
aI6990
aI6991
aI6992
aI6993
aI6994
aI4535
aI4218
aI5749
aI6995
aI6996
aI4535
aI4218
aI186
aI2292
aI4536
aI4535
aI64
aI6997
aI4538
aI6998
aI4804
aI934
aI6999
aI7000
aI7001
aI64
aI7002
aI7003
aI194
aI1352
aI64
aI7004
aI7005
aI4540
aI4541
aI7006
aI4542
aI4544
aI4545
aI7007
aI4546
aI7008
aI2352
aI1791
aI4442
aI7009
aI7010
aI1993
aI4551
aI4442
aI7011
aI4552
aI1993
aI4551
aI5076
aI7012
aI7013
aI1935
aI4559
aI936
aI7014
aI4560
aI4562
aI51
aI7015
aI4563
aI4565
aI4566
aI64
aI7016
aI4567
aI4569
aI834
aI7017
aI4570
aI4569
aI1920
aI7018
aI7019
aI4572
aI1243
aI4293
aI7020
aI4573
aI4575
aI64
aI7021
aI4576
aI4578
aI51
aI7022
aI4579
aI4581
aI4582
aI64
aI7023
aI4583
aI4052
aI2831
aI4442
aI7024
aI4585
aI4587
aI114
aI7025
aI4588
aI4593
aI3181
aI4594
aI7026
aI4595
aI3034
aI486
aI7027
aI4597
aI4599
aI64
aI7028
aI4600
aI7029
aI107
aI7030
aI7031
aI4602
aI4603
aI934
aI7032
aI4604
aI425
aI485
aI7033
aI4606
aI425
aI712
aI934
aI7034
aI4608
aI4610
aI51
aI7035
aI4611
aI897
aI4249
aI183
aI7036
aI4613
aI7037
aI5340
aI7038
aI4188
aI2937
aI4615
aI4616
aI7039
aI4617
aI626
aI345
aI947
aI7040
aI4619
aI7041
aI7042
aI64
aI7043
aI7044
aI7045
aI459
aI7046
aI4188
aI4621
aI7047
aI4622
aI7048
aI936
aI64
aI7049
aI7050
aI3948
aI64
aI7051
aI4624
aI4626
aI51
aI7052
aI4627
aI7053
aI51
aI7054
aI7055
aI4629
aI4630
aI51
aI7056
aI4631
aI7057
aI51
aI7058
aI7059
aI3670
aI182
aI7060
aI4637
aI4639
aI4640
aI51
aI7061
aI4641
aI789
aI7062
aI51
aI7063
aI7064
aI4643
aI3497
aI4646
aI1558
aI7065
aI4647
aI4643
aI1505
aI51
aI7066
aI4649
aI4643
aI1505
aI4651
aI4652
aI7067
aI4653
aI4655
aI1784
aI7068
aI4656
aI4655
aI4658
aI4659
aI1546
aI7069
aI4660
aI4655
aI4658
aI4662
aI1546
aI7070
aI4663
aI4655
aI3441
aI4258
aI7071
aI4665
aI4667
aI51
aI7072
aI4668
aI4670
aI51
aI7073
aI4671
aI4673
aI1284
aI4674
aI7074
aI4675
aI4677
aI936
aI64
aI7075
aI4678
aI3566
aI51
aI7076
aI4680
aI1195
aI51
aI7077
aI4682
aI2105
aI1966
aI7078
aI4684
aI7079
aI51
aI7080
aI7081
aI4686
aI51
aI7082
aI4687
aI7083
aI64
aI4756
aI7084
aI4689
aI499
aI7085
aI4690
aI4689
aI7086
aI7087
aI7088
aI4692
aI4693
aI51
aI7089
aI4694
aI4699
aI64
aI4700
aI934
aI7090
aI4701
aI4703
aI2354
aI51
aI7091
aI4704
aI2952
aI165
aI944
aI7092
aI4706
aI3367
aI3367
aI4708
aI7093
aI4709
aI1534
aI7094
aI4711
aI1534
aI4713
aI4714
aI166
aI7095
aI4715
aI1534
aI4659
aI1067
aI7096
aI7097
aI4188
aI1534
aI4659
aI3678
aI4714
aI7098
aI4717
aI165
aI802
aI51
aI7099
aI4719
aI7100
aI4348
aI7101
aI7102
aI4721
aI944
aI64
aI7103
aI4722
aI4724
aI525
aI64
aI7104
aI4725
aI4122
aI7105
aI64
aI7106
aI7107
aI4729
aI934
aI7108
aI4730
aI4732
aI21
aI64
aI7109
aI4733
aI4735
aI20
aI51
aI7110
aI4736
aI7111
aI936
aI64
aI7112
aI7113
aI421
aI1869
aI4738
aI7114
aI4739
aI7115
aI51
aI7116
aI7117
aI3582
aI934
aI7118
aI4743
aI3582
aI2470
aI7119
aI4745
aI4747
aI4748
aI4749
aI7120
aI4750
aI4752
aI934
aI7121
aI4753
aI3114
aI1041
aI4228
aI7122
aI7123
aI4755
aI4760
aI4761
aI7124
aI4762
aI3897
aI4396
aI114
aI7125
aI4764
aI4766
aI64
aI7126
aI4767
aI4771
aI4228
aI7127
aI4772
aI229
aI4777
aI7128
aI4778
aI4780
aI4307
aI4781
aI4442
aI7129
aI4188
aI4784
aI1491
aI51
aI7130
aI4785
aI1491
aI4787
aI4228
aI7131
aI4788
aI4793
aI4794
aI4795
aI7132
aI4796
aI4798
aI64
aI7133
aI4799
aI7134
aI7135
aI7136
aI4188
aI4801
aI64
aI7137
aI4802
aI3263
aI4804
aI7138
aI4805
aI3263
aI4221
aI7139
aI4807
aI3263
aI4809
aI4396
aI7140
aI4810
aI3263
aI529
aI7141
aI4812
aI3263
aI944
aI7142
aI7143
aI4817
aI1784
aI4818
aI4819
aI7144
aI4820
aI4817
aI7145
aI4659
aI4714
aI262
aI7146
aI4188
aI4822
aI51
aI7147
aI4606
aI997
aI1784
aI7148
aI4824
aI997
aI51
aI7149
aI4826
aI4817
aI7150
aI4594
aI51
aI7151
aI7152
aI1484
aI920
aI51
aI7153
aI4828
aI4830
aI1491
aI51
aI7154
aI4831
aI1783
aI936
aI64
aI7155
aI4835
aI1783
aI83
aI4837
aI7156
aI4838
aI1758
aI936
aI64
aI5120
aI4840
aI4841
aI64
aI7157
aI4842
aI4844
aI1320
aI7158
aI4845
aI4847
aI4228
aI64
aI7159
aI4848
aI4850
aI51
aI7160
aI4851
aI7161
aI934
aI7162
aI7163
aI4853
aI934
aI4229
aI1546
aI7164
aI4188
aI4853
aI934
aI4229
aI915
aI7165
aI4188
aI7166
aI804
aI64
aI7167
aI7168
aI4855
aI4856
aI7169
aI4857
aI4859
aI1869
aI7170
aI4863
aI4865
aI4866
aI4867
aI934
aI7171
aI4868
aI2954
aI51
aI7172
aI4872
aI4874
aI1901
aI841
aI7173
aI4875
aI4874
aI4877
aI4878
aI7174
aI4879
aI4874
aI3624
aI1095
aI7175
aI7176
aI4874
aI604
aI4249
aI7177
aI4881
aI4883
aI4228
aI64
aI7178
aI4884
aI7179
aI1094
aI934
aI7180
aI7181
aI4886
aI4804
aI934
aI7182
aI4887
aI4893
aI4894
aI934
aI7183
aI4895
aI911
aI1903
aI7184
aI7185
aI4897
aI51
aI7186
aI4898
aI7187
aI51
aI7188
aI7189
aI920
aI3181
aI4193
aI7190
aI7191
aI920
aI1802
aI51
aI7192
aI7193
aI4903
aI7194
aI4904
aI4906
aI4907
aI64
aI7195
aI4908
aI4912
aI934
aI7196
aI4913
aI4915
aI4916
aI51
aI7197
aI4917
aI7198
aI20
aI7199
aI7200
aI4919
aI4249
aI4920
aI7201
aI4921
aI1298
aI493
aI819
aI64
aI7202
aI4923
aI7203
aI51
aI290
aI7204
aI7205
aI51
aI7206
aI7207
aI4925
aI4804
aI934
aI7208
aI4926
aI4928
aI51
aI7209
aI4929
aI4931
aI64
aI7210
aI4932
aI7211
aI1460
aI7212
aI7213
aI4937
aI4938
aI7214
aI4939
aI4941
aI64
aI7215
aI4942
aI1145
aI4662
aI4787
aI7216
aI4944
aI1145
aI1661
aI7217
aI4946
aI4948
aI4331
aI4229
aI915
aI7218
aI4949
aI4951
aI1869
aI1784
aI7219
aI4952
aI4957
aI64
aI7220
aI4958
aI7221
aI201
aI201
aI684
aI7222
aI7223
aI4960
aI51
aI7224
aI4961
aI299
aI4655
aI934
aI7225
aI4963
aI299
aI300
aI934
aI64
aI7226
aI4965
aI7227
aI4300
aI634
aI7228
aI7229
aI7230
aI4967
aI64
aI7231
aI4968
aI4970
aI7232
aI4971
aI4973
aI936
aI64
aI7233
aI4974
aI4976
aI51
aI7234
aI4977
aI4976
aI4795
aI4197
aI7235
aI4188
aI7236
aI6089
aI5001
aI7237
aI7238
aI4984
aI4249
aI934
aI7239
aI4985
aI4987
aI4988
aI7240
aI4989
aI7241
aI1387
aI2026
aI4992
aI7242
aI4993
aI7243
aI102
aI7244
aI7245
aI4995
aI64
aI7246
aI4996
aI4998
aI936
aI7247
aI4999
aI1733
aI5001
aI7248
aI5002
aI2612
aI2613
aI934
aI7249
aI5004
aI5006
aI51
aI7250
aI5007
aI5009
aI64
aI7251
aI5010
aI4804
aI2854
aI944
aI7252
aI7253
aI7254
aI51
aI7255
aI4188
aI5025
aI1483
aI934
aI7256
aI5026
aI5028
aI5029
aI1095
aI4442
aI7257
aI5030
aI7258
aI51
aI7259
aI7260
aI5032
aI51
aI7261
aI5033
aI5035
aI7262
aI5036
aI5041
aI51
aI7263
aI5042
aI1712
aI64
aI7264
aI5050
aI7265
aI51
aI7266
aI7267
aI5052
aI1896
aI7268
aI5053
aI5057
aI51
aI7269
aI5058
aI7270
aI51
aI4229
aI915
aI7271
aI7272
aI2410
aI4662
aI64
aI7273
aI7274
aI5065
aI554
aI51
aI7275
aI5066
aI5065
aI525
aI634
aI5068
aI7276
aI5069
aI5065
aI802
aI5068
aI7277
aI5071
aI5065
aI5472
aI400
aI7278
aI7279
aI5065
aI3293
aI51
aI4257
aI7280
aI5073
aI51
aI7281
aI5074
aI130
aI4809
aI5068
aI5076
aI7282
aI5077
aI130
aI1799
aI4760
aI7283
aI5079
aI5081
aI7284
aI5082
aI5084
aI51
aI7285
aI5085
aI5087
aI5088
aI7286
aI5089
aI7287
aI64
aI3254
aI7288
aI7289
aI479
aI1784
aI5091
aI64
aI7290
aI5092
aI479
aI967
aI51
aI7291
aI5094
aI479
aI3470
aI7292
aI1726
aI6417
aI7293
aI479
aI425
aI712
aI7294
aI7295
aI479
aI2025
aI51
aI7296
aI5096
aI479
aI165
aI5098
aI5099
aI7297
aI5100
aI479
aI5102
aI4440
aI7298
aI5103
aI479
aI4738
aI39
aI7299
aI5105
aI479
aI20
aI1352
aI7300
aI7301
aI479
aI5107
aI4659
aI5108
aI1546
aI7302
aI5109
aI479
aI5111
aI4348
aI7303
aI5112
aI479
aI900
aI7304
aI5114
aI479
aI345
aI4301
aI7305
aI7306
aI479
aI5116
aI5117
aI2663
aI5118
aI479
aI3627
aI2401
aI4714
aI7307
aI5120
aI479
aI3627
aI51
aI7308
aI5122
aI479
aI5126
aI51
aI7309
aI5127
aI7310
aI51
aI7311
aI7312
aI5131
aI4738
aI7313
aI5132
aI5134
aI2470
aI7314
aI5135
aI5137
aI107
aI7315
aI5138
aI5140
aI4228
aI7316
aI5141
aI905
aI5143
aI7317
aI5144
aI5146
aI4379
aI7318
aI5147
aI5152
aI3847
aI107
aI7319
aI5155
aI5157
aI21
aI4229
aI915
aI7320
aI5158
aI1532
aI1533
aI934
aI7321
aI5160
aI5162
aI5163
aI7322
aI5164
aI5166
aI21
aI64
aI7323
aI5167
aI2023
aI2407
aI1352
aI1072
aI5169
aI5170
aI7324
aI3448
aI1609
aI4188
aI7325
aI5170
aI1920
aI7326
aI5171
aI5178
aI64
aI7327
aI5179
aI1352
aI4282
aI4296
aI7328
aI5184
aI7329
aI936
aI64
aI7330
aI7331
aI5186
aI887
aI675
aI7332
aI5187
aI7333
aI934
aI64
aI7334
aI7335
aI1154
aI64
aI7336
aI5189
aI7337
aI51
aI7338
aI7339
aI5190
aI64
aI7340
aI5191
aI5193
aI10
aI7341
aI5194
aI1802
aI3546
aI7342
aI5199
aI1802
aI1483
aI934
aI7343
aI5201
aI1802
aI2973
aI64
aI7344
aI4188
aI1802
aI1533
aI51
aI7345
aI5205
aI1802
aI6173
aI5001
aI7346
aI7347
aI1802
aI5207
aI51
aI7348
aI5208
aI1802
aI3293
aI51
aI7349
aI7350
aI7351
aI64
aI7352
aI7353
aI7354
aI64
aI7355
aI7356
aI5213
aI19
aI934
aI7357
aI5214
aI902
aI939
aI7358
aI5216
aI5218
aI7359
aI5219
aI5221
aI1460
aI934
aI7360
aI5222
aI5221
aI5224
aI6935
aI5225
aI2924
aI6820
aI7361
aI5227
aI5229
aI934
aI7362
aI5230
aI5232
aI712
aI4442
aI7363
aI5233
aI5235
aI7364
aI5236
aI1628
aI2808
aI4063
aI4652
aI7365
aI7366
aI1628
aI3669
aI7367
aI5238
aI1628
aI3669
aI5076
aI7368
aI5240
aI1628
aI1669
aI1352
aI1038
aI7369
aI3092
aI1377
aI5243
aI4662
aI7370
aI5244
aI3092
aI1377
aI1558
aI4662
aI7371
aI5246
aI1970
aI5248
aI64
aI7372
aI5249
aI1970
aI1909
aI3345
aI7373
aI5251
aI1970
aI841
aI5253
aI7374
aI5254
aI5256
aI7375
aI5257
aI5262
aI83
aI4837
aI7376
aI5263
aI3361
aI5265
aI934
aI7377
aI5266
aI940
aI4282
aI1784
aI5272
aI7378
aI5273
aI940
aI5275
aI1243
aI7379
aI5276
aI940
aI941
aI4655
aI7380
aI5278
aI940
aI5280
aI4738
aI7381
aI5281
aI1955
aI5283
aI751
aI7382
aI5284
aI5286
aI5287
aI7383
aI5288
aI5290
aI4934
aI51
aI7384
aI5291
aI272
aI21
aI64
aI7385
aI7386
aI2407
aI1352
aI3646
aI3077
aI7387
aI4188
aI3512
aI51
aI7388
aI5293
aI3877
aI51
aI7389
aI5295
aI5299
aI2973
aI64
aI7390
aI5300
aI939
aI5305
aI5001
aI7391
aI5306
aI5317
aI934
aI7392
aI5318
aI2586
aI447
aI4442
aI7393
aI5329
aI2586
aI447
aI5076
aI7394
aI5331
aI5332
aI5333
aI7395
aI5334
aI5336
aI64
aI7396
aI5337
aI5339
aI5340
aI7397
aI5341
aI203
aI51
aI7398
aI5343
aI7399
aI51
aI7400
aI7401
aI5345
aI5346
aI7402
aI5347
aI7403
aI1483
aI7404
aI7405
aI235
aI256
aI585
aI7406
aI7407
aI5355
aI4749
aI934
aI7408
aI5356
aI5358
aI1558
aI679
aI934
aI7409
aI5359
aI7410
aI7411
aI7412
aI7413
aI5361
aI64
aI7414
aI5362
aI7415
aI1041
aI51
aI7416
aI7417
aI5364
aI934
aI7418
aI5365
aI5367
aI51
aI7419
aI5368
aI5370
aI51
aI7420
aI915
aI7421
aI5371
aI303
aI2808
aI4516
aI6868
aI6554
aI5373
aI303
aI2808
aI4516
aI4519
aI3906
aI7422
aI5381
aI936
aI64
aI7423
aI5382
aI3297
aI652
aI5384
aI7424
aI5385
aI537
aI8
aI51
aI7425
aI5387
aI5389
aI2817
aI4442
aI7426
aI5390
aI525
aI5392
aI64
aI7427
aI5393
aI525
aI384
aI2833
aI4860
aI7428
aI7429
aI525
aI748
aI3504
aI7430
aI5395
aI5397
aI51
aI4700
aI7431
aI5398
aI7432
aI4749
aI934
aI7433
aI7434
aI5400
aI64
aI7435
aI5401
aI429
aI430
aI7436
aI4442
aI7437
aI7438
aI5403
aI18
aI7439
aI5404
aI5406
aI5407
aI934
aI7440
aI5408
aI771
aI7441
aI7442
aI7443
aI2078
aI4228
aI7444
aI5409
aI879
aI936
aI64
aI7445
aI5411
aI7446
aI4640
aI4818
aI166
aI7447
aI4188
aI7448
aI7449
aI51
aI7450
aI7451
aI5417
aI64
aI7452
aI5418
aI7453
aI167
aI7454
aI7369
aI7455
aI7456
aI64
aI7457
aI7458
aI5424
aI4249
aI934
aI7459
aI5425
aI7460
aI936
aI7461
aI7462
aI3438
aI4249
aI7463
aI7464
aI6782
aI2231
aI3438
aI5429
aI1055
aI64
aI7465
aI5430
aI5432
aI5433
aI21
aI7466
aI5434
aI5436
aI21
aI64
aI7467
aI5437
aI2142
aI4218
aI4442
aI7468
aI5442
aI7469
aI861
aI7470
aI7471
aI5444
aI5445
aI934
aI7472
aI5446
aI5451
aI5452
aI7473
aI5453
aI4640
aI3387
aI5455
aI7474
aI5456
aI4228
aI3480
aI51
aI1609
aI4188
aI7475
aI7476
aI7477
aI64
aI7478
aI7479
aI5461
aI2808
aI7480
aI5462
aI7481
aI64
aI7482
aI7483
aI5464
aI51
aI7484
aI5465
aI218
aI21
aI7485
aI5467
aI1702
aI4249
aI934
aI1609
aI4188
aI7486
aI7487
aI7488
aI7489
aI4228
aI375
aI5469
aI7490
aI5470
aI4228
aI7491
aI51
aI7492
aI7493
aI4228
aI5472
aI934
aI7494
aI5473
aI4228
aI5475
aI51
aI7495
aI5476
aI7496
aI4396
aI1095
aI934
aI7497
aI7498
aI7499
aI585
aI934
aI7500
aI7501
aI5483
aI51
aI7502
aI5484
aI2756
aI51
aI7503
aI7504
aI2507
aI3612
aI51
aI7505
aI5486
aI2094
aI7506
aI7507
aI1352
aI7508
aI7509
aI685
aI1558
aI5491
aI934
aI7510
aI5492
aI2692
aI2692
aI7511
aI5494
aI2692
aI1484
aI64
aI7512
aI5496
aI5498
aI64
aI7513
aI5499
aI5501
aI64
aI7514
aI5502
aI2354
aI5504
aI51
aI7515
aI5505
aI903
aI165
aI4249
aI4920
aI7516
aI5507
aI903
aI4396
aI4284
aI7517
aI5509
aI903
aI4249
aI183
aI7518
aI7519
aI5511
aI936
aI64
aI1748
aI5512
aI5514
aI3861
aI525
aI7520
aI5515
aI5517
aI934
aI7521
aI5518
aI5520
aI934
aI7522
aI5521
aI5523
aI51
aI7523
aI5524
aI5523
aI5528
aI7524
aI5529
aI5523
aI5768
aI4910
aI7525
aI7526
aI5531
aI5001
aI934
aI7527
aI5532
aI7528
aI51
aI7529
aI5536
aI5538
aI4228
aI64
aI7530
aI5539
aI5541
aI5542
aI51
aI7531
aI5543
aI5545
aI2578
aI7532
aI5546
aI5548
aI3408
aI493
aI7533
aI5549
aI7534
aI7535
aI7536
aI7537
aI5554
aI107
aI7538
aI5555
aI1581
aI2912
aI1533
aI27
aI7539
aI5560
aI5565
aI18
aI7540
aI5566
aI2501
aI340
aI64
aI7541
aI5568
aI5570
aI4228
aI64
aI7542
aI5571
aI7543
aI64
aI1609
aI4188
aI7544
aI5573
aI5574
aI7545
aI5575
aI2384
aI91
aI7546
aI5577
aI7547
aI51
aI7548
aI7549
aI5579
aI5580
aI4296
aI7550
aI5581
aI5587
aI4399
aI51
aI7551
aI5588
aI7552
aI7553
aI4714
aI2981
aI7554
aI4188
aI7555
aI7556
aI7557
aI4115
aI4114
aI5076
aI7558
aI5594
aI4115
aI4114
aI934
aI7559
aI5596
aI861
aI7560
aI7561
aI5598
aI824
aI802
aI5600
aI7562
aI5601
aI5603
aI936
aI64
aI7563
aI5604
aI769
aI488
aI7564
aI7565
aI3510
aI51
aI7566
aI5606
aI2754
aI51
aI7567
aI5608
aI5610
aI5611
aI5612
aI7568
aI5613
aI444
aI2317
aI936
aI64
aI7569
aI5615
aI3624
aI2501
aI5976
aI7570
aI7571
aI5625
aI7572
aI5626
aI1731
aI107
aI7573
aI5628
aI7574
aI7575
aI51
aI7576
aI7577
aI5630
aI51
aI7578
aI5631
aI7579
aI7580
aI4442
aI7581
aI7582
aI5642
aI5643
aI7583
aI5644
aI3247
aI915
aI7584
aI107
aI7585
aI7586
aI5646
aI64
aI7587
aI5647
aI7588
aI64
aI7589
aI7590
aI2415
aI256
aI64
aI7591
aI5649
aI5651
aI447
aI4442
aI7592
aI5652
aI5654
aI5655
aI7593
aI5656
aI5654
aI5655
aI4860
aI1546
aI7594
aI5658
aI5654
aI5655
aI5660
aI7595
aI5661
aI5654
aI5655
aI4860
aI7596
aI7597
aI5662
aI51
aI7598
aI5663
aI5668
aI5669
aI4301
aI4714
aI915
aI2246
aI5670
aI7599
aI7600
aI7601
aI7602
aI5672
aI5673
aI299
aI7603
aI5674
aI306
aI5676
aI5340
aI7604
aI5677
aI1
aI51
aI7605
aI5679
aI4041
aI4042
aI7606
aI5681
aI1610
aI7607
aI2817
aI7608
aI7609
aI1610
aI3677
aI51
aI7610
aI5683
aI5685
aI51
aI7611
aI5686
aI5692
aI64
aI7612
aI5693
aI7613
aI4399
aI7614
aI7615
aI76
aI652
aI944
aI7616
aI5695
aI5697
aI51
aI7617
aI5698
aI5700
aI64
aI7618
aI5701
aI3595
aI64
aI7619
aI5703
aI5707
aI5708
aI7620
aI5709
aI1975
aI51
aI7621
aI5711
aI3547
aI3548
aI7622
aI5713
aI5715
aI64
aI7623
aI5716
aI5718
aI51
aI7624
aI5719
aI7625
aI51
aI4700
aI934
aI1609
aI4188
aI7626
aI7627
aI51
aI7628
aI7629
aI7630
aI51
aI7631
aI7632
aI5721
aI64
aI7633
aI5722
aI5731
aI1784
aI51
aI7634
aI5732
aI7635
aI51
aI7636
aI7637
aI5734
aI944
aI934
aI7638
aI5735
aI5737
aI107
aI7639
aI5738
aI2985
aI1058
aI934
aI7640
aI5740
aI7641
aI51
aI7642
aI7643
aI5741
aI5742
aI934
aI7644
aI5743
aI5745
aI7645
aI5746
aI5748
aI622
aI4818
aI5749
aI7646
aI5750
aI5748
aI622
aI5752
aI915
aI6549
aI7647
aI5753
aI5759
aI738
aI2808
aI7648
aI5760
aI5759
aI4197
aI5761
aI6386
aI5762
aI5759
aI5107
aI64
aI927
aI7649
aI5766
aI5759
aI5768
aI4271
aI927
aI7650
aI5769
aI5759
aI5956
aI2808
aI7651
aI7652
aI5759
aI7653
aI7654
aI7655
aI7656
aI2231
aI7657
aI1987
aI64
aI7658
aI7659
aI7660
aI5869
aI7661
aI4188
aI5774
aI998
aI64
aI7662
aI5775
aI5777
aI1920
aI7663
aI5778
aI5783
aI5784
aI4429
aI5785
aI7664
aI5786
aI5788
aI4249
aI183
aI7665
aI5790
aI7666
aI51
aI7667
aI7668
aI5792
aI20
aI64
aI7669
aI5793
aI5795
aI51
aI7670
aI5796
aI7671
aI7672
aI7673
aI7674
aI5798
aI425
aI51
aI7675
aI5799
aI5801
aI934
aI7676
aI5802
aI5804
aI4249
aI934
aI7677
aI5805
aI7678
aI6372
aI1429
aI7679
aI7680
aI2671
aI51
aI2817
aI7681
aI5807
aI3872
aI7682
aI934
aI7683
aI5810
aI3872
aI3873
aI21
aI7684
aI5812
aI1102
aI64
aI7685
aI5823
aI7686
aI1352
aI7687
aI7688
aI5825
aI4193
aI64
aI7689
aI5826
aI7690
aI936
aI7420
aI915
aI7691
aI7692
aI802
aI165
aI51
aI7693
aI5830
aI802
aI7694
aI7695
aI7696
aI802
aI5832
aI7697
aI5833
aI802
aI2715
aI51
aI7698
aI7699
aI802
aI80
aI7700
aI5838
aI4395
aI660
aI4396
aI7701
aI7702
aI4395
aI5840
aI64
aI1609
aI4188
aI5841
aI4395
aI1204
aI2470
aI7703
aI5845
aI4395
aI5847
aI4442
aI7704
aI5848
aI5850
aI5851
aI7705
aI5852
aI5858
aI4348
aI64
aI7706
aI5859
aI5861
aI51
aI7707
aI5862
aI3744
aI51
aI7708
aI5864
aI5866
aI21
aI7709
aI5867
aI959
aI4249
aI934
aI7710
aI7711
aI10
aI4282
aI6658
aI934
aI7259
aI7712
aI10
aI5875
aI1095
aI114
aI7713
aI5876
aI10
aI11
aI1920
aI7714
aI2120
aI10
aI333
aI1799
aI7715
aI7716
aI10
aI217
aI175
aI5878
aI7717
aI5879
aI5881
aI3847
aI934
aI7718
aI5882
aI5881
aI4749
aI51
aI7719
aI5884
aI10
aI51
aI2817
aI4442
aI7720
aI5886
aI5891
aI5892
aI4249
aI7721
aI5893
aI5891
aI75
aI51
aI7722
aI5895
aI5900
aI64
aI1377
aI1546
aI7723
aI5901
aI5902
aI102
aI7724
aI5903
aI2042
aI41
aI64
aI7725
aI5908
aI5910
aI1920
aI51
aI7726
aI5911
aI7727
aI420
aI934
aI7728
aI7729
aI5913
aI5914
aI7730
aI7440
aI5915
aI5917
aI64
aI7731
aI5918
aI228
aI5920
aI4348
aI7732
aI5921
aI3478
aI5001
aI7733
aI5925
aI3511
aI51
aI7734
aI5927
aI5929
aI51
aI7735
aI5930
aI5932
aI51
aI3646
aI5933
aI7736
aI5934
aI5936
aI4442
aI7737
aI5937
aI5939
aI5305
aI4249
aI7738
aI5940
aI5939
aI5942
aI2817
aI7739
aI5943
aI5945
aI51
aI7740
aI5946
aI5948
aI5949
aI4760
aI7741
aI7742
aI4188
aI5948
aI5949
aI4267
aI5957
aI7743
aI7744
aI5948
aI4760
aI7741
aI4267
aI7745
aI5954
aI5948
aI4267
aI4516
aI1352
aI7746
aI3985
aI5948
aI4267
aI5957
aI1352
aI2953
aI5958
aI5948
aI5961
aI4760
aI7741
aI7747
aI4188
aI5948
aI5961
aI4267
aI5957
aI7748
aI1038
aI5948
aI5961
aI5963
aI4267
aI7749
aI5856
aI7750
aI4296
aI64
aI7751
aI4188
aI7752
aI51
aI7753
aI7754
aI5971
aI5972
aI7755
aI5973
aI3514
aI1135
aI64
aI7756
aI5981
aI901
aI4804
aI934
aI7757
aI5983
aI5988
aI4396
aI1095
aI7758
aI5989
aI1482
aI5991
aI4228
aI1560
aI5992
aI3455
aI21
aI64
aI7759
aI5997
aI6002
aI64
aI7760
aI6003
aI7761
aI1166
aI7762
aI7763
aI7764
aI6007
aI4399
aI107
aI7765
aI6008
aI6010
aI3669
aI51
aI7766
aI6011
aI6016
aI6017
aI7767
aI6018
aI1243
aI1552
aI7768
aI6020
aI1243
aI4396
aI4284
aI7769
aI6022
aI1243
aI6024
aI6025
aI7770
aI6026
aI6028
aI7771
aI6029
aI3703
aI6031
aI64
aI5063
aI6032
aI1740
aI6034
aI51
aI7772
aI6035
aI1740
aI6034
aI51
aI5076
aI7773
aI7774
aI6037
aI1733
aI934
aI7775
aI6038
aI6043
aI5421
aI7776
aI6044
aI6046
aI4662
aI7777
aI6047
aI512
aI7778
aI7779
aI7780
aI6055
aI229
aI7781
aI6056
aI2000
aI4275
aI6058
aI1788
aI7782
aI6059
aI2000
aI4275
aI6058
aI6868
aI7783
aI7784
aI6061
aI4249
aI4920
aI934
aI7785
aI6064
aI6066
aI6067
aI934
aI7786
aI6068
aI6072
aI6073
aI3247
aI3247
aI2242
aI7787
aI6074
aI6076
aI64
aI7788
aI6077
aI6079
aI51
aI7789
aI6080
aI7790
aI7791
aI7792
aI7793
aI3940
aI943
aI944
aI7794
aI6082
aI816
aI64
aI7795
aI6087
aI6089
aI6090
aI51
aI7796
aI6091
aI6093
aI1483
aI934
aI7797
aI6094
aI1158
aI1159
aI4296
aI7798
aI6096
aI1158
aI6098
aI7799
aI6099
aI1526
aI4352
aI7800
aI6101
aI7801
aI7802
aI7803
aI7804
aI6103
aI51
aI712
aI7805
aI6104
aI6106
aI262
aI2943
aI7806
aI6107
aI6109
aI841
aI4083
aI7807
aI6110
aI6112
aI4738
aI4310
aI7808
aI6113
aI6115
aI2931
aI7809
aI6116
aI6121
aI6122
aI64
aI7810
aI6123
aI2779
aI20
aI51
aI7811
aI6127
aI7812
aI60
aI934
aI7813
aI7814
aI1626
aI39
aI7815
aI6132
aI3598
aI6098
aI7816
aI6134
aI6136
aI6137
aI64
aI7817
aI6138
aI1792
aI6140
aI51
aI7818
aI6141
aI6146
aI1095
aI4249
aI934
aI7819
aI6147
aI6149
aI936
aI64
aI7820
aI6150
aI3657
aI6152
aI7821
aI6153
aI7822
aI4228
aI64
aI7823
aI7824
aI2639
aI1533
aI27
aI7825
aI6158
aI6160
aI51
aI7826
aI6161
aI6163
aI1125
aI7827
aI6164
aI5143
aI51
aI7828
aI6166
aI370
aI4296
aI64
aI7829
aI6168
aI6170
aI1920
aI64
aI7830
aI6171
aI6173
aI4310
aI934
aI1902
aI7831
aI6174
aI1496
aI4714
aI2470
aI7832
aI6179
aI6181
aI1822
aI4249
aI4920
aI7833
aI6182
aI4043
aI6058
aI4275
aI64
aI7834
aI6184
aI4043
aI5872
aI4271
aI7694
aI7835
aI1748
aI4043
aI6185
aI4197
aI7836
aI6186
aI4043
aI6188
aI2808
aI7837
aI6189
aI4043
aI6188
aI6185
aI168
aI6191
aI4043
aI6155
aI4271
aI7838
aI6192
aI6194
aI18
aI7839
aI6195
aI6196
aI64
aI7840
aI6197
aI6199
aI6200
aI934
aI7841
aI6201
aI7842
aI4218
aI51
aI7843
aI7844
aI7845
aI2808
aI1352
aI7846
aI6782
aI6206
aI5942
aI4442
aI7847
aI6207
aI6209
aI6210
aI934
aI7848
aI6211
aI500
aI933
aI2817
aI7849
aI6213
aI7850
aI51
aI7851
aI7852
aI3862
aI934
aI7853
aI6215
aI800
aI6220
aI51
aI7854
aI6221
aI7855
aI1661
aI7856
aI7857
aI6223
aI4228
aI2817
aI7858
aI6224
aI6226
aI21
aI5855
aI7859
aI6227
aI6229
aI2643
aI4442
aI7860
aI6230
aI5991
aI3433
aI6232
aI7861
aI4188
aI168
aI6234
aI51
aI7862
aI6235
aI6237
aI6237
aI7863
aI7864
aI6237
aI3160
aI934
aI7865
aI6238
aI7866
aI7867
aI1038
aI7288
aI6240
aI6241
aI7868
aI6242
aI6244
aI4700
aI5076
aI7869
aI6245
aI6244
aI7870
aI4700
aI4651
aI7871
aI4188
aI1860
aI3155
aI4228
aI7872
aI7873
aI6247
aI4396
aI1095
aI7874
aI6248
aI6250
aI188
aI7875
aI6251
aI6253
aI4228
aI51
aI7876
aI6254
aI6256
aI6257
aI934
aI7877
aI6258
aI6260
aI936
aI64
aI7878
aI6261
aI7879
aI2578
aI7880
aI7881
aI6263
aI4296
aI64
aI7882
aI6264
aI3408
aI6266
aI6267
aI290
aI6268
aI7883
aI6269
aI6271
aI64
aI7884
aI6272
aI7885
aI7886
aI64
aI7887
aI5762
aI6274
aI51
aI7888
aI6275
aI7889
aI114
aI64
aI7890
aI7891
aI7892
aI80
aI7893
aI7894
aI1829
aI6283
aI51
aI7895
aI6284
aI6286
aI64
aI7896
aI6287
aI6286
aI64
aI5076
aI7897
aI6289
aI2853
aI64
aI7898
aI6294
aI277
aI2400
aI4396
aI1095
aI7899
aI7900
aI277
aI7901
aI7791
aI3408
aI7902
aI7903
aI6296
aI64
aI7904
aI6297
aI2115
aI6299
aI4399
aI5302
aI7905
aI7906
aI2115
aI6299
aI1243
aI51
aI7907
aI6300
aI6302
aI6303
aI51
aI7908
aI6304
aI6306
aI51
aI7909
aI6307
aI6309
aI51
aI7910
aI6310
aI6312
aI4700
aI934
aI7911
aI6313
aI6315
aI51
aI7912
aI6316
aI6318
aI2817
aI7913
aI6319
aI5224
aI1713
aI7914
aI7915
aI454
aI5472
aI934
aI7916
aI7917
aI1776
aI955
aI2817
aI849
aI6321
aI3594
aI934
aI2817
aI7918
aI6323
aI7919
aI4399
aI7920
aI7921
aI4867
aI493
aI51
aI7922
aI6325
aI2986
aI6327
aI934
aI7923
aI6328
aI348
aI1243
aI7924
aI6330
aI6332
aI215
aI4274
aI7400
aI6333
aI7925
aI51
aI7420
aI915
aI7926
aI7927
aI80
aI51
aI4228
aI7928
aI6335
aI983
aI936
aI64
aI7929
aI7930
aI6337
aI802
aI7931
aI6338
aI6340
aI6341
aI10
aI4442
aI7932
aI6342
aI6344
aI934
aI7933
aI6345
aI6347
aI64
aI7934
aI6348
aI6350
aI64
aI7935
aI6351
aI3293
aI6353
aI4229
aI915
aI7936
aI6354
aI6356
aI1784
aI51
aI7937
aI6357
aI1908
aI6359
aI7938
aI6360
aI7939
aI51
aI7940
aI7941
aI2624
aI7942
aI51
aI7369
aI7943
aI2624
aI6364
aI4229
aI1546
aI7944
aI6365
aI6367
aI6368
aI4442
aI6369
aI7945
aI6370
aI7946
aI5429
aI51
aI7947
aI7948
aI7949
aI7950
aI6376
aI6378
aI51
aI4442
aI7951
aI6379
aI6381
aI4700
aI4229
aI915
aI7952
aI6382
aI6384
aI64
aI7953
aI6385
aI2285
aI1784
aI934
aI7954
aI6387
aI420
aI934
aI7955
aI6389
aI420
aI6391
aI7956
aI7957
aI6392
aI1315
aI998
aI7958
aI6394
aI6398
aI499
aI7959
aI6399
aI6398
aI6173
aI4310
aI7960
aI6403
aI3077
aI1352
aI64
aI7961
aI6405
aI6409
aI18
aI7962
aI6410
aI242
aI967
aI3363
aI7963
aI7964
aI242
aI1243
aI7965
aI6414
aI242
aI1460
aI934
aI7966
aI6416
aI7967
aI64
aI7968
aI7969
aI6423
aI10
aI5875
aI6424
aI7970
aI6425
aI6427
aI7971
aI7972
aI7973
aI6427
aI955
aI51
aI7974
aI6428
aI6430
aI5869
aI7975
aI6431
aI6433
aI1491
aI64
aI7976
aI6434
aI497
aI6436
aI51
aI7977
aI6437
aI6439
aI634
aI6440
aI7978
aI6441
aI999
aI934
aI64
aI7979
aI7980
aI999
aI1095
aI51
aI5177
aI7981
aI7982
aI4749
aI934
aI7983
aI7984
aI6443
aI1784
aI64
aI7985
aI6444
aI2689
aI388
aI944
aI7986
aI6446
aI7987
aI5340
aI4228
aI7988
aI7989
aI4310
aI7990
aI934
aI7991
aI7992
aI3700
aI91
aI7993
aI6448
aI6452
aI51
aI7994
aI6453
aI6455
aI51
aI7995
aI6456
aI3652
aI1352
aI64
aI7996
aI7997
aI6458
aI936
aI64
aI7998
aI6459
aI7999
aI64
aI8000
aI8001
aI6464
aI51
aI8002
aI6465
aI6467
aI1552
aI8003
aI6468
aI6470
aI20
aI51
aI8004
aI6471
aI6473
aI2158
aI3678
aI8005
aI6474
aI6476
aI4399
aI8006
aI6477
aI6479
aI64
aI8007
aI6480
aI6489
aI1628
aI8008
aI8009
aI8010
aI6489
aI1628
aI64
aI8011
aI6492
aI6494
aI64
aI5855
aI934
aI8012
aI6495
aI6497
aI64
aI8013
aI6498
aI6500
aI64
aI8014
aI6501
aI866
aI936
aI64
aI8015
aI6503
aI866
aI3658
aI8016
aI6505
aI866
aI5001
aI934
aI8017
aI6507
aI6509
aI64
aI8018
aI6510
aI3418
aI1352
aI64
aI8019
aI8020
aI22
aI6512
aI4296
aI64
aI8021
aI6513
aI6515
aI1896
aI51
aI8022
aI6516
aI6520
aI64
aI8023
aI6521
aI1551
aI934
aI8024
aI6523
aI391
aI3090
aI64
aI8025
aI6525
aI391
aI3090
aI4714
aI3470
aI8026
aI8027
aI391
aI3090
aI4714
aI379
aI8028
aI6527
aI391
aI62
aI934
aI22
aI8029
aI6529
aI8030
aI934
aI8031
aI8032
aI6531
aI6532
aI51
aI8033
aI6533
aI6540
aI51
aI8034
aI6541
aI6543
aI934
aI8035
aI6544
aI5584
aI201
aI6549
aI64
aI8036
aI6550
aI1240
aI4700
aI1609
aI4188
aI8037
aI6560
aI3272
aI8038
aI6561
aI6563
aI4399
aI934
aI8039
aI6564
aI6566
aI6567
aI8040
aI4188
aI84
aI51
aI8041
aI6571
aI6573
aI5340
aI64
aI8042
aI6574
aI6576
aI934
aI8043
aI6577
aI1458
aI936
aI8044
aI8045
aI6579
aI51
aI8046
aI6580
aI8047
aI4399
aI51
aI8048
aI8049
aI3753
aI64
aI8050
aI6582
aI6584
aI1095
aI4249
aI934
aI8051
aI6585
aI6587
aI51
aI8052
aI6588
aI6590
aI4193
aI64
aI8053
aI6591
aI6594
aI3932
aI3435
aI51
aI8054
aI6595
aI6594
aI3932
aI841
aI64
aI8055
aI6597
aI1304
aI18
aI8056
aI6599
aI8057
aI1389
aI4208
aI8058
aI5986
aI6601
aI20
aI8059
aI6602
aI8060
aI64
aI8061
aI8062
aI6604
aI64
aI8063
aI6605
aI2826
aI6098
aI6372
aI8064
aI6608
aI2826
aI447
aI4442
aI8065
aI6610
aI3627
aI3957
aI51
aI8066
aI6612
aI3627
aI6614
aI51
aI8067
aI6615
aI3627
aI51
aI8068
aI8069
aI3627
aI4284
aI934
aI8070
aI6617
aI3627
aI1243
aI51
aI8071
aI6619
aI3627
aI866
aI4551
aI8072
aI8073
aI6621
aI20
aI8074
aI6622
aI2149
aI51
aI8075
aI6624
aI2149
aI4714
aI915
aI4860
aI8076
aI6626
aI186
aI1273
aI39
aI8077
aI6631
aI186
aI6636
aI4429
aI8078
aI6637
aI186
aI5869
aI51
aI8079
aI6639
aI186
aI2759
aI8080
aI6641
aI8081
aI51
aI8082
aI8083
aI1389
aI8084
aI8085
aI6643
aI6646
aI51
aI8086
aI6647
aI6646
aI6649
aI51
aI8087
aI6650
aI6652
aI51
aI8088
aI6653
aI6655
aI107
aI8089
aI6656
aI6661
aI21
aI64
aI8090
aI6662
aI6664
aI51
aI8091
aI6665
aI6667
aI51
aI8092
aI6668
aI8093
aI51
aI8094
aI8095
aI8096
aI51
aI8097
aI8098
aI6670
aI64
aI8099
aI6671
aI6673
aI51
aI8100
aI6674
aI1341
aI4652
aI51
aI8101
aI6679
aI8102
aI4399
aI8103
aI2626
aI6684
aI6685
aI4267
aI8104
aI8105
aI6694
aI4787
aI64
aI8106
aI6695
aI6697
aI51
aI8107
aI6698
aI617
aI944
aI8108
aI6700
aI8109
aI8110
aI8111
aI8112
aI6701
aI4655
aI934
aI8113
aI6702
aI6704
aI107
aI64
aI8114
aI6705
aI8115
aI4111
aI8116
aI8117
aI4060
aI944
aI64
aI8118
aI6716
aI6718
aI934
aI8119
aI6719
aI483
aI484
aI934
aI8120
aI6721
aI3090
aI3499
aI934
aI8121
aI6723
aI907
aI3601
aI4249
aI8122
aI6725
aI3441
aI39
aI8123
aI6727
aI6729
aI926
aI4760
aI8124
aI6730
aI8125
aI266
aI64
aI8126
aI8127
aI4566
aI64
aI8128
aI6732
aI100
aI6734
aI934
aI8129
aI6735
aI6739
aI5107
aI8130
aI6740
aI841
aI107
aI64
aI8131
aI8132
aI5280
aI4396
aI5302
aI2635
aI6742
aI5280
aI3627
aI51
aI8133
aI6743
aI3944
aI6745
aI8134
aI6746
aI6751
aI51
aI8135
aI6752
aI6757
aI8136
aI6758
aI6760
aI51
aI8137
aI6761
aI6763
aI51
aI8138
aI6764
aI8139
aI64
aI6750
aI8140
aI6766
aI6767
aI64
aI8141
aI6768
aI2177
aI4296
aI64
aI8142
aI6770
aI6772
aI6773
aI4442
aI8143
aI6774
aI6775
aI51
aI8144
aI6776
aI6778
aI944
aI8145
aI6779
aI6784
aI4399
aI8146
aI6785
aI6784
aI6173
aI4310
aI6693
aI8147
aI6787
aI18
aI8148
aI6788
aI6790
aI51
aI4700
aI8149
aI6791
aI8150
aI64
aI8151
aI4816
aI8152
aI712
aI64
aI8153
aI8154
aI6797
aI934
aI1609
aI4282
aI8155
aI6798
aI8156
aI8157
aI1899
aI4229
aI1546
aI8158
aI8159
aI3442
aI51
aI8160
aI6803
aI6805
aI51
aI8161
aI6806
aI6808
aI51
aI8162
aI6809
aI6811
aI1896
aI8163
aI6812
aI6811
aI4395
aI384
aI8164
aI6814
aI8165
aI51
aI8166
aI8167
aI76
aI6823
aI3746
aI412
aa(lp82
I22
aI1802
aI3546
aI18
aI2360
aI1562
aI178
aI241
aI2910
aI10
aI8168
aI508
aI3545
aI8169
aI391
aI130
aI3628
aI118
aI391
aI972
aI314
aI22
aI8170
aI241
aI2910
aI10
aI1321
aI3723
aI1648
aI1175
aI802
aI8171
aI1066
aI1399
aI1251
aI15
aI8172
aI147
aI2910
aI8173
aI75
aI3088
aI1802
aI3546
aI3
aI22
aI10
aI241
aI8171
aI1276
aI885
aI1802
aI3546
aI3511
aI3512
aI18
aI427
aI310
aI2910
aI10
aI3511
aI3512
aI33
aI1201
aI1202
aI2360
aI241
aI473
aI1276
aI392
aa(lp83
I981
aI3247
aI8174
aI910
aI792
aI3512
aI18
aI343
aI186
aI2859
aI742
aI8175
aI170
aI105
aI8176
aI124
aI8177
aI8178
aI8179
aI8180
aI2501
aI8181
aI668
aI8182
aI270
aI1204
aI188
aI8183
aI810
aI793
aI769
aI3450
aI1422
aI810
aI793
aI2347
aI22
aI362
aI8184
aI8185
aI3
aI684
aI981
aI496
aa(lp84
I1686
aI223
aI239
aI5314
aI3470
aI8186
aI681
aI475
aI8187
aI229
aI3535
aI229
aI107
aI10
aI217
aI602
aI8188
aI182
aI88
aI508
aI2150
aI1113
aI1554
aI8189
aI8190
aI1206
aI1115
aI103
aI653
aI481
aI8186
aI3
aI1113
aI333
aI921
aI506
aI118
aI1008
aI8191
aI3961
aI1404
aI1460
aa(lp85
I2865
aI18
aI345
aI4
aI788
aI39
aI475
aI8192
aI1841
aI4073
aI629
aI8193
aI375
aI2229
aI431
aI1622
aI8194
aI8195
aI629
aI8196
aI475
aI1354
aI8197
aI165
aI3118
aI1672
aI2229
aI33
aI120
aI642
aI790
aI8
aI1498
aI2565
aI1815
aI1009
aI3983
aI1841
aI141
aI107
aI1366
aI85
aI525
aa(lp86
I222
aI802
aI964
aI8198
aI68
aI266
aI223
aI434
aI947
aI1104
aI8199
aI431
aI1779
aI8200
aI223
aI239
aI1362
aI266
aI2527
aI3721
aI2870
aI2183
aI282
aI283
aI191
aI1940
aI8201
aI609
aI3849
aI1788
aI8202
aI861
aI388
aI4163
aI8203
aI76
aI8204
aI2000
aI4165
aI8205
aI468
aI1598
aI1354
aI8206
aI191
aI591
aI39
aI3039
aI8207
aI1878
aI8208
aI712
aI3344
aa(lp87
I22
aI68
aI266
aI3909
aI479
aI552
aI187
aI170
aI552
aI614
aI569
aI883
aI8209
aI2186
aI4
aI68
aI253
aI8210
aI390
aI977
aI499
aI1866
aI8211
aI8212
aI6
aI1049
aI375
aI415
aI1055
aI2885
aI3885
aI187
aI8213
aI2020
aI2588
aI20
aI229
aI690
aI442
aI8214
aI486
aI187
aI188
aI3971
aI4046
aI1571
aI542
aI10
aI217
aI68
aI291
aI1462
aI36
aI8215
aI160
aI3632
aI8216
aI2139
aI3705
aa(lp88
I22
aI1802
aI3546
aI18
aI2001
aI508
aI3545
aI3511
aI3512
aI18
aI3
aI4
aI5
aI3481
aI318
aI427
aI238
aI2910
aI10
aI8168
aI1658
aI3628
aI391
aI972
aI241
aI22
aI107
aI3
aI458
aI40
aI652
aI3794
aI3213
aI5
aI581
aI1791
aI970
aI241
aI1583
aI233
aI22
aI40
aI1018
aI1989
aI2002
aI1540
aI318
aI412
aI1276
aI2866
aI8217
aI1802
aI3546
aI3
aa(lp89
I22
aI3511
aI3512
aI18
aI862
aI3510
aI1610
aI18
aI346
aI3510
aI1838
aI2866
aI178
aI8218
aI783
aI2658
aI342
aI1011
aI628
aI107
aI8219
aI273
aI508
aI783
aI3511
aI580
aI624
aI130
aI336
aI867
aI277
aI8220
aI2584
aI175
aI3511
aI383
aI3510
aI348
aI783
aI1459
aI10
aI3526
aI3213
aI114
aI3510
aI2038
aI3511
aI75
aI1039
aI25
aI1460
aI186
aa(lp90
I22
aI1802
aI3546
aI18
aI508
aI3545
aI156
aI4
aI287
aI310
aI8221
aI2
aI18
aI3415
aI178
aI840
aI107
aI449
aI8222
aI8223
aI796
aI91
aI80
aI375
aI22
aI157
aI411
aI2065
aI3639
aI1035
aI1274
aI542
aI8224
aI508
aI1661
aI498
aI8225
aI3726
aI721
aI1896
aI114
aI22
aI3639
aI284
aI156
aI1433
aI1838
aI63
aI178
aI281
aI2774
aI508
aI3545
aI1790
aI947
aI25
aI2407
aI213
aI3639
aI2774
aI3958
aI91
aa(lp91
I22
aI508
aI3545
aI3511
aI3512
aI566
aI252
aI656
aI153
aI1932
aI465
aI282
aI283
aI695
aI246
aI1168
aI75
aI22
aI107
aI3
aI294
aI845
aI401
aI656
aI8226
aI1352
aa(lp92
I22
aI3511
aI3512
aI18
aI3
aI4
aI287
aI134
aI3741
aI15
aI1896
aI79
aI114
aI375
aI8227
aI840
aI8228
aI1056
aI8229
aI8230
aI39
aI37
aI3511
aI33
aI1201
aI1202
aI3
aI287
aI134
aI626
aI186
aI1638
aI606
aI8231
aI15
aI2714
aI8232
aI3379
aI1686
aI351
aI114
aI8233
aI91
aI1680
aI114
aI921
aI920
aI8234
aI8235
aI22
aI157
aI864
aI623
aI865
aI465
aI318
aI1474
aI107
aI3
aI3511
aI802
aI8236
aI508
aI3545
aI3
aI8237
aI625
aI573
aI375
aI263
aa(lp93
I128
aI238
aI428
aI8238
aI1459
aI1648
aI1175
aI3959
aI3668
aI1802
aI3546
aI18
aI3
aI4
aI5
aI159
aI2910
aI10
aI8168
aI64
aI3415
aI178
aI626
aI22
aI157
aI864
aI865
aI71
aI3639
aI3794
aI652
aI287
aI1106
aI1802
aI3546
aI1484
aI1459
aI236
aI8239
aI508
aI1695
aI695
aI3
aI287
aI315
aI8240
aI399
aI974
aI3668
aI8241
aI1684
aI1695
aI1499
aI933
aI3766
aa(lp94
I22
aI3511
aI3512
aI18
aI3
aI153
aI287
aI2360
aI42
aI239
aI3415
aI178
aI669
aI238
aI2910
aI10
aI8168
aI22
aI1331
aI2360
aI153
aI1330
aI1313
aI1399
aI1665
aI15
aI75
aI2910
aI10
aI67
aI68
aI3088
aa(lp95
I22
aI508
aI3545
aI1802
aI3546
aI18
aI3
aI4
aI2360
aI3088
aI241
aI75
aI2910
aI10
aI8168
aI64
aI1635
aI1049
aI970
aI314
aI482
aI1802
aI3546
aI324
aI2001
aI3511
aI3512
aI18
aI653
aI2910
aI10
aI2360
aI241
aI1583
aI1803
aI478
aI317
aI8171
aI1330
aI233
aI1399
aI8242
aI15
aI2910
aI10
aI75
aI3088
aI1802
aI3546
aI1330
aI233
aI1556
aI3555
aI56
aI75
aI1068
aI107
aI3
aI223
aI239
aI3511
aI2360
aI241
aI2910
aI10
aI1583
aI402
aI3
aI8243
aI15
aI75
aI3088
aI22
aI145
aI314
aI1802
aI3546
aI3511
aI623
aI972
aI3794
aI3213
aI652
aa(lp96
I22
aI508
aI3545
aI3511
aI3512
aI18
aI3
aI4
aI2360
aI3088
aI241
aI1068
aI75
aI2910
aI10
aI8168
aI64
aI3794
aI652
aI197
aI631
aI79
aI314
aI3415
aI178
aI2093
aI3511
aI33
aI1201
aI1202
aI3
aI2360
aI3088
aI241
aI2910
aI10
aI8222
aI8244
aI1330
aI290
aI296
aI2306
aI233
aI1331
aI22
aI107
aI241
aI76
aI291
aI2910
aI1068
aI75
aI2545
aI626
aI68
aa(lp97
I22
aI1802
aI3546
aI18
aI2360
aI1562
aI178
aI626
aI241
aI2910
aI10
aI8168
aI1330
aI413
aI130
aI3803
aI3628
aI197
aI79
aI314
aI22
aI8170
aI241
aI2910
aI10
aI8171
aI1066
aI1399
aI7065
aI15
aI8245
aI147
aI2910
aI10
aI75
aI3088
aI1802
aI3546
aI3
aI1802
aI3546
aI33
aI288
aI2105
aI46
aI72
aI8246
aI3298
aI1055
aI1483
aI8247
aI8248
aI6532
aI2001
aI3511
aI3512
aI18
aI33
aI1201
aI1202
aI8249
aI2910
aI10
aI160
aI376
aI8248
aI8168
aI2910
aI10
aI33
aI13
aI165
aI550
aI3
aI1684
aI238
aI1802
aI3546
aa(lp98
I22
aI3511
aI3512
aI18
aI156
aI1162
aI2389
aI178
aI68
aI241
aI153
aI3753
aI18
aI267
aI428
aI802
aI798
aI3450
aI3526
aI3545
aI508
aI1035
aI1306
aI3286
aI1209
aI647
aI3511
aI381
aI8250
aI8251
aI1593
aI2438
aI473
aI1158
aI915
aI8252
aI3753
aI8253
aI381
aI8254
aI1040
aI8255
aI400
aI672
aI241
aI71
aI3079
aI3511
aI67
aI68
aI75
aI3753
aI2247
aI147
aI1150
aI33
aI3753
aI318
aI253
aI8256
aI473
aI3511
aI287
aI315
aI782
aI1637
aI178
aI806
aa(lp99
I978
aI1158
aI915
aI8252
aI465
aI1247
aI754
aI793
aI521
aI2046
aI163
aI1055
aI547
aI39
aI8257
aI1049
aI1006
aI3556
aI1297
aI4123
aI3270
aI808
aI475
aI791
aI792
aI907
aI37
aI3753
aI18
aI3953
aI10
aI1134
aI793
aI287
aI442
aI1812
aI3753
aI1049
aI287
aI442
aI8258
aI2920
aI204
aI839
aI107
aa(lp100
I22
aI3511
aI3512
aI18
aI156
aI1162
aI2389
aI178
aI68
aI241
aI3753
aI18
aI267
aI428
aI802
aI798
aI3450
aI3526
aI3545
aI695
aI102
aI475
aI3
aI3511
aI439
aI2001
aI3510
aI1610
aI1446
aI2527
aI281
aI163
aI3464
aI1323
aI465
aI1593
aI508
aI3545
aI802
aI8259
aI1209
aI647
aI1905
aI1276
aI1688
aI1210
aa(lp101
I22
aI3511
aI3512
aI18
aI508
aI3545
aI1079
aI42
aI314
aI153
aI333
aI653
aI71
aI823
aI3753
aI64
aI1510
aI8260
aI3753
aI400
aI8261
aI2389
aI178
aI2093
aI241
aI22
aI314
aI88
aI3753
aI120
aI3738
aI376
aI204
aI1097
aI3511
aI8262
aI1162
aI238
aI1106
aI3511
aI2832
aI2841
aI20
aI79
aa(lp102
I3753
aI64
aI2375
aI71
aI4
aI1160
aI42
aI314
aI476
aI3511
aI3512
aI18
aI476
aI413
aI178
aI2093
aI238
aI3753
aI22
aI314
aI599
aI348
aI291
aI1194
aI624
aI223
aI239
aI88
aI3753
aI400
aI257
aI3511
aI8263
aI20
aI79
aI65
aI3738
aI376
aI204
aI972
aI3511
aI8262
aI2093
aI238
aI22
aI238
aI2866
aI75
aI3753
aI1045
aI266
aI388
aI3753
aI971
aI1160
aI3511
aI241
aI2217
aI199
aI88
aI1161
aI314
aI1759
aI460
aI61
aI19
aI186
aI6
aI3753
aI3754
aI114
aI21
aI3753
aI33
aI4122
aI3511
aI33
aI1201
aI1202
aa(lp103
I223
aI288
aI1446
aI238
aI1052
aI8264
aI616
aI2870
aI3533
aI8265
aI152
aI178
aI8266
aI783
aI2645
aI1763
aI1283
aI211
aI2001
aI3510
aI1610
aI1913
aI19
aI1446
aI333
aI211
aI2737
aI3181
aI493
aI2282
aI3668
aI3669
aI8264
aI223
aI10
aI3497
aI190
aI3533
aI434
aI281
aI92
aI1115
aI119
aI1446
aI8267
aI37
aI120
aI212
aI8268
aI22
aI107
aI840
aI161
aI1802
aI8259
aI1283
aI3176
aI8269
aI1648
aa(lp104
I22
aI3511
aI3512
aI18
aI802
aI451
aI508
aI3545
aI5
aI159
aI3753
aI64
aI3743
aI178
aI68
aI4
aI157
aI625
aI3511
aI1256
aI845
aI3510
aI1610
aI18
aI1446
aI107
aI22
aI3753
aI157
aI1106
aI3511
aI264
aI427
aI560
aI10
aI130
aI783
aI1232
aI348
aI1056
aI1896
aI4083
aI8270
aI145
aI107
aI33
aI1201
aI1202
aI422
aI163
aI646
aI3803
aI353
aI3764
aI333
aI3510
aI653
aI3511
aI2282
aI3511
aI8271
aI10
aI3902
aI1407
aI272
aI2093
aa(lp105
I22
aI3511
aI3512
aI18
aI8272
aI1076
aI159
aI2001
aI508
aI3545
aI3753
aI18
aI8273
aI178
aI3
aI4
aI3027
aI458
aI8274
aI40
aI287
aI977
aI3753
aI20
aI292
aI3237
aI3511
aI3512
aI3
aI40
aI955
aI2219
aI439
aI8275
aI8276
aI1381
aI8277
aI3511
aI3512
aI315
aI1359
aI3753
aI71
aI8260
aI107
aI204
aI1097
aI238
aI127
aI1149
aI75
aI3753
aI712
aI822
aI823
aI2222
aI3753
aI33
aI4122
aI1160
aI3511
aI3512
aI238
aI1217
aI1731
aI3511
aI3512
aI33
aI1201
aI1202
aI608
aI238
aI2389
aI178
aI239
aI646
aa(lp106
I3753
aI3
aI4
aI458
aI8274
aI40
aI162
aI389
aI8278
aI42
aI552
aI71
aI1554
aI39
aI75
aI8274
aI20
aI79
aI3511
aI3512
aI18
aI476
aI8273
aI178
aI238
aI2112
aI3753
aI3
aI3511
aI3512
aI8279
aI2261
aI1654
aI8278
aI458
aI8274
aI40
aI8280
aI40
aI1106
aI578
aI2002
aI2832
aI8274
aI20
aI79
aI3753
aI3
aI241
aI3511
aI33
aI1201
aI1202
aI1731
aI3753
aI508
aI3545
aI33
aI4122
aa(lp107
I3753
aI64
aI602
aI571
aI2093
aI238
aI3511
aI3512
aI18
aI2375
aI71
aI4
aI653
aI2084
aI972
aI314
aI3511
aI608
aI238
aI8273
aI178
aI2389
aI178
aI668
aI3753
aI3450
aI3526
aI1321
aI33
aI4122
aI1160
aI2217
aI238
aI1161
aI22
aI10
aI241
aI388
aI1149
aI75
aI1289
aI2512
aI238
aI3079
aI75
aI3511
aI3512
aI508
aI3545
aI33
aI1201
aI1202
aI120
aI76
aI1803
aI1331
aI241
aI751
aI1160
aa(lp108
I22
aI3511
aI3512
aI18
aI3
aI4
aI287
aI334
aI867
aI335
aI1658
aI3753
aI64
aI3481
aI823
aI3511
aI2513
aI178
aI669
aI238
aI107
aI76
aI1803
aI22
aI823
aI2512
aI120
aI918
aI254
aI71
aI2082
aI314
aI476
aI3511
aI287
aI1658
aI1442
aI159
aI3753
aI75
aI3511
aI315
aI1433
aI3753
aI1658
aI71
aI8281
aI2082
aI901
aI2514
aI8282
aI2082
aI3753
aI317
aI712
aI822
aI823
aI857
aI4122
aI33
aI3511
aI33
aI1201
aI1202
aI3071
aI3753
aI289
aI23
aI508
aI3535
aI1896
aa(lp109
I22
aI3511
aI3512
aI18
aI3
aI4
aI8283
aI1055
aI3481
aI362
aI8284
aI2281
aI8285
aI287
aI3271
aI8286
aI587
aI3511
aI1052
aI8222
aI10
aI2488
aI8287
aI8288
aI900
aI508
aI3545
aI465
aI156
aI614
aI1146
aI8289
aI854
aI2307
aI1368
aa(lp110
I68
aI360
aI4
aI2550
aI624
aI8290
aI252
aI665
aI3511
aI3512
aI8291
aI120
aI8292
aI8293
aI282
aI283
aI2518
aI1259
aI656
aI566
aI22
aI266
aI2360
aI223
aI239
aI569
aI191
aI1836
aI1906
aI568
aI656
aI8294
aI1146
aI2281
aI8285
aI8295
aI85
aI8296
aI436
aI720
aI107
aI665
aI432
aI664
aI68
aI1911
aI2191
aI3511
aI3
aI2281
aI287
aI1838
aI1618
aI587
aI3564
aI1321
aI8291
aI3
aI23
aI287
aI288
aI296
aI2220
aa(lp111
I22
aI3511
aI3512
aI18
aI8297
aI178
aI2093
aI3753
aI64
aI8298
aI3803
aI1071
aI431
aI508
aI3545
aI637
aI632
aI3516
aI2832
aI1460
aI42
aI107
aI60
aI3639
aI543
aI145
aI2150
aI3
aI22
aI353
aI608
aI3510
aI1610
aI18
aI493
aI2282
aI3668
aI8218
aI802
aI8299
aI1498
aI159
aI1023
aI3450
aI3
aI1557
aI8300
aI3639
aI8301
aI145
aI8302
aI353
aI3
aI205
aI1184
aI8298
aa(lp112
I3753
aI64
aI508
aI3545
aI284
aI5
aI48
aI3511
aI3512
aI3743
aI178
aI318
aI157
aI6
aI4118
aI375
aI21
aI20
aI290
aI178
aI475
aI318
aI8303
aI3
aI4
aI3753
aI267
aI1782
aI157
aI42
aI1006
aI887
aI2112
aI2159
aI21
aI3065
aI21
aI6
aI186
aI340
aI239
aI475
aI3
aI1113
aI8304
aI1021
aI1078
aI320
aI288
aI1497
aI3481
aa(lp113
I22
aI1802
aI1483
aI107
aI5
aI159
aI8305
aI186
aI3753
aI289
aI23
aI8229
aI1459
aI1204
aI4120
aI102
aI1718
aI599
aI8305
aI33
aI8306
aI44
aI428
aI19
aI1968
aI3379
aI375
aI980
aI4878
aI102
aI114
aI186
aI4878
aI102
aI114
aI33
aI8307
aI3444
aI257
aI2637
aI178
aI1802
aI1483
aI8308
aI178
aI23
aI223
aI163
aI1802
aI1483
aI33
aI2410
aI3444
aI3753
aI33
aI4122
aI5
aI223
aI199
aI310
aI3511
aI3512
aI18
aI1201
aI1202
aI3
aI6
aI460
aI3753
aI375
aa(lp114
I8309
aI2885
aI8310
aI8311
aI8312
aI3030
aI8313
aI2639
aI8314
aI287
aI118
aI383
aI2790
aI186
aI175
aI1049
aI673
aI375
aI1121
aI2759
aI693
aI88
aI8315
aI18
aI22
aI8315
aI375
aI1743
aI481
aI8312
aI3144
aI442
aI56
aI72
aI673
aI8316
aI2322
aI8317
aI478
aI8313
aI487
aI2759
aI107
aI92
aI223
aI76
aI8318
aI8319
aI8315
aI3450
aI221
aI8320
aI15
aI634
aI1180
aI8321
aI1784
aI186
aI175
aI159
aI10
aI2759
aI3450
aI3578
aI8322
aI2285
aI1476
aa(lp115
I798
aI22
aI10
aI217
aI68
aI291
aI566
aI4
aI285
aI389
aI2787
aI392
aI147
aI4151
aI297
aI340
aI1276
aI232
aI285
aI389
aI273
aI75
aI48
aI285
aI191
aI1362
aI408
aa(lp116
I22
aI130
aI1049
aI2634
aI783
aI4
aI839
aI3521
aI1052
aI1896
aI235
aI114
aI807
aI270
aI2865
aI171
aI489
aI1646
aI1696
aI802
aI22
aI783
aI652
aI235
aI1919
aI80
aI3893
aI574
aI586
aI1037
aI1491
aI91
aI235
aI256
aI22
aI783
aI167
aI8323
aI15
aI8324
aI947
aI839
aI21
aI343
aI8325
aI1491
aI4790
aI18
aI8326
aI3511
aI3512
aI947
aI270
aa(lp117
I1179
aI994
aI1106
aI542
aI748
aI2964
aI180
aI655
aI8327
aI764
aI1264
aI3926
aI8328
aI547
aI655
aI2065
aI264
aI1264
aI23
aI102
aI1834
aI107
aI162
aI1179
aI994
aI599
aI163
aI2145
aI318
aI8329
aI2964
aI723
aI1274
aI802
aI56
aI1264
aI333
aI552
aI8330
aI25
aI331
aI748
aI552
aI163
aI2139
aI3888
aI2092
aI2295
aI23
aI2551
aI8331
aI8332
aI128
aI566
aI1367
aI153
aI1049
aI220
aI1498
aI2580
aI8260
aI3638
aI2339
aI2092
aI508
aI8333
aI3002
aI23
aI2551
aI8334
aI947
aI384
aI1626
aI566
aI1217
aI8335
aI752
aI508
aI986
aI3705
aI3511
aI85
aI3639
aI383
aI2281
aI3480
aI3511
aI3512
aI1052
aI1695
aI3668
aI6532
aI8287
aI1932
aI8336
aI162
aI8283
aI2281
aI8285
aI8337
aI92
aI1746
aI8338
aI3511
aI85
aI383
aI96
aI1009
aI3639
aI3705
aI650
aI240
aI3559
aI1101
aI1321
aI3559
aI1101
aI1321
aI2219
aI266
aI171
aI1114
aI91
aI322
aI486
aI632
aI85
aI10
aI240
aI1628
aI1576
aI396
aI1802
aI229
aI91
aI449
aI8339
aI8316
aI505
aI486
aI3705
aI3735
aI1659
aI8226
aI230
aI1350
aI2051
aI771
aI287
aI8340
aI22
aI3735
aI1659
aI230
aI8341
aI3578
aI345
aI577
aI114
aI107
aI8226
aI333
aI92
aI2051
aI771
aI88
aI230
aI1161
aI8342
aI998
aI102
aI351
aI792
aI3712
aI439
aI8340
aI160
aI1045
aI89
aI3705
aI8290
aI1039
aI1838
aI314
aI823
aI3627
aI3886
aI8290
aI61
aI19
aI1459
aI314
aI3808
aI8343
aI1039
aI186
aI175
aI2214
aI2550
aI2092
aI3627
aI8344
aI333
aI8345
aI8346
aI1016
aI792
aI8347
aI3
aI8290
aI241
aI3627
aI776
aI1165
aI169
aI8348
aI1959
aI2550
aI867
aI205
aI2707
aI1433
aI1782
aI40
aI3
aI4018
aI3993
aI5126
aI350
aI695
aI2378
aI348
aI3628
aI2378
aI5126
aI348
aI3993
aI223
aI1510
aI8349
aI8350
aI8351
aI350
aI695
aI1217
aI3373
aI1237
aI8352
aI804
aI31
aI2112
aI947
aI1770
aI1815
aI858
aI695
aI3
aI266
aI438
aI4018
aI3735
aI1554
aI933
aI475
aI8353
aI8354
aI3735
aI8278
aI663
aI162
aI933
aI475
aI3169
aI1324
aI476
aI3638
aI223
aI239
aI3275
aI791
aI792
aI8355
aI8356
aI4399
aI2311
aI2282
aI4018
aI1834
aI2861
aI360
aI2035
aI987
aI4396
aI253
aI365
aI22
aI1834
aI2861
aI1067
aI207
aI1279
aI365
aI8175
aI1181
aI293
aI1042
aI2306
aI302
aI8357
aI253
aI360
aI2711
aI1368
aI1049
aI566
aI4018
aI8358
aI1782
aI1459
aI157
aI2529
aI943
aI154
aI1237
aI289
aI8359
aI2529
aI943
aI8360
aI5421
aI693
aI8358
aI5
aI75
aI1484
aI1460
aI23
aI2517
aI8361
aI4790
aI1723
aI107
aI3185
aI22
aI40
aI3818
aI783
aI2930
aI107
aI281
aI1049
aI505
aI486
aI1841
aI8362
aI8360
aI2521
aI2528
aI2529
aI8363
aI8364
aI1476
aI798
aI1919
aI8365
aI8366
aI414
aI865
aI10
aI8367
aI4016
aI8368
aI915
aI4016
aI8367
aI586
aI8369
aI1210
aI8370
aI8371
aI865
aI414
aI479
aI623
aI865
aI2599
aI8368
aI8372
aI486
aI1064
aI459
aI8366
aI5057
aI8373
aI8374
aI933
aI459
aI22
aI5057
aI5795
aI18
aI141
aI8373
aI8374
aI8375
aI933
aI107
aI333
aI459
aI171
aI487
aI449
aI933
aI2491
aI8376
aI1049
aI351
aI653
aI1135
aI40
aI1782
aI340
aI163
aI8366
aI1201
aI1202
aI391
aI333
aI8377
aI573
aI22
aI1201
aI1202
aI391
aI3
aI333
aI273
aI1838
aI8378
aI930
aI24
aI1036
aI8379
aI8377
aI1039
aI8380
aI56
aI68
aI1856
aI742
aI2066
aI68
aI2066
aI1802
aI1533
aI2191
aI8381
aI1731
aI933
aI253
aI380
aI22
aI299
aI360
aI8382
aI523
aI8383
aI242
aI8384
aI8385
aI1856
aI380
aI8386
aI523
aI8387
aI2121
aI380
aI1674
aI8388
aI4011
aa(lp118
I1120
aI802
aI331
aI508
aI3545
aI427
aI75
aI487
aI1648
aI1135
aI532
aI915
aI10
aI2495
aI3533
aI493
aI2282
aI572
aI174
aI178
aI22
aI1120
aI107
aI624
aI8389
aI314
aI1049
aI924
aI25
aI8390
aI8391
aI3169
aI287
aI3181
aI1224
aI3691
aI493
aI2282
aI1045
aI8392
aI3533
aI22
aI314
aI1283
aI88
aI2538
aI8393
aI3533
aI8394
aI47
aI107
aI521
aI15
aI1323
aI591
aI8395
aI2534
aI1135
aI66
aI1872
aI478
aI8396
aI66
aI3
aI8397
aI4652
aI914
aI1802
aI39
aI1802
aI3546
aI18
aI25
aI8319
aI22
aI0
aI3547
aI3548
aI625
aI3691
aI1446
aI3512
aI3510
aI3511
aI6253
aI2
aa(lp119
I22
aI10
aI217
aI68
aI291
aI566
aI4
aI285
aI389
aI380
aI3557
aI15
aI75
aI177
aI147
aI199
aI340
aI1044
aI885
aI292
aI8398
aI15
aI75
aI22
aI296
aI303
aI3685
aI15
aI75
aI120
aI1569
aI392
aI3860
aI128
aI297
aI285
aI389
aI190
aI68
aI291
aI8399
aI75
aI8400
aI15
aI75
aI22
aI1206
aI96
aI400
aI107
aI2574
aI845
aI1214
aa(lp120
I190
aI107
aI1940
aI8401
aI1576
aI1633
aI8402
aI3803
aI3628
aI525
aI260
aI261
aI1783
aI804
aI459
aI8403
aI1067
aI1064
aI18
aI1049
aI2150
aI222
aI479
aI391
aI2150
aI308
aI1783
aI1369
aI8404
aI157
aI8405
aI1071
aI1484
aI8406
aI1135
aI320
aI664
aI10
aI1460
aI3861
aI1499
aI578
aI22
aI1135
aI976
aI171
aI331
aI107
aI8407
aI8326
aI866
aI3658
aI1491
aI693
aI672
aI1903
aI804
aI18
aI1446
aI1802
aI3546
aI3512
aI1011
aI885
aI107
aI1410
aI547
aI459
aI1491
aI1093
aI508
aI1135
aI506
aI5364
aI2756
aI19
aI6017
aI8408
aI21
aa(lp121
I42
aI163
aI646
aI3668
aI2872
aI2748
aI10
aI8409
aI8410
aI3871
aI3533
aI1283
aI320
aI119
aI3460
aI2130
aI8411
aI3181
aI333
aI92
aI3344
aI119
aI2863
aI2130
aI2859
aI361
aI1439
aI1648
aI362
aI8412
aI8413
aI8414
aI22
aI8412
aI664
aI3181
aI8415
aI2787
aI2145
aI3547
aI3548
aI3511
aI476
aI10
aI1283
aI616
aI783
aI2145
aI3668
aI66
aI1498
aI8416
aI8409
aI459
aI1459
aI2873
aI400
aI1791
aI2748
aI1178
aI635
aI206
aI2930
aI3547
aI3548
aI5
aI134
aI2441
aI3181
aI2871
aI2458
aI572
aI1616
aI15
aI1350
aI8417
aI3
aI1860
aI3470
aI1165
aI18
aI791
aI792
aI136
aI2748
aI2872
aI2993
aI720
aI92
aI3286
aa(lp122
I22
aI10
aI217
aI68
aI291
aI566
aI4
aI285
aI389
aI380
aI2812
aI15
aI75
aI1242
aI147
aI199
aI340
aI2306
aI392
aI292
aI8418
aI15
aI75
aI22
aI296
aI303
aI8419
aI15
aI75
aI120
aI223
aI199
aI22
aI285
aI389
aI297
aI163
aI2217
aI8420
aI15
aI75
aI128
aI297
aI285
aI389
aI190
aI68
aI291
aI360
aI1561
aI15
aI75
aI8421
aI15
aI75
aI22
aI292
aI2113
aI15
aI75
aI120
aI223
aI199
aI915
aI285
aI399
aI664
aI23
aI2565
aI68
aI267
aI159
aI1071
aI321
aI3317
aI252
aI253
aI408
aI23
aa(lp123
I42
aI3018
aI3535
aI102
aI693
aI89
aI581
aI493
aI2282
aI783
aI161
aI1802
aI3533
aI1648
aI107
aI3
aI153
aI22
aI1446
aI107
aI1802
aI3546
aI18
aI3510
aI18
aI156
aI153
aI287
aI1783
aI249
aI1632
aI1135
aI449
aI2538
aI8393
aI3533
aI22
aI3511
aI18
aI3547
aI3548
aI18
aI3807
aI8303
aI89
aI427
aI3018
aI2150
aI107
aI3
aa(lp124
I508
aI3545
aI505
aI171
aI422
aI163
aI331
aI8422
aI142
aI3851
aI190
aI878
aI8423
aI8424
aI2143
aI1576
aI8277
aI663
aI3639
aI2500
aI3297
aI478
aI508
aI2774
aI293
aI431
aI8219
aI3683
aI2217
aI434
aI22
aI3861
aI249
aI1025
aI1049
aI2774
aI3558
aI263
aI272
aI3908
aI509
aI2747
aI3545
aI315
aI664
aI56
aI1214
aI508
aI2842
aI114
aI22
aI1439
aI1576
aI8425
aI107
aI2551
aI289
aI506
aI3545
aI1184
aI3822
aI8426
aI572
aI459
aI10
aI91
aI915
aI8427
aI8428
aI978
aI8429
aI845
aI167
aI127
aI1035
aI3
aI8430
aI3247
aI8431
aI695
aI8432
aI1383
aI907
aI1788
aI3225
aI3190
aI8433
aI492
aI361
aI2407
aI3213
aI1035
aI161
aI839
aI163
aI8207
aI8434
aI8427
aI8428
aa(lp125
I8435
aI186
aI175
aI8436
aI320
aI331
aI493
aI324
aI1564
aI377
aI935
aI142
aI1855
aI572
aI231
aI3639
aI8437
aI1841
aI8438
aI1899
aI8439
aI2538
aI3533
aI2495
aI8435
aI314
aI1052
aI586
aI262
aI178
aI190
aI8440
aI591
aI8435
aI3863
aI8439
aI2873
aI400
aI8441
aI1460
aI819
aI493
aI267
aI8442
aI431
aI8443
aI3639
aI8444
aI1540
aI8445
aI8435
aI8446
aI8447
aI2060
aI8448
aI1872
aI8435
aI2277
aI798
aI8449
aI142
aI8450
aI8451
aI752
aI2222
aI479
aI42
aI8439
aI116
aI2150
aI8452
aI1496
aI1701
aI2748
aI1178
aI1206
aI365
aa(lp126
I22
aI10
aI217
aI68
aI291
aI566
aI4
aI285
aI389
aI295
aI8453
aI75
aI199
aI340
aI1510
aI232
aI8454
aI15
aI75
aI22
aI292
aI8398
aI15
aI75
aI120
aI296
aI199
aI22
aI285
aI389
aI297
aI163
aI2217
aI8455
aI15
aI75
aI128
aI297
aI285
aI389
aI190
aI68
aI291
aI380
aI2120
aI15
aI75
aI8456
aI15
aI75
aI915
aI285
aI399
aI664
aI23
aI2565
aI68
aI267
aI159
aI1071
aI321
aI3317
aI252
aI253
aI408
aI23
aa(lp127
I22
aI10
aI217
aI68
aI291
aI566
aI4
aI285
aI389
aI380
aI8457
aI15
aI75
aI8458
aI147
aI199
aI340
aI76
aI232
aI292
aI8419
aI15
aI75
aI22
aI296
aI303
aI8398
aI15
aI75
aI120
aI1044
aI22
aI285
aI389
aI297
aI163
aI2217
aI8459
aI15
aI75
aI128
aI297
aI285
aI389
aI190
aI68
aI291
aI1451
aI15
aI75
aI292
aI2113
aI15
aI75
aI915
aI285
aI399
aI664
aI23
aI2565
aI68
aI267
aI159
aI1071
aI321
aI3317
aI252
aI253
aI408
aI23
aa(lp128
I2790
aI8460
aI18
aI56
aI2085
aI3213
aI652
aI3
aI4
aI99
aI132
aI2347
aI107
aI8461
aI508
aI2495
aI1238
aI1283
aI783
aI3
aI1082
aI2247
aI178
aI3547
aI8462
aI2946
aI314
aI159
aI2066
aI63
aI8461
aI77
aI8463
aI508
aI4221
aI1122
aI1446
aI107
aI1303
aI8464
aI2495
aI889
aI1446
aI2495
aI287
aI572
aI1556
aI1741
aI3639
aI2150
aI3
aI1356
aI1283
aI3181
aI1680
aI508
aI586
aI8191
aI2501
aI8465
aI8466
aI1753
aI8467
aI883
aI631
aI1661
aa(lp129
I22
aI1802
aI3546
aI18
aI4
aI566
aI8468
aI147
aI1288
aI3504
aI2808
aI8469
aI15
aI3511
aI3512
aI18
aI566
aI1242
aI147
aI289
aI8470
aI15
aI2899
aI2567
aI695
aI465
aI1802
aI3546
aI33
aI288
aI2105
aI46
aI3
aI3504
aI656
aI570
aI2074
aI15
aI8471
aI570
aI163
aI646
aI24
aI1307
aI15
aI1239
aI3651
aI37
aI587
aI36
aI37
aI2246
aI15
aI2591
aI1168
aI75
aI1289
aI695
aI665
aI3310
aI1168
aI75
aa(lp130
I22
aI3511
aI3512
aI18
aI1217
aI3633
aI4756
aI1462
aI103
aI42
aI239
aI822
aI2125
aI3837
aI2879
aI22
aI3535
aI107
aI33
aI1201
aI1202
aI3
aI2966
aI573
aI8376
aI8472
aI3885
aI8473
aI3701
aI8474
aI1648
aI8475
aI1940
aI4002
aI663
aI362
aI8476
aI3627
aI2870
aI1446
aI107
aa(lp131
I22
aI10
aI217
aI68
aI291
aI566
aI4
aI285
aI389
aI8477
aI75
aI199
aI340
aI1276
aI392
aI8478
aI15
aI75
aI22
aI285
aI389
aI297
aI163
aI2217
aI8479
aI15
aI75
aI128
aI297
aI285
aI389
aI190
aI68
aI291
aI380
aI262
aI15
aI75
aI292
aI8480
aI15
aI75
aI915
aI285
aI399
aI664
aI23
aI2565
aI68
aI267
aI159
aI1071
aI321
aI3317
aI252
aI253
aI408
aI23
aI22
aI1206
aI96
aI400
aI107
aI2574
aI845
aI1214
aa(lp132
I22
aI10
aI217
aI68
aI291
aI566
aI4
aI285
aI389
aI360
aI1665
aI15
aI75
aI1688
aI147
aI199
aI340
aI1583
aI232
aI8481
aI15
aI75
aI22
aI292
aI8420
aI15
aI75
aI120
aI2306
aI22
aI285
aI389
aI297
aI163
aI2217
aI1470
aI15
aI75
aI315
aI199
aI340
aI1583
aI232
aI285
aI389
aI190
aI68
aI291
aI380
aI8482
aI75
aI8483
aI15
aI75
aI915
aI285
aI399
aI664
aI23
aI2565
aI68
aI267
aI159
aI1071
aI321
aI3317
aI252
aI253
aI408
aI23
aa(lp133
I22
aI10
aI217
aI68
aI291
aI566
aI4
aI285
aI389
aI8484
aI75
aI199
aI340
aI1044
aI232
aI292
aI8485
aI15
aI75
aI22
aI296
aI303
aI120
aI223
aI199
aI285
aI389
aI167
aI6000
aI15
aI75
aI22
aI285
aI389
aI297
aI163
aI2217
aI167
aI8486
aI15
aI75
aI128
aI297
aI285
aI389
aI190
aI68
aI291
aI380
aI8487
aI75
aI14
aI15
aI75
aI915
aI285
aI399
aI664
aI23
aI2565
aI68
aI267
aI159
aI1071
aI321
aI3317
aI252
aI253
aI408
aI23
aa(lp134
I22
aI10
aI217
aI68
aI291
aI566
aI4
aI285
aI389
aI360
aI1466
aI15
aI75
aI4003
aI262
aI147
aI199
aI340
aI1330
aI232
aI8488
aI15
aI75
aI22
aI292
aI8420
aI15
aI75
aI120
aI223
aI199
aI22
aI285
aI389
aI297
aI163
aI2217
aI8489
aI15
aI75
aI128
aI297
aI285
aI389
aI190
aI68
aI291
aI8490
aI75
aI8491
aI15
aI75
aI915
aI285
aI399
aI664
aI23
aI2565
aI68
aI267
aI159
aI1071
aI321
aI3317
aI252
aI253
aI408
aI23
aa(lp135
I22
aI3639
aI2378
aI2120
aI802
aI508
aI3545
aI24
aI166
aI543
aI246
aI353
aI3680
aI24
aI2559
aI2560
aI8492
aI1064
aI3213
aI652
aI2848
aI8493
aI1558
aI8494
aI3639
aI8495
aI1802
aI2198
aI1079
aI2100
aI2521
aI917
aI257
aI859
aI685
aI379
aI8496
aI3729
aI8497
aI381
aI771
aI4399
aI1611
aI3738
aI2378
aI8498
aI481
aI8494
aI367
aI8499
aI320
aI599
aI973
aI0
aI79
aI2378
aa(lp136
I22
aI508
aI3545
aI3511
aI3512
aI18
aI3
aI2096
aI241
aI75
aI2910
aI10
aI8168
aI64
aI3550
aI2910
aI333
aI482
aI3511
aI2001
aI1802
aI3546
aI18
aI3511
aI3
aI287
aI134
aI71
aI2910
aI10
aI2545
aI626
aI4155
aI3511
aI68
aI2910
aI10
aI75
aI8500
aI592
aI1718
aI2910
aI10
aI287
aI254
aI3511
aI972
aI20
aI292
aI915
aI2301
aI2910
aI10
aI625
aI1695
aI3668
aI3
aI400
aI287
aI972
aI241
aI3511
aI238
aI1378
aI241
aI1802
aI3546
aI333
aI310
aI2910
aI10
aI1351
aI592
aI3415
aI178
aI157
aI156
aI1510
aI2910
aI10
aI223
aI239
aI367
aI71
aI287
aI8501
aI1802
aI3546
aI157
aI1635
aI1079
aI3511
aI314
aa(lp137
I22
aI3511
aI3512
aI18
aI476
aI1162
aI238
aI4
aI159
aI2910
aI10
aI8168
aI64
aI249
aI489
aI8502
aI157
aI8337
aI223
aI199
aI2910
aI10
aI1802
aI3546
aI18
aI3511
aI241
aI8503
aI2438
aI8250
aI8251
aI107
aI381
aI681
aI475
aI2177
aI8504
aI8505
aI381
aI681
aI475
aI2910
aI10
aI3415
aI178
aI2545
aI75
aI253
aI1802
aI3546
aI241
aa(lp138
I475
aI3511
aI3512
aI18
aI1010
aI3169
aI3895
aI107
aI669
aI3415
aI178
aI238
aI2910
aI10
aI8168
aI4
aI92
aI318
aI375
aI107
aI1362
aI625
aI1079
aI241
aI1155
aI107
aI489
aI8506
aI542
aI1802
aI3546
aI18
aI5
aI223
aI199
aI159
aI2910
aI10
aI253
aI626
aI1686
aI4
aI2910
aI10
aI3
aI400
aI287
aI823
aI1097
aI3511
aI241
aI8507
aI439
aI291
aI8508
aI67
aI68
aI3458
aI241
aI257
aI180
aI3810
aI854
aI924
aI3511
aI3512
aI3
aI287
aI134
aI1081
aI147
aI8170
aI253
aI2910
aI10
aI626
aI160
aI1727
aI147
aI68
aI478
aI287
aI315
aI782
aI1748
aI15
aI806
aI1742
aI2910
aI10
aI8509
aI751
aI3511
aI238
aI287
aI134
aI1802
aI3546
aI174
aI15
aI1751
aI70
aa(lp139
I3803
aI2515
aI3794
aI652
aI653
aI8510
aI1565
aI1802
aI3546
aI18
aI314
aI145
aI2910
aI10
aI8168
aI1802
aI3546
aI3
aI602
aI197
aI652
aI79
aI314
aI157
aI458
aI489
aI8511
aI1576
aI1146
aI318
aI2910
aI10
aI864
aI2001
aI238
aI1802
aI3546
aI3511
aI3512
aI18
aI3511
aI3469
aI1802
aI3546
aI314
aI287
aI648
aI8512
aI3723
aI8168
aa(lp140
I22
aI1802
aI3546
aI18
aI815
aI3415
aI178
aI333
aI653
aI2910
aI10
aI8168
aI64
aI320
aI8513
aI1576
aI186
aI175
aI8222
aI1052
aI8514
aI2908
aI1367
aI153
aI2574
aI22
aI10
aI107
aI287
aI8515
aI882
aI147
aI186
aI175
aI8222
aI606
aI8516
aI147
aI18
aI3181
aI1094
aI8517
aI8514
aI804
aI80
aI3
aI566
aI3317
aI76
aI164
aa(lp141
I2080
aI23
aI584
aI363
aI3442
aI346
aI478
aI8518
aI1045
aI910
aI2080
aI23
aI859
aI3442
aI862
aI107
aI346
aI8519
aI3824
aI8520
aI22
aI31
aI581
aI8521
aI2233
aI8522
aI880
aI624
aI2217
aI163
aI2700
aI247
aI704
aI1194
aI910
aI1045
aI3442
aI23
aI859
aI851
aI3824
aI1502
aI8450
aI2139
aI4099
aa(lp142
I8523
aI8524
aI380
aI1297
aI3945
aI392
aI2588
aI222
aI479
aI391
aI1042
aI2605
aI436
aI1836
aI1741
aI402
aI147
aI42
aI2487
aI570
aI1049
aI566
aI22
aI3827
aI1232
aI1460
aI1968
aI8359
aI1913
aI80
aI380
aI822
aI2588
aI392
aI147
aI479
aI570
aI8525
aI402
aI147
aI465
aI262
aI147
aI2588
aI630
aI570
aI4018
aa(lp143
I798
aI22
aI10
aI217
aI68
aI291
aI566
aI4
aI285
aI389
aI96
aI400
aI360
aI453
aI147
aI4151
aI297
aI340
aI918
aa(lp144
I798
aI348
aI550
aI8526
aI8527
aI4189
aI51
aI8528
aI8529
aI4192
aI4193
aI8530
aI8531
aI4196
aI4197
aI704
aI8532
aI2290
aI917
aI2538
aI3345
aI4208
aI8533
aI8534
aI4211
aI986
aI739
aI8535
aI8536
aI41
aI6173
aI8537
aI8538
aI8539
aI1491
aI64
aI8540
aI8541
aI4214
aI4215
aI8542
aI8543
aI8544
aI6567
aI2292
aI8545
aI3655
aI4221
aI4222
aI8546
aI4983
aI1777
aI493
aI21
aI8547
aI8548
aI4232
aI4233
aI4229
aI1546
aI8549
aI8550
aI4236
aI64
aI8551
aI8552
aI4239
aI4240
aI2817
aI8553
aI8554
aI6860
aI242
aI51
aI8555
aI8556
aa(lp145
I798
aI2899
aI10
aI217
aI68
aI291
aI190
aI68
aI291
aI4
aI566
aI105
aI1214
aI285
aI389
aI199
aI340
aI223
aI1066
aI1510
aI232
aa(lp146
I798
aI2899
aI10
aI217
aI68
aI291
aI190
aI68
aI291
aI4
aI566
aI1288
aI285
aI389
aI199
aI340
aI223
aI1066
aa(lp147
I798
aI2899
aI10
aI217
aI68
aI291
aI190
aI68
aI291
aI4
aI566
aI1288
aI285
aI389
aI199
aI340
aI2306
aI232
aa(lp148
I798
aI2378
aI3190
aI1812
aI508
aI3545
aI678
aI8557
aI76
aI8558
aI1632
aI3668
aI55
aI333
aI28
aI229
aI114
aI3270
aI1367
aI8559
aI3639
aI349
aI2559
aI2378
aI480
aa(lp149
I798
aI508
aI3545
aI2146
aI8560
aI8561
aI1347
aI163
aI3679
aI8562
aI391
aI1539
aI8563
aI541
aI8564
aI431
aI6
aI1049
aI1287
aI8565
aI92
aI102
aI475
aI695
aI2867
aI2707
aI3639
aI349
aI2559
aI2378
aI8566
aI439
aI1556
aI2770
aI8567
aI8568
aI3726
aI1321
aI296
aI8569
aa(lp150
I798
aI22
aI10
aI217
aI68
aI291
aI566
aI4
aI285
aI389
aI96
aI400
aI360
aI3789
aI147
aI4151
aI297
aI340
aI223
aI1066
aI1330
aI232
aa(lp151
I798
aI22
aI3512
aI18
aI4
aI550
aI685
aI8570
aI3535
aI107
aI792
aI1042
aI8571
aI10
aI681
aI475
aa(lp152
I798
aI22
aI10
aI217
aI68
aI291
aI566
aI4
aI273
aI75
aI48
aI285
aI1362
aI408
aI199
aI340
aI410
aI232
aI401
aI296
aI199
aI8572
aI15
aI75
aI8573
aI147
aI8574
aI15
aa(lp153
I798
aI22
aI10
aI217
aI68
aI291
aI566
aI4
aI273
aI75
aI48
aI285
aI1362
aI408
aI199
aI340
aI1664
aI807
aI380
aI2113
aI15
aI75
aI4156
aI262
aI147
aI8575
aI15
aI4135
aI8576
aI15
aI296
aI199
aa(lp154
I798
aI2899
aI10
aI217
aI68
aI291
aI190
aI68
aI291
aI4
aI566
aI2863
aI289
aI285
aI389
aI199
aI340
aI223
aI924
aI1044
aI232
aa(lp155
I28
aI3726
aI1321
aI3547
aI3548
aI3511
aI3512
aI1802
aI3546
aI566
aI571
aI568
aI656
aI4
aI22
aI3547
aI3548
aI18
aI802
aI487
aI508
aI3545
aI790
aI292
aI656
aI3654
aI15
aI8590
aI75
aI1289
aI8591
aI15
aI8592
aI75
aI570
aI163
aI2217
aa(lp156
I22
aI6253
aI2
aI18
aI156
aI153
aI669
aI232
aI178
aI238
aI6226
aI1483
aI107
aI543
aI885
aI178
aI157
aI1802
aI3293
aI18
aI8337
aI6226
aI854
aI2307
aI2899
aI6226
aI1802
aI3293
aI2277
aI8593
aI6253
aI238
aI478
aI298
aI54
aI3219
aI3
aI2212
aI2626
aI8594
aI6226
aI49
aI1429
aI3572
aI8303
aI8595
aI317
aI400
aI823
aI153
aI793
aI3
aI107
aI287
aI971
aI3286
aI6253
aI1010
aI3088
aI241
aI1066
aa(lp157
I22
aI157
aI96
aI70
aI8596
aI709
aI8597
aI442
aI18
aI2093
aI212
aI987
aI42
aI199
aI754
aI340
aI163
aI179
aI3790
aI8598
aI163
aI482
aI145
aI878
aI180
aI2593
aI1083
aI157
aI388
aI8599
aI178
aI156
aI1064
aI348
aI920
aI107
aI282
aI283
aI804
aI2112
aI1350
aI304
aI8600
aI178
aI156
aI8601
aI22
aI292
aI8602
aI178
aI8603
aa(lp158
I635
aI199
aI3886
aI6226
aI1483
aI107
aI5
aI153
aI310
aI669
aI8604
aI6253
aI2
aI18
aI2228
aI3071
aI8605
aI482
aI1802
aI3293
aI18
aI6253
aI134
aI453
aI178
aI626
aI1083
aI75
aI6226
aI71
aI157
aI8606
aI232
aI178
aI77
aI75
aI107
aI241
aI854
aI365
aI658
aI482
aI1802
aI3293
aI8607
aI2163
aI157
aI6226
aI134
aI1802
aI3293
aI70
aI174
aI15
aI100
aI2071
aI15
aI408
aI2540
aa(lp159
I8608
aI27
aI2
aI1433
aI712
aI479
aI8609
aI1675
aI115
aI96
aI639
aI1530
aI8610
aI892
aI839
aI552
aI1362
aI105
aI639
aI8611
aI3379
aI8612
aI2732
aI2194
aI8613
aI1055
aI8614
aI287
aI157
aI1058
aI884
aI39
aI8615
aI8616
aI8617
aI8608
aI315
aI1433
aI2806
aI2432
aI3152
aI81
aI320
aI8618
aI506
aI137
aI1802
aI39
aI1616
aI8608
aI585
aI2913
aI8
aI8341
aI375
aI84
aI521
aI839
aI552
aI223
aI199
aI8619
aI8620
aI8621
aI115
aI8622
aI3942
aI77
aI2058
aI1713
aI128
aI631
aI8623
aI8614
aI8624
aI115
aI526
aI527
aI4063
aI704
aI8625
aI8626
aI8627
aI8628
aI3038
aI3230
aI8629
aI115
aI6738
aI8630
aa(lp160
I22
aI3511
aI3512
aI18
aI566
aI4
aI656
aI360
aI1036
aI147
aI630
aI570
aI294
aI508
aI1648
aI1460
aI73
aI132
aI1499
aI2495
aI8475
aI3511
aI3512
aI656
aI1466
aI15
aI1561
aI1168
aI8631
aI75
aI23
aI1081
aI178
aI3525
aI15
aI8632
aI75
aI23
aI1081
aI178
aI1791
aI570
aI2725
aI22
aI664
aI6823
aI1446
aI107
aI970
aI3271
aI1460
aI1303
aI1492
aI2495
aI3511
aI1052
aI1303
aI8475
aI3
aI1838
aI3634
aI1039
aI839
aI175
aI157
aI1446
aI3907
aI656
aI315
aI8633
aI8634
aI3641
aI3642
aI1460
aI107
aI3
aa(lp161
I22
aI1802
aI3546
aI18
aI802
aI487
aI508
aI8168
aI3779
aI3213
aI102
aI4
aI625
aI1162
aI885
aI178
aI241
aI2001
aI2910
aI10
aI8168
aI64
aI1940
aI1214
aI1049
aI1626
aI4031
aI3263
aI10
aI241
aI1010
aI8635
aI854
aI4
aI476
aI2150
aI42
aI107
aI321
aI552
aI22
aI1802
aI8636
aI238
aI47
aI281
aI2910
aI10
aI1664
aI246
aI2438
aI1802
aI3546
aI241
aI8637
aI1543
aI2910
aI10
aI75
aI1150
aI8638
aI147
aI318
aI253
aI4
aI478
aI287
aI315
aI782
aI2268
aI15
aI2910
aI10
aI806
aa(lp162
I2295
aI1498
aI1951
aI375
aI512
aI685
aI1341
aI8639
aI792
aI3510
aI1610
aI1628
aI2759
aI8640
aI2969
aI1052
aI771
aI8641
aI3901
aI18
aI8642
aI3450
aI107
aI3510
aI1610
aI18
aI1433
aI159
aI265
aI178
aI393
aI397
aI819
aI3901
aI1052
aI8643
aI98
aI542
aI883
aI776
aI1947
aI481
aI8639
aI8644
aI8645
aI85
aI181
aI1701
aI96
aI3901
aI458
aI8646
aI212
aI1543
aI391
aI1565
aI92
aI481
aI8639
aI3510
aI3901
aI749
aI1362
aI1556
aI542
aa(lp163
I22
aI3511
aI3512
aI18
aI3
aI153
aI287
aI8647
aI664
aI630
aI570
aI965
aI653
aI569
aI576
aI1239
aI947
aI1644
aI8648
aI107
aI3511
aI3
aI8649
aI77
aI15
aI257
aI8650
aI3535
aI18
aI8651
aI8650
aI8191
aI608
aI591
aI118
aI54
aI8652
aI8653
aI8654
aI1541
aa(lp164
I22
aI3511
aI3512
aI18
aI5
aI159
aI508
aI375
aI9
aI2414
aI64
aI4145
aI15
aI107
aI3
aI4
aI9
aI2414
aI625
aI1661
aI3450
aI2831
aI229
aI114
aI3
aI465
aI3504
aI1288
aI2045
aI15
aI23
aI22
aI9
aI2414
aI186
aI465
aI292
aI23
aI2640
aI15
aI2897
aI478
aI2714
aI3655
aI8299
aI8655
aI114
aI1049
aI8656
aI3450
aI229
aI114
aI8657
aI114
aI9
aI2414
aI315
aI3
aI287
aI1214
aI550
aI8658
aI2830
aI18
aI9
aI2414
aI75
aI8659
aI1168
aI8660
aI75
aI3511
aI3399
aI1168
aI8470
aa(lp165
I42
aI163
aI646
aI1546
aI4652
aI3749
aI107
aI3535
aI770
aI531
aI360
aI1556
aI1946
aI317
aI60
aI19
aI10
aI1446
aI1454
aI1446
aI107
aI2948
aI2163
aI783
aI205
aI8661
aI1446
aI892
aI281
aI383
aI8189
aI85
aI317
aI3938
aI1610
aI946
aI475
aa(lp166
I22
aI3511
aI3512
aI18
aI802
aI487
aI1321
aI8662
aI1499
aI1648
aI3
aI4
aI287
aI653
aI2449
aI15
aI2693
aI880
aI2897
aI822
aI587
aI287
aI233
aI147
aI465
aI1615
aI663
aI1121
aI171
aI1446
aI1303
aI22
aI1201
aI3033
aI3511
aI60
aI8475
aI1446
aI1303
aI8464
aI2495
aI2767
aI1121
aI998
aI223
aI2584
aI1121
aI171
aI2355
aI2095
aI1615
aI493
aI1607
aI270
aI436
aI4002
aI1446
aI156
aI1838
aI1303
aI1460
aI42
aI3843
aI199
aI422
aI199
aI42
aI163
aI646
aa(lp167
I1993
aI3535
aI447
aI156
aI2640
aI178
aI68
aI157
aI8663
aI1896
aI114
aI186
aI1802
aI1483
aI107
aI447
aI153
aI648
aI1993
aI8664
aI25
aI486
aI331
aI508
aI3545
aI1360
aI333
aI76
aI340
aI199
aI3107
aI578
aI8665
aI8666
aI508
aI107
aI557
aI190
aI693
aa(lp168
I22
aI1273
aI3510
aI1610
aI18
aI802
aI487
aI508
aI3545
aI333
aI6
aI231
aI1082
aI505
aI262
aI178
aI1064
aI892
aI318
aI107
aI22
aI23
aI8341
aI8667
aI2762
aI375
aI3001
aI257
aI510
aI68
aI3718
aI77
aI147
aI223
aI163
aI156
aI1273
aI23
aI600
aI298
aI2217
aI199
aI883
aI253
aI8668
aI681
aI475
aI3510
aI8669
aI379
aI8670
aI351
aI656
aI161
aI42
aI163
aI287
aI3155
aI695
aI465
aI1297
aI391
aI3
aI107
aI33
aI34
aI35
aI287
aI1097
aI1272
aI2762
aI1273
aI23
aI1752
aI1496
aI241
aa(lp169
I22
aI3511
aI3512
aI18
aI802
aI8236
aI508
aI3545
aI3
aI4
aI287
aI159
aI186
aI4245
aI6479
aI64
aI289
aI692
aI625
aI8671
aI508
aI1648
aI3511
aI3
aI55
aI287
aI8672
aI8655
aI1460
aI24
aI616
aI2317
aI3809
aI114
aI586
aI8673
aI8674
aI669
aI1680
aI1358
aI3511
aI134
aI1147
aI15
aI626
aI4245
aI186
aI8675
aI3754
aI625
aI8671
aI1648
aI124
aI8299
aI8655
aI2220
aI114
aI75
aI3511
aI3512
aI360
aI2650
aI8676
aI75
aI4245
aI318
aI3401
aI1168
aI8677
aa(lp170
I581
aI3475
aI399
aI8678
aI1576
aI266
aI508
aI1896
aI79
aI80
aI3511
aI3512
aI18
aI3
aI4
aI5
aI159
aI8679
aI64
aI508
aI79
aI91
aI107
aI68
aI2383
aI388
aI3078
aI15
aI22
aI1791
aI388
aI157
aI1362
aI8680
aI3511
aI3512
aI3
aI287
aI291
aI629
aI8681
aI8682
aI75
aI8679
aI8683
aI15
aI75
aI1068
aa(lp171
I22
aI314
aI482
aI3510
aI1610
aI3511
aI3512
aI1746
aI1940
aI3807
aI623
aI557
aI2867
aI3
aI153
aI8684
aI1683
aI1626
aI8685
aI1684
aI3263
aI508
aI645
aI8613
aI107
aI375
aI3639
aI1359
aI1184
aI482
aI226
aI3271
aI8686
aI8687
aI508
aI783
aI8688
aI8219
aI249
aI1571
aI157
aI287
aI859
aI56
aI1214
aI1626
aa(lp172
I22
aI3511
aI3512
aI18
aI3
aI4
aI458
aI1313
aI178
aI40
aI3547
aI3548
aI18
aI60
aI19
aI2347
aI493
aI2282
aI508
aI1238
aI1648
aI22
aI3544
aI408
aI163
aI2725
aI1247
aI3523
aI36
aI1686
aI1234
aI478
aI1206
aI1570
aI40
aI493
aI2282
aI3547
aI3548
aI33
aI3671
aI3672
aI1052
aI631
aI2347
aI8461
aI508
aI1238
aI1648
aI1234
aI3511
aI33
aI1201
aI1202
aI764
aI1499
aI1648
aI770
aI60
aI2445
aI911
aI3941
aI3942
aI3939
aI810
aI223
aI239
aI3510
aI1610
aI18
aI156
aI333
aI310
aI3511
aI3512
aI2898
aI178
aa(lp173
I42
aI508
aI3545
aI3511
aI3512
aI18
aI1802
aI3546
aI18
aI566
aI656
aI1288
aI390
aI570
aI4
aI3511
aI3512
aI5
aI2217
aI199
aI853
aI3510
aI1610
aI18
aI2898
aI178
aI3
aI3504
aI2808
aI380
aI453
aI147
aI289
aI663
aI3843
aI2445
aI3504
aI74
aI15
aI1305
aI75
aI1246
aI15
aI3978
aI75
aI570
aI163
aI2217
aI393
aI301
aI695
aI465
aI656
aI4022
aI75
aa(lp174
I128
aI465
aI1791
aI877
aI8689
aI8690
aI3263
aI96
aI190
aI508
aI3545
aI3510
aI1610
aI18
aI156
aI4
aI159
aI3511
aI3512
aI18
aI2898
aI178
aI22
aI157
aI287
aI8691
aI3510
aI1610
aI399
aI487
aI3726
aI645
aI3639
aI648
aI107
aI822
aI606
aI1451
aI178
aI8692
aI245
aI478
aI1205
aI543
aI102
aI8629
aI1446
aI3862
aI8693
aI8694
aI482
aI519
aI340
aI2287
aI2674
aI2863
aI1838
aI508
aI2774
aI332
aI921
aI1359
aI8684
aI1683
aI0
aI609
aI3643
aI361
aI266
aI2251
aI8695
aI8696
aI257
aI3861
aI8697
aI1460
aI2139
aI3574
aa(lp175
I22
aI3510
aI1610
aI18
aI3
aI4
aI656
aI380
aI1803
aI147
aI390
aI570
aI383
aI289
aI79
aI114
aI3754
aI783
aI207
aI657
aI1067
aI22
aI107
aI656
aI8698
aI15
aI3979
aI75
aI8699
aI15
aI1472
aI75
aI570
aI163
aI2217
aI393
aI8700
aI8631
aI1502
aI75
aI1068
aI4063
aI273
aI67
aI75
aI2158
aI348
aI2700
aI107
aI656
aI1147
aI75
aI8701
aI282
aI283
aI231
aI1064
aI514
aI695
aI479
aI88
aa(lp176
I22
aI3511
aI3512
aI18
aI3
aI4
aI333
aI318
aI839
aI1326
aI1838
aI8702
aI1039
aI22
aI3535
aI508
aI1661
aI693
aI33
aI1201
aI1202
aI3
aI840
aI19
aI1274
aI8703
aI37
aI160
aI1576
aI22
aI318
aI1039
aI1838
aI664
aI3756
aI880
aI2401
aI15
aI656
aI630
aI570
aI1570
aI3511
aI3
aI287
aI318
aI1326
aI940
aI3612
aI8704
aI1524
aI245
aI3516
aI1039
aI3636
aI44
aI2760
aI892
aI1463
aI3939
aI810
aI2958
aI1039
aI1397
aI234
aI1039
aI320
aI1397
aI107
aI3940
aI3942
aI1326
aI318
aI2247
aI1561
aI199
aI970
aI476
aI273
aI1462
aI241
aI3623
aI22
aI107
aI3
aI287
aI1429
aI1039
aI1326
aI866
aI902
aI899
aI12
aI8705
aI3271
aI3504
aI1039
aI3998
aI3511
aI247
aI4483
aI892
aa(lp177
I22
aI3862
aI107
aI269
aI238
aI3091
aI1896
aI776
aI3511
aI3512
aI18
aI8706
aI8707
aI508
aI102
aI8708
aI608
aI609
aI8191
aI427
aI28
aI8709
aI2328
aI2877
aI3535
aI375
aI3511
aI3512
aI1460
aI1319
aI482
aI179
aI1940
aI2050
aI3468
aI1184
aI8710
aI263
aI226
aI288
aI390
aI1588
aI508
aI3545
aa(lp178
I22
aI42
aI238
aI508
aI375
aI3091
aI1896
aI18
aI439
aI281
aI3001
aI246
aI178
aI8711
aI1741
aI1940
aI388
aI657
aI1880
aI231
aI432
aI388
aI68
aI1989
aI107
aI892
aI318
aI4172
aI3
aI153
aI22
aI3862
aI107
aI3511
aI3512
aI18
aI8712
aI238
aI2240
aI298
aI1196
aI1748
aI2139
aI892
aI3
aI1802
aI1533
aI18
aI8713
aI2452
aI465
aI3148
aI3874
aI1686
aI161
aI239
aI1622
aI3001
aI8714
aa(lp179
I8715
aI134
aI74
aI15
aI8607
aI3092
aI409
aI580
aI8716
aI5
aI134
aI74
aI15
aI1802
aI1533
aI409
aI580
aI851
aI910
aI543
aI8715
aI475
aI8220
aI8717
aI8718
aI2026
aI8719
aI8720
aI187
aI2964
aI1016
aI3092
aI22
aI579
aI1761
aI340
aI8721
aI8722
aI42
aI486
aI487
aI1402
aI107
aI128
aI40
aI25
aI331
aI18
aI8723
aI2521
aI8716
aI315
aI5
aI159
aI629
aI262
aI178
aI1082
aI61
aI19
aI190
aI107
aI161
aI1120
aI163
aI332
aI3679
aI8724
aI8715
aI315
aI3
aI1850
aI1619
aI2254
aI395
aI481
aI8725
aI1108
aI2139
aI3888
aI3091
aI238
aI76
aI543
aI246
aI178
aI22
aI42
aI238
aI508
aI375
aI3091
aI1896
aI439
aI281
aI3001
aI246
aI178
aI8711
aI1741
aI1940
aI388
aI657
aI1880
aI231
aI432
aI388
aI68
aI1989
aI107
aI22
aI2002
aI3862
aI3511
aI3512
aI8712
aI2240
aI281
aI1748
aI2139
aI3574
aI60
aI253
aI1306
aI60
aI253
aI380
aI465
aI2584
aI572
aI4399
aI1041
aI3833
aI289
aI665
aI253
aI3155
aI147
aI380
aI4154
aI147
aI883
aI42
aI1357
aI8726
aI3574
aI8727
aI581
aI2770
aI579
aI22
aI8727
aI21
aI2656
aI322
aI2957
aI102
aI223
aI1044
aI658
aI1588
aI5
aI409
aI162
aI56
aI580
aI1841
aI1782
aI431
aI2770
aI579
aI1064
aI858
aI539
aI1078
aI4051
aI8728
aI3144
aI234
aI1738
aI8415
aI22
aI8728
aI3144
aI1754
aI1738
aI114
aI1019
aI1829
aI1283
aI284
aI2584
aI170
aI199
aI25
aI2495
aI1936
aI8729
aI8730
aI2086
aI2082
aI186
aI998
aI8731
aI186
aI998
aI1160
aI2797
aI289
aI314
aI1462
aI751
aI333
aI3574
aI7727
aI420
aI3516
aI867
aI238
aI7727
aI420
aI1397
aI238
aI867
aI2870
aI40
aI2516
aI8732
aI8303
aI482
aI3099
aI2954
aI18
aI4051
aI8733
aI8341
aI190
aI266
aI8734
aI2026
aI208
aI333
aI581
aI1413
aI4137
aI241
aI472
aI80
aI186
aI175
aI266
aI2881
aI8735
aI8736
aI22
aI8737
aI742
aI390
aI8738
aI1498
aI8739
aI693
aI1498
aI1661
aI91
aI107
aI10
aI550
aI8260
aI1097
aI375
aI324
aI1055
aI1989
aI22
aI107
aI267
aI3602
aI174
aI15
aI2982
aI1838
aI91
aI8740
aI1498
aI2645
aI93
aI506
aI8741
aI1701
aI8742
aI742
aI479
aI25
aI1429
aI2574
aI8743
aI8744
aI3095
aI390
aI438
aI8745
aI650
aI1429
aI2574
aI2233
aI8746
aI1804
aI8747
aI8748
aI390
aI438
aI2287
aI2674
aI3939
aI8749
aI93
aI8750
aI2121
aI2065
aI10
aI335
aI2121
aI3
aI2810
aI212
aI314
aI3271
aI952
aI273
aI75
aI187
aI3678
aI10
aI8751
aI335
aI3574
aa(lp180
I128
aI465
aI25
aI223
aI56
aI2093
aI3726
aI102
aI3862
aI107
aI156
aI153
aI5
aI310
aI508
aI375
aI3091
aI1896
aI18
aI1802
aI1533
aI18
aI4155
aI2640
aI178
aI154
aI1718
aI1817
aI775
aI157
aI1206
aI8752
aI1061
aI921
aI3862
aI1459
aI3526
aI3809
aI2079
aI33
aI2010
aI677
aI782
aI2637
aI178
aI806
aI1071
aI19
aI412
aI134
aI8753
aI178
aI89
aI3270
aI1071
aI68
aI22
aI10
aI107
aI60
aI3726
aI8754
aI3526
aI8755
aI3726
aI1680
aI493
aI3809
aI229
aI114
aI8756
aI8757
aI1661
aa(lp181
I3001
aI1042
aI8758
aI841
aI8759
aI8760
aI8761
aI281
aI8762
aI492
aI8763
aI8764
aI25
aI1993
aI1286
aI1045
aI1429
aI2982
aI1875
aI2098
aI1816
aI84
aI980
aI186
aI175
aI455
aI998
aI375
aI1377
aI1492
aI3190
aI1175
aI80
aI452
aI551
aI493
aI8280
aI241
aI1822
aI439
aI8765
aI8279
aI8766
aI431
aI8767
aI2408
aI1042
aI1329
aI2438
aI1109
aI281
aI1180
aI609
aI1554
aI478
aI315
aI1822
aI439
aI977
aI8279
aI20
aI8214
aa(lp182
I910
aI5035
aI681
aI8181
aI8254
aI1861
aI3633
aI2244
aI5035
aI18
aI380
aI2711
aI8768
aI375
aI1589
aI288
aI8769
aI3813
aI8561
aI8181
aI3007
aI3008
aI8770
aI326
aI8771
aI288
aI320
aI1593
aI8772
aI434
aI793
aI2216
aI2139
aI3888
aI4011
aI3229
aI1146
aI8254
aI1861
aI3633
aI4015
aI560
aI8773
aI2265
aI126
aI2494
aI8774
aI130
aI1049
aI249
aI2202
aI160
aI358
aI359
aI20
aI1273
aI3229
aI2867
aI1217
aI3705
aI933
aI302
aI635
aI3526
aI2748
aI933
aI253
aI318
aI292
aI303
aI10
aI217
aI1589
aI8775
aI3526
aI2748
aI228
aI1894
aI8776
aI887
aI8777
aI266
aI505
aI486
aI128
aI47
aI8778
aI933
aI266
aI228
aI1894
aI2748
aI629
aI1120
aI3526
aI24
aI25
aI8779
aI8780
aI2198
aI1065
aI650
aI1613
aI250
aI253
aI2145
aI1727
aI8781
aI3705
aI869
aI845
aI8782
aI105
aI22
aI105
aI375
aI1683
aI130
aI1267
aI8783
aI2514
aI257
aI629
aI176
aI147
aI130
aI783
aI105
aI375
aI92
aI163
aI1049
aI1410
aI2574
aI845
aI18
aI439
aI8784
aI1446
aI1802
aI3546
aI3511
aI3512
aI1355
aI105
aI375
aI506
aI3550
aI249
aI130
aI1049
aI3111
aI8785
aI1754
aI689
aI3705
aI10
aI11
aI8786
aI180
aI10
aI11
aI2774
aI8373
aI8787
aI8786
aI175
aI1049
aI80
aI36
aI1579
aI165
aI807
aI372
aI2282
aI318
aI479
aI391
aI1665
aI163
aI1125
aI3229
aI3888
aI8788
aI723
aI625
aI157
aI769
aI802
aI64
aI487
aI8788
aI723
aI186
aI175
aI3
aI1782
aI157
aI159
aI1612
aI402
aI723
aI8789
aI488
aI37
aI771
aI3563
aI1512
aI1148
aI15
aI2251
aI8790
aI375
aI4018
aI4396
aI158
aI222
aI8791
aI3914
aI3214
aI1659
aI2514
aI8761
aI1437
aI158
aI192
aI8792
aI4396
aI8791
aI8375
aI4399
aI37
aI47
aI486
aI487
aI4396
aI107
aI8607
aI653
aI560
aI2514
aI3822
aI458
aI792
aI8793
aI1341
aI8794
aI3265
aI8795
aI4099
aI4026
aI3188
aI8796
aI3735
aI771
aI3305
aI4026
aI8797
aI1464
aI2001
aI3188
aI2454
aI421
aI427
aI1496
aI1684
aI1114
aI314
aI840
aI8510
aI8348
aI8730
aI2831
aI655
aI617
aI2114
aI425
aI1102
aI617
aI617
aI947
aI21
aI42
aI3564
aI1321
aI156
aI261
aI287
aI947
aI2396
aI15
aI8798
aI2831
aI655
aI80
aI257
aI267
aI8799
aI459
aI1628
aI2030
aI2831
aI3281
aI4011
aI8800
aI1635
aI374
aI869
aI475
aI976
aI2748
aI1403
aI2836
aI1735
aI1005
aI8450
aI8801
aI8802
aI8800
aI321
aI1474
aI649
aI1078
aI374
aI8803
aI103
aI1409
aI2540
aI1460
aI921
aI1010
aI1235
aI572
aI232
aI15
aI1081
aI15
aI8804
aI2282
aI1946
aI2960
aI8805
aI8806
aI2960
aI230
aI8806
aI2960
aI8805
aI1556
aI550
aI8807
aI889
aI8808
aI2244
aI3923
aI1349
aI449
aI8625
aI3658
aI2534
aI8805
aI8745
aI8809
aI237
aI1741
aI434
aI646
aI486
aI487
aI8805
aI1735
aI1995
aI8797
aI5832
aI345
aI8810
aI486
aI8811
aI2526
aI8730
aI340
aI1623
aI915
aI107
aI2911
aI22
aI1243
aI8812
aI107
aI72
aI8813
aI8814
aI44
aI1748
aI8630
aI1147
aI163
aI92
aI2328
aI107
aI6
aI1256
aI2892
aI712
aI245
aI1401
aI560
aI2859
aI340
aI25
aI223
aI107
aI2911
aI186
aI175
aI3888
aI8815
aI1397
aI8816
aI8817
aI1282
aI8818
aI1823
aI8819
aI8815
aI690
aI2191
aI850
aI8820
aI929
aI2504
aI261
aI8821
aI8822
aI1832
aI76
aI1618
aI550
aI8815
aI2574
aI22
aI1397
aI8816
aI8804
aI10
aI20
aI8823
aI915
aI1628
aI21
aI449
aI8824
aI2891
aI20
aI1383
aI796
aI8823
aI8825
aI845
aI1135
aI1058
aI3899
aI1146
aI2578
aI1048
aI2366
aI8826
aI1005
aI1005
aI8827
aI915
aI566
aI482
aI145
aI8828
aI1915
aI282
aI283
aI1565
aI8829
aI3761
aI8830
aI281
aI3273
aI8322
aI987
aI1214
aI22
aI3611
aI8831
aI8832
aI439
aI802
aI8833
aI3611
aI229
aI281
aI8322
aI1889
aI2282
aI1628
aI91
aI1214
aI915
aI566
aI4103
aI8338
aI1623
aI915
aI1322
aI988
aI180
aI1322
aI264
aI414
aI8834
aI436
aI860
aI8630
aI2501
aI8835
aI8836
aI8363
aI8837
aI1322
aI4749
aI915
aI566
aI4103
aa(lp183
I266
aI8838
aI8839
aI239
aI646
aI299
aI300
aI102
aI301
aI1104
aI8584
aI1397
aI1042
aI2601
aI1872
aI988
aI340
aI92
aI1042
aI68
aI266
aI8840
aI4
aI299
aI3882
aI1362
aI1049
aI566
aI2574
aI1834
aI253
aI1306
aI465
aI22
aI299
aI360
aI8841
aI523
aI318
aI8842
aI2139
aI3888
aI653
aI884
aI839
aI163
aI428
aI8843
aI1873
aI266
aI206
aI8844
aI878
aI947
aI1205
aI266
aI191
aI4174
aI1352
aI1351
aI1352
aI1496
aI1006
aI8226
aI1352
aI8845
aI8846
aI653
aI289
aI293
aI884
aI266
aI3705
aI1204
aI8847
aI222
aI4470
aI4471
aI472
aI88
aI10
aI11
aI3500
aI258
aI1044
aI479
aI458
aI8848
aI1204
aI8847
aI8849
aI2166
aI266
aI632
aI2658
aI1829
aI1754
aI976
aI2767
aI8850
aI1460
aI3705
aI1624
aI22
aI1910
aI6055
aI22
aI8851
aI8852
aI107
aI8853
aI1321
aI3657
aI8854
aI5429
aI3173
aI37
aI1959
aI375
aI8855
aI1542
aI8856
aI5243
aI8857
aI2859
aI2866
aI178
aI159
aI2347
aI147
aI75
aI3705
aI348
aI8858
aI1324
aI107
aI475
aI480
aI1049
aI249
aI1632
aI920
aI487
aI472
aI107
aI8859
aI8858
aI280
aI610
aI2837
aI1175
aI1048
aI25
aI8860
aI8861
aI207
aI1686
aI8862
aI190
aI8861
aI3
aI207
aI8863
aI8864
aI3664
aI479
aI8865
aI8862
aI1541
aI48
aI345
aI8861
aI2527
aI1667
aI10
aI8862
aI1541
aI8866
aI478
aI315
aI6
aI8862
aI1122
aI8867
aI1064
aI4099
aI1845
aI8868
aI3510
aI1610
aI3862
aI3511
aI3512
aI1011
aI107
aI3
aI287
aI8712
aI238
aI130
aI783
aI1052
aI1845
aI8868
aI2035
aI802
aI2501
aI8869
aI3888
aI1784
aI2275
aI8870
aI915
aI130
aI2378
aI8871
aI1784
aI2534
aI609
aI657
aI8872
aI8870
aI24
aI2770
aI8697
aI8872
aI155
aI449
aI892
aI206
aI2275
aI3
aI4099
aI8873
aI335
aI2455
aI22
aI348
aI291
aI1194
aI840
aI625
aI8873
aI335
aI8874
aI1354
aI107
aI3629
aI1741
aI2540
aI3517
aI92
aI3550
aI1589
aI1237
aI3678
aI3
aI3061
aI107
aI287
aI2458
aI8875
aI266
aI438
aI3705
aI391
aI550
aI543
aI3472
aI200
aI8876
aI8753
aI8351
aI8877
aI3472
aI391
aI1592
aI910
aI720
aI1179
aI994
aI550
aI39
aI3472
aI8878
aI709
aI712
aI1039
aI1592
aI8879
aI878
aI481
aI8876
aI3
aI547
aI655
aI3795
aI1878
aI557
aI8880
aI8881
aI427
aI930
aI3795
aI391
aI3144
aI8882
aI8883
aI1684
aI2534
aI180
aI3950
aI113
aI3281
aI1693
aI8884
aI317
aI8885
aI1128
aI1055
aI1256
aI2885
aI723
aI266
aI704
aI1961
aI2574
aI1959
aI1499
aI658
aI93
aI8886
aI8887
aI317
aI22
aI8887
aI3281
aI132
aI839
aI10
aI8888
aI28
aI10
aI8820
aI161
aI1128
aI8889
aI2183
aI3346
aI3938
aI1306
aI180
aI586
aI8890
aI1205
aI8891
aI8892
aI223
aI434
aI273
aI3346
aI3938
aI578
aI138
aI1064
aI920
aI4099
aI390
aI238
aI222
aI4749
aI107
aI22
aI4032
aI8893
aI4894
aI8894
aI964
aI2220
aI390
aI2093
aI238
aI669
aI8895
aI241
aI487
aI71
aI8896
aI4072
aI8883
aI3227
aI2407
aI22
aI3227
aI1049
aI3
aI802
aI436
aI796
aI1637
aI147
aI479
aI570
aI1854
aI523
aI920
aI2148
aI3227
aI102
aI8897
aI2656
aI1124
aI1576
aI8883
aI1005
aI22
aI375
aI1623
aI1955
aI375
aI754
aI1955
aI1354
aI1613
aI8228
aI8898
aI607
aI581
aI1576
aI654
aI915
aI2714
aI566
aI4103
aI753
aI591
aI1565
aI2518
aI1915
aI6823
aI1058
aI753
aI591
aI1875
aI1060
aI8899
aI8900
aI1005
aI8827
aI180
aI366
aI8901
aI3010
aI8902
aI2354
aI2718
aI8254
aI1861
aI3633
aI8827
aI1565
aI3305
aI625
aI432
aI187
aI653
aI438
aI1619
aI126
aI8830
aI375
aI206
aI667
aI459
aI4103
aI22
aI8903
aI18
aI802
aI487
aI8904
aI1264
aI790
aI8905
aI1259
aI587
aI587
aI8906
aI15
aI396
aI570
aI948
aI15
aI163
aI2217
aI2392
aI2952
aI165
aI944
aI3
aI23
aI570
aI36
aI385
aI3810
aI38
aI8907
aI2220
aI543
aI465
aI2392
aI8908
aI2376
aI712
aI253
aI1501
aI1496
aI241
aI1082
aI1515
aI15
aI22
aI241
aI1081
aI15
aI75
aI1313
aI147
aI107
aI48
aI1466
aI75
aI303
aI340
aI665
aI2392
aI6137
aI64
aI2346
aI6353
aI1264
aI3
aI587
aI479
aI570
aI294
aI8909
aI15
aI1170
aI15
aI2392
aa(lp184
I28
aI434
aI646
aI4026
aI8910
aI649
aI281
aI4081
aI273
aI186
aI175
aI8911
aI335
aI8912
aI1049
aI8910
aI2674
aI22
aI8913
aI2492
aI1165
aI591
aI8914
aI1948
aI8915
aI1611
aI3333
aI42
aI165
aI7761
aI8916
aI44
aI8917
aI896
aI3933
aI22
aI42
aI165
aI525
aI153
aI8918
aI8919
aI2663
aI8920
aI375
aa(lp185
I3511
aI3512
aI480
aI3753
aI543
aI39
aI4
aI287
aI8500
aI608
aI238
aI107
aI267
aI1791
aI348
aI157
aI8921
aI199
aI475
aI318
aI592
aI3
aI4
aI1742
aI3511
aI1275
aI10
aI241
aI1082
aI4124
aI75
aI1650
aI178
aI287
aI390
aI391
aI608
aI241
aI1042
aI238
aI2389
aI178
aI129
aI3753
aI508
aI3545
aI61
aI19
aI1321
aI33
aI4122
aa(lp186
I22
aI3511
aI3512
aI18
aI508
aI3545
aI3
aI4
aI2360
aI8922
aI8273
aI178
aI238
aI3753
aI64
aI239
aI3511
aI33
aI1201
aI1202
aI36
aI972
aI20
aI79
aI3753
aI1321
aI508
aI3535
aI4120
aI1460
aI33
aI3671
aI3672
aI22
aI296
aI1331
aI223
aI1066
aI2360
aI1066
aI3511
aI3
aI3511
aI624
aI68
aI2383
aI241
aI3753
aI348
aI291
aI1194
aI1044
aI2866
aI5
aI223
aI199
aI3481
aI238
aI8923
aI3753
aI1006
aI292
aI8274
aI40
aa(lp187
I22
aI228
aI190
aI186
aI8924
aI114
aI1993
aI508
aI3545
aI1097
aI238
aI3753
aI3450
aI3526
aI3545
aI342
aI2093
aI238
aI3511
aI3512
aI18
aI892
aI318
aI592
aI3
aI153
aI475
aI8924
aI114
aI228
aI345
aI284
aI8925
aI3639
aI2150
aI24
aI1557
aI3470
aI8300
aI8301
aI145
aI91
aI249
aI8926
aI547
aI348
aI972
aI892
aI3
aI1297
aI1071
aI8191
aI228
aI190
aI186
aI8927
aI3639
aI2150
aI37
aI376
aI1993
aI2452
aa(lp188
I998
aI997
aI493
aI819
aI64
aI8928
aI77
aI8929
aI1298
aI493
aI819
aI8930
aI2866
aI8931
aI8932
aI1733
aI493
aI819
aI64
aI8933
aI4188
aI8934
aI1309
aI998
aI64
aI8935
aI290
aI8936
aI1740
aI190
aI486
aI1286
aI8937
aI4188
aI8938
aI3292
aI486
aI51
aI8939
aI4188
aI8940
aI2045
aI5280
aI493
aI819
aI64
aI8941
aI2635
aI8942
aI2079
aI3112
aI934
aI8943
aI290
aI1763
aI3588
aI6760
aI51
aI8944
aI232
aI8945
aI174
aI6811
aI3451
aI51
aI8946
aI413
aI1199
aI3588
aI3462
aI190
aI1533
aI51
aI8947
aI413
aI8948
aI1532
aI1533
aI934
aI8949
aI807
aI8950
aI1802
aI1533
aI8951
aI1803
aI8952
aI1242
aI4120
aI1661
aI8953
aI8954
aI290
aI8955
aI262
aI5006
aI51
aI8956
aI262
aI8957
aI2106
aI2
aI8958
aI8959
aI2113
aI8960
aI8961
aI64
aI8962
aI413
aI8963
aI2120
aI1681
aI8964
aI107
aI8965
aI1466
aI8966
aI1081
aI8967
aI64
aI8968
aI2866
aI8969
aI1688
aI6076
aI64
aI8970
aI885
aI8971
aI8753
aI8972
aI8973
aI8974
aI934
aI8975
aI290
aI8963
aI2120
aI1052
aI506
aI3197
aI1460
aI4531
aI4532
aI51
aI8976
aI246
aI8977
aI885
aI8978
aI2
aI8979
aI1803
aI3078
aI1294
aI4865
aI8980
aI51
aI8981
aI402
aI8982
aI1466
aI733
aI1460
aI934
aI8983
aI402
aI8984
aI2120
aI8985
aI51
aI8986
aI453
aI8987
aI902
aI1243
aI51
aI8988
aI2106
aI8989
aI8245
aI940
aI834
aI8990
aI8991
aI413
aI8992
aI402
aI2
aI5472
aI934
aI8993
aI233
aI8994
aI1521
aI7627
aI51
aI8995
aI2866
aI8996
aI8458
aI6016
aI8997
aI8998
aI2866
aI8999
aI8470
aI6344
aI934
aI9000
aI2120
aI9001
aI779
aI3671
aI9002
aI5472
aI934
aI9003
aI166
aI9004
aI1688
aI454
aI5472
aI934
aI9005
aI885
aI9006
aI2046
aI3627
aI3957
aI51
aI9007
aI290
aI9008
aI807
aI186
aI9009
aI934
aI9010
aI166
aI9011
aI232
aI9012
aI9013
aI51
aI9014
aI1803
aI9015
aI8516
aI6751
aI51
aI262
aI9016
aI2106
aI9017
aI232
aI6754
aI934
aI9018
aI262
aI9019
aI265
aI4655
aI493
aI1460
aI4655
aI9020
aI402
aI9021
aI9022
aI3656
aI51
aI9023
aI1466
aI9024
aI1665
aI190
aI4317
aI934
aI9025
aI262
aI9026
aI4188
aI9027
aI51
aI9028
aI1803
aI9029
aI246
aI4937
aI4938
aI51
aI9030
aI1803
aI9031
aI166
aI299
aI4655
aI934
aI9032
aI2635
aI9033
aI3405
aI4991
aI934
aI9034
aI2568
aI9035
aI8470
aI5054
aI51
aI9036
aI4188
aI9037
aI1803
aI5265
aI3361
aI934
aI9038
aI1803
aI9039
aI233
aI5361
aI64
aI9040
aI1803
aI9041
aI1316
aI4640
aa(lp189
I798
aI22
aI10
aI217
aI68
aI291
aI566
aI4
aI285
aI389
aI199
aI340
aI1583
aI232
aI289
aI9042
aI15
aI75
aI8458
aI147
aI292
aI9043
aI15
aI75
aa(lp190
I798
aI22
aI10
aI217
aI68
aI291
aI566
aI4
aI285
aI389
aI380
aI9044
aI15
aI75
aI1256
aI807
aI147
aI199
aI340
aI1044
aI232
aI292
aI293
aI285
aI389
aI273
aI75
aI48
aI285
aI191
aI1362
aI408
aa(lp191
I798
aI22
aI10
aI217
aI68
aI291
aI566
aI4
aI285
aI389
aI380
aI9045
aI15
aI75
aI8753
aI147
aI4151
aI297
aI340
aI1664
aI232
aI285
aI389
aI273
aI75
aI48
aI285
aI191
aI1362
aI408
aa(lp192
I798
aI22
aI3547
aI3548
aI18
aI3
aI153
aI287
aI3808
aI1354
aI781
aI1039
aI1196
aI392
aI147
aI1055
aI2282
aI22
aI3907
aI859
aI2870
aI4178
aI3459
aI560
aI294
aI3639
aI1035
aI9046
aI1576
aI1499
aI1648
aI375
aa(lp193
I798
aI1742
aI3639
aI1206
aI333
aI9047
aI9048
aI8223
aI66
aI9049
aI840
aI1146
aI340
aI1802
aI3546
aI18
aI96
aI3726
aI1321
aI821
aI8223
aI531
aI901
aI8497
aa(lp194
I798
aI22
aI802
aI1239
aI348
aI4180
aI4
aI566
aI2120
aI147
aI289
aI285
aI389
aI395
aI187
aI9050
aI348
aI802
aI266
aI114
aI839
aI239
aI340
aI9051
aa(lp195
I798
aI22
aI10
aI217
aI68
aI291
aI566
aI4
aI285
aI389
aI2130
aI290
aI147
aI292
aI9052
aI15
aI75
aI579
aI3317
aI76
aI232
aa(lp196
I798
aI22
aI10
aI217
aI68
aI291
aI566
aI4
aI285
aI389
aI294
aI295
aI199
aI340
aI1510
aI807
aI1782
aI292
aI293
aI199
aI340
aI1044
aI232
aI478
aI360
aI9053
aI75
aI4154
aI262
aI147
aa(lp197
I22
aI3510
aI1610
aI18
aI331
aI1321
aI1648
aI508
aI89
aI617
aI9054
aI9055
aI1288
aI2832
aI9054
aI91
aI8671
aI105
aI1648
aI3510
aI33
aI34
aI35
aI9054
aI1052
aI2748
aI8671
aI1648
aI107
aI3
aI4
aI20
aI1718
aI599
aI22
aI583
aI1106
aI3510
aI91
aI2420
aI2001
aI1446
aI3511
aI3512
aa(lp198
I915
aI9056
aI9057
aI867
aI918
aI335
aI130
aI2550
aI2514
aI9058
aI2305
aI808
aI220
aI9059
aI22
aI970
aI1106
aI9060
aI1834
aI9061
aI121
aI614
aI808
aI1273
aI2092
aI2550
aI9062
aI1462
aI602
aI9063
aI333
aI107
aI8226
aI1360
aI107
aI333
aI100
aI9064
aI348
aI627
aI47
aI9065
aI9059
aI92
aI130
aI2550
aI1332
aI8368
aI9061
aI9066
aI639
aI664
aI361
aI8651
aI3930
aI9067
aI970
aI128
aI918
aI9068
aI8649
aI3794
aI9069
aI678
aI9057
aI867
aI9070
aI1235
aI335
aI186
aI175
aI867
aI334
aI9071
aI2952
aI3671
aI3672
aa(lp199
I3550
aI9072
aI1635
aI2288
aI1281
aI196
aI9073
aI492
aI9074
aI150
aI1006
aI2495
aI1628
aI2663
aI9075
aI239
aI1342
aI493
aI2574
aI1565
aI1111
aI439
aI9076
aI512
aI1011
aI8716
aI9077
aI9078
aI1961
aI578
aI3784
aI1841
aI2831
aI488
aI114
aI1874
aI2790
aI9079
aI1394
aI9080
aI9081
aI9074
aI23
aI859
aI3169
aI196
aI1451
aI15
aI3843
aI1011
aI1115
aI9082
aI1376
aI2025
aI1342
aI1741
aI391
aI653
aI9083
aI2001
aI9084
aI1376
aI2025
aI1344
aa(lp200
I22
aI3511
aI3512
aI18
aI508
aI3545
aI3
aI681
aI20
aI1498
aI789
aI1558
aI9085
aI776
aI107
aI287
aI2387
aI9086
aI3712
aI560
aI1044
aI232
aI481
aI3712
aI9087
aI792
aI107
aI1056
aI91
aI375
aI3511
aI3
aI3511
aI33
aI1201
aI1202
aI310
aI375
aI1247
aI3753
aI481
aI3712
aI1055
aI1042
aI143
aI481
aI9085
aI2071
aI776
aI3071
aI709
aI8206
aI389
aI160
aI204
aI1718
aI8171
aI76
aI107
aI3
aI481
aI9085
aI3511
aI681
aI20
aI1498
aI1042
aI2584
aI1235
aa(lp201
I22
aI508
aI3545
aI3511
aI3512
aI5
aI134
aI2246
aI15
aI409
aI349
aI880
aI870
aI42
aI9088
aI1055
aI3641
aI3731
aI3642
aI1049
aI783
aI130
aI2256
aI3
aI924
aI22
aI579
aI340
aI9089
aI3005
aI31
aI479
aI870
aI839
aI910
aI3511
aI3512
aI18
aI1462
aI899
aI42
aI687
aI321
aI207
aI2521
aI22
aI580
aI317
aI328
aI2306
aa(lp202
I22
aI3511
aI3512
aI18
aI608
aI587
aI2915
aI1618
aI4
aI24
aI1288
aI23
aI75
aI910
aI221
aI3753
aI4120
aI712
aI18
aI3511
aI486
aI331
aI8168
aI3
aI465
aI656
aI36
aI37
aI9090
aI4126
aI75
aI296
aI665
aI1170
aI9090
aI75
aI22
aI665
aI543
aI9091
aI75
aI465
aI695
aI9092
aI9093
aI479
aI88
aI22
aI68
aI23
aI3271
aI3511
aI3512
aI148
aI3753
aI61
aI19
aI1321
aI33
aI9094
aI53
aI3750
aI147
aI3511
aI68
aI380
aI1149
aI1168
aI9095
aI75
aI3511
aI33
aI1201
aI1202
aa(lp203
I22
aI508
aI3545
aI3511
aI3512
aI5
aI134
aI2246
aI15
aI409
aI349
aI880
aI870
aI42
aI9088
aI1055
aI3641
aI3731
aI3642
aI1049
aI783
aI130
aI2256
aI3
aI924
aI22
aI579
aI340
aI9089
aI3005
aI31
aI479
aI870
aI839
aI910
aI3511
aI3512
aI18
aI1462
aI899
aI42
aI687
aI321
aI207
aI2521
aI22
aI580
aI317
aI328
aI2306
aa(lp204
I22
aI1446
aI107
aI790
aI177
aI147
aI207
aI1259
aI587
aI4
aI880
aI856
aI42
aI1648
aI66
aI518
aI665
aI3
aI465
aI3830
aI2407
aI4006
aI22
aI3511
aI3512
aI18
aI508
aI3545
aI3
aI1259
aI587
aI380
aI1083
aI147
aI383
aI571
aI1049
aI1035
aI508
aI1661
aI9096
aI1460
aI4063
aI560
aI252
aI8226
aI572
aa(lp205
I764
aI970
aI1354
aI3084
aI1940
aI3643
aI712
aI107
aI1948
aI1680
aI6
aI578
aI1106
aI1484
aI222
aI9013
aI679
aI9097
aI2244
aI508
aI3545
aI9098
aI18
aI3011
aI1844
aI23
aI92
aI4015
aI223
aI199
aI3107
aI9099
aI699
aI187
aI107
aI632
aI2093
aI2220
aa(lp206
I22
aI3511
aI3512
aI18
aI625
aI8475
aI1446
aI1303
aI9100
aI3
aI4
aI1078
aI6
aI8475
aI375
aI9100
aI23
aI280
aI439
aI294
aI3511
aI682
aI2853
aI2624
aI3868
aI64
aI383
aI23
aI22
aI282
aI283
aI1080
aI566
aI4
aI3511
aI1078
aI3065
aI21
aI318
aI1464
aI2207
aI9101
aI107
aI3065
aI21
aI690
aI88
aI581
aI3265
aI22
aI375
aI23
aI3789
aI178
aI223
aI163
aI3511
aI75
aI380
aI9102
aI9103
aI10
aI217
aI68
aI291
aa(lp207
I22
aI3511
aI3512
aI18
aI3
aI4
aI287
aI6
aI1499
aI9104
aI770
aI777
aI508
aI1896
aI91
aI22
aI3784
aI3065
aI21
aI1006
aI947
aI2112
aI907
aI134
aI9105
aI15
aI626
aI348
aI3065
aI315
aI782
aI849
aI15
aI8226
aI2554
aI3065
aI3
aI287
aI590
aI1499
aI9104
aI37
aI911
aI2453
aI186
aI9106
aI1648
aI107
aI3511
aI315
aI3
aI287
aI159
aI9107
aI804
aI64
aI625
aI1491
aI3665
aI114
aI9108
aI15
aI3511
aI75
aI360
aI1515
aI9109
aa(lp208
I22
aI3794
aI652
aI8331
aI2293
aI9110
aI3263
aI2759
aI102
aI4
aI840
aI1571
aI3875
aI314
aI1244
aI178
aI145
aI9111
aI18
aI1297
aI391
aI1940
aI2454
aI1475
aI3875
aI9111
aI971
aI9112
aI157
aI1880
aI1606
aI1194
aI2491
aI3152
aI624
aI432
aa(lp209
I22
aI508
aI3545
aI3511
aI3512
aI5
aI4
aI159
aI130
aI920
aI18
aI3065
aI21
aI1006
aI947
aI2112
aI2434
aI15
aI3578
aI9113
aI375
aI3511
aI134
aI4005
aI15
aI626
aI782
aI9114
aI15
aI806
aI408
aI2247
aI15
aI412
aI572
aI130
aI920
aI33
aI34
aI35
aI257
aI1491
aI3281
aI1049
aI1267
aI24
aI2675
aI1683
aI130
aI2510
aI1683
aI802
aI3754
aI1056
aI1683
aI3511
aI33
aI1201
aI1202
aI333
aI9115
aI130
aI920
aI8679
aI9113
aI186
aa(lp210
I9116
aI1788
aI9117
aI720
aI3794
aI652
aI3803
aI770
aI681
aI9118
aI1049
aI2521
aI3923
aI18
aI156
aI153
aI287
aI1024
aI340
aI161
aI239
aI481
aI9117
aI1832
aI281
aI980
aI552
aI9057
aI867
aI970
aI3643
aI972
aI132
aI314
aI1049
aI658
aI3923
aI867
aI1184
aI107
aI3925
aI8319
aI8513
aI3192
aI3373
aI4064
aI9119
aI3803
aI2339
aa(lp211
I22
aI493
aI2282
aI99
aI103
aI2143
aI324
aI3511
aI18
aI1802
aI3546
aI18
aI9120
aI153
aI159
aI1802
aI3546
aI3692
aI3533
aI1283
aI157
aI1082
aI178
aI1323
aI22
aI493
aI2282
aI315
aI215
aI42
aI3018
aI25
aI720
aI3511
aI3510
aI18
aI3181
aI650
aI10
aI3533
aI1283
aI128
aI815
aI3511
aI1802
aI3546
aI3692
aI47
aI3614
aI586
aI493
aI2282
aI1354
aI541
aI171
aI3102
aI3511
aI9121
aI3181
aI107
aI572
aI262
aI178
aI883
aI1564
aI9122
aI3784
aI815
aI1329
aI3511
aI1684
aI3469
aI9121
aI287
aI257
aI1576
aI4167
aI252
aI1648
aI572
aI1113
aI9123
aI8795
aI3638
aI1329
aI493
aI2282
aI815
aI1283
aI1039
aI3895
aI186
aI175
aI1210
aI3642
aI22
aI493
aI2282
aI333
aI1661
aI9124
aI1283
aI1039
aI1224
aI3533
aI3181
aI9125
aa(lp212
I22
aI10
aI217
aI68
aI291
aI566
aI4
aI285
aI389
aI380
aI9126
aI15
aI75
aI3405
aI147
aI199
aI340
aI1365
aI885
aI292
aI9127
aI15
aI75
aI22
aI296
aI303
aI4135
aI9128
aI15
aI75
aI120
aI2593
aI232
aI22
aI285
aI389
aI297
aI163
aI2217
aI3686
aI15
aI75
aI128
aI297
aI285
aI389
aI190
aI68
aI291
aI807
aI15
aI75
aI9129
aI15
aI75
aI915
aI285
aI399
aI664
aI23
aI2565
aI68
aI267
aI159
aI1071
aI321
aI3317
aI252
aI253
aI408
aI23
aa(lp213
I22
aI1648
aI102
aI487
aI107
aI2557
aI850
aI1576
aI383
aI9130
aI102
aI322
aI3670
aI107
aI439
aI3510
aI3511
aI3547
aI3548
aI1802
aI3546
aI3512
aI9131
aI9132
aI1446
aI6253
aI9133
aI3118
aI15
aI1323
aI804
aI1076
aI148
aI9134
aI273
aI2538
aI3533
aI1648
aI66
aI9135
aI2195
aI8833
aI9136
aI107
aI4643
aI66
aI3
aI9137
aI2624
aI3535
aI102
aI695
aI9138
aI3470
aI9139
aI107
aI8303
aI432
aI266
aI3533
aI1648
aI10
aI91
aI22
aI1576
aI9140
aI804
aI850
aI10
aI91
aI1556
aI639
aI2035
aI1002
aI1845
aI9141
aI1648
aI8780
aI1049
aI102
aI2150
aI1217
aI22
aI1283
aI1673
aI9142
aI3670
aI2873
aI400
aI153
aa(lp214
I22
aI10
aI217
aI68
aI291
aI566
aI4
aI285
aI389
aI9143
aI15
aI75
aI4005
aI147
aI199
aI340
aI2593
aI232
aI292
aI9144
aI15
aI75
aI22
aI296
aI303
aI9145
aI15
aI75
aI120
aI1276
aI232
aI22
aI285
aI389
aI297
aI163
aI2217
aI9146
aI15
aI75
aI128
aI297
aI285
aI389
aI190
aI68
aI291
aI9147
aI75
aI2203
aI15
aI75
aI915
aI285
aI399
aI664
aI23
aI2565
aI68
aI267
aI159
aI1071
aI321
aI3317
aI252
aI253
aI408
aI23
aa(lp215
I22
aI3511
aI3512
aI18
aI3
aI4
aI5
aI6
aI3512
aI3656
aI102
aI186
aI186
aI39
aI107
aI1272
aI375
aI310
aI3510
aI1610
aI18
aI1718
aI599
aI3512
aI3656
aI2645
aI2068
aI3523
aI1541
aI8467
aI2626
aI586
aI1041
aI8777
aI3523
aI107
aI3512
aI3656
aI33
aI9148
aI53
aI822
aI23
aI3362
aI15
aI22
aI107
aI247
aI2231
aI892
aI1326
aI1803
aI175
aI3511
aI3512
aI75
aI360
aI2701
aI9149
aa(lp216
I6260
aI64
aI1321
aI771
aI9150
aI998
aI1094
aI3
aI4
aI287
aI310
aI9151
aI15
aI68
aI592
aI9152
aI107
aI2387
aI22
aI592
aI388
aI68
aI6260
aI9153
aI75
aI166
aI147
aI571
aI857
aI318
aI253
aI9154
aI6260
aI1317
aI9155
aI1168
aI4
aI318
aI9156
aI915
aI1791
aI40
aI1782
aI107
aI3
aa(lp217
I10
aI2908
aI907
aI1664
aI1803
aI22
aI493
aI2282
aI970
aI940
aI1094
aI2674
aI431
aI25
aI119
aI9157
aI96
aI25
aI103
aI9158
aI559
aI8850
aI783
aI752
aI2360
aI1576
aI100
aI432
aI259
aI352
aI1460
aI712
aI783
aI25
aI163
aI493
aI2282
aI2148
aI1841
aI3522
aI1576
aI1237
aI1802
aI1483
aI107
aI9159
aI9160
aI1648
aI21
aI186
aI186
aI91
aI18
aI712
aI572
aI1011
aI604
aI9161
aI1933
aI3213
aI9162
aI1040
aI9163
aI22
aI1933
aI493
aI2282
aI9164
aI9165
aI476
aI8207
aI970
aI972
aI481
aI9163
aI280
aI2277
aI9166
aI1933
aI3668
aI685
aI9167
aI481
aI9167
aI269
aI8625
aI3512
aI18
aI25
aI872
aI3547
aI3548
aI18
aI3511
aI18
aI712
aI572
aI3668
aI1283
aI22
aI970
aI156
aI431
aI287
aI1802
aI1483
aI1052
aI698
aI1094
aI9168
aI3692
aI3533
aI9159
aI9160
aI625
aI2046
aI1094
aI9169
aI3691
aI3533
aI22
aI783
aI287
aI2871
aI253
aI156
aa(lp218
I8607
aI3179
aI721
aI3181
aI3533
aI1283
aI493
aI2282
aI215
aI2639
aI3545
aI161
aI8259
aI1283
aI3512
aI18
aI1948
aI3254
aI2317
aI2674
aI1648
aI845
aI9170
aI19
aI439
aI361
aI1847
aI1283
aI88
aI9171
aI3181
aI2565
aI2145
aI547
aI212
aI9172
aI2854
aI1362
aI9173
aI3126
aI861
aI434
aI3754
aI9174
aI813
aI9171
aI489
aI9175
aI6090
aI342
aI9176
aI8799
aI1376
aI2811
aI3725
aI8282
aI1094
aI9177
aI1045
aI1648
aI978
aI2317
aI2674
aI1718
aI1376
aI153
aI3
aI2838
aI9178
aI1135
aI3758
aI204
aa(lp219
I22
aI250
aI190
aI102
aI60
aI1349
aI1913
aI252
aI572
aI280
aI1055
aI547
aI9179
aI8441
aI531
aI2778
aI1354
aI3639
aI56
aI3545
aI4416
aI10
aI9180
aI3639
aI3638
aI572
aI9181
aI8384
aI5953
aI508
aI3621
aI56
aI142
aI3545
aI1051
aI10
aI1460
aI114
aI1484
aI590
aI572
aI5953
aI128
aI119
aI96
aI9182
aI3545
aI2859
aI1237
aI645
aI9130
aI9183
aI107
aI1875
aI3226
aI1035
aI990
aI9184
aI3
aI859
aI8493
aI9185
aI9186
aI9187
aI3729
aI720
aI771
aI9188
aI3213
aI2842
aI1542
aI3545
aI3428
aI1237
aI3271
aI572
aI1788
aI3190
aI754
aI830
aa(lp220
I22
aI68
aI266
aI9189
aI692
aI3213
aI8225
aI1071
aI790
aI9190
aI2538
aI4
aI574
aI187
aI22
aI299
aI300
aI102
aI301
aI4063
aI9191
aI8378
aI8614
aI318
aI9192
aI523
aI9193
aI222
aI239
aI2123
aI9194
aI1397
aI2896
aI523
aI1686
aI294
aI9195
aI191
aI353
aI8787
aI9196
aI209
aI9197
aI4
aI2538
aI1071
aI10
aI217
aI68
aI291
aI9198
aI294
aI68
aI1256
aI9199
aI8508
aI9200
aI96
aI400
aI380
aI9201
aI15
aI75
aI9202
aI15
aI75
aI473
aa(lp221
I798
aI22
aI10
aI217
aI68
aI291
aI566
aI4
aI273
aI75
aI48
aI285
aI191
aI1362
aI408
aI380
aI2216
aI147
aI96
aI400
aI4151
aI297
aI340
aI1569
aI232
aa(lp222
I798
aI22
aI10
aI217
aI68
aI291
aI4
aI566
aI285
aI389
aI96
aI400
aI380
aI2696
aI147
aI4151
aI297
aI340
aI223
aI924
aa(lp223
I798
aI22
aI10
aI217
aI68
aI291
aI566
aI4
aI285
aI389
aI96
aI400
aI380
aI63
aI147
aI4151
aI297
aI340
aI223
aI1066
aa(lp224
I839
aI508
aI3545
aI602
aI130
aI783
aI1410
aI9203
aI3726
aI24
aI8671
aI3642
aI22
aI3511
aI3512
aI18
aI3
aI4
aI1062
aI783
aI493
aI2282
aI3213
aI2538
aI804
aI1135
aI1267
aI88
aI459
aI9204
aI9203
aI2733
aI1541
aI8780
aI1376
aI7
aI391
aI8799
aI1822
aI2870
aI2220
aI2953
aI1672
aI542
aI1741
aI42
aI522
aI915
aI3511
aI49
aI8432
aI9205
aI3
aI783
aI388
aI232
aI15
aI2420
aI9206
aI783
aI211
aI3511
aI9182
aI8319
aI3510
aI1610
aI18
aI1446
aI107
aI318
aI1464
aI1768
aI1056
aI3312
aI3213
aI2538
aI804
aI1135
aI1267
aI2301
aI410
aI2333
aI3
aI1153
aI9207
aa(lp225
I798
aI22
aI10
aI217
aI68
aI291
aI566
aI4
aI273
aI75
aI48
aI285
aI1362
aI408
aI199
aI340
aI2593
aI232
aI289
aI296
aI199
aI9208
aI15
aI75
aI265
aI147
aI9209
aI15
aa(lp226
I798
aI22
aI508
aI783
aI102
aI9210
aI303
aI162
aI163
aI646
aI2497
aI1683
aI3071
aI487
aI142
aI3851
aI190
aI8422
aI878
aI720
aI76
aI1409
aI1576
aI9211
aa(lp227
I798
aI22
aI10
aI217
aI68
aI291
aI566
aI4
aI273
aI75
aI48
aI285
aI1362
aI408
aI199
aI340
aI1365
aI392
aI401
aI296
aI199
aI9212
aI15
aI75
aI9213
aI147
aI9214
aI15
aa(lp228
I798
aI22
aI3512
aI18
aI672
aI3018
aI1397
aI1576
aI1052
aI2538
aI1210
aI1648
aI3668
aI3
aI9215
aI754
aI375
aI22
aI3213
aI10
aI102
aI1496
aI566
aI162
aI10
aI217
aI8795
aI8260
aI1933
aI3213
aI5314
aI3470
aa(lp229
I798
aI22
aI3668
aI156
aI153
aI3018
aI1802
aI3546
aI18
aI3547
aI3548
aI18
aI215
aI1052
aI2538
aI1210
aI1648
aI66
aI320
aI1082
aI2120
aI178
aa(lp230
I798
aI22
aI10
aI217
aI68
aI291
aI566
aI4
aI96
aI400
aI285
aI389
aI399
aI273
aI75
aI48
aI285
aI1362
aI408
aI199
aI340
aI1569
aI232
aI380
aI9216
aI15
aI75
aI2710
aI147
aI9217
aI15
aI75
aa(lp231
I1564
aI1042
aI3512
aI18
aI5
aI2277
aI3511
aI18
aI1510
aI245
aI8194
aI482
aI287
aI798
aI573
aI869
aI9218
aI1791
aI360
aI153
aI619
aI3219
aI92
aI442
aI8633
aI9219
aI3512
aI3250
aI1039
aI3459
aI348
aI222
aI422
aI434
aI103
aI419
aI487
aI247
aI625
aI2495
aI3533
aI3668
aI1052
aI8178
aI9220
aI9221
aI9222
aI2501
aI8177
aI8180
aa(lp232
I128
aI3286
aI802
aI8219
aI508
aI2774
aI2870
aI436
aI103
aI419
aI9
aI3511
aI3512
aI18
aI3
aI153
aI287
aI3271
aI1055
aI2282
aI9223
aI1039
aI2247
aI147
aI340
aI2605
aI1812
aI508
aI3545
aI282
aI283
aI695
aI1701
aI459
aI3997
aI3270
aI263
aI107
aI3909
aI9224
aI102
aI978
aI9225
aI3286
aI3213
aI606
aI8219
aI547
aI9226
aI482
aI1838
aI572
aI1860
aI9227
aI720
aI3535
aI2551
aI9228
aI107
aI39
aI1812
aI2112
aI3
aI128
aI76
aI3512
aI18
aI3511
aI18
aI3285
aI3415
aI178
aI157
aI478
aI2574
aI39
aI85
aI375
aa(lp233
I22
aI3511
aI3512
aI18
aI1790
aI802
aI8219
aI508
aI2774
aI3271
aI1055
aI2282
aI9223
aI1039
aI2247
aI147
aI340
aI2605
aI22
aI3998
aI3781
aI9
aI103
aI419
aI8426
aI573
aI375
aI552
aI2139
aI9229
aa(lp234
I22
aI3511
aI3512
aI18
aI3
aI2929
aI333
aI1838
aI1638
aI1039
aI3641
aI3731
aI3642
aI66
aI2605
aI1742
aI66
aI36
aI1693
aI527
aI100
aI1838
aI1638
aI1039
aI2605
aI3511
aI49
aI3100
aI9230
aI3
aI1350
aI631
aI9231
aI1039
aI1838
aI179
aa(lp235
I22
aI3512
aI18
aI318
aI1648
aI2789
aI1326
aI9232
aI142
aI35
aI340
aI163
aI3633
aI2074
aI1462
aI22
aI573
aI156
aI473
aI287
aI3808
aI223
aI1055
aI2282
aI163
aI646
aI273
aI1256
aI1899
aI2150
aI3
aI3512
aI3
aI223
aI163
aI287
aI6
aI9232
aI142
aI37
aI318
aI19
aI36
aI107
aI3263
aI3512
aI1042
aI310
aI1201
aI3033
aI3511
aI18
aI157
aI388
aI9233
aI178
aI1462
aI1326
aI476
aI19
aI9234
aI9235
aa(lp236
I22
aI5367
aI18
aI3
aI4
aI287
aI6
aI3641
aI3731
aI3642
aI4111
aI375
aI3511
aI3512
aI18
aI1321
aI3641
aI5367
aI33
aI9236
aI44
aI287
aI6
aI9237
aI91
aI186
aI625
aI9238
aI9239
aI4111
aI489
aI1409
aI8674
aI3809
aI77
aI15
aI626
aI9237
aI33
aI9240
aI9241
aI5367
aI75
aI1317
aI262
aI9242
aI10
aI217
aI68
aI291
aa(lp237
I9243
aI222
aI3511
aI3512
aI1462
aI1914
aI10
aI85
aI9244
aI8507
aI764
aI3219
aI3189
aI22
aI171
aI3633
aI3726
aI100
aI8342
aI9245
aI1350
aI2859
aI990
aI892
aI1055
aI506
aI3511
aI9246
aI3512
aI2217
aI163
aI8302
aI8194
aI9247
aI4081
aI1039
aI1838
aI92
aI442
aI96
aI6658
aI207
aI223
aI239
aI273
aI2050
aI3511
aI3512
aI449
aI3271
aI1055
aI2282
aI9223
aI2247
aI147
aI340
aI2605
aI1350
aI9225
aI3286
aI3639
aI3907
aI3
aI25
aI1812
aI92
aI3225
aI1078
aI235
aI1217
aI103
aI419
aI128
aI9248
aI3512
aI2198
aI894
aI9249
aI625
aI103
aI419
aI487
aI1006
aI247
aI552
aI47
aI878
aI527
aI9250
aI2328
aI9251
aI431
aI9252
aI22
aI2393
aI248
aI573
aI1622
aI281
aI9
aI9253
aI506
aI281
aI1926
aI3092
aI3091
aI287
aI3633
aI7273
aa(lp238
I1742
aI693
aI9254
aI3677
aI482
aI865
aI508
aI3545
aI310
aI9255
aI9256
aI2673
aI375
aI1676
aI92
aI157
aI320
aI315
aI1106
aI107
aI9257
aI830
aI375
aI1791
aI250
aI8807
aI478
aI1619
aI625
aI1274
aI145
aI1165
aI3629
aI3
aI685
aI9258
aI681
aI475
aI5603
aI102
aI1201
aI1202
aI246
aI178
aI157
aI3510
aI18
aI1610
aI3677
aI18
aI156
aI924
aI205
aI3190
aI1359
aI107
aI85
aI606
aI1499
aI375
aI3213
aI85
aI2521
aI262
aI178
aI375
aa(lp239
I22
aI3510
aI18
aI1610
aI3677
aI18
aI156
aI1686
aI153
aI5
aI482
aI291
aI67
aI68
aI388
aI246
aI178
aI22
aI263
aI107
aI449
aI3510
aI1610
aI18
aI287
aI822
aI23
aI176
aI178
aI625
aI802
aI487
aI508
aI3545
aa(lp240
I869
aI3609
aI201
aI9259
aI381
aI681
aI475
aI1610
aI3677
aI1255
aI9259
aI2514
aI3325
aI9260
aI375
aI9261
aI479
aI2514
aI22
aI448
aI547
aI625
aI9262
aI9263
aI9264
aI9265
aI649
aI9262
aI9264
aa(lp241
I22
aI3511
aI3512
aI18
aI3
aI4
aI2073
aI656
aI380
aI176
aI147
aI411
aI589
aI37
aI9266
aI508
aI1896
aI114
aI289
aI9266
aI606
aI3641
aI3642
aI66
aI22
aI107
aI3
aI3504
aI2808
aI380
aI1616
aI15
aI9208
aI75
aI282
aI283
aI465
aI3511
aI3512
aI656
aI3750
aI1168
aI75
aI606
aI380
aI1307
aI147
aI3978
aI178
aa(lp242
I128
aI157
aI872
aI1620
aI1860
aI333
aI18
aI3
aI4
aI458
aI174
aI15
aI9267
aI40
aI3511
aI3512
aI18
aI950
aI42
aI910
aI3512
aI1052
aI103
aI419
aI22
aI412
aI408
aI9268
aI2205
aI9269
aI585
aI9270
aI9271
aI487
aI1499
aI358
aI359
aI412
aI103
aI419
aI163
aI1064
aI1557
aI3932
aI9272
aI107
aI1860
aI333
aI358
aI359
aI9273
aa(lp243
I22
aI3511
aI3512
aI18
aI1321
aI3641
aI3642
aI5
aI4
aI134
aI3362
aI15
aI8753
aI147
aI9106
aI1648
aI47
aI22
aI55
aI383
aI3511
aI289
aI1499
aI1648
aI1055
aI508
aI2774
aI8219
aI3511
aI853
aI146
aI147
aI9106
aI5630
aI18
aI144
aI322
aI754
aI3065
aI21
aI947
aI2112
aI3511
aI797
aI3152
aI159
aI3065
aI148
aI9106
aI625
aI19
aI3641
aI8461
aI508
aI8467
aI2495
aI28
aI1446
aI9100
aa(lp244
I22
aI3510
aI18
aI3
aI153
aI287
aI3271
aI253
aI3692
aI3533
aI1283
aI1668
aI10
aI3596
aI9274
aI508
aI3545
aI1841
aI3909
aI3813
aI9275
aI3639
aI132
aI3510
aI1217
aI253
aI3998
aI1206
aI2420
aI238
aI2001
aI8244
aI658
aI508
aI783
aI9276
aI253
aI3822
aI1306
aI9277
aI288
aa(lp245
I2987
aI3656
aI642
aI2527
aI9278
aI1475
aI1476
aI1243
aI9279
aI264
aI422
aI434
aI646
aI479
aI438
aI8194
aI1989
aI493
aI22
aI59
aI9280
aI9281
aI1677
aI324
aI452
aI5774
aI3179
aI493
aI264
aI872
aI2574
aI486
aI2674
aI1788
aI2841
aI2085
aI486
aI2674
aI621
aI2510
aI9282
aI8310
aI190
aI1802
aI9283
aI9284
aI1496
aI9285
aI2057
aI2674
aI163
aI547
aI102
aI1042
aI1648
aI211
aI2540
aI5584
aI3726
aI5590
aI9286
aI9287
aI9288
aI1410
aI7855
aI9289
aI8194
aI550
aI692
aI4090
aI1283
aI6112
aI1178
aI439
aI2838
aI9290
aI2242
aI3511
aI2838
aI1610
aI3144
aI9291
aI9292
aI1743
aI506
aI1256
aI3099
aI8194
aI9293
aI1283
aI8731
aI9294
aI2872
aI1094
aI531
aI9295
aI320
aI649
aI107
aI267
aI1049
aI783
aa(lp246
I222
aI479
aI391
aI1042
aI1252
aI273
aI2565
aI75
aI48
aI285
aI1362
aI408
aI1261
aI360
aI190
aI68
aI291
aI199
aI340
aI2306
aI2635
aI431
aI404
aI285
aI23
aI380
aI292
aI10
aI217
aI68
aI291
aI128
aI466
aI566
aI1367
aI4
aI10
aI217
aI291
aI3
aI273
aI404
aI75
aI380
aI2074
aI147
aI953
aI178
aI75
aI2567
aI296
aI292
aI2566
aI178
aI75
aI120
aI199
aI340
aI76
aI413
aa(lp247
I22
aI3511
aI3512
aI18
aI333
aI9296
aI572
aI2958
aI15
aI163
aI8426
aI910
aI3512
aI18
aI2527
aI9211
aI9297
aI3639
aI2774
aI8607
aI289
aI587
aI107
aI3263
aI39
aI1201
aI1202
aI906
aI3808
aI37
aI76
aI268
aI107
aI2430
aI3
aI8250
aI8251
aI792
aI681
aI475
aI22
aI1995
aI3271
aI37
aI572
aI2958
aI15
aI163
aI1442
aI2605
aI481
aI8251
aI3
aI793
aI1142
aI1354
aI573
aI333
aI543
aI7400
aI573
aI3512
aI3511
aI47
aI333
aI163
aI22
aI107
aI2579
aI2406
aI656
aI2407
aI1442
aI161
aI163
aI481
aI8251
aI3
aI1625
aI822
aI823
aI1201
aI1202
aI4
aa(lp248
I22
aI3512
aI18
aI602
aI8572
aI15
aI186
aI175
aI493
aI2282
aI1442
aI1055
aI42
aI9298
aI616
aI8655
aI2220
aI1210
aI3809
aI114
aI1283
aI1055
aI1348
aI107
aI8183
aI114
aI770
aI8183
aI810
aI317
aI54
aI129
aI965
aI22
aI3809
aI114
aI2538
aI8655
aI8230
aI642
aI1484
aI114
aI3512
aI33
aI9299
aI8704
aI310
aI3511
aI18
aI223
aI199
aa(lp249
I22
aI9300
aI3512
aI18
aI245
aI68
aI1352
aI1484
aI396
aI107
aI99
aI6
aI68
aI3511
aI18
aI19
aI3511
aI9233
aI178
aI2093
aI241
aI987
aI487
aI9301
aI1571
aI68
aI3512
aI245
aI1366
aI2706
aI2093
aI22
aI9300
aI3
aI68
aI287
aI3623
aI1066
aI1331
aI3511
aI241
aI2246
aI75
aI22
aI1610
aI3677
aI18
aI2002
aI3512
aI207
aI141
aI1658
aI9302
aI241
aI8171
aI1297
aI2246
aI75
aI3512
aI245
aI1352
aI1082
aI9303
aI15
aI1637
aI147
aI1082
aI552
aI1610
aI3677
aI156
aI238
aa(lp250
I987
aI3512
aI18
aI156
aI1572
aI5
aI2093
aI3511
aI18
aI96
aI609
aI3512
aI245
aI482
aI287
aI6823
aI1039
aI393
aI25
aI2790
aI3222
aI9304
aI9305
aI374
aI3
aI1860
aI9306
aI1491
aI9307
aI478
aI625
aI75
aI3512
aI68
aI1788
aI1082
aI990
aI9308
aI1913
aI1788
aI3516
aI1039
aI8204
aI409
aa(lp251
I1160
aI9309
aI1150
aI882
aI15
aI3285
aI3511
aI18
aI3512
aI18
aI2708
aI9310
aI1061
aI153
aI320
aI1325
aI3643
aI1610
aI3677
aI18
aI3511
aI42
aI2001
aI8604
aI438
aI10
aI238
aI1860
aI9311
aI3512
aI49
aI294
aI3265
aI1061
aI8342
aI1217
aI340
aI317
aI290
aI9312
aI1733
aI391
aI3512
aI287
aI156
aI3874
aI918
aI166
aI4276
aI1733
aI391
aa(lp252
I22
aI242
aI8384
aI18
aI3
aI239
aI287
aI1225
aI3512
aI18
aI3932
aI8504
aI8385
aI1856
aI318
aI187
aI1066
aI1224
aI1312
aI9313
aI64
aI22
aI156
aI298
aI3512
aI25
aI9314
aI508
aI3545
aI5
aI310
aI3511
aI18
aI9315
aI178
aI1312
aI9313
aI315
aI1429
aI3932
aI8504
aI1748
aI235
aI256
aI9316
aI102
aI21
aa(lp253
I22
aI3511
aI18
aI1791
aI1990
aI153
aI9317
aI324
aI3512
aI18
aI9318
aI103
aI419
aI508
aI3545
aI3512
aI99
aI581
aI482
aI1940
aI2332
aI3468
aI294
aI508
aI1035
aI9319
aI486
aI128
aI3108
aI342
aI3512
aI3511
aI2989
aI8462
aI1610
aI3677
aI18
aI5
aI134
aI2246
aI75
aI167
aI3415
aI178
aI3511
aI238
aI3555
aI1610
aI3677
aI2106
aI75
aI3787
aI15
aI22
aI1610
aI3677
aI157
aI287
aI1082
aI1637
aI75
aI3252
aI178
aa(lp254
I394
aI395
aI2229
aI1348
aI286
aI68
aI253
aI288
aI36
aI2130
aI199
aI340
aI1510
aI2635
aI10
aI217
aI190
aI68
aI291
aI566
aI4
aI22
aI96
aI400
aI566
aI167
aI285
aI399
aI68
aI273
aI75
aI2565
aI48
aI285
aI1362
aI408
aI1261
aI75
aI380
aI1451
aI147
aI292
aI2636
aI178
aI75
aI1297
aI2569
aI285
aI399
aI380
aI2637
aI147
aI292
aI2638
aI15
aa(lp255
I22
aI3512
aI18
aI2150
aI1790
aI153
aI2687
aI178
aI2093
aI238
aI3511
aI18
aI1217
aI624
aI348
aI291
aI1194
aI653
aI399
aI391
aI1381
aI3511
aI9320
aI241
aI154
aI3678
aI335
aI3512
aI400
aI1790
aI3511
aI241
aI1809
aI75
aI153
aI3511
aI33
aI1201
aI1202
aI1010
aI669
aI2093
aI238
aI199
aI3512
aI33
aI9299
aI8704
aI5
aI3285
aI1610
aI3677
aI18
aI1637
aI75
aa(lp256
I22
aI1610
aI3677
aI18
aI367
aI3512
aI18
aI658
aI482
aI3544
aI3512
aI138
aI2515
aI40
aI8274
aI1782
aI669
aI2002
aI3511
aI18
aI1610
aI3677
aI5
aI1044
aI2106
aI159
aI3512
aI1637
aI75
aa(lp257
I22
aI3512
aI18
aI9318
aI103
aI419
aI508
aI3545
aI674
aI432
aI1104
aI9321
aI9322
aI1205
aI8678
aI3147
aI9323
aI3726
aI102
aI180
aI3639
aI1035
aI8219
aI102
aI3263
aI107
aI96
aI3512
aI1016
aI159
aI8500
aI6
aI3909
aI22
aI3511
aI18
aI427
aI3726
aI1321
aI33
aI1201
aI1202
aI9324
aI238
aI2674
aI3512
aI223
aI239
aI625
aI2687
aI178
aI241
aI1809
aI75
aI543
aI1313
aI178
aI238
aI1637
aI75
aI476
aI2217
aI239
aI1610
aI3677
aI18
aa(lp258
I22
aI3512
aI18
aI400
aI5
aI153
aI1442
aI482
aI8303
aI3511
aI18
aI476
aI669
aI2687
aI178
aI238
aI310
aI103
aI419
aI508
aI3545
aI22
aI3511
aI241
aI1809
aI75
aI290
aI571
aI2217
aI8605
aI40
aI3512
aI1610
aI3677
aI18
aI22
aI167
aI388
aI3677
aI241
aI3252
aI178
aa(lp259
I1042
aI223
aI473
aI3511
aI18
aI9325
aI9326
aI241
aI653
aI3512
aI18
aI9327
aI2217
aI9302
aI238
aI1610
aI3677
aI18
aI3107
aI695
aI851
aI3511
aI9328
aI2093
aI22
aI307
aI68
aI1065
aI286
aI1111
aI9329
aI9330
aI9331
aI4
aI253
aI3511
aI75
aI3683
aI3399
aI9102
aI10
aI1063
aI303
aI9332
aI1818
aa(lp260
I581
aI3885
aI9333
aI578
aI2901
aI238
aI815
aI3512
aI18
aI120
aI1061
aI335
aI4
aI1049
aI23
aI107
aI120
aI473
aI1331
aI1791
aI241
aI42
aI8604
aI1610
aI3677
aI18
aI3511
aI18
aI3512
aI1463
aI8823
aI107
aI9334
aI2438
aI8649
aI598
aI400
aI381
aI681
aI475
aI9335
aI1861
aI9336
aI22
aI2438
aI3
aI3512
aI400
aI99
aI1875
aI977
aI1576
aI238
aI921
aI448
aI389
aI71
aI1009
aI645
aa(lp261
I915
aI552
aI3511
aI18
aI9325
aI2687
aI178
aI9326
aI669
aI2093
aI238
aI3512
aI18
aI2780
aI282
aI283
aI9337
aI508
aI3545
aI1097
aI9338
aI24
aI3511
aI764
aI3675
aI9339
aI9340
aI3
aI9341
aI8504
aI9342
aI720
aI591
aI39
aI2112
aI2714
aI3746
aI22
aI388
aI1543
aI3213
aI2112
aI1565
aI506
aI3511
aI3224
aI1804
aI1817
aI9328
aI2093
aa(lp262
I2565
aI2139
aI9343
aI113
aI7990
aI8250
aI8251
aI681
aI475
aI3511
aI18
aI241
aI882
aI15
aI1150
aI3512
aI18
aI153
aI5
aI482
aI241
aI980
aI1561
aI522
aI635
aI1331
aI1803
aI9312
aI1733
aI391
aI473
aI3511
aI3726
aI107
aI33
aI287
aI134
aI9131
aI253
aI3512
aI5
aI2217
aI199
aI2964
aI592
aI3285
aI1610
aI3677
aI18
aa(lp263
I128
aI280
aI120
aI238
aI2674
aI3511
aI18
aI241
aI854
aI4
aI55
aI3512
aI18
aI103
aI419
aI8267
aI1459
aI1809
aI75
aI2687
aI178
aI22
aI3511
aI241
aI298
aI28
aI552
aI1610
aI3677
aI18
aI156
aI287
aI55
aI3512
aI1637
aI75
aI22
aI324
aI3512
aI1668
aI42
aI9344
aI3726
aI625
aI9345
aI2674
aI9211
aI25
aI3639
aI1035
aI3726
aI804
aI1135
aI9213
aI178
aI163
aI442
aI1913
aI375
aI9346
aI1459
aI3909
aI56
aI508
aI3545
aI22
aI3572
aI107
aI3511
aI1610
aI3677
aI1989
aI3512
aI10
aI3285
aI353
aI318
aI1326
aI1838
aI8589
aa(lp264
I180
aI3512
aI18
aI8303
aI3285
aI1610
aI3677
aI18
aI1637
aI75
aI223
aI199
aI3511
aI18
aI2001
aI3726
aI3545
aI33
aI476
aI238
aI174
aI75
aI1064
aI2848
aI624
aI153
aI348
aI291
aI1194
aI3512
aI5
aI918
aI310
aI1610
aI3677
aI1637
aI75
aI1313
aI178
aI22
aI3678
aI624
aI1614
aI3511
aI238
aI120
aI238
aI2674
aI1610
aI3677
aI8331
aI3885
aI134
aI626
aI2228
aI68
aI508
aI3545
aI33
aI9299
aI8704
aa(lp265
I22
aI3511
aI3512
aI18
aI9347
aI186
aI175
aI508
aI3545
aI3
aI4
aI287
aI1838
aI1899
aI39
aI1039
aI3855
aI3936
aI375
aI25
aI331
aI1009
aI625
aI73
aI3843
aI3511
aI33
aI1201
aI1202
aI625
aI8475
aI1303
aI9100
aI19
aI1446
aI1283
aI9348
aI1446
aI9296
aI1303
aI1460
aI22
aI248
aI1039
aI1838
aI631
aI9349
aI3511
aI333
aI3808
aI168
aI1499
aI1648
aI186
aI478
aI1911
aI3756
aI880
aI2449
aI15
aI965
aI656
aI312
aI1303
aI3907
aI3511
aI75
aI360
aI9350
aI2389
aa(lp266
I9351
aI802
aI9352
aI9353
aI9354
aI9355
aI9356
aI2924
aI3911
aI9357
aI2643
aI2023
aI5
aI153
aI3285
aI3535
aI375
aI1606
aI8696
aI164
aI178
aI822
aI23
aI22
aI10
aI107
aI88
aI1606
aI3754
aI3213
aI1056
aI107
aI287
aI486
aI451
aI3535
aI107
aI1446
aI107
aI3510
aI1610
aI18
aa(lp267
I22
aI186
aI91
aI18
aI102
aI2679
aI625
aI594
aI1648
aI1094
aI9358
aI3
aI4
aI587
aI380
aI2247
aI147
aI396
aI570
aI4080
aI385
aI606
aI2495
aI1094
aI375
aI589
aI1460
aI42
aI96
aI2261
aI3535
aI102
aI3656
aI3293
aI64
aI3511
aI3512
aI18
aI315
aI566
aI289
aI656
aI1622
aI360
aI285
aI465
aI2133
aI68
aI3460
aI3656
aI3293
aI315
aI3
aI333
aI318
aI42
aI9359
aI1326
aI1022
aI1475
aI3993
aI162
aI3118
aI1462
aI186
aI175
aI1475
aI249
aI9296
aI572
aa(lp268
I22
aI10
aI217
aI68
aI291
aI566
aI4
aI285
aI389
aI807
aI147
aI1466
aI15
aI75
aI199
aI340
aI1365
aI232
aI9360
aI15
aI75
aI22
aI292
aI9361
aI15
aI75
aI120
aI223
aI199
aI393
aI1365
aI392
aI223
aI163
aI285
aI389
aI167
aI9362
aI15
aI75
aI128
aI248
aI297
aI285
aI389
aI190
aI68
aI291
aI380
aI453
aI15
aI75
aI2895
aI15
aI915
aI285
aI399
aI664
aI23
aI2565
aI68
aI267
aI159
aI1071
aI321
aI3317
aI252
aI253
aI408
aI23
aI22
aI1206
aI96
aI400
aI107
aI2574
aI845
aI1214
aa(lp269
I22
aI10
aI217
aI68
aI291
aI566
aI4
aI273
aI75
aI48
aI285
aI1362
aI408
aI289
aI1120
aI15
aI1741
aI262
aI147
aI199
aI340
aI1664
aI232
aI978
aI289
aI9363
aI15
aI75
aI298
aI294
aI566
aI296
aI199
aI22
aI190
aI68
aI291
aI315
aI566
aI294
aI4
aI273
aI75
aI48
aI285
aI1362
aI408
aI297
aI22
aI2569
aI3
aI1366
aI360
aI232
aI15
aI75
aI1313
aI147
aI167
aI9364
aI15
aI75
aI222
aI223
aI28
aI199
aI2569
aI1366
aI294
aI1486
aI292
aI303
aI2160
aI15
aI75
aI1365
aI232
aI1872
aa(lp270
I22
aI10
aI217
aI68
aI291
aI566
aI4
aI273
aI75
aI48
aI285
aI1362
aI408
aI199
aI340
aI1044
aI232
aI207
aI9365
aI15
aI75
aI1727
aI147
aI9366
aI15
aI75
aI22
aI294
aI298
aI105
aI289
aI296
aI297
aI22
aI248
aI1366
aI4155
aI2137
aI262
aI147
aI167
aI75
aI917
aI96
aI400
aa(lp271
I635
aI9367
aI391
aI1115
aI1565
aI3512
aI18
aI22
aI3639
aI970
aI3815
aI8730
aI9368
aI1210
aI1283
aI320
aI1018
aI10
aI375
aI9299
aI8704
aI107
aI22
aI3668
aI1097
aI2455
aI3512
aI9369
aI9234
aI3533
aI586
aI9370
aI1224
aI8730
aI9371
aI3642
aI459
aI9372
aI3547
aI3548
aI18
aI1802
aI3546
aI18
aa(lp272
I3213
aI1933
aI8355
aI8356
aI970
aI918
aI2795
aI8730
aI1210
aI1648
aI281
aI3843
aI8244
aI3547
aI3548
aI18
aI1802
aI3546
aI18
aI1940
aI1842
aI294
aI845
aI3639
aI1135
aI8613
aI2395
aI178
aI66
aI487
aI508
aI66
aI1564
aI2163
aI3639
aI970
aI315
aI625
aI107
aI9373
aI8338
aI1362
aI980
aI9374
aI375
aI130
aI2774
aI1237
aI36
aI294
aI715
aI802
aI508
aI2282
aa(lp273
I222
aI2145
aI162
aI434
aI3639
aI508
aI783
aI102
aI521
aI178
aI1323
aI459
aI721
aI1896
aI8780
aI286
aI2538
aI91
aI287
aI1106
aI186
aI175
aI970
aI654
aI2674
aI128
aI1281
aI3853
aI9375
aI223
aI239
aI1274
aI2859
aI479
aI358
aI2748
aI9376
aI664
aI1104
aI1913
aI1915
aI508
aI3726
aI645
aI889
aI330
aI508
aI269
aI1409
aI9377
aI3639
aI2150
aI3
aI9378
aI2733
aI3526
aI1661
aI775
aI8208
aI1661
aI8648
aI3853
aI1654
aI9379
aI2220
aI2196
aI3894
aI850
aI3657
aI2191
aI493
aI2282
aI9380
aI9381
aI9382
aI1648
aI1372
aI2080
aI2735
aI91
aI439
aI9383
aI9384
aI1456
aI9385
aI8241
aI3809
aI1051
aI9386
aI3526
aI994
aI9387
aI9388
aI1661
aI10
aI114
aI88
aI9389
aI1658
aI2872
aI1654
aI3790
aI2220
aI474
aI9390
aI1281
aI181
aI9391
aI8259
aI1648
aI617
aI9392
aI2150
aI1479
aI9393
aI9394
aI207
aI3644
aI9395
aI3731
aI8448
aI1415
aI8835
aI1954
aI8807
aI3526
aI528
aI869
aI2948
aI2808
aI9391
aI9396
aI3526
aI190
aI2282
aI3025
aI9397
aI3586
aI474
aI1281
aI10
aI9398
aI721
aI2000
aI9399
aI114
aa(lp274
I22
aI10
aI217
aI68
aI291
aI566
aI4
aI273
aI75
aI48
aI285
aI1362
aI408
aI2485
aI297
aI340
aI1330
aI232
aI360
aI1083
aI15
aI6827
aI147
aI9400
aI15
aI9401
aI15
aI2306
aI885
aI22
aI10
aI1366
aI2700
aI4003
aI147
aI167
aI75
aI917
aI96
aI400
aa(lp275
I180
aI3639
aI2774
aI294
aI3460
aI1543
aI96
aI3726
aI783
aI653
aI1429
aI2943
aI508
aI3545
aI92
aI783
aI3920
aI148
aI9330
aI215
aI3668
aI625
aI2328
aI107
aI1052
aI161
aI1210
aI3959
aI102
aI475
aI1049
aI2150
aI1217
aI148
aI3909
aI25
aI42
aI160
aI9402
aI6532
aI1802
aI3546
aI18
aI1483
aI8247
aI770
aI9403
aI3444
aa(lp276
I22
aI10
aI217
aI68
aI291
aI566
aI4
aI273
aI75
aI48
aI285
aI1362
aI408
aI207
aI3832
aI15
aI807
aI147
aI9404
aI15
aI199
aI340
aI1510
aI232
aI22
aI248
aI1366
aI4155
aI4003
aI262
aI147
aI167
aI75
aI917
aI96
aI400
aI478
aI315
aI566
aI4
aI2485
aI297
aI273
aI75
aI48
aI285
aI1362
aI408
aI190
aI68
aI291
aI294
aI453
aI15
aI402
aI147
aI9405
aI15
aI1044
aI232
aI1486
aI167
aI2717
aI15
aa(lp277
I128
aI650
aI2050
aI705
aI3703
aI9406
aI1940
aI508
aI783
aI102
aI1802
aI3546
aI18
aI3
aI4
aI465
aI1838
aI629
aI9407
aI1039
aI9408
aI1055
aI2282
aI839
aI163
aI22
aI1838
aI287
aI4164
aI281
aI573
aI9409
aa(lp278
I22
aI10
aI217
aI68
aI291
aI3
aI4
aI285
aI389
aI207
aI9410
aI15
aI75
aI2485
aI297
aI340
aI76
aI232
aI22
aI96
aI400
aI3
aI3317
aI285
aI389
aI167
aI9411
aI15
aI75
aI2247
aI147
aI167
aI9404
aI15
aI75
aI285
aI399
aI1510
aI232
aI579
aI3317
aa(lp279
I1297
aI907
aI8
aI76
aI3511
aI18
aI9412
aI543
aI475
aI74
aI107
aI2645
aI19
aI80
aI3641
aI3731
aI3642
aI9413
aI2674
aI9414
aI3638
aI2948
aI2795
aI9415
aI1283
aI9416
aI253
aI8668
aI3511
aI645
aI118
aI342
aI212
aI1940
aI20
aI9417
aI788
aI493
aI2282
aI2150
aI717
aI9418
aI2574
aI7
aI3644
aI9419
aI1540
aI9420
aI1930
aI3852
aI939
aI2674
aI1911
aI1809
aI737
aI8267
aI431
aI1349
aI9419
aI2191
aI9391
aI2279
aI1542
aI8310
aI42
aI1889
aI9421
aI9422
aI2150
aI3
aI320
aI1039
aI7
aI9419
aa(lp280
I22
aI643
aI977
aI285
aI23
aI10
aI217
aI68
aI291
aI380
aI2062
aI293
aI1042
aI1044
aI96
aI400
aI566
aI4
aI22
aI291
aI3
aI9423
aI15
aI75
aI48
aI285
aI1362
aI408
aI187
aI409
aI1583
aI232
aI411
aI187
aI1583
aI2635
aI1350
aI289
aI3978
aI15
aI75
aI1561
aI147
aI296
aI9424
aa(lp281
I259
aI3721
aI3143
aI3638
aI3722
aI293
aI508
aI1035
aI792
aI3712
aI840
aI3271
aI802
aI3723
aI2282
aI608
aI1619
aI3639
aI3545
aI1940
aI3724
aI3725
aI1838
aI3726
aI66
aI155
aI3727
aI695
aI3
aI153
aI128
aI1850
aI1625
aI1066
aI647
aI3728
aI3627
aI1880
aI2332
aI792
aI3712
aI476
aI3629
aI3729
aI3638
aI3730
aI3614
aI2806
aI3726
aI66
aI695
aI102
aI475
aI3
aI1684
aI3511
aI18
aI3641
aI3731
aI3642
aI47
aI3732
aI3733
aI2303
aI431
aI3734
aI1684
aI439
aI3735
aI3736
aI3737
aI3729
aI902
aI381
aI142
aI80
aI3738
aI1217
aI66
aI2810
aI212
aa(lp282
I22
aI10
aI217
aI68
aI291
aI566
aI4
aI285
aI389
aI289
aI1561
aI15
aI75
aI2485
aI297
aI340
aI1276
aI392
aI22
aI96
aI400
aI3
aI3317
aI285
aI389
aI167
aI9425
aI15
aI75
aI2113
aI147
aI9426
aI15
aI75
aI285
aI399
aI1583
aI232
aI579
aI3317
aa(lp283
I22
aI3511
aI3512
aI18
aI1052
aI1326
aI9427
aI523
aI1932
aI821
aI2748
aI10
aI2279
aI9428
aI8671
aI1283
aI8218
aI3668
aI22
aI9429
aI1326
aI257
aI77
aI1459
aI1039
aI320
aI272
aI1354
aI1616
aI132
aI289
aI2279
aI9428
aI3511
aI681
aI475
aI1934
aI379
aI9430
aI3
aI9431
aI9432
aI22
aI1326
aI54
aI1252
aI1442
aI37
aI1044
aI3511
aI2301
aI9433
aI9434
aI3
aI182
aI1636
aI2279
aI9428
aI9435
aI3324
aI9436
aI2501
aI1648
aI1376
aI2734
aI2232
aI9269
aI9437
aI9438
aI1556
aI2241
aI1698
aI1672
aa(lp284
I22
aI3511
aI3512
aI18
aI3
aI4
aI2568
aI178
aI783
aI2527
aI974
aI3668
aI9439
aI3723
aI1648
aI1175
aI9440
aI22
aI2634
aI24
aI36
aI3181
aI9441
aI9442
aI1326
aI249
aI8341
aI3271
aI9443
aI5651
aI1329
aI3511
aI3
aI1324
aI3511
aI2910
aI10
aI186
aI3258
aI15
aI783
aI2217
aI3181
aI1175
aI974
aI465
aI649
aI1137
aI3523
aI9444
aI915
aI1460
aI783
aI76
aI1082
aI361
aI290
aI178
aI107
aI3
aI22
aI107
aI853
aI2910
aI10
aI1046
aI13
aI165
aI550
aI1247
aI1081
aI178
aI3511
aI33
aI1201
aI1202
aa(lp285
I22
aI3511
aI3512
aI18
aI56
aI508
aI8168
aI9445
aI2870
aI6532
aI1052
aI8239
aI1648
aI1175
aI3668
aI1782
aI848
aI40
aI1048
aI3627
aI3511
aI287
aI608
aI2797
aI1462
aI2910
aI10
aI6532
aI13
aI232
aI147
aI8721
aI986
aI783
aI120
aI9446
aI9063
aI333
aI9447
aI1462
aI1064
aI107
aI3
aI22
aI2086
aI40
aI186
aI9448
aI345
aI1048
aI9449
aI479
aI592
aI3627
aI1042
aI3511
aI310
aI2910
aI10
aI1562
aI178
aI1247
aI672
aI2082
aI1064
aI857
aI3627
aI792
aI9450
aI9451
aI3
aI3511
aI33
aI1201
aI1202
aa(lp286
I1557
aI3470
aI8300
aI3611
aI3123
aI9452
aI9453
aI460
aI2678
aI8807
aI3639
aI508
aI3545
aI793
aI1933
aI493
aI2282
aI792
aI3547
aI3548
aI18
aI284
aI1933
aI3213
aI1542
aI672
aI3510
aI1610
aI18
aI400
aI1079
aI2516
aI550
aI720
aI792
aI3712
aI1194
aI1056
aI3706
aI3510
aI25
aI9454
aI331
aI3545
aI3735
aI685
aI9455
aI9456
aI957
aI9161
aI88
aI481
aI8300
aI1225
aI2902
aI3930
aI389
aa(lp287
I22
aI3668
aI2634
aI25
aI3639
aI331
aI508
aI783
aI163
aI1446
aI107
aI4
aI9457
aI1224
aI1445
aI9458
aI3843
aI3510
aI1610
aI18
aI578
aI572
aI176
aI178
aI1446
aI119
aI1499
aI1447
aI2495
aI9459
aI1648
aI88
aI9460
aI9461
aI1648
aI22
aI783
aI614
aI2085
aI107
aI8838
aI9462
aI223
aI163
aI1076
aI1288
aI508
aI783
aI128
aI3823
aI138
aI2501
aI2451
aI333
aI950
aI1647
aI2495
aI493
aI2282
aI586
aI3765
aI9463
aI3766
aa(lp288
I22
aI3511
aI3512
aI18
aI486
aI487
aI8244
aI8222
aI3
aI2073
aI587
aI380
aI2637
aI147
aI289
aI1055
aI3668
aI1506
aI8241
aI289
aI23
aI9464
aI114
aI8671
aI1023
aI1283
aI3504
aI2808
aI380
aI2833
aI15
aI8932
aI1168
aI75
aI9465
aI15
aI2074
aI1168
aI75
aI163
aI2217
aI3511
aI3
aI23
aI2130
aI1688
aI147
aI1447
aI178
aa(lp289
I22
aI3511
aI3512
aI18
aI508
aI3545
aI3
aI857
aI2693
aI656
aI1819
aI3550
aI302
aI23
aI856
aI145
aI223
aI163
aI3753
aI22
aI107
aI1960
aI614
aI2407
aI163
aI1021
aa(lp290
I915
aI9466
aI223
aI668
aI667
aI3535
aI102
aI3953
aI432
aI1056
aI3706
aI9467
aI107
aI1055
aI9468
aI1341
aI8648
aI8176
aI586
aI8178
aI66
aI22
aI3512
aI3535
aI18
aI19
aI3511
aI3512
aI476
aI9220
aI9222
aI22
aI9466
aI315
aI670
aI9469
aI650
aI2445
aI9220
aI9470
aI1541
aI478
aI586
aI8178
aI232
aI453
aI1466
aI1930
aa(lp291
I8190
aI869
aI792
aI3712
aI156
aI333
aI1686
aI163
aI2133
aI190
aI212
aI8180
aI8404
aI5668
aI2312
aI875
aI3643
aI9454
aI434
aI9471
aI2774
aI1383
aI9472
aI1039
aI2700
aI2943
aI1622
aI9473
aI609
aI6829
aI3535
aI102
aI1039
aI1446
aI25
aI1217
aI307
aI653
aI557
aI670
aI434
aI9474
aI141
aI9475
aI775
aI1056
aI617
aa(lp292
I22
aI9476
aI18
aI1321
aI1896
aI1484
aI8229
aI1648
aI5
aI159
aI9477
aI1000
aI64
aI146
aI15
aI1052
aI399
aI508
aI1499
aI266
aI9476
aI9478
aI9477
aI465
aI176
aI15
aI23
aI163
aI9479
aI375
aI9480
aI2013
aI2301
aI9481
aI9482
aI3
aa(lp293
I22
aI3511
aI3512
aI18
aI508
aI3545
aI5
aI4
aI159
aI5603
aI102
aI645
aI508
aI1896
aI79
aI114
aI802
aI487
aI1321
aI8849
aI8259
aI1695
aI2045
aI178
aI626
aI22
aI412
aI465
aI3475
aI3511
aI241
aI79
aI91
aI114
aI508
aI1406
aI186
aI175
aI1049
aI486
aI487
aI508
aI1661
aI1815
aI1049
aI2
aI375
aa(lp294
I22
aI3535
aI508
aI3545
aI3511
aI3512
aI18
aI566
aI153
aI656
aI380
aI396
aI570
aI664
aI571
aI8226
aI2808
aI589
aI1896
aI23
aI22
aI107
aI656
aI2239
aI15
aI8323
aI75
aI297
aI3158
aI15
aI9483
aI75
aI223
aI163
aI22
aI664
aI24
aI880
aI856
aI23
aI1330
aI3511
aI1499
aI9484
aI186
aI3065
aI21
aa(lp295
I869
aI9485
aI9486
aI1911
aI1039
aI804
aI1239
aI655
aI1644
aI76
aI1866
aI1107
aI287
aI8258
aI9487
aI428
aI8206
aI591
aI39
aI2146
aI1442
aI288
aI92
aI2217
aI199
aI481
aI9486
aI9488
aI247
aI9489
aI947
aI1969
aI476
aI9490
aI8856
aI5243
aI8857
aI649
aI947
aI1352
aI478
aI88
aI9485
aI9486
aI9491
aI3213
aI1352
aI481
aI9486
aI68
aI471
aI24
aI3511
aI3512
aI3862
aI25
aI1688
aI10
aI947
aI309
aI241
aI247
aI9492
aI1006
aI1464
aI2975
aI9493
aI53
aI1644
aI25
aI170
aI107
aI8341
aI1106
aI2305
aI191
aI3586
aI39
aI591
aa(lp296
I22
aI3511
aI3512
aI18
aI25
aI1446
aI107
aI487
aI645
aI3
aI4
aI287
aI1838
aI631
aI3634
aI1039
aI161
aI163
aI664
aI1446
aI333
aI9296
aI2495
aI1460
aI3511
aI2645
aI8475
aI1303
aI8464
aI2495
aI1940
aI162
aI3907
aI3511
aI3
aI223
aI239
aI287
aI3516
aI1472
aI15
aI23
aI161
aI163
aI1446
aI3907
aI22
aI1039
aI1838
aI3511
aI281
aI543
aI9494
aI1838
aI47
aI156
aI161
aI163
aI3511
aI96
aI3535
aI508
aI353
aI2217
aI1960
aI23
aI9495
aI178
aI2897
aa(lp297
I22
aI1802
aI1483
aI107
aI447
aI452
aI3
aI4
aI1565
aI839
aI1619
aI482
aI226
aI3813
aI36
aI3107
aI107
aI318
aI40
aI22
aI1993
aI107
aI856
aI1802
aI1483
aI186
aI175
aI3
aI3510
aI1610
aI18
aI141
aI2035
aI3511
aI3512
aI18
aI9496
aI2023
aI1993
aI3535
aI447
aI3510
aI294
aI3265
aI3511
aI49
aI2890
aI1155
aa(lp298
I22
aI1491
aI4790
aI18
aI3
aI4
aI2
aI606
aI80
aI2634
aI9497
aI783
aI39
aI657
aI1267
aI1491
aI114
aI3521
aI798
aI915
aI1491
aI4790
aI49
aI9498
aI9499
aI3
aI9500
aI2639
aI2642
aI24
aI8326
aI9501
aI9502
aI91
aI64
aI3511
aI3512
aI1006
aI1464
aI3545
aI9503
aI2149
aI20
aI1718
aI599
aI282
aI283
aI695
aI231
aI1491
aI1037
aI157
aI320
aI1082
aI1803
aI178
aI290
aI178
aI9504
aI783
aI632
aI1782
aI361
aI246
aI178
aI22
aI1491
aI9505
aI21
aI518
aI25
aI343
aI3510
aI1610
aI18
aa(lp299
I987
aI2461
aI9506
aI845
aI775
aI18
aI482
aI972
aI323
aI56
aI3005
aI2515
aI2521
aI18
aI345
aI331
aI550
aI3803
aI2150
aI2622
aI969
aI130
aI2150
aI566
aI624
aI292
aI273
aI557
aI163
aI482
aI3898
aI2551
aI3325
aI292
aI127
aI3005
aI1105
aI3681
aa(lp300
I22
aI10
aI217
aI68
aI291
aI566
aI4
aI273
aI75
aI48
aI285
aI1362
aI408
aI360
aI3108
aI297
aI340
aI410
aI232
aI1637
aI15
aI4003
aI262
aI147
aI9507
aI15
aI22
aI10
aI167
aI2700
aI4003
aI262
aI147
aI75
aI917
aI96
aI400
aI22
aI294
aI3719
aI2584
aI9508
aI289
aI404
aI285
aI399
aa(lp301
I3099
aI1841
aI9509
aI1237
aI1946
aI8212
aI9510
aI482
aI3279
aI3726
aI1460
aI171
aI118
aI1565
aI3776
aI1429
aI22
aI3671
aI3672
aI9511
aI223
aI199
aI28
aI552
aI3639
aI3808
aI3547
aI3548
aI18
aI1576
aI1052
aI802
aI161
aI1802
aI2495
aI3533
aI693
aI3510
aI1610
aI18
aI25
aI42
aI3909
aI815
aI1874
aI845
aI1429
aI3547
aI9512
aI930
aI9513
aI3393
aI3535
aI1094
aI1135
aI22
aI432
aI8189
aI1429
aI9514
aa(lp302
I987
aI1446
aI107
aI3786
aI156
aI153
aI392
aI178
aI482
aI3547
aI3548
aI18
aI9515
aI9516
aI25
aI9517
aI54
aI9518
aI1564
aI102
aI3572
aI9519
aI1049
aI1626
aI22
aI9520
aI8684
aI1683
aI845
aI2387
aI9518
aI171
aI508
aI3545
aI9521
aI839
aI163
aI3658
aI25
aI2943
aI1995
aI625
aI436
aI1576
aI1628
aa(lp303
I798
aI2674
aI9522
aI375
aI92
aI1321
aI9523
aI8223
aI1283
aI587
aI25
aa(lp304
I798
aI22
aI10
aI217
aI68
aI291
aI566
aI4
aI285
aI389
aI380
aI9524
aI9525
aI75
aI1294
aI147
aI4151
aI297
aI340
aI1569
aI232
aI285
aI389
aI273
aI75
aI48
aI285
aI191
aI1362
aI408
aa(lp305
I798
aI22
aI10
aI217
aI68
aI291
aI566
aI4
aI285
aI389
aI207
aI9087
aI147
aI4151
aI297
aI340
aI2593
aI392
aI285
aI389
aI273
aI75
aI48
aI285
aI191
aI1362
aI408
aa(lp306
I798
aI1035
aI1838
aI9526
aI3639
aI1872
aI320
aI1761
aI9527
aI1214
aI3726
aI375
aa(lp307
I798
aI22
aI10
aI217
aI68
aI291
aI3
aI4
aI285
aI389
aI207
aI1984
aI15
aI75
aI2113
aI147
aI4151
aI297
aI340
aI1365
aI232
aI285
aI389
aI273
aI75
aI48
aI285
aI191
aI1362
aI408
aa(lp308
I1866
aI9528
aI1147
aI15
aI1670
aI200
aI915
aI9529
aI1055
aI372
aI9530
aI1866
aI9528
aI9531
aI10
aI217
aI68
aI291
aI204
aI1106
aI481
aI9529
aI591
aI9532
aI653
aI22
aI96
aI9533
aI9529
aI9534
aI76
aI42
aI163
aI5035
aI1256
aI163
aI3155
aI3875
aI103
aI18
aI345
aI367
aI8189
aI8561
aI212
aI9535
aI1680
aI3099
aI119
aI18
aI1166
aI442
aI1184
aI9536
aI9537
aI9538
aI3646
aI527
aI18
aI415
aI1433
aI191
aI3190
aI3915
aI10
aI18
aI1049
aI335
aI2989
aI2460
aI22
aI1306
aI68
aI266
aI315
aI383
aI4001
aI191
aa(lp309
I5314
aI3470
aI8186
aI9539
aI9540
aI3379
aI391
aI9541
aI649
aI8187
aI229
aI2725
aI947
aI232
aI15
aI3706
aI578
aI625
aI3346
aI287
aI254
aI463
aI2887
aI101
aI2963
aI509
aI9394
aI9542
aI91
aI459
aI42
aI163
aI119
aI463
aI118
aI1276
aI1688
aI1245
aI22
aI1049
aI1329
aI463
aI1051
aI1896
aI8674
aI114
aI3475
aI348
aI107
aI33
aI10
aI217
aI2501
aI783
aI2645
aI1238
aI348
aI1683
aI1515
aI9394
aI8674
aI2789
aI22
aI783
aI613
aI3104
aI15
aI9542
aI2866
aI178
aI606
aI1247
aa(lp310
I22
aI3511
aI3512
aI18
aI486
aI487
aI8248
aI8168
aI602
aI3252
aI178
aI2634
aI3668
aI3181
aI1052
aI3179
aI3649
aI1122
aI9543
aI9544
aI1023
aI1283
aI3511
aI33
aI1201
aI1202
aI2455
aI42
aI9543
aI1648
aI10
aI9543
aI2538
aI9544
aI3181
aI3668
aI3
aI4
aI1055
aI54
aI2584
aI9545
aI9544
aI3668
aI9182
aI8655
aI9546
aI1648
aI1042
aI9547
aI36
aI1453
aI590
aI2588
aI10
aI91
aI22
aI1045
aI1122
aI9544
aI1638
aI2470
aI1460
aI2897
aI2828
aI3181
aI2748
aI1055
aI10
aI1283
aI1348
aI9299
aI3433
aI3668
aI3
aI3511
aI75
aI360
aI1688
aI1168
aI9548
aa(lp311
I9549
aI9550
aI1009
aI8495
aI684
aI1948
aI25
aI2023
aI487
aI102
aI1743
aI1782
aI1255
aI3526
aI2759
aI3450
aI8181
aI854
aI1066
aI17
aI793
aI1727
aI22
aI362
aI9551
aI9552
aI1361
aI6823
aI9553
aI114
aI107
aI3
aI481
aI9550
aI9554
aI9555
aI37
aI375
aI42
aI163
aI646
aI9556
aI1042
aI9557
aI9558
aI9559
aI854
aI129
aa(lp312
I22
aI3511
aI3512
aI18
aI802
aI451
aI508
aI3545
aI156
aI4
aI1934
aI379
aI9430
aI107
aI792
aI428
aI161
aI681
aI475
aI793
aI9560
aI8250
aI8251
aI9561
aI681
aI475
aI96
aI3639
aI3545
aI808
aI22
aI1214
aI653
aI438
aI1510
aI262
aI9358
aI481
aI9430
aI9562
aI2675
aI508
aI102
aI543
aI399
aI3511
aI8426
aI850
aI145
aI9183
aI24
aI3753
aI64
aI481
aI9430
aI1055
aI233
aI163
aI5603
aI102
aI481
aI9430
aI792
aa(lp313
I9563
aI91
aI64
aI1321
aI1491
aI1896
aI508
aI310
aI264
aI91
aI64
aI4
aI1451
aI15
aI428
aI645
aI9442
aI114
aI3668
aI1695
aI264
aI91
aI783
aI3511
aI3512
aI18
aI2645
aI264
aI9442
aI114
aI9564
aI10
aI1377
aI3668
aI8241
aI75
aI9563
aI360
aI882
aI1168
aI1561
aa(lp314
I869
aI9565
aI9566
aI792
aI9197
aI1229
aI792
aI3712
aI2051
aI771
aI924
aI1078
aI3570
aI119
aI3692
aI3533
aI2495
aI1347
aI3837
aI1128
aI1256
aI9567
aI9197
aI156
aI751
aI2045
aI178
aI634
aI3638
aI487
aI508
aI634
aI9568
aI159
aI1316
aI342
aI3693
aI22
aI317
aI1371
aI42
aI415
aI4083
aI2982
aI3510
aI1610
aI18
aI1010
aI170
aI163
aI646
aI9569
aI303
aI1456
aI481
aI3712
aI22
aI9046
aI9570
aI8818
aI9571
aI3148
aI3510
aI42
aI1606
aI142
aI1321
aI1010
aI223
aI1330
aI175
aI1864
aI25
aI42
aI1042
aI481
aI3712
aI1911
aI1498
aI2769
aI481
aI9566
aI478
aI36
aI1842
aI8694
aI1229
aI303
aI1683
aI2150
aI9572
aI182
aI88
aI481
aI3712
aI481
aI9566
aI1002
aI9256
aI2534
aI9197
aI3902
aI2642
aI186
aI175
aI486
aI3269
aa(lp315
I22
aI3511
aI3512
aI18
aI5
aI134
aI2192
aI15
aI409
aI9088
aI580
aI330
aI3753
aI64
aI8558
aI230
aI1049
aI162
aI1135
aI1872
aI2725
aI22
aI31
aI624
aI130
aI9573
aI330
aI2339
aI200
aI9574
aI910
aI245
aI3753
aI310
aI3511
aI3512
aI1247
aI858
aI859
aI481
aI9574
aI3
aI580
aI851
aI3753
aI880
aI1049
aI1256
aI1688
aI15
aI521
aI459
aI1499
aI9575
aI182
aI114
aI88
aI9576
aI154
aI1718
aI579
aI3511
aI3512
aI327
aI8724
aI22
aI1049
aI5
aI134
aI9574
aI9577
aI15
aI9578
aI147
aI579
aI1718
aI9573
aI330
aI2339
aI481
aI9574
aI858
aI3
aa(lp316
I8839
aI28
aI199
aI2911
aI789
aI5243
aI9579
aI3144
aI2767
aI3497
aI9580
aI907
aI264
aI9581
aI18
aI475
aI3790
aI10
aI182
aI273
aI88
aI9582
aI8560
aI9583
aI1893
aI3638
aI267
aI9584
aI2058
aI391
aI2522
aI9579
aI910
aI475
aI1802
aI3546
aI499
aI424
aI3270
aI1077
aI8301
aI4790
aI91
aI652
aI3775
aI348
aI128
aI1039
aI8768
aI693
aI10
aI1267
aI322
aI130
aI1049
aI1035
aI1660
aI178
aI1323
aI91
aI3895
aI190
aI9585
aI1209
aI1210
aa(lp317
I22
aI3511
aI3512
aI18
aI508
aI2679
aI33
aI1201
aI1202
aI3
aI287
aI1071
aI9586
aI15
aI75
aI134
aI9587
aI15
aI626
aI19
aI3415
aI178
aI2093
aI2910
aI10
aI8168
aI3511
aI315
aI3
aI1486
aI155
aI156
aI1855
aI8680
aI361
aI626
aI241
aI2910
aI10
aI71
aI291
aI75
aI22
aI107
aI3
aI287
aI241
aI9588
aI626
aI9589
aI75
aI3511
aI3512
aI71
aI6745
aI626
aI241
aI3511
aI310
aI1068
aI75
aI2910
aI10
aI315
aI782
aI1748
aI15
aI2910
aI10
aI806
aa(lp318
I393
aI1569
aI1313
aI9590
aI3511
aI3512
aI18
aI1648
aI107
aI917
aI10
aI217
aI68
aI291
aI223
aI857
aI3511
aI681
aI475
aI8250
aI8251
aI3135
aI9591
aI9592
aI318
aI499
aI96
aI400
aI1042
aI917
aI3511
aI1629
aI2247
aI178
aI508
aI3545
aI674
aI1460
aI586
aI2674
aI9593
aI674
aI68
aI2620
aI233
aI147
aI1042
aI1276
aI1688
aI128
aI752
aI481
aI8251
aI1627
aI1323
aI947
aI299
aI300
aI102
aI301
aI552
aI3511
aI917
aI287
aI1082
aI1363
aI153
aI1350
aI591
aI947
aI3511
aI68
aI287
aI1082
aI8573
aI128
aI481
aI8251
aI1701
aI1598
aI2296
aI1348
aI9594
aI5579
aI2015
aa(lp319
I2910
aI10
aI8168
aI64
aI802
aI8244
aI3723
aI1648
aI1175
aI964
aI19
aI3511
aI3512
aI18
aI4
aI3511
aI508
aI2679
aI33
aI1201
aI1202
aI1911
aI8914
aI2910
aI396
aI6532
aI1165
aI28
aI239
aI2910
aI400
aI5
aI3415
aI178
aI2093
aI3511
aI315
aI72
aI9595
aI9596
aI6532
aI3624
aI900
aI486
aI487
aI8248
aI8168
aI8250
aI8251
aI3511
aI681
aI475
aI3
aI22
aI107
aI315
aI802
aI451
aI508
aI3545
aI3
aI1196
aI2404
aI245
aI465
aI1247
aI606
aI2247
aI178
aa(lp320
I5400
aI2
aI5
aI134
aI9597
aI15
aI3511
aI3512
aI18
aI409
aI3803
aI9598
aI580
aI624
aI434
aI646
aI5400
aI134
aI8386
aI15
aI1245
aI2211
aI8802
aI1330
aI1247
aI3511
aI3512
aI3
aI4
aI5400
aI33
aI1159
aI9599
aI1721
aI315
aI156
aI5
aI3623
aI1628
aI389
aI8953
aI1499
aI1541
aI114
aI9600
aI9356
aI22
aI107
aI465
aI653
aI3502
aI1288
aI856
aI157
aI479
aI570
aI161
aI163
aI5400
aI49
aI9601
aI7161
aI3
aI506
aI5400
aI9602
aI231
aI2693
aI656
aI287
aI2806
aI2074
aI1168
aI1242
aI1168
aI3833
aI136
aI880
aa(lp321
I2910
aI10
aI8168
aI64
aI2220
aI2093
aI324
aI1802
aI3546
aI18
aI3511
aI3512
aI18
aI3
aI4
aI287
aI1442
aI1078
aI3511
aI3512
aI2910
aI10
aI3
aI160
aI347
aI1478
aI40
aI310
aI1802
aI3546
aI3
aI238
aI3511
aI3512
aI632
aI7987
aI284
aI2128
aI3511
aI68
aI253
aI2899
aI107
aI238
aI3415
aI178
aI2545
aI75
aI2910
aI10
aI3181
aI1052
aI8239
aI1648
aI1175
aI3959
aI1802
aI3546
aI238
aI626
aI3511
aI238
aI24
aI263
aI626
aI68
aI2910
aI10
aI3
aI4
aI3511
aI238
aI280
aI1082
aI9603
aI75
aI8376
aI5
aI1078
aI2329
aI10
aa(lp322
I22
aI1802
aI3546
aI18
aI8249
aI3511
aI3512
aI18
aI159
aI2910
aI10
aI8168
aI64
aI3
aI4
aI2360
aI3088
aI241
aI2910
aI75
aI1802
aI3546
aI3
aI4005
aI15
aI75
aI3088
aI2593
aI1313
aI73
aI2695
aI15
aI75
aI3
aI3088
aI2593
aI290
aI458
aI71
aI9604
aI212
aI22
aI1802
aI3546
aI241
aI317
aI8171
aI223
aI1066
aI2360
aI1066
aI22
aI3639
aI3
aI1066
aI442
aI972
aI3572
aa(lp323
I68
aI380
aI4
aI130
aI2491
aI1838
aI389
aI1067
aI3155
aI1292
aI523
aI249
aI2489
aI294
aI436
aI191
aI9605
aI95
aI5065
aI3
aI1209
aI1210
aI223
aI199
aI1279
aI289
aI8651
aI47
aI3106
aI436
aa(lp324
I128
aI9606
aI10
aI436
aI3862
aI107
aI508
aI1326
aI420
aI9
aI102
aI2911
aI9607
aI1844
aI9608
aI18
aI482
aI1838
aI508
aI1035
aI9609
aI1055
aI2282
aI3155
aI1729
aI1165
aI590
aI245
aI9610
aI655
aI475
aI2969
aI2115
aI9611
aI298
aI88
aI607
aI9612
aI1369
aI1881
aI3
aI685
aI2918
aI788
aI39
aI3862
aI3539
aI37
aI625
aI91
aI1011
aI1115
aI9613
aI9614
aa(lp325
I22
aI3511
aI3512
aI18
aI120
aI291
aI8508
aI1562
aI178
aI145
aI2910
aI10
aI8168
aI2910
aI3403
aI1433
aI1670
aI3511
aI67
aI68
aI85
aI9615
aI75
aI2910
aI75
aI2910
aI10
aI71
aI602
aI2545
aI75
aI712
aI3572
aI3148
aI1670
aI3511
aI3
aI3511
aI9616
aI15
aI1155
aI2910
aI10
aI71
aI602
aI626
aI68
aI3511
aI9617
aI291
aI8508
aI3088
aI241
aI2360
aI8404
aI2222
aI1331
aI3511
aI33
aI1201
aI1202
aI5
aI199
aI159
aI2910
aI10
aI648
aI487
aI508
aI8168
aa(lp326
I2910
aI10
aI8168
aI64
aI802
aI8244
aI3723
aI1648
aI1175
aI964
aI19
aI3511
aI3512
aI18
aI4
aI3511
aI508
aI2679
aI33
aI1201
aI1202
aI1911
aI8914
aI2910
aI396
aI6532
aI1165
aI28
aI239
aI2910
aI400
aI5
aI3415
aI178
aI2093
aI3511
aI315
aI72
aI9595
aI9596
aI6532
aI3624
aI900
aI486
aI487
aI8248
aI8168
aI8250
aI8251
aI3511
aI681
aI475
aI3
aI22
aI107
aI315
aI802
aI451
aI508
aI3545
aI3
aI1196
aI2404
aI245
aI465
aI1247
aI606
aI2247
aI178
aa(lp327
I22
aI1915
aI1039
aI1954
aI1913
aI247
aI1838
aI3118
aI860
aI399
aI163
aI3286
aI4002
aI436
aI2408
aI1276
aI1688
aI566
aI18
aI9618
aI1256
aI1543
aI552
aI22
aI1833
aI1067
aI2620
aI2074
aI147
aI749
aI3773
aI303
aI2579
aI272
aI92
aI1018
aI1039
aI9619
aI1184
aI1008
aI1565
aI162
aI102
aI1104
aI9553
aI1045
aI3459
aI1615
aI24
aI235
aI256
aI5421
aI5832
aI3697
aI1784
aI348
aI1354
aI247
aI3556
aI8595
aI1429
aI1055
aI2282
aI1854
aI1217
aa(lp328
I798
aI22
aI10
aI217
aI68
aI291
aI566
aI4
aI273
aI75
aI48
aI285
aI1362
aI408
aI199
aI340
aI1276
aI232
aI360
aI9524
aI15
aI166
aI147
aI9620
aI15
aI75
aI8202
aI199
aa(lp329
I798
aI22
aI10
aI217
aI68
aI291
aI566
aI4
aI273
aI75
aI48
aI285
aI1362
aI408
aI199
aI340
aI1583
aI885
aI380
aI1563
aI15
aI392
aI147
aI292
aI9621
aI15
aI75
aI22
aI296
aI303
aI9622
aI15
aI75
aI120
aI199
aI1831
aI340
aI1330
aI232
aI22
aI297
aI163
aI2217
aI167
aI9623
aI15
aI75
aa(lp330
I798
aI22
aI3668
aI1554
aI42
aI427
aI3018
aI508
aI3545
aI314
aI1052
aI9624
aI2455
aI1122
aI2538
aI3533
aI2495
aI107
aI459
aI493
aI2282
aI102
aI475
aI976
aI66
aI3
aI153
aa(lp331
I798
aI22
aI3639
aI9625
aI9626
aI9627
aI191
aI327
aI8207
aI1079
aI375
aI3468
aI3535
aI107
aI1064
aI20
aI2867
aI102
aI1049
aa(lp332
I798
aI1297
aI3510
aI18
aI9628
aI9629
aI804
aI775
aI3632
aI77
aI1672
aI228
aI9630
aI375
aI54
aI4124
aI15
aI9631
aI1178
aI8801
aI8780
aI648
aI9398
aI9632
aI2578
aI2748
aI9633
aI3181
aa(lp333
I798
aI9138
aI1609
aI3547
aI9634
aI381
aI3547
aI3548
aI18
aI121
aI1479
aI3535
aI102
aI1116
aI9635
aI375
aI107
aI1125
aI178
aI1323
aI1543
aI391
aI99
aI459
aI10
aI1283
aa(lp334
I798
aI1761
aI2346
aI1094
aI2196
aI102
aI3807
aI22
aI3511
aI18
aI9636
aI38
aI347
aI1565
aI2518
aI682
aI2346
aI1094
aI1064
aI685
aI679
aI9637
aI788
aI791
aI9638
aI1920
aa(lp335
I798
aI22
aI10
aI217
aI68
aI291
aI566
aI4
aI273
aI75
aI48
aI285
aI1362
aI408
aI199
aI340
aI1330
aI232
aI380
aI3059
aI15
aI2045
aI147
aI292
aI9622
aI15
aI75
aI22
aI296
aI303
aI9639
aI15
aI75
aI120
aI199
aI340
aI1510
aI232
aI22
aI9640
aI297
aI167
aI9641
aI15
aI75
aa(lp336
I798
aI22
aI10
aI217
aI68
aI291
aI566
aI4
aI273
aI75
aI48
aI285
aI1362
aI408
aI199
aI340
aI76
aI232
aI360
aI9642
aI15
aI963
aI147
aI9643
aI15
aI75
aI1289
aI292
aI9639
aI15
aI75
aI8202
aI199
aI8419
aI15
aI75
aI1289
aI297
aI163
aI646
aa(lp337
I798
aI22
aI10
aI217
aI68
aI291
aI566
aI4
aI285
aI389
aI380
aI8632
aI15
aI75
aI2045
aI147
aI199
aI340
aI1510
aI232
aI292
aI9639
aI15
aI75
aI22
aI296
aI303
aI9127
aI15
aI75
aI120
aI1365
aI885
aI9248
aI285
aI389
aI297
aI163
aI2217
aI8454
aI15
aI75
aa.