(lp0
(lp1
I50
aI51
aI52
aI53
aI54
aI55
aI56
aI57
aI58
aI59
aI60
aI61
aI62
aI63
aI15
aI1
aI2
aI64
aI34
aI35
aI65
aI66
aI55
aI67
aI68
aI69
aI70
aI71
aI72
aI73
aI74
aI75
aI76
aI77
aa(lp2
I78
aI79
aI80
aI8
aI81
aI82
aI83
aI84
aI85
aI86
aI87
aI88
aI89
aI90
aI91
aI92
aI93
aI94
aI95
aI96
aI10
aI97
aI98
aI47
aI99
aI100
aI101
aI22
aI102
aI103
aI104
aI105
aI106
aI107
aI60
aI66
aI108
aI109
aI110
aI111
aI112
aI113
aI114
aI8
aI115
aI22
aI80
aI116
aI117
aI81
aI118
aI119
aI120
aI121
aI122
aI123
aI124
aI125
aa(lp3
I22
aI126
aI127
aI86
aI87
aI88
aI8
aI102
aI128
aI129
aI130
aI131
aI132
aI133
aI18
aI134
aI135
aI15
aI136
aI137
aI138
aI8
aI139
aI140
aI141
aI133
aI8
aI39
aI142
aI143
aI144
aa(lp4
I1
aI2
aI64
aI54
aI145
aI146
aI147
aI148
aI149
aI8
aI107
aI150
aI8
aI151
aI152
aI15
aI107
aI3
aI153
aI154
aI155
aI156
aI157
aI1
aI158
aI159
aI160
aI148
aI149
aI161
aI162
aI163
aI22
aI149
aI114
aI24
aI164
aI165
aI8
aI166
aI115
aI167
aI168
aI169
aI170
aI171
aI1
aI172
aI8
aI173
aI169
aI174
aI175
aI176
aI171
aI1
aI33
aI23
aI177
aI178
aI179
aa(lp5
I180
aI181
aI182
aI183
aI184
aI185
aI186
aI175
aI187
aI188
aI189
aI190
aI191
aI192
aI193
aI194
aI88
aI195
aI196
aI197
aI198
aI170
aI199
aI3
aI200
aI201
aI202
aI203
aI204
aI205
aI206
aI207
aI208
aI209
aI210
aI211
aI158
aI212
aI128
aI213
aI214
aa(lp6
I1
aI2
aI3
aI4
aI215
aI216
aI10
aI217
aI186
aI218
aI21
aI107
aI219
aI220
aI221
aI1
aI8
aI115
aI31
aI222
aI223
aI170
aI163
aI220
aI219
aI224
aI225
aI226
aI10
aI217
aI186
aI227
aI228
aI229
aI22
aI230
aI231
aI232
aI15
aI233
aI15
aa(lp7
I234
aI74
aI235
aI236
aI237
aI238
aI239
aI240
aI241
aI242
aI235
aI243
aI244
aI245
aI246
aI96
aI107
aI22
aI238
aI247
aI248
aI249
aI250
aI251
aI252
aI253
aI254
aI247
aI21
aI255
aI256
aI257
aI258
aI17
aI259
aI260
aI261
aI241
aI262
aI178
aI263
aI159
aI264
aI265
aI266
aI246
aI247
aI267
aI268
aI269
aI270
aI247
aI271
aI272
aI273
aI274
aI213
aI275
aI276
aI277
aI278
aa(lp8
I22
aI279
aI280
aI281
aI282
aI283
aI284
aI239
aI75
aI48
aI285
aI286
aI253
aI287
aI288
aI289
aI290
aI147
aI10
aI217
aI68
aI291
aI248
aI199
aI292
aI293
aI294
aI295
aI296
aI297
aI22
aI289
aI285
aI23
aI298
aI299
aI300
aI102
aI301
aI302
aI292
aI303
aI304
aI305
aI306
aa(lp9
I307
aI308
aI150
aI151
aI309
aI1
aI2
aI156
aI4
aI5
aI310
aI146
aI147
aI149
aI8
aI107
aI1
aI159
aI311
aI8
aI312
aI313
aI158
aI39
aI22
aI314
aI145
aI315
aI24
aI162
aI316
aI226
aI317
aI318
aI319
aI1
aI320
aI321
aI310
aI322
aI107
aa(lp10
I22
aI323
aI1
aI18
aI324
aI325
aI4
aI130
aI326
aI327
aI191
aI10
aI328
aI329
aI330
aI171
aI331
aI8
aI107
aI332
aI191
aI3
aI333
aI334
aI335
aI130
aI336
aI326
aI337
aI338
aI339
aI76
aI340
aI341
aI342
aI22
aI191
aI343
aI344
aI345
aI64
aI346
aI1
aI347
aI348
aI349
aI6
aI350
aI144
aI138
aI351
aI333
aI352
aI42
aI353
aI22
aI107
aI354
aI1
aI2
aI64
aI355
aI356
aI107
aI323
aI1
aI357
aI358
aI359
aI353
aI1
aI350
aI360
aI361
aI77
aI147
aI333
aI156
aI362
aI325
aI363
aI22
aI342
aI340
aI364
aI365
aI366
aI367
aI326
aI368
aI369
aa(lp11
I22
aI370
aI107
aI72
aI371
aI372
aI373
aI31
aI3
aI4
aI333
aI352
aI8
aI374
aI375
aI376
aI18
aI377
aI163
aI378
aI379
aI380
aI381
aI382
aI107
aI3
aI352
aI370
aI42
aI383
aI384
aI385
aI386
aI39
aI387
aI71
aI388
aa(lp12
I285
aI389
aI10
aI217
aI68
aI291
aI360
aI248
aI199
aI390
aI391
aI223
aI392
aI199
aI393
aI190
aI68
aI291
aI394
aI395
aI294
aI396
aI397
aI199
aI22
aI398
aI285
aI399
aI96
aI400
aI401
aI402
aI147
aI14
aI178
aI75
aI292
aI293
aI403
aI178
aI75
aI120
aI296
aI199
aI404
aI285
aI23
aI207
aI405
aI147
aI190
aI291
aI406
aI15
aI75
aI22
aI407
aI408
aI187
aI409
aI410
aI392
aI411
aI412
aI410
aI413
aa(lp13
I414
aI415
aI416
aI417
aI105
aI418
aI419
aI420
aI421
aI414
aI25
aI422
aI423
aI424
aI425
aI417
aI426
aI427
aI428
aI10
aI429
aI430
aI431
aI432
aI433
aI92
aI434
aI321
aI431
aI414
aI435
aI436
aI437
aI269
aI438
aI439
aI440
aI441
aI417
aI100
aI442
aI443
aI439
aI444
aI445
aa(lp14
I446
aI447
aI448
aI449
aI450
aI3
aI4
aI287
aI428
aI451
aI8
aI107
aI452
aI55
aI1
aI313
aI446
aI3
aI287
aI159
aI453
aI1
aI8
aI452
aI454
aI17
aI64
aI455
aI456
aI15
aI457
aI15
aI22
aI107
aI315
aI458
aI40
aI1
aI2
aI64
aI33
aI34
aI35
aI459
aI313
aI452
aa(lp15
I22
aI323
aI1
aI18
aI3
aI153
aI287
aI460
aI71
aI461
aI186
aI141
aI462
aI463
aI464
aI323
aI1
aI315
aI72
aI8
aI3
aI465
aI68
aI266
aI438
aI388
aI375
aI466
aa(lp16
I378
aI379
aI467
aI103
aI25
aI468
aI469
aI470
aI264
aI471
aI472
aI473
aI474
aI88
aI28
aI102
aI475
aI25
aI476
aI181
aI223
aI246
aI199
aI477
aI361
aI478
aI479
aI480
aI481
aI467
aI223
aI239
aI156
aI482
aI483
aI484
aI107
aI425
aI485
aI64
aI486
aI487
aI488
aI107
aI76
aI489
aI490
aI10
aI264
aa(lp17
I491
aI492
aI493
aI494
aI495
aI496
aI3
aI497
aI498
aI499
aI103
aI500
aI501
aI502
aI503
aI439
aI25
aI504
aI505
aI486
aI506
aI507
aI508
aI509
aI510
aI511
aI512
aI513
aI514
aI358
aI359
aI515
aI128
aI516
aI517
aI518
aI519
aI520
aI481
aI495
aI521
aI522
aI523
aI524
aI525
aI526
aI527
aI528
aI529
aI530
aI531
aI463
aI532
aI533
aI534
aI535
aI536
aa(lp18
I222
aI434
aI190
aI150
aI8
aI151
aI439
aI537
aI538
aI539
aI540
aI541
aI425
aI115
aI525
aI542
aI525
aI543
aI375
aI475
aI544
aI84
aI92
aI390
aI541
aI545
aI190
aI8
aI546
aI151
aI547
aI124
aI548
aI549
aI550
aI439
aI551
aI27
aI552
aI27
aI553
aI27
aI554
aI253
aI555
aI431
aI252
aa(lp19
I581
aI582
aI353
aI583
aI376
aI55
aI584
aI1
aI2
aI367
aI585
aI137
aI586
aI587
aI55
aI107
aI588
aI589
aI137
aI37
aI590
aI591
aI1
aI486
aI487
aI8
aI151
aI586
aI588
aI592
aI593
aI55
aI594
aI595
aI596
aI597
aI8
aI39
aI598
aI466
aI137
aI92
aI588
aI1
aI599
aI588
aI600
aI253
aI601
aI588
aI602
aI603
aI604
aI605
aI606
aa(lp20
I607
aI191
aI608
aI609
aI1
aI2
aI610
aI20
aI175
aI611
aI612
aI613
aI614
aI19
aI587
aI356
aI107
aI22
aI612
aI615
aI616
aI617
aI618
aI619
aI620
aI191
aI487
aI186
aI29
aI1
aI621
aI622
aI3
aI284
aI623
aI624
aI287
aI625
aI626
aI627
aI628
aI70
aI137
aI615
aI24
aI1
aI629
aI630
aI570
aI128
aI631
aI29
aI1
aI621
aI3
aI632
aI633
aI389
aI627
aI1
aI152
aI15
aI634
aI476
aI615
aa(lp21
I635
aI6
aI463
aI461
aI636
aI375
aI1
aI2
aI637
aI632
aI638
aI159
aI639
aI640
aI60
aI641
aI642
aI96
aI643
aI644
aI645
aI42
aI163
aI646
aI582
aI647
aI648
aI23
aI42
aI375
aI649
aI650
aI1
aI486
aI487
aI8
aI107
aI651
aI55
aI652
aI10
aI107
aI88
aI588
aI616
aI617
aI538
aI267
aI287
aI653
aI654
aI655
aa(lp22
I22
aI8
aI37
aI1
aI2
aI3
aI153
aI568
aI656
aI380
aI290
aI147
aI657
aI658
aI10
aI659
aI660
aI375
aI661
aI36
aI662
aI8
aI169
aI663
aI22
aI664
aI518
aI282
aI283
aI465
aI107
aI608
aI665
aI656
aI163
aa(lp23
I666
aI667
aI223
aI668
aI272
aI669
aI1
aI2
aI137
aI8
aI39
aI1
aI670
aI671
aI42
aI672
aI673
aI674
aI675
aI72
aI1
aI8
aI676
aI677
aI478
aI678
aI679
aI680
aI681
aI475
aI680
aI107
aI682
aI1
aI39
aI8
aI683
aI684
aI685
aI679
aI680
aI686
aI673
aI675
aI687
aI31
aI1
aa(lp24
I439
aI688
aI81
aI689
aI690
aI691
aI609
aI227
aI692
aI656
aI1
aI2
aI693
aI356
aI107
aI590
aI694
aI607
aI191
aI102
aI695
aI696
aI353
aI20
aI235
aI611
aI612
aI88
aI615
aI616
aI617
aI618
aI1
aI697
aI615
aI119
aI72
aI37
aI698
aI8
aI29
aI1
aI550
aI616
aI617
aI323
aI1
aI323
aI466
aI8
aI585
aI107
aI315
aI699
aI187
aI439
aI1
aI141
aI1
aI673
aI672
aa(lp25
I22
aI93
aI464
aI483
aI484
aI700
aI115
aI483
aI484
aI701
aI115
aI8
aI24
aI438
aI484
aI702
aI703
aI704
aI705
aI706
aI707
aI708
aI709
aI710
aI711
aI712
aI713
aI714
aI715
aI716
aI717
aI718
aI719
aI720
aI222
aI721
aI84
aI722
aI723
aI724
aI175
aI725
aI726
aI727
aI728
aI729
aI730
aI701
aI731
aI732
aI733
aI734
aI735
aI736
aI737
aI738
aI585
aI739
aI740
aI741
aI742
aI743
aI744
aI745
aI25
aI552
aI223
aI239
aI701
aI746
aI747
aI748
aI749
aI750
aI491
aI751
aI752
aI753
aI754
aI505
aI755
aI3
aI756
aI757
aI758
aI759
aI760
aI761
aI762
aI763
aI363
aI764
aI765
aI766
aI438
aa(lp26
I767
aI768
aI769
aI64
aI3
aI4
aI287
aI310
aI1
aI2
aI770
aI37
aI771
aI772
aI198
aI26
aI773
aI22
aI157
aI574
aI767
aI774
aI39
aI80
aI107
aI775
aI772
aI26
aI1
aI776
aI375
aI777
aI8
aI39
aI778
aI585
aI767
aI3
aI779
aI15
aI157
aI287
aI289
aI26
aI773
aI780
aI781
aI767
aI782
aI39
aI783
aI784
aI585
aI681
aI475
aI785
aI679
aI786
aI3
aa(lp27
I767
aI768
aI769
aI787
aI592
aI159
aI1
aI2
aI788
aI769
aI186
aI767
aI3
aI4
aI22
aI787
aI287
aI585
aI767
aI287
aI39
aI789
aI790
aI788
aI791
aI792
aI767
aI3
aI793
aI294
aI550
aI787
aI22
aI375
aI257
aI794
aI771
aI772
aI767
aI33
aI795
aI46
aI796
aI6
aI585
aI797
aI783
aI39
aI608
aI626
aI459
aI10
aI229
aI1
aI798
aI8
aI107
aI33
aI34
aI35
aa(lp28
I799
aI21
aI800
aI801
aI3
aI287
aI159
aI802
aI803
aI107
aI28
aI165
aI804
aI805
aI15
aI626
aI806
aI1
aI2
aI34
aI35
aI3
aI48
aI807
aI585
aI16
aI808
aI585
aI809
aI810
aI779
aI15
aa(lp29
I811
aI812
aI475
aI134
aI813
aI428
aI605
aI814
aI190
aI71
aI815
aI239
aI816
aI64
aI191
aI400
aI320
aI817
aI818
aI163
aI22
aI324
aI819
aI820
aI816
aI137
aI39
aI821
aI473
aI822
aI71
aI823
aI824
aI825
aI826
aI1
aI8
aa(lp30
I827
aI828
aI829
aI830
aI831
aI832
aI115
aI833
aI834
aI835
aI391
aI836
aI837
aI159
aI391
aI75
aI92
aI298
aI838
aI839
aI706
aI755
aI99
aI391
aI625
aI840
aI42
aI552
aI690
aI525
aI841
aI842
aI677
aI829
aI458
aI783
aI134
aI843
aI19
aI844
aI845
aI846
aI847
aa(lp31
I22
aI1
aI8
aI151
aI848
aI5
aI134
aI849
aI15
aI409
aI850
aI580
aI851
aI852
aI191
aI853
aI389
aI8
aI854
aI855
aI1
aI2
aI323
aI1
aI42
aI318
aI856
aI107
aI39
aI1
aI8
aI458
aI579
aI854
aI857
aI431
aI858
aI859
aI860
aI861
aI226
aI862
aI107
aI863
aI157
aI54
aI864
aI865
aI861
aI226
aI100
aI866
aI867
aI287
aI868
aI580
aa(lp32
I869
aI1
aI8
aI151
aI5
aI129
aI134
aI849
aI15
aI409
aI850
aI580
aI870
aI871
aI191
aI8
aI858
aI872
aI873
aI874
aI157
aI506
aI875
aI22
aI579
aI241
aI240
aI340
aI876
aI877
aI18
aI878
aI1
aI2
aI323
aI1
aI42
aI318
aI856
aI107
aI39
aI1
aI8
aI506
aI879
aI328
aI858
aI343
aI880
aI1
aI157
aI257
aI881
aI882
aI15
aI883
aI884
aI328
aa(lp33
I1
aI2
aI64
aI3
aI4
aI287
aI6
aI885
aI794
aI229
aI41
aI886
aI887
aI107
aI888
aI15
aI626
aI889
aI448
aI449
aI890
aI37
aI1
aI487
aI37
aI229
aI891
aI892
aI186
aI175
aI141
aI893
aI229
aI894
aI186
aI22
aI885
aI585
aI449
aI895
aI896
aI228
aI897
aI898
aI899
aI900
aI901
aI10
aI11
aI902
aI903
aI904
aI905
aI1
aI906
aI907
aI886
aI41
aI908
aI107
aI909
aI358
aI359
aI107
aI89
aI910
aI911
aI912
aI913
aI914
aI908
aa(lp34
I915
aI916
aI917
aI239
aI918
aI919
aI920
aI921
aI64
aI922
aI923
aI51
aI924
aI925
aI926
aI927
aI928
aI929
aI930
aI64
aI931
aI932
aI933
aI934
aI50
aI51
aI905
aI935
aI421
aI936
aI64
aI937
aI938
aI679
aI934
aI902
aI939
aI51
aI940
aI941
aI942
aI64
aI103
aI943
aI944
aI51
aI945
aI51
aa(lp35
I1
aI2
aI64
aI486
aI543
aI946
aI107
aI3
aI4
aI48
aI246
aI8
aI358
aI359
aI947
aI675
aI107
aI17
aI585
aI675
aI948
aI15
aI17
aI585
aI33
aI949
aI677
aI950
aI8
aI186
aI951
aI425
aI18
aI952
aI953
aI15
aI221
aI1
aI39
aI8
aI954
aI22
aI246
aI8
aI955
aI956
aI169
aI7
aI175
aI42
aI957
aI42
aI9
aI25
aI902
aI958
aI959
aI960
aI866
aI841
aI13
aI951
aI425
aI950
aI961
aI8
aI962
aI963
aI1
aI651
aI1
aI33
aI34
aI35
aI964
aI358
aI359
aI947
aI675
aI965
aa(lp36
I1
aI2
aI34
aI35
aI550
aI966
aI10
aI217
aI219
aI93
aI967
aI229
aI968
aI1
aI969
aI946
aI585
aI22
aI970
aI220
aI230
aI231
aI233
aI15
aI298
aI883
aI971
aI972
aa(lp37
I1
aI2
aI64
aI48
aI973
aI8
aI442
aI974
aI16
aI17
aI18
aI975
aI74
aI15
aI25
aI26
aI27
aI42
aI29
aI1
aI8
aI28
aI30
aI31
aI8
aI28
aI32
aI31
aI8
aI976
aI23
aI156
aI4
aI422
aI8
aI47
aI977
aI1
aI3
aI839
aI974
aI1
aI33
aI907
aI36
aI39
aI8
aI38
aI39
aI40
aI16
aI17
aI33
aI809
aI810
aI978
aI163
aI1
aI48
aI77
aI8
aI788
aI769
aI229
aI979
aI15
aI333
aI6
aI246
aI585
aI980
aI161
aI170
aI199
aa(lp38
I22
aI940
aI654
aI8
aI981
aI982
aI983
aI984
aI985
aI525
aI986
aI987
aI436
aI988
aI989
aI488
aI990
aI991
aa(lp39
I992
aI2
aI3
aI4
aI853
aI56
aI148
aI993
aI798
aI994
aI625
aI375
aI84
aI995
aI655
aI0
aI191
aI24
aI997
aI998
aI1
aI2
aI999
aI1000
aI1001
aI315
aI853
aI148
aI107
aI1002
aI1003
aI992
aI84
aI39
aI107
aI1004
aI1005
aI84
aI992
aI1006
aI72
aI294
aI599
aI55
aI253
aa(lp40
I1007
aI1008
aI1009
aI1010
aI1011
aI84
aI1012
aI119
aI212
aI1013
aI746
aI1014
aI1015
aI1016
aI1017
aI1018
aI1019
aI690
aI1020
aI552
aI1021
aI1022
aI1023
aI1016
aI1024
aI1025
aI1026
aI1027
aI277
aI1028
aI1029
aI1030
aI1031
aI1032
aI1033
aI1034
aa(lp41
I1
aI2
aI64
aI1035
aI1036
aI15
aI1037
aI906
aI34
aI35
aI333
aI308
aI1038
aI1039
aI161
aI422
aI163
aI107
aI381
aI679
aI1040
aI1
aI496
aI3
aI4
aI1
aI8
aI1041
aI80
aI107
aI33
aI34
aI1042
aI1043
aI5
aI1044
aI830
aI1045
aI1046
aI650
aI176
aI163
aI291
aI1047
aI15
aI175
aI1048
aI1049
aI1050
aI22
aI1037
aI906
aI976
aI1051
aI10
aI91
aI1052
aI10
aI1053
aI1054
aI1055
aI213
aI1052
aI512
aI1056
aa(lp42
I22
aI1057
aI317
aI1058
aI239
aI24
aI153
aI1059
aI1060
aI1061
aI10
aI28
aI1062
aI230
aI1063
aI230
aI1061
aI924
aI1064
aI1065
aI318
aI10
aI217
aI626
aI266
aI1066
aI1067
aI1068
aI1069
aI230
aI1070
aI147
aI1067
aI1062
aI1071
aI1072
aI147
aI22
aI1067
aI1063
aI230
aI1073
aI147
aa(lp43
I22
aI537
aI8
aI18
aI1016
aI1074
aI1075
aI42
aI284
aI1076
aI159
aI8
aI107
aI1077
aI4
aI1078
aI310
aI370
aI8
aI18
aI889
aI107
aI294
aI599
aI1079
aI592
aI566
aI4
aI22
aI282
aI283
aI1080
aI370
aI266
aI388
aI1081
aI178
aI157
aI287
aI439
aI1082
aa(lp44
I22
aI537
aI8
aI18
aI3
aI4
aI5
aI310
aI370
aI8
aI18
aI1083
aI178
aI626
aI68
aI648
aI25
aI487
aI8
aI107
aI486
aI22
aI157
aI263
aI537
aI1084
aI150
aI8
aI228
aI345
aI1085
aI1086
aI8
aI373
aI31
aI1087
aI27
aI22
aI263
aI107
aI1088
aI8
aI1089
aI169
aI1090
aI245
aa(lp45
I1091
aI1092
aI1093
aI1094
aI1095
aI1096
aI44
aI1097
aI25
aI1098
aI25
aI683
aI1099
aI1100
aI1101
aI1102
aI1103
aI1104
aI1055
aI1105
aI92
aI1106
aI1107
aI1108
aI1109
aI22
aI1110
aI872
aI1111
aI1112
aI3
aI1113
aI1104
aI1114
aI1115
aI472
aI977
aI318
aa(lp46
I22
aI1116
aI1117
aI1118
aI18
aI372
aI37
aI3
aI1119
aI1120
aI56
aI8
aI151
aI459
aI88
aI1121
aI1122
aI1116
aI1117
aI1123
aI420
aI1124
aI1125
aI1126
aI1127
aI22
aI1120
aI8
aI37
aI839
aI1128
aI537
aI8
aI1129
aI8
aI21
aI1
aI2
aI1130
aI8
aI115
aI1131
aI1132
aI8
aI21
aI1133
aI8
aI2
aI107
aI3
aI22
aI479
aI1134
aI1135
aI1127
aI1136
aI213
aI120
aI977
aI1137
aI725
aI1120
aI115
aI8
aI168
aI169
aI372
aI7
aI488
aI1138
aI100
aI737
aI188
aI3
aI1116
aI1117
aI1118
aI381
aI1139
aI1140
aI1141
aI481
aI1141
aI1142
aI157
aI1120
aI8
aI151
aa(lp47
I22
aI1143
aI18
aI625
aI1144
aI1093
aI3
aI4
aI5
aI159
aI1145
aI1146
aI1147
aI15
aI308
aI107
aI655
aI266
aI1093
aI22
aI55
aI253
aI1148
aI75
aI859
aI1149
aI147
aI1150
aI1145
aI1146
aI318
aI253
aI1151
aI223
aI473
aI190
aI266
aI318
aI1066
aI1145
aI1146
aI33
aI277
aI1152
aI44
aI6
aI1153
aI1005
aI266
aI1093
aI107
aI439
aI1
aI2
aI1154
aI64
aI22
aI145
aI625
aI1145
aI1146
aI91
aI1155
aI1156
aI1009
aI439
aI1157
aI425
aI25
aI1158
aI1159
aI978
aI199
aI1145
aI1146
aI400
aI1160
aI1161
aI1162
aI241
aI1163
aI15
aI402
aI75
aI1164
aI75
aI1156
aI33
aI1165
aI1166
aI1167
aI360
aI1083
aI1168
aI1169
aI1145
aI75
aI380
aI961
aI1170
aa(lp48
I915
aI174
aI1171
aI811
aI491
aI518
aI1172
aI1173
aI190
aI998
aI1174
aI1175
aI1176
aI241
aI1009
aI1177
aI1178
aI1179
aI994
aI10
aI1180
aI1181
aI1173
aI1178
aI190
aI190
aI1182
aI1183
aI649
aI153
aI1009
aI1184
aI1173
aI650
aI1179
aI994
aI290
aI252
aI1185
aI1186
aI1187
aI1114
aI1173
aI25
aI190
aI994
aI1188
aI174
aI84
aI1171
aI1189
aI84
aI543
aI468
aI190
aI1190
aI85
aI1191
aI1192
aI1193
aI84
aI647
aI1064
aI514
aI1194
aI1195
aI21
aI384
aI107
aI1196
aI1197
aI1198
aI147
aI1199
aI84
aI609
aI1200
aI804
aI1201
aI1202
aI1203
aI1204
aI1205
aI543
aI353
aI1206
aI884
aI1207
aI1208
aI147
aI468
aI1209
aI1210
aI1211
aI147
aI1212
aI1213
aI22
aI1
aI8
aI1214
aI1215
aI1216
aI1
aI2
aI1217
aI340
aI163
aI1215
aI1218
aI8
aI37
aI7
aI967
aI550
aI1219
aI214
aI1220
aI1221
aI1222
aI1223
aI1213
aI1224
aI551
aI1225
aI1226
aI408
aI1227
aI1228
aI81
aI1229
aI1178
aI1230
aI1173
aI1231
aI301
aI1232
aI1173
aI360
aI1233
aI147
aI1234
aI1235
aI411
aI36
aI1236
aI1237
aI606
aI1232
aI998
aI1064
aI493
aI1238
aI1239
aI1021
aI2
aI1173
aI211
aI301
aI1173
aI1232
aI998
aI1240
aI1241
aI380
aI1242
aI147
aI1243
aI1241
aI1244
aI147
aI187
aI21
aI3
aI22
aI207
aI301
aI1232
aI1173
aI649
aI1245
aI1173
aI1246
aI147
aI296
aI163
aI128
aI1247
aI1235
aI301
aI1173
aI294
aI166
aI147
aI1248
aI147
aI1249
aI1250
aI998
aI505
aI486
aI37
aI1196
aI1251
aI15
aI1178
aI1252
aI1253
aI1252
aI1247
aI1064
aI1254
aI798
aI1255
aI998
aI317
aI186
aI175
aI1175
aI220
aI1256
aI396
aI631
aI1178
aI1254
aI3
aI1257
aI1258
aa(lp49
I1
aI2
aI64
aI907
aI8
aI151
aI3
aI400
aI608
aI1259
aI1260
aI262
aI1168
aI1036
aI1168
aI75
aI865
aI1261
aI233
aI15
aI75
aI1262
aI64
aI911
aI1263
aI1264
aI624
aI822
aI566
aI348
aI291
aI1194
aI391
aI1265
aI163
aI340
aI410
aI1083
aI1234
aI1064
aI1266
aI624
aI1267
aa(lp50
I1
aI2
aI64
aI8
aI37
aI5
aI6
aI148
aI1268
aI552
aI27
aI8
aI967
aI226
aI1269
aI18
aI152
aI15
aI340
aI1270
aI617
aI1
aI33
aI34
aI35
aI3
aI23
aI1271
aI1272
aI1273
aI19
aI1274
aI72
aI39
aI8
aI550
aI24
aI1
aI969
aI149
aI22
aI107
aI602
aI1275
aI1276
aI262
aI289
aI568
aI587
aI392
aI15
aI657
aa(lp51
I1
aI2
aI64
aI907
aI8
aI151
aI3
aI400
aI608
aI1259
aI1260
aI262
aI1168
aI1036
aI1168
aI75
aI865
aI1261
aI233
aI15
aI75
aI1262
aI64
aI911
aI1263
aI1264
aI624
aI822
aI566
aI348
aI291
aI1194
aI391
aI1265
aI163
aI340
aI410
aI1083
aI1234
aI1064
aI1266
aI624
aI1267
aa(lp52
I234
aI1277
aI1278
aI22
aI493
aI1232
aI998
aI773
aI380
aI1279
aI76
aI1280
aI1277
aI1281
aI1175
aI1282
aI590
aI1283
aI1284
aI76
aI1235
aI1285
aI1286
aI566
aI25
aI331
aI289
aI773
aI1287
aI147
aI1288
aI1289
aI76
aI1235
aI92
aI1285
aI1290
aI1291
aI1292
aI1155
aI1277
aI48
aI207
aI1083
aI1292
aI523
aI1293
aI147
aI190
aI998
aI773
aI1294
aI147
aI1290
aI1291
aI207
aI1295
aI1292
aI523
aI1296
aI147
aI1297
aI1298
aI493
aI819
aI773
aI380
aI1299
aI147
aI1290
aI1291
aI360
aI1300
aI523
aI1301
aI147
aI997
aI998
aI289
aI773
aI1302
aI147
aI1290
aI1291
aI360
aI807
aI523
aI1303
aI147
aI1304
aI186
aI998
aI3
aI773
aI380
aI1305
aI147
aI76
aI1235
aI1306
aI1307
aI523
aI1290
aI1291
aI1308
aI147
aI1309
aI998
aI566
aI177
aI147
aI289
aI773
aI1288
aI1310
aI523
aI1290
aI1291
aI1311
aI147
aI1297
aI1312
aI1286
aI773
aI146
aI147
aI1290
aI1291
aI289
aI1313
aI1292
aI523
aI1314
aI147
aI1315
aI998
aI566
aI1316
aI147
aI1317
aI773
aI1306
aI405
aI523
aI1290
aI1291
aI1301
aI147
aa(lp53
I22
aI2
aI606
aI80
aI608
aI1318
aI557
aI1319
aI657
aI1320
aI1321
aI659
aI660
aI1322
aI42
aI845
aI60
aI1217
aI4
aI1267
aI560
aI609
aI178
aI1323
aI1320
aI330
aI1
aI2
aI8
aI39
aI107
aI3
aI1324
aI4
aI1325
aI1326
aI296
aI137
aI1327
aI1107
aI28
aI839
aI1328
aI1326
aI712
aI148
aI823
aI1329
aI438
aI80
aI1330
aI262
aI965
aI22
aI1331
aI25
aI1329
aI657
aI1332
aI1049
aI1320
aI1333
aI659
aI660
aI449
aI1334
aa(lp54
I393
aI375
aI1335
aI10
aI217
aI223
aI239
aI1336
aI1337
aI681
aI475
aI1338
aI33
aI1012
aI1035
aI396
aI391
aI1193
aI1339
aI917
aI1340
aI438
aI830
aI1113
aI24
aI981
aI1341
aI1342
aI1343
aI1344
aI1345
aI429
aI430
aI839
aI1128
aI10
aI217
aI92
aI1338
aI977
aI479
aI8
aI1346
aI76
aI1114
aI438
aI3
aa(lp55
I358
aI359
aI947
aI675
aI302
aI68
aI360
aI279
aI266
aI1347
aI223
aI163
aI68
aI1306
aI358
aI359
aI947
aI1348
aI431
aI1349
aI1350
aI358
aI359
aI1351
aI1352
aI39
aI1353
aI720
aI1354
aI39
aI351
aI191
aI1355
aI1356
aI664
aa(lp56
I1306
aI68
aI266
aI643
aI1357
aI253
aI1358
aI1359
aI458
aI191
aI48
aI75
aI285
aI223
aI199
aI1360
aI1361
aI383
aI273
aI75
aI48
aI285
aI1362
aI408
aI1306
aI1363
aI147
aI10
aI217
aI68
aI291
aI292
aI1364
aI178
aI75
aI199
aI340
aI1365
aI290
aI1064
aI96
aI400
aI1366
aI1367
aI4
aI128
aI1368
aI273
aI75
aI48
aI285
aI360
aI479
aI391
aI163
aa(lp57
I22
aI150
aI375
aI1335
aI1362
aI1369
aI547
aI1370
aI1371
aI18
aI1329
aI475
aI1372
aI1373
aI1374
aI84
aI92
aI1375
aI107
aI712
aI572
aI696
aI1329
aI245
aI1376
aI436
aI1377
aI830
aI8
aI1378
aI998
aI8
aI33
aI333
aI1379
aI18
aI1380
aI36
aI163
aa(lp58
I1381
aI1354
aI1382
aI1383
aI1384
aI1385
aI1386
aI1387
aI673
aI56
aI1388
aI1389
aI1390
aI947
aI1097
aI1391
aI89
aI358
aI359
aI1392
aI950
aI22
aI1389
aI1035
aI807
aI15
aI1052
aI8
aI1393
aI1394
aI994
aI228
aI929
aI1395
aI317
aI977
aI1396
aI946
aI28
aI163
aI625
aa(lp59
I1397
aI1278
aI345
aI128
aI165
aI85
aI1397
aI1398
aI1399
aI1400
aI375
aI84
aI1401
aI1402
aI1217
aI465
aI85
aI1397
aI1403
aI1404
aI165
aI1064
aI514
aI1194
aI1405
aI1401
aI1402
aI1102
aI625
aI1093
aI1405
aI768
aI1406
aI114
aI257
aI1403
aI1407
aI1101
aI22
aI246
aI1408
aI213
aI1409
aI1406
aI1064
aI1410
aI1411
aI1412
aI1413
aI1414
aI1415
aI1416
aI1005
aI1417
aI907
aI277
aI278
aI1418
aI10
aI1419
aI10
aI11
aI1420
aI1421
aI1422
aI810
aI1201
aI1202
aI1423
aI1424
aI257
aI1425
aI677
aI1426
aI1427
aI1422
aI46
aI1428
aI1429
aI644
aI998
aI586
aI1430
aI1431
aI80
aI56
aI998
aI1432
aI375
aI84
aI1433
aI1434
aI1435
aI1277
aI92
aI644
aI1175
aI1429
aI1436
aI1232
aI1178
aI1241
aI1437
aI1438
aI56
aI649
aI1439
aI1440
aI80
aI1441
aI998
aI3
aI287
aI1442
aI241
aI644
aI1443
aI80
aI854
aI1396
aI1444
aI1445
aI1446
aI1447
aI1448
aI1051
aI1443
aI1449
aI807
aI1277
aI1450
aI1286
aI723
aI1451
aI1452
aI1453
aI375
aI1377
aI257
aI232
aI147
aI606
aI223
aI199
aI1450
aI3
aI438
aI174
aI132
aI1446
aI1454
aI1455
aI1456
aI324
aI266
aI75
aI1457
aI1241
aa(lp60
I1458
aI102
aI911
aI56
aI1459
aI1460
aI586
aI1238
aI974
aI102
aI3
aI287
aI318
aI28
aI1461
aI19
aI1459
aI1326
aI12
aI901
aI228
aI897
aI73
aI152
aI1462
aI287
aI1463
aa(lp61
I1
aI2
aI64
aI3
aI4
aI5
aI6
aI7
aI895
aI896
aI794
aI229
aI1006
aI1464
aI1465
aI21
aI618
aI1147
aI15
aI154
aI157
aI1
aI788
aI769
aI80
aI186
aI37
aI229
aI38
aI40
aI1
aI33
aI34
aI35
aI448
aI449
aI1
aI149
aI946
aI151
aI37
aI74
aI968
aI768
aI769
aI229
aI1465
aI33
aI911
aI459
aI310
aI788
aI769
aI229
aI186
aI175
aa(lp62
I17
aI585
aI675
aI8
aI947
aI675
aI3
aI4
aI5
aI159
aI1466
aI8
aI1
aI2
aI486
aI1467
aI946
aI107
aI1468
aI15
aI1120
aI8
aI24
aI412
aI80
aI246
aI974
aI869
aI1466
aI8
aI310
aI952
aI1401
aI1469
aI1
aI17
aI585
aI675
aI975
aI1470
aI15
aI163
aI17
aI585
aI675
aI33
aI1471
aI677
aI72
aI975
aI1472
aI8
aa(lp63
I1298
aI493
aI819
aI375
aI1377
aI175
aI1473
aI1474
aI1178
aI1475
aI1476
aI194
aI107
aI1134
aI10
aI80
aI88
aI375
aI1477
aI1224
aI479
aI1377
aI1478
aI375
aI1377
aI1241
aI375
aI1477
aI1479
aI1150
aI80
aI1443
aI1173
aI478
aI725
aI10
aI1480
aI1277
aI1481
aI169
aI1482
aI375
aI1377
aI1277
aI1483
aI1484
aI1485
aI1486
aI709
aI1487
aI1488
aI1113
aI315
aI1489
aI1490
aI1491
aI1492
aI1277
aI542
aI1493
aa(lp64
I1494
aI585
aI675
aI358
aI359
aI947
aI675
aI3
aI4
aI333
aI460
aI1495
aI148
aI771
aI770
aI772
aI892
aI71
aI6
aI466
aI1495
aI389
aI1496
aI1494
aI72
aI1083
aI178
aI1273
aI267
aI352
aI1497
aI772
aI892
aI585
aI1498
aI1499
aI358
aI359
aI712
aI68
aI85
aI1349
aI1500
aI282
aI283
aI478
aI333
aI608
aI152
aI15
aI1501
aI241
aI159
aI885
aI10
aI769
aI229
aI772
aI950
aI1
aI2
aI64
aI38
aI1502
aa(lp65
I22
aI1503
aI8
aI1504
aI272
aI1505
aI42
aI10
aI8
aI977
aI1042
aI223
aI319
aI162
aI459
aI22
aI42
aI1506
aI8
aI1507
aI1508
aI935
aI1509
aI283
aI977
aI1510
aI1511
aI1512
aI1513
aI935
aI1514
aI283
aI977
aI223
aI199
aI1511
aI1512
aI315
aI333
aI1052
aI631
aI8
aI1515
aI1516
aI1517
aI1518
aI479
aI1517
aI0
aI1503
aI8
aI1505
aI24
aI1519
aI1520
aI1521
aI935
aI1522
aI283
aI1523
aI1524
aI935
aI1525
aI283
aI1526
aI1512
aI1527
aI1528
aI506
aI973
aI1505
aI935
aI31
aI8
aI628
aI1529
aI935
aI872
aI1046
aI241
aI1530
aI1531
aI1503
aI81
aa(lp66
I22
aI1532
aI1533
aI107
aI1534
aI3
aI153
aI410
aI262
aI1535
aI1532
aI1536
aI1537
aI1538
aI1320
aI1539
aI638
aI1540
aI656
aI601
aI498
aI1532
aI1541
aI55
aI950
aI1542
aI1543
aI1323
aI521
aI1539
aI656
aI1535
aI290
aI1168
aI601
aI601
aI861
aI1038
aI163
aI1544
aI422
aI163
aI952
aI601
aI120
aI174
aa(lp67
I1545
aI1546
aI1547
aI1548
aI1255
aI1549
aI1550
aI331
aI375
aI358
aI359
aI107
aI1354
aI695
aI1381
aI1551
aI98
aI869
aI653
aI1552
aI1496
aI239
aI1021
aI191
aI76
aI1553
aI134
aI1150
aI253
aI1554
aI764
aI157
aI1555
aI1556
aI481
aI1547
aI226
aI1557
aI1558
aI1559
aI333
aI608
aI135
aI15
aI6
aI1560
aI15
aI75
aI107
aI1417
aI585
aI465
aI253
aI1561
aI1562
aI75
aI1350
aI625
aI241
aI1563
aI147
aI1552
aI331
aI1564
aI358
aI359
aI947
aI675
aI610
aI1499
aI585
aa(lp68
I478
aI1565
aI439
aI1566
aI1567
aI1383
aI191
aI478
aI340
aI1568
aI281
aI227
aI22
aI1566
aI19
aI298
aI1569
aI1083
aI1570
aI22
aI1383
aI48
aI845
aI1571
aI68
aI969
aI8
aI64
aI1572
aI296
aI552
aI301
aI1573
aI75
aI92
aI298
aI156
aI1086
aI18
aI5
aI159
aI107
aI626
aI68
aI1082
aI1081
aI75
aI259
aI6
aI191
aI1574
aI15
aI587
aI1575
aa(lp69
I1298
aI493
aI819
aI1312
aI1286
aI85
aI10
aI1576
aI10
aI1577
aI493
aI1578
aI266
aI1579
aI421
aI998
aI186
aI554
aI270
aI1175
aI37
aI1580
aI2
aI463
aI907
aI1442
aI1059
aI80
aI1580
aI1581
aI1582
aI463
aI1583
aI262
aI1298
aI1312
aI1286
aI1376
aI907
aI802
aI463
aa(lp70
I22
aI1532
aI1533
aI107
aI1534
aI3
aI153
aI410
aI262
aI1535
aI1532
aI1536
aI1537
aI1538
aI1320
aI1539
aI638
aI1540
aI656
aI601
aI498
aI1532
aI1541
aI55
aI950
aI1542
aI1543
aI1323
aI521
aI1539
aI656
aI1535
aI290
aI1168
aI601
aI601
aI861
aI1038
aI163
aI1544
aI422
aI163
aI952
aI601
aI120
aI174
aa(lp71
I1584
aI1585
aI1586
aI1587
aI10
aI217
aI165
aI1588
aI1589
aI56
aI486
aI165
aI514
aI1330
aI1071
aI1590
aI1591
aI22
aI1592
aI1593
aI566
aI56
aI165
aI1451
aI171
aI1410
aI1496
aI1594
aI635
aI10
aI217
aI543
aI422
aI1595
aI1596
aI1597
aI1598
aI1599
aI22
aI1600
aI422
aI433
aI1601
aI1602
aI1603
aI1604
aI1605
aI73
aI1606
aI281
aI1606
aI493
aI1492
aI1607
aI186
aI175
aI166
aI147
aI479
aI570
aI163
aI1217
aI1608
aI1609
aI1610
aI107
aI1203
aI1611
aI652
aI920
aI1612
aI1613
aI1614
aI1615
aI289
aI1616
aI147
aI1617
aI147
aI1618
aI1234
aI1249
aI25
aI1619
aI1620
aI665
aI1217
aI1277
aI76
aI1155
aI190
aI1621
aI1475
aI1474
aI1622
aI1240
aI1173
aI1135
aI160
aI303
aI1312
aI75
aI1623
aI486
aI84
aI1624
aI128
aI1625
aI541
aI1626
aI1239
aI223
aI239
aI679
aI1040
aI1
aI496
aI381
aI1
aI2
aI1627
aI1628
aI84
aI102
aI1629
aI77
aI147
aI223
aI434
aI186
aI175
aI75
aI486
aI84
aI1630
aI361
aI166
aI147
aI915
aI56
aI1613
aI348
aI1631
aI1632
aI1537
aI1633
aI696
aI1634
aI22
aI301
aI1635
aI194
aI1636
aI1632
aI1537
aI1229
aI186
aI175
aI1637
aI552
aI3
aI128
aI1638
aI1639
aI1640
aI84
aI186
aI175
aI223
aI163
aI1641
aI298
aI3
aI1642
aI272
aI1642
aI644
aI1643
aI1644
aI1376
aI1645
aI463
aI1646
aI1344
aI10
aI217
aI907
aI310
aI396
aI1647
aI1648
aI128
aI76
aI1175
aI566
aI1290
aI1291
aI301
aI273
aI1277
aI1649
aI134
aI1009
aI1650
aI147
aI10
aI1651
aI1241
aI1652
aI1653
aI681
aI475
aI3
aI1642
aI333
aI310
aI630
aI1647
aI156
aI10
aI1232
aI165
aI1376
aI1645
aI321
aI163
aI793
aI294
aI1654
aI165
aI1655
aI1656
aI1
aI8
aI969
aI8
aI1393
aI750
aI1491
aI1657
aI1658
aI81
aI101
aI1178
aI1416
aI400
aI1659
aI1660
aI8
aI585
aI1
aI2
aI1657
aI1472
aI1661
aI980
aI42
aI239
aI1
aI3
aI1662
aI493
aI566
aI1663
aI147
aI289
aI1443
aI1607
aI1265
aI163
aI340
aI1664
aI1665
aI1203
aI289
aI663
aI10
aI1666
aI1377
aI31
aI1443
aI1460
aI1667
aI854
aI1235
aI1668
aI1306
aI1173
aI493
aI1238
aI1239
aI3
aI1669
aI253
aI1670
aI1671
aI1672
aI1673
aI1232
aI998
aI380
aI1674
aI147
aI76
aI1289
aI76
aI1618
aI1257
aI1258
aa(lp72
I22
aI291
aI1675
aI188
aI1417
aI10
aI823
aI1056
aI910
aI10
aI801
aI1676
aI291
aI1417
aI1677
aI241
aI1298
aI493
aI819
aI1578
aI1492
aI644
aI823
aI80
aI22
aI188
aI749
aI1678
aI2
aI463
aI1679
aI1680
aI1238
aI1041
aI1681
aI80
aI1682
aI118
aI1683
aI1684
aI892
aI1685
aI823
aI666
aI1686
aI1687
aI1052
aI1676
aI1061
aI1688
aI1689
aI169
aI712
aI885
aI892
aI1690
aI169
aI1691
aI1692
aI1530
aI74
aI892
aI1037
aI1693
aI91
aI1694
aI1695
aI1696
aI1697
aI1698
aI1699
aI1417
aI315
aI1700
aI1701
aI1677
aa(lp73
I1702
aI8
aI1703
aI1704
aI8
aI39
aI107
aI5
aI310
aI1
aI2
aI64
aI1705
aI1706
aI1422
aI115
aI1707
aI841
aI810
aI1708
aI15
aI1709
aI2
aI64
aI10
aI217
aI5
aI310
aI1006
aI1464
aI1710
aI229
aI64
aI1682
aI1661
aI80
aI353
aI1711
aI15
aI626
aI68
aI782
aI806
aI1712
aI64
aI1713
aI1320
aI566
aI107
aI5
aI6
aI1204
aI1714
aI1715
aI80
aI375
aI1716
aI107
aI54
aI107
aI66
aI1717
aI235
aI79
aI375
aI1718
aI599
aI1719
aI64
aI1720
aI1721
aI1722
aI107
aI5
aI310
aI879
aI1723
aI64
aI879
aI1246
aI15
aI68
aa(lp74
I1724
aI64
aI5
aI159
aI115
aI847
aI2
aI1725
aI15
aI1106
aI844
aI107
aI882
aI147
aI75
aI375
aI266
aI778
aI115
aI585
aI22
aI1718
aI88
aI1726
aI15
aI626
aI881
aI1727
aI15
aI1724
aI67
aI68
aI128
aI631
aI320
aI627
aI161
aI422
aI163
aI361
aI152
aI15
aI287
aI1106
aI157
aI167
aI388
aI1728
aI15
aa(lp75
I1729
aI1730
aI1731
aI493
aI1173
aI1732
aI266
aI1733
aI396
aI171
aI1734
aI4
aI649
aI1298
aI554
aI1735
aI1736
aI1175
aI142
aI1298
aI493
aI819
aI100
aI1737
aI1178
aI1738
aI918
aI1113
aI1119
aI10
aI1739
aI1740
aI190
aI486
aI1286
aI649
aI861
aI1241
aI114
aI1741
aI239
aI646
aI439
aI1738
aI333
aI796
aa(lp76
I1742
aI443
aI1
aI8
aI1743
aI1415
aI448
aI547
aI107
aI1744
aI76
aI658
aI1497
aI1
aI1745
aI1564
aI1042
aI352
aI42
aI28
aI163
aI646
aI92
aI1746
aI1747
aI1748
aI107
aI619
aI284
aI1749
aI1750
aI18
aI1751
aI1752
aI1
aI1753
aI1754
aI770
aI1755
aI1756
aI395
aI1757
aI1758
aI375
aI1759
aI8
aI1743
aI1760
aI1751
aI547
aI1761
aI1762
aI777
aI37
aa(lp77
I25
aI552
aI317
aI1376
aI1763
aI1672
aI907
aI318
aI157
aI1764
aI1765
aI107
aI88
aI1766
aI1767
aI270
aI18
aI1768
aI1769
aI1770
aI367
aI712
aI1335
aI1771
aI1772
aI1766
aI1767
aI1773
aI1774
aI1775
aI1776
aI1777
aI834
aI421
aI1778
aI1779
aI1780
aI472
aI1781
aI1782
aI3
aI481
aI1769
aI791
aI792
aI802
aI1783
aI1784
aI978
aI119
aI1785
aI1786
aI1787
aI1788
aI287
aI88
aI1543
aI1567
aI552
aI1789
aI1766
aI1767
aI287
aI1790
aI1778
aI442
aI1774
aI478
aI287
aI28
aI239
aI1791
aI504
aI1792
aI1793
aI865
aI232
aI15
aI634
aI1766
aI1767
aI159
aI1321
aI1794
aI19
aI1795
aI107
aa(lp78
I323
aI1
aI3
aI4
aI287
aI6
aI1036
aI147
aI389
aI29
aI1796
aI616
aI617
aI1
aI2
aI1383
aI191
aI1797
aI15
aI323
aI1
aI3
aI458
aI40
aI1798
aI1799
aI1800
aI598
aI191
aI1654
aI22
aI10
aI137
aI315
aI947
aI1801
aI15
aI617
aI37
aI698
aI585
aI712
aI1727
aI147
aI148
aI22
aI157
aI465
aI318
aI479
aI570
aI1618
aI323
aI1
aI3
aI947
aI29
aI287
aI1802
aI569
aI1671
aI75
aI1803
aI1168
aI163
aI287
aI613
aI290
aI1168
aI1352
aI37
aI1671
aI75
aa(lp79
I33
aI2193
aI2194
aI1
aI2195
aI18
aI350
aI266
aI4
aI591
aI39
aI2196
aI1779
aI2197
aI107
aI2198
aI350
aI1535
aI1165
aI163
aI646
aI92
aI1878
aI2199
aI1104
aI67
aI389
aI1067
aI1731
aI191
aI2200
aI2201
aI2062
aI1669
aa(lp80
I22
aI323
aI1
aI18
aI651
aI1
aI18
aI365
aI2202
aI2203
aI147
aI389
aI1
aI2204
aI8
aI391
aI2205
aI10
aI217
aI1713
aI358
aI359
aI459
aI910
aI226
aI8
aI2206
aI634
aI22
aI2207
aI107
aI1911
aI164
aI178
aI806
aI1752
aI599
aI624
aI348
aI291
aI1194
aI223
aI239
aI2208
aI634
aI459
aI685
aI2209
aI287
aI560
aI1429
aI650
aI2210
aI15
aI806
aI2211
aI1220
aa(lp81
I2212
aI2213
aI1
aI18
aI475
aI383
aI798
aI2214
aI249
aI602
aI68
aI2215
aI1082
aI2216
aI15
aI2217
aI163
aI1064
aI1324
aI624
aI1066
aI348
aI291
aI1194
aI481
aI2213
aI681
aI475
aI323
aI1
aI18
aI315
aI158
aI602
aI650
aI2218
aI2219
aI75
aI107
aI823
aI387
aI2220
aI161
aI422
aI163
aa(lp82
I1
aI2
aI64
aI3
aI4
aI1804
aI238
aI150
aI8
aI151
aI1805
aI1806
aI1
aI33
aI34
aI35
aI37
aI1
aI149
aI8
aI267
aI55
aI1805
aI1806
aI19
aI333
aI198
aI273
aI8
aI169
aI1475
aI1805
aI1806
aI186
aI1807
aI21
aI452
aI1808
aI8
aI1809
aI171
aa(lp83
I223
aI1474
aI802
aI375
aI84
aI1239
aI737
aI1201
aI1202
aI306
aI1810
aI1811
aI1812
aI1010
aI1625
aI215
aI1813
aI18
aI84
aI652
aI1814
aI1815
aI1593
aI998
aI1816
aI1413
aI55
aI1817
aI1818
aI481
aI1810
aI800
aI1819
aI1820
aI1821
aI476
aI1822
aI439
aI1823
aI1824
aI1825
aI1826
aI1827
aI1359
aI1828
aI1829
aI1830
aI1071
aI245
aI1831
aI1832
aa(lp84
I573
aI1833
aI1306
aI68
aI266
aI1834
aI1835
aI18
aI587
aI288
aI973
aI552
aI646
aI1049
aI156
aI436
aI1836
aI822
aI1067
aI402
aI147
aI479
aI570
aI1837
aI1838
aI212
aI1839
aI553
aI1128
aI199
aI646
aI977
aI1840
aI649
aI163
aI1841
aI85
aI1842
aI800
aI436
aI1843
aI1844
aI552
aI475
aI191
aI1845
aI1846
aI1847
aI24
aI1848
aI1849
aI1850
aI978
aI1851
aI391
aI3
aI1852
aI1853
aI681
aI1854
aI1675
aI400
aI804
aI21
aI1855
aI1856
aI798
aI480
aI199
aa(lp85
I1857
aI1858
aI1859
aI855
aI1860
aI1861
aI1862
aI720
aI190
aI998
aI298
aI837
aI1225
aI25
aI1863
aI1543
aI1864
aI1865
aI1646
aI1492
aI1113
aI287
aI1866
aI1266
aI254
aI1867
aI1868
aI1366
aI998
aI320
aI1869
aI591
aI793
aI158
aI1870
aI1871
aI163
aI222
aI361
aI1872
aI1873
aI1874
aI1875
aI282
aI283
aI18
aI1876
aI1877
aI626
aI1878
aI1879
aI572
aI1880
aI1556
aI18
aI345
aI210
aI1881
aI1010
aI1882
aI1354
aI1883
aI1354
aI0
aI1884
aI1885
aI1886
aI1887
aI1888
aI506
aI1889
aI436
aI119
aI988
aI1890
aI1891
aI1862
aI1863
aI1892
aI18
aI282
aI283
aI1893
aa(lp86
I869
aI1894
aI1895
aI1896
aI102
aI310
aI1897
aI64
aI1898
aI18
aI1899
aI15
aI179
aI306
aI1442
aI1900
aI947
aI1901
aI1894
aI1735
aI107
aI190
aI266
aI1542
aI1897
aI1902
aI1903
aI107
aI632
aI859
aI1442
aI1750
aI1904
aI1905
aI1476
aI20
aI209
aI1906
aI626
aI1895
aI48
aI1897
aI1907
aI64
aI1908
aI1909
aI107
aI1910
aI238
aI179
aI22
aI157
aI156
aI473
aI1911
aI1741
aI28
aI239
aI54
aI253
aI1912
aI15
aI1097
aI695
aI1731
aa(lp87
I1729
aI1913
aI391
aI85
aI1914
aI1915
aI391
aI1916
aI0
aI1917
aI1918
aI1919
aI1920
aI204
aI1921
aI2
aI17
aI64
aI1922
aI356
aI107
aI1420
aI1923
aI810
aI7
aI199
aI1924
aI840
aI296
aI552
aI10
aI771
aI10
aI1925
aI1926
aI298
aI22
aI1283
aI124
aI1773
aI1927
aI1928
aI1861
aI1929
aI186
aI175
aI187
aI1930
aI910
aI1931
aI1932
aI332
aI802
aI610
aI569
aI1611
aI1933
aI1934
aI1558
aI1935
aI1510
aI1803
aI1570
aI1936
aI749
aI1937
aI1938
aI1939
aI1918
aI1940
aI198
aI1941
aI1942
aI551
aI551
aI673
aI315
aI1249
aI1943
aI1944
aI663
aI1945
aI85
aI212
aI1946
aI1947
aa(lp88
I22
aI479
aI553
aI27
aI1948
aI405
aI163
aI646
aI1949
aI1950
aI462
aI1951
aI1952
aI1953
aI458
aI1954
aI184
aI1955
aI183
aI1956
aI1659
aI1957
aI506
aI298
aI1958
aI1959
aI1960
aI1961
aI478
aI1962
aI434
aI1963
aI1964
aI1940
aI708
aI1965
aI792
aI1966
aI379
aI1967
aI1968
aI1969
aI1970
aI1971
aI1972
aI1973
aI1173
aI10
aI1974
aI151
aI88
aI1975
aI553
aI27
aI1119
aI1976
aI257
aI1977
aI1978
aI1543
aI169
aI1946
aI785
aI1979
aI1980
aI1981
aa(lp89
I1729
aI1913
aI391
aI85
aI1914
aI1915
aI391
aI1916
aI0
aI1917
aI1918
aI1982
aI1920
aI204
aI1921
aI2
aI17
aI64
aI1922
aI356
aI107
aI1420
aI1923
aI810
aI7
aI199
aI1924
aI840
aI296
aI552
aI10
aI771
aI10
aI1925
aI1926
aI298
aI22
aI1283
aI124
aI1773
aI1927
aI1928
aI1861
aI1929
aI186
aI175
aI187
aI1930
aI910
aI1931
aI1932
aa(lp90
I869
aI1894
aI1895
aI1896
aI102
aI310
aI1897
aI64
aI1898
aI18
aI1899
aI15
aI179
aI306
aI1442
aI1900
aI947
aI1901
aI1894
aI1735
aI107
aI190
aI266
aI1542
aI1897
aI1902
aI1903
aI107
aI632
aI859
aI1442
aI1750
aI1904
aI1905
aI1476
aI20
aI209
aI1906
aI626
aI1895
aI48
aI1897
aI1907
aI64
aI1908
aI1909
aI107
aI1910
aI238
aI179
aI22
aI157
aI156
aI473
aI1911
aI1741
aI28
aI239
aI54
aI253
aI1912
aI15
aI1097
aI695
aI1731
aa(lp91
I1297
aI629
aI422
aI8
aI107
aI238
aI159
aI1129
aI8
aI1983
aI107
aI674
aI309
aI24
aI1984
aI8
aI115
aI1129
aI10
aI217
aI306
aI1985
aI277
aI278
aI1986
aI907
aI1805
aI1987
aI1342
aI1988
aI1344
aI1196
aI882
aI171
aI22
aI1989
aI238
aI1061
aI547
aI199
aI390
aI1990
aI465
aI543
aI1081
aI178
aI92
aI238
aI320
aI754
aI361
aI571
aI1064
aI709
aI318
aI592
aI1129
aI25
aI223
aI56
aI8
aI107
aI25
aI1045
aI1155
aI1991
aI585
aI486
aI56
aI165
aa(lp92
I1992
aI447
aI1993
aI450
aI581
aI796
aI844
aI1994
aI8
aI1911
aI693
aI1024
aI498
aI1995
aI854
aI4
aI5
aI159
aI1996
aI1129
aI8
aI1997
aI21
aI1998
aI885
aI178
aI22
aI157
aI1206
aI1999
aI1061
aI1011
aI422
aI8
aI107
aI24
aI1
aI2
aI2000
aI190
aI915
aI2001
aI1993
aI2002
aI2003
aI21
aI447
aI72
aI537
aI2
aI1804
aI238
aa(lp93
I2004
aI2005
aI675
aI3
aI4
aI5
aI310
aI7
aI26
aI27
aI1
aI8
aI2006
aI15
aI2004
aI33
aI2007
aI1422
aI810
aI358
aI359
aI947
aI675
aI72
aI1991
aI1503
aI8
aI585
aI26
aI27
aI1
aI186
aI1
aI2
aI64
aI906
aI34
aI35
aI287
aI36
aI39
aI585
aI2004
aI333
aI947
aI631
aI1803
aI15
aI1054
aI22
aI8
aI2008
aI44
aI809
aI810
aI2009
aI2010
aI2011
aI2012
aI2013
aI2014
aI1420
aI2015
aI936
aI2016
aI901
aa(lp94
I977
aI399
aI285
aI23
aI294
aI284
aI297
aI10
aI217
aI68
aI291
aI190
aI68
aI291
aI977
aI285
aI399
aI294
aI1081
aI147
aI96
aI400
aI292
aI2017
aI178
aI75
aI2018
aI178
aI75
aa(lp95
I186
aI998
aI241
aI1816
aI263
aI493
aI84
aI28
aI186
aI175
aI2019
aI1342
aI2020
aI2021
aI80
aI1342
aI2022
aI2023
aI22
aI1175
aI241
aI2024
aI80
aI2025
aI277
aI278
aI907
aI1580
aI2
aI463
aI789
aI2026
aI2027
aI463
aI391
aI1178
aI2028
aI2029
aI529
aI2030
aI2031
aI2021
aI80
aI463
aI2022
aI1178
aI2028
aI839
aI2032
aI2033
aI1335
aI28
aI2032
aI2034
aI1335
aI2022
aI56
aI188
aI375
aI2023
aa(lp96
I650
aI375
aI552
aI2035
aI2036
aI1517
aI162
aI802
aI266
aI100
aI449
aI2037
aI476
aI1214
aI93
aI2038
aI230
aI231
aI698
aI15
aI22
aI487
aI976
aI2039
aI1005
aI770
aI2040
aI2041
aI2042
aI64
aI10
aI217
aI550
aI10
aI217
aI1498
aI2043
aI2044
aI219
aI220
aI230
aI231
aI2045
aI15
aI2046
aI15
aa(lp97
I2047
aI2048
aI2049
aI720
aI2050
aI2051
aI2052
aI2050
aI2051
aI169
aI710
aI2053
aI2054
aI2055
aI2051
aI2056
aI729
aI469
aI507
aI2057
aI31
aI1078
aI2058
aI1079
aI8
aI2059
aI727
aI2060
aI2061
aI585
aI674
aI169
aI1067
aI730
aI2062
aI2063
aI481
aI2048
aI1433
aI1008
aI2064
aI119
aI1451
aI169
aI2065
aI1759
aI174
aI1637
aI506
aI2066
aI2067
aI2068
aI21
aI375
aI712
aa(lp98
I323
aI1
aI51
aI34
aI35
aI946
aI358
aI359
aI107
aI310
aI2069
aI2070
aI1
aI8
aI1201
aI1202
aI2071
aI15
aI2072
aI712
aI64
aI730
aI941
aI810
aI3
aI287
aI653
aI2073
aI880
aI1688
aI15
aI2074
aI1168
aI75
aI2075
aI625
aI2076
aI1460
aI289
aI1460
aI2077
aI2078
aI2079
aI2080
aI2081
aI550
aa(lp99
I71
aI1
aI2
aI64
aI2082
aI153
aI8
aI107
aI10
aI68
aI2083
aI586
aI42
aI1377
aI75
aI1114
aI2082
aI158
aI22
aI2084
aI859
aI2085
aI1383
aI191
aI2086
aI2087
aI851
aI2088
aI2089
aI1646
aI2090
aI2091
aI1
aI673
aI2082
aI264
aI2092
aI1162
aI2093
aa(lp100
I493
aI1173
aI186
aI175
aI2094
aI207
aI2095
aI223
aI239
aI1175
aI1119
aI23
aI2096
aI1304
aI186
aI998
aI2097
aI2098
aI1173
aI84
aI1330
aI1731
aI2099
aI10
aI217
aI1998
aI1869
aI2100
aI147
aI296
aI1181
aI1173
aI1199
aI1064
aI1824
aI2101
aI49
aI2094
aI998
aa(lp101
I2102
aI2
aI64
aI2103
aI46
aI257
aI79
aI91
aI80
aI3
aI333
aI159
aI2104
aI64
aI288
aI2105
aI46
aI650
aI79
aI91
aI107
aI1451
aI15
aI626
aI2106
aI15
aI782
aI806
aI2107
aI2108
aI911
aI1499
aI358
aI359
aI80
aI107
aI5
aI310
aI318
aI1464
aI2109
aI2110
aI2111
aI1417
aI358
aI359
aI69
aI2112
aI505
aI2113
aI15
aI2114
aI51
aI2115
aI2116
aI44
aI1321
aI2117
aI853
aI887
aI148
aI435
aI1498
aI91
aI64
aI2118
aI2119
aI810
aI1006
aI1464
aI1093
aI107
aI1718
aI599
aI1
aI2
aI64
aI907
aI3
aI289
aI1259
aI1260
aI290
aI1168
aI67
aI75
aI2120
aI1168
aa(lp102
I299
aI301
aI302
aI961
aI92
aI2121
aI294
aI885
aI987
aI191
aI2122
aI591
aI2123
aI1071
aI299
aI300
aI102
aI301
aI2124
aI2125
aI662
aI302
aI2126
aI523
aI392
aI147
aI2127
aI22
aI350
aI266
aI315
aI2128
aI253
aI2129
aI1057
aI350
aI2130
aI2131
aI2132
aI2133
aI1669
aI2134
aI147
aI92
aI91
aI68
aI160
aI1237
aI2121
aI2135
aI1856
aI360
aI2136
aI523
aI2137
aI262
aI147
aI318
aI2138
aI2139
aI2140
aa(lp103
I478
aI1128
aI822
aI823
aI1598
aI2141
aI71
aI2142
aI204
aI2143
aI2144
aI342
aI1128
aI2145
aI1113
aI2146
aI2147
aI2148
aI223
aI199
aI139
aI823
aI2149
aI18
aI400
aI672
aI586
aI624
aI2150
aI19
aI823
aI2151
aI2152
aI595
aI191
aI586
aI2153
aI2154
aI1071
aI86
aI88
aI2155
aI1214
aI2156
aI2157
aI1491
aI1321
aa(lp104
I267
aI428
aI1576
aI310
aI1991
aI8
aI323
aI1
aI18
aI3
aI4
aI287
aI2158
aI358
aI359
aI947
aI675
aI159
aI392
aI150
aI8
aI24
aI149
aI839
aI1128
aI967
aI2159
aI21
aI2160
aI15
aI626
aI2161
aI15
aI782
aI806
aI128
aI631
aI107
aI460
aI1083
aI808
aI229
aI388
aI1038
aI15
aI2162
aI68
aI1260
aI71
aa(lp105
I2163
aI25
aI479
aI10
aI2163
aI2164
aI2
aI463
aI265
aI163
aI977
aI317
aI479
aI1178
aI76
aI1665
aI323
aI80
aI375
aI84
aI459
aI994
aI910
aI1733
aI998
aI2163
aI2165
aI839
aI2166
aI1175
aI493
aI2023
aI2094
aI998
aI2167
aI998
aI2168
aI2169
aI15
aI2163
aI19
aI463
aI2170
aI290
aI178
aI2171
aI66
aI2096
aI143
aa(lp106
I2172
aI51
aI550
aI2173
aI2174
aI1606
aI1802
aI39
aI1532
aI1533
aI1703
aI2175
aI53
aI3
aI791
aI381
aI1557
aI2176
aI99
aI808
aI1741
aI25
aI239
aI486
aI1467
aI61
aI1321
aI550
aI2177
aI2178
aI1532
aI496
aI381
aa(lp107
I22
aI2179
aI2180
aI68
aI266
aI223
aI42
aI239
aI76
aI2181
aI542
aI2182
aI2183
aI591
aI39
aI1670
aI2184
aI2185
aI2186
aI2187
aI240
aI471
aI75
aI2188
aI107
aI1434
aI1934
aI2189
aI141
aI2189
aI1273
aI1352
aI159
aI2190
aI64
aI2191
aI10
aI1731
aI924
aI299
aI300
aI102
aI301
aI360
aI1251
aI523
aI319
aI212
aI340
aI552
aI2192
aa(lp108
I1
aI2
aI3
aI153
aI5
aI6
aI1120
aI895
aI896
aI808
aI229
aI2639
aI256
aI42
aI618
aI1006
aI947
aI107
aI2640
aI15
aI1
aI34
aI35
aI3
aI287
aI36
aI39
aI585
aI42
aI229
aI2012
aI2481
aI2013
aI37
aI22
aI0
aI974
aa(lp109
I1077
aI566
aI22
aI20
aI391
aI1993
aI930
aI1
aI2
aI64
aI2641
aI2642
aI2643
aI3
aI4
aI1078
aI263
aI1041
aI80
aI2644
aI37
aI228
aI345
aI1
aI186
aI2645
aI2527
aI1041
aI39
aI2646
aI2647
aI375
aI235
aI256
aI107
aI2648
aI2641
aI2649
aI2368
aI107
aI75
aI1
aI380
aI2650
aI2651
aI2641
aI2195
aI2247
aI147
aI23
aI228
aI345
aI163
aI340
aI1583
aI1083
aI1570
aI1197
aI23
aI298
aI1959
aI2023
aa(lp110
I969
aI8
aI115
aI907
aI310
aI2306
aI1
aI2
aI550
aI216
aI10
aI217
aI219
aI1131
aI220
aI230
aI231
aI232
aI15
aI233
aI15
aI22
aI220
aI219
aI2652
aI1131
aI10
aI217
aI186
aI2652
aI1771
aI2653
aI2654
aa(lp111
I475
aI2622
aI2655
aI2656
aI2657
aI2658
aI84
aI572
aI465
aI161
aI163
aI1622
aI458
aI289
aI1442
aI2659
aI128
aI965
aI375
aI84
aI665
aI1367
aI239
aI190
aI554
aI1960
aI398
aI84
aI572
aI1317
aI1803
aI147
aI290
aI147
aI161
aI163
aI1289
aI465
aI2106
aI147
aI2635
aI147
aI289
aI163
aa(lp112
I679
aI1986
aI1
aI1948
aI1041
aI946
aI1743
aI2660
aI2661
aI1074
aI977
aI1748
aI907
aI2662
aI1929
aI537
aI119
aI2663
aI947
aI2664
aI8
aI2665
aI2447
aI25
aI486
aI2666
aI8
aI107
aI506
aI42
aI2667
aI2668
aI2669
aI2670
aI1860
aI2671
aI649
aI2672
aI151
aI2673
aI486
aI2674
aI1788
aI2675
aI2676
aI947
aI358
aI359
aI1598
aI361
aI2677
aI1442
aI153
aI42
aI434
aI604
aI2084
aI8
aI102
aI2678
aI505
aI2679
aI947
aI1784
aI96
aI585
aI459
aI8
aI2680
aI212
aI92
aI391
aI118
aI1323
aI1568
aI118
aI20
aI2681
aI2682
aI2683
aI2185
aI1484
aI358
aI359
aI947
aI675
aI1349
aI1362
aI2684
aI358
aI359
aI947
aI675
aa(lp113
I869
aI1740
aI190
aI486
aI1286
aI2221
aI2222
aI2032
aI2024
aI10
aI217
aI2164
aI2
aI463
aI730
aI2164
aI1201
aI1202
aI1492
aI2223
aI2224
aI2225
aI333
aI550
aI486
aI1659
aI436
aI1492
aI2226
aI1175
aI602
aI25
aI2227
aI2225
aI1672
aI600
aI493
aI1672
aI1673
aI2228
aI2229
aI25
aI1672
aI2230
aI1492
aI602
aI25
aI1197
aI1672
aI128
aI631
aI1492
aI602
aI2231
aI1672
aI2223
aI2215
aI672
aI656
aI1875
aI1178
aI2232
aI1672
aI2228
aI67
aI894
aI1477
aI2233
aI2234
aI2235
aI2236
aI2237
aI2238
aI1672
aI1759
aI894
aa(lp114
I2004
aI2005
aI675
aI3
aI4
aI287
aI159
aI973
aI26
aI27
aI8
aI2239
aI15
aI2004
aI358
aI359
aI947
aI675
aI3
aI1120
aI973
aI8
aI287
aI310
aI2240
aI2241
aI15
aI2165
aI1484
aI2242
aI2243
aI2244
aI26
aI27
aI967
aI481
aI2243
aI1646
aI2004
aI400
aI2004
aI33
aI2007
aI1422
aI810
aI310
aI26
aI27
aI1792
aI2245
aI2246
aI15
aI626
aI37
aI2165
aI186
aI1
aI2
aI64
aI22
aI107
aI3
aI287
aI134
aI2247
aI15
aI2248
aI8
aI1713
aI1
aI2
aI39
aI8
aa(lp115
I1
aI2
aI64
aI3
aI4
aI48
aI839
aI794
aI229
aI772
aI802
aI235
aI191
aI64
aI2074
aI15
aI1
aI2
aI356
aI107
aI33
aI34
aI35
aI3
aI287
aI36
aI37
aI188
aI38
aI950
aI22
aI188
aI88
aI895
aI896
aI911
aI2249
aI1721
aI2250
aI841
aI2007
aI1422
aI810
aI1
aI2
aI3
aI23
aI19
aI333
aI2251
aI459
aI39
aI37
aI2228
aI72
aI358
aI359
aI22
aI323
aI1
aI18
aI1
aI2
aI352
aI28
aI163
aI646
aI72
aI1354
aI8
aI1
aI2
aI39
aI802
aI235
aI191
aI358
aI359
aI947
aI675
aI33
aI2252
aI2253
aa(lp116
I658
aI977
aI1049
aI851
aI2254
aI2
aI2255
aI130
aI2256
aI156
aI4
aI28
aI693
aI2257
aI107
aI5
aI409
aI2258
aI880
aI2259
aI2260
aI2261
aI2262
aI22
aI28
aI60
aI2263
aI5
aI134
aI233
aI15
aI1105
aI2264
aI2265
aI815
aI2258
aI880
aI2266
aI2261
aI2267
aI120
aI253
aI2268
aI15
aI266
aI2257
aI631
aI2269
aI2270
aI2271
aI2094
aI2272
aI345
aI64
aI2264
aI2265
aI2273
aI107
aI2094
aI2264
aI815
aI2274
aI28
aI5
aI1783
aI1049
aI2275
aa(lp117
I2276
aI2277
aI1193
aI493
aI292
aI273
aI1474
aI2278
aI2279
aI802
aI512
aI264
aI2280
aI841
aI2281
aI647
aI2282
aI2283
aI2284
aI2285
aI2286
aI2287
aI2288
aI2289
aI10
aI801
aI897
aI2290
aI431
aI1936
aI2291
aI1178
aI2292
aI2293
aI2294
aI2295
aI1543
aI566
aI2296
aI2297
aI2298
aI1835
aI650
aI292
aI1474
aI396
aI1029
aI2299
aI2300
aI2301
aI2302
aI2207
aI84
aI102
aI1239
aI345
aI3
aI239
aI84
aI1128
aI2150
aI340
aI2303
aI2304
aI3
aI273
aI2305
aI1335
aI629
aI74
aI1672
aI2277
aI190
aI2306
aI1330
aI2307
aI287
aI2196
aI1306
aI402
aI147
aI223
aI163
aI292
aa(lp118
I915
aI2308
aI163
aI2309
aI638
aI118
aI776
aI525
aI387
aI1543
aI2310
aI2311
aI655
aI153
aI2312
aI632
aI1565
aI212
aI492
aI1330
aI1570
aI2313
aI158
aI391
aI649
aI655
aI1351
aI1352
aI506
aI632
aI1217
aI223
aI199
aI2314
aI2315
aI2316
aI2317
aI2318
aI315
aI2319
aI391
aI2237
aI1352
aI2320
aI2321
aa(lp119
I1
aI2
aI64
aI8
aI39
aI107
aI33
aI34
aI35
aI1078
aI459
aI977
aI8
aI115
aI2322
aI107
aI2150
aI3
aI4
aI1
aI333
aI120
aI221
aI219
aI37
aI3
aI2323
aI2324
aI107
aI2
aI204
aI23
aI266
aI377
aI935
aI2325
aI2326
aI2327
aI793
aI287
aI1106
aI1079
aI1135
aI1217
aI107
aI287
aI625
aI156
aI2328
aI2329
aI375
aI10
aa(lp120
I2330
aI2331
aI2332
aI1099
aI118
aI2333
aI85
aI505
aI2334
aI2335
aI758
aI2336
aI2337
aI1516
aI2338
aI2339
aI2340
aI2341
aI2342
aI2343
aI646
aI205
aI2344
aI2345
aI673
aI672
aI103
aI639
aI391
aI85
aI1939
aI2335
aI2124
aI170
aI2346
aI2347
aI1277
aI2348
aI2052
aI2349
aI40
aa(lp121
I635
aI2350
aI270
aI39
aI2351
aI2352
aI107
aI1252
aI2353
aI2354
aI1446
aI333
aI830
aI546
aI1565
aI1497
aI92
aI1788
aI1403
aI2355
aI458
aI10
aI1052
aI1217
aI2356
aI239
aI2357
aI481
aI1446
aI3
aI284
aI1788
aI2075
aI101
aI1788
aI2358
aI2359
aI2360
aI830
aI345
aI436
aI8
aI892
aI489
aI2361
aI474
aI239
aI431
aI199
aI506
aI81
aI2362
aI2229
aI2066
aI2363
aI2364
aI2365
aI23
aI475
aI2366
aI2367
aI8
aI2228
aI2360
aI830
aI323
aI10
aI151
aI439
aI2368
aI802
aI1306
aI273
aI2369
aI18
aI2370
aI1462
aI1565
aI1039
aI1462
aI2371
aI1462
aI2372
aI1482
aI1039
aI2373
aI2374
aI1812
aI2375
aa(lp122
I37
aI1730
aI2376
aI840
aI303
aI1456
aI1730
aI2376
aI1049
aI1256
aI2377
aI2378
aI1619
aI2259
aI2379
aI2380
aI2381
aI107
aI796
aI2
aI2275
aI1588
aI25
aI331
aI1878
aI878
aa(lp123
I1
aI2
aI186
aI2382
aI8
aI151
aI3
aI4
aI1160
aI1273
aI2383
aI241
aI1993
aI113
aI2384
aI107
aI2385
aI21
aI447
aI1
aI287
aI310
aI1806
aI151
aI2386
aI8
aI2385
aI2387
aI223
aI239
aI238
aI2388
aI178
aI2389
aI178
aI310
aI1420
aI137
aI1806
aI478
aI333
aI6
aI1806
aI1437
aI151
aI24
aI2386
aI585
aI2390
aI771
aI1344
aI2385
aI2391
aI1
aI157
aI1
aI1160
aI1
aI2301
aI3
aI2392
aa(lp124
I1
aI2
aI64
aI798
aI238
aI159
aI2393
aI1991
aI1806
aI1437
aI8
aI2385
aI21
aI447
aI310
aI2394
aI178
aI2395
aI178
aI2093
aI1420
aI447
aI1064
aI667
aI22
aI668
aI391
aI1344
aI1
aI33
aI34
aI35
aI37
aI2396
aI8
aI478
aI1954
aI2397
aI159
aI8
aI151
aI388
aI2398
aI178
aI21
aI76
aI2399
aI22
aI391
aI3
aa(lp125
I22
aI323
aI1
aI18
aI3
aI153
aI287
aI310
aI1484
aI389
aI277
aI2400
aI1
aI8
aI1706
aI42
aI8
aI208
aI165
aI1704
aI538
aI22
aI107
aI946
aI358
aI359
aI353
aI72
aI2401
aI585
aI37
aI2090
aI1
aI967
aI550
aI315
aI3
aI287
aI159
aI1298
aI2402
aI8
aI1675
aI188
aI1596
aa(lp126
I1
aI2
aI64
aI333
aI308
aI2403
aI8
aI169
aI161
aI839
aI163
aI296
aI2220
aI2404
aI681
aI20
aI1498
aI378
aI2405
aI3
aI4
aI481
aI2405
aI315
aI3
aI1
aI465
aI36
aI2406
aI656
aI2407
aI375
aI2408
aI385
aI664
aI8
aa(lp127
I1
aI2
aI64
aI3
aI4
aI333
aI313
aI2409
aI861
aI80
aI8
aI819
aI2410
aI27
aI967
aI375
aI84
aI22
aI10
aI8
aI88
aI2410
aI31
aI169
aI1081
aI147
aI1889
aI2410
aI27
aI169
aI1113
aI315
aI2411
aI24
aI2412
aI213
aI2413
aI2414
aI390
aI472
aI81
aI134
aI1637
aI1616
aI474
aI1289
aI2120
aI174
aI2410
aI27
aa(lp128
I2415
aI256
aI64
aI2416
aI8
aI693
aI3
aI4
aI287
aI460
aI8
aI375
aI466
aI18
aI287
aI797
aI844
aI389
aI695
aI3
aI946
aI186
aI2417
aI8
aI2
aI320
aI1082
aI1256
aI262
aI178
aI22
aI1752
aI107
aI3
aI287
aI1022
aI653
aI438
aI170
aI7
aI199
aI287
aI2418
aI103
aI1097
aI439
aI695
aI607
aI1289
aI1752
aI2419
aI2420
aI1274
aI247
aI1
aI370
aI8
aI107
aI92
aI2421
aI2422
aI695
aI2423
aI107
aI3
aI764
aI19
aI2424
aI492
aI102
aI8
aa(lp129
I22
aI1206
aI887
aI2158
aI806
aI241
aI465
aI239
aI41
aI1491
aI80
aI64
aI911
aI2247
aI15
aI75
aI2425
aI2426
aI64
aa(lp130
I1
aI2
aI64
aI3
aI4
aI287
aI159
aI2427
aI21
aI64
aI2428
aI15
aI626
aI806
aI840
aI287
aI625
aI1
aI802
aI1467
aI137
aI771
aI229
aI772
aI1
aI2429
aI39
aI8
aI37
aI265
aI772
aI771
aI229
aI241
aI26
aI1006
aI1497
aI67
aI703
aI2430
aI2431
aI1204
aI620
aI2432
aI395
aI2427
aI37
aI1233
aI2420
aI2430
aI71
aI2427
aI33
aI2433
aI46
aI602
aI392
aI75
aI626
aI2434
aI15
aI1
aI315
aI653
aI2435
aI15
aI2427
aI806
aa(lp131
I2436
aI159
aI2437
aI1094
aI80
aI186
aI2436
aI493
aI80
aI64
aI458
aI2438
aI1375
aI4
aI55
aI2437
aI64
aI1499
aI1094
aI80
aI770
aI231
aI253
aI2439
aI15
aI2440
aI15
aI75
aI107
aI302
aI4
aI22
aI145
aI625
aI2436
aI486
aI487
aI107
aI375
aI1094
aI2441
aI236
aI2442
aI22
aI55
aI24
aI2437
aI37
aI911
aI1420
aI1082
aI2443
aI2444
aI100
aI2445
aI375
aI2446
aI2447
aI2436
aI75
aI380
aI290
aI164
aI147
aI318
aI2448
aI2121
aI187
aI2437
aI75
aI380
aI2449
aI1711
aI147
aI318
aI2450
aI10
aI217
aI68
aI291
aI2392
aa(lp132
I22
aI1
aI18
aI3
aI4
aI352
aI42
aI54
aI2451
aI333
aI466
aI8
aI39
aI375
aI358
aI359
aI585
aI71
aI602
aI25
aI75
aI1
aI2
aI64
aI10
aI946
aI80
aI39
aI107
aI75
aI72
aI1
aI18
aI22
aI2452
aI107
aI2453
aI323
aI1
aI22
aI333
aI479
aI156
aI163
aI646
aI1874
aI385
aI2454
aI325
aI1042
aI1803
aI178
aI107
aI806
aI1016
aI323
aI1
aI608
aI884
aI350
aI1113
aI360
aI77
aI147
aI156
aI22
aI107
aI2455
aI333
aI1044
aI2456
aI1
aI2
aI2457
aI15
aI806
aI281
aI10
aI291
aI241
aI2458
aI2459
aI325
aa(lp133
I431
aI1622
aI68
aI253
aI303
aI482
aI395
aI385
aI273
aI75
aI48
aI285
aI408
aI10
aI217
aI68
aI291
aI360
aI199
aI96
aI400
aI566
aI4
aI22
aI1665
aI147
aI207
aI1674
aI178
aI75
aI298
aI2460
aI807
aI147
aI1306
aI285
aI389
aI1368
aI331
aI1288
aI284
aI163
aa(lp134
I1
aI2
aI2461
aI18
aI2
aI606
aI80
aI298
aI88
aI2462
aI105
aI2463
aI130
aI657
aI2464
aI557
aI1256
aI262
aI178
aI2465
aI107
aI330
aI2028
aI68
aI844
aI333
aI22
aI333
aI19
aI1889
aI245
aI2466
aI1378
aI2467
aI1352
aI1
aI89
aI2306
aI1638
aI22
aI681
aI475
aI679
aI1040
aI1
aI496
aI2261
aI107
aI2468
aI2469
aI245
aI1
aI49
aI3
aa(lp135
I1119
aI105
aI272
aI273
aI18
aI681
aI679
aI1040
aI1
aI496
aI381
aI681
aI475
aI1
aI2
aI2470
aI2471
aI223
aI239
aI1
aI840
aI2472
aI128
aI479
aI790
aI481
aI1
aI2473
aI3
aI1913
aI1491
aI1622
aI3
aI2474
aI1101
aI1734
aI2475
aI2476
aa(lp136
I22
aI323
aI1
aI18
aI3
aI153
aI310
aI28
aI2477
aI8
aI2478
aI169
aI2479
aI15
aI22
aI107
aI2207
aI137
aI8
aI358
aI359
aI463
aI461
aI55
aI8
aI1901
aI2480
aI936
aI2481
aI2013
aI2482
aI810
aI39
aI1
aI2
aI64
aa(lp137
I394
aI2483
aI1701
aI286
aI68
aI253
aI294
aI380
aI10
aI217
aI68
aI291
aI223
aI199
aI360
aI190
aI68
aI291
aI291
aI566
aI4
aI22
aI167
aI273
aI75
aI48
aI285
aI96
aI400
aI1362
aI408
aI380
aI265
aI147
aI292
aI643
aI453
aI178
aI2484
aI397
aI2485
aI289
aI92
aI273
aI75
aI190
aI68
aI291
aI207
aI1665
aI147
aI2486
aI15
aI390
aI2487
aI2485
aI294
aI22
aI1366
aI408
aI187
aI409
aI1330
aI232
aI1018
aI412
aI239
aI2217
aa(lp138
I22
aI137
aI1529
aI1505
aI8
aI37
aI1
aI2
aI624
aI877
aI1688
aI2550
aI2092
aI4
aI851
aI1
aI356
aI2551
aI2282
aI840
aI22
aI137
aI2552
aI2553
aI161
aI1802
aI8
aI10
aI217
aI861
aI2554
aI107
aI3
aI2555
aI2556
aI1
aI2557
aI2558
aI1499
aI2559
aI2277
aI2560
aI39
aI585
aI29
aI10
aI217
aI2561
aI935
aI22
aI8
aI910
aI2562
aI1255
aI906
aI396
aI1517
aI2563
aI2564
aI283
aa(lp139
I22
aI556
aI557
aI442
aI558
aI218
aI21
aI107
aI10
aI217
aI559
aI560
aI561
aI562
aI4
aI563
aI564
aI565
aI563
aI564
aI218
aI566
aI567
aI568
aI569
aI331
aI570
aI42
aI163
aI571
aI572
aI573
aI574
aI575
aI576
aI577
aI37
aI578
aI579
aI71
aI580
aa(lp140
I465
aI471
aI2573
aI375
aI84
aI2574
aI1842
aI2407
aI465
aI574
aI161
aI163
aI102
aI920
aI480
aI506
aI998
aI442
aI324
aI2575
aI2576
aI606
aI2050
aI2577
aI2578
aI8
aI102
aI2579
aI1620
aI2580
aI2576
aI2581
aI2071
aI147
aI289
aI606
aI1671
aI1155
aI169
aI1234
aI1064
aI2582
aI822
aI186
aI175
aI946
aI102
aI514
aI2583
aI205
aI2355
aI1442
aI690
aI375
aI84
aI1368
aI574
aI2584
aI3
aI2585
aI2586
aI681
aI804
aI2583
aI1628
aI17
aI2384
aI102
aI770
aa(lp141
I285
aI389
aI10
aI217
aI68
aI291
aI36
aI2587
aI2588
aI2589
aI404
aI285
aI23
aI1306
aI2590
aI2487
aI199
aI285
aI6
aI190
aI68
aI291
aI2538
aI396
aI199
aI1029
aI22
aI285
aI399
aI96
aI400
aI2538
aI1688
aI147
aI2247
aI178
aI75
aI393
aI190
aI291
aI1292
aI289
aI361
aI1762
aI285
aI389
aI2591
aI147
aI2592
aI15
aI75
aI22
aI407
aI408
aI187
aI409
aI2593
aI885
aI411
aI412
aI2593
aI413
aa(lp142
I234
aI422
aI434
aI93
aI1918
aI771
aI223
aI2594
aI391
aI2205
aI595
aI967
aI207
aI212
aI1925
aI1802
aI1041
aI2005
aI266
aI1918
aI771
aI333
aI2595
aI2596
aI2597
aI2598
aI2599
aI1321
aI2600
aI458
aI88
aI2601
aI10
aI163
aI2602
aI2603
aI2604
aI2492
aI2605
aI22
aI1429
aI1119
aI0
aI2606
aI1
aI2204
aI8
aI1528
aI2607
aI1052
aI2608
aI283
aI872
aI505
aI2609
aI2610
aI2611
aI2598
aI2612
aI2613
aI2614
aa(lp143
I22
aI643
aI404
aI285
aI23
aI248
aI199
aI360
aI479
aI391
aI163
aI10
aI217
aI68
aI291
aI96
aI400
aI3
aI4
aI285
aI23
aI190
aI68
aI291
aI315
aI294
aI393
aI10
aI217
aI291
aI285
aI389
aI399
aI360
aI1688
aI147
aI2615
aI178
aI75
aI2616
aI178
aI296
aI199
aI22
aI190
aI291
aI566
aI2071
aI147
aI294
aI2617
aI15
aI75
aI2618
aI15
aI566
aI2589
aI285
aI389
aI399
aI2569
aI2619
aI1111
aI223
aI163
aI431
aI715
aI285
aI399
aI2620
aI2621
aI96
aI400
aa(lp144
I22
aI643
aI404
aI285
aI23
aI248
aI199
aI380
aI292
aI293
aI10
aI217
aI68
aI291
aI96
aI400
aI566
aI4
aI1250
aI285
aI23
aI190
aI68
aI291
aI360
aI390
aI397
aI199
aI393
aI10
aI217
aI291
aI285
aI389
aI399
aI380
aI2120
aI147
aI403
aI178
aI75
aI2615
aI178
aI75
aI296
aI199
aI128
aI1396
aI96
aI400
aI2622
aI479
aI294
aI285
aI389
aI163
aI22
aI296
aI292
aI285
aI389
aI399
aI120
aI365
aI2616
aI178
aI75
aa(lp145
I2623
aI1040
aI2624
aI381
aI681
aI475
aI499
aI1579
aI51
aI2493
aI1
aI496
aI381
aI792
aI1
aI2
aI64
aI2625
aI2626
aI2627
aI2628
aI2629
aI2630
aI2631
aI51
aI550
aI163
aI2632
aI2249
aI2633
aI2634
aI89
aI190
aI266
aI1239
aI22
aI2634
aI1693
aI1510
aI885
aI1864
aI10
aI217
aa(lp146
I394
aI395
aI2229
aI1348
aI286
aI68
aI253
aI288
aI36
aI2130
aI199
aI340
aI1510
aI2635
aI10
aI217
aI190
aI68
aI291
aI566
aI4
aI22
aI96
aI400
aI566
aI167
aI285
aI399
aI68
aI273
aI75
aI2565
aI48
aI285
aI1362
aI408
aI1261
aI75
aI380
aI1451
aI147
aI292
aI2636
aI178
aI75
aI1297
aI2569
aI285
aI399
aI380
aI2637
aI147
aI292
aI2638
aI15
aa(lp147
I1269
aI486
aI2685
aI8
aI313
aI5
aI159
aI1268
aI2166
aI8
aI375
aI1
aI2
aI1288
aI1284
aI1484
aI1268
aI550
aI1718
aI599
aI2686
aI1791
aI592
aI1269
aI3
aI1
aI5
aI1510
aI6
aI186
aI175
aI1268
aI552
aI27
aI8
aI1269
aI152
aI15
aI1269
aI287
aI310
aI2687
aI8
aI2688
aI169
aI2166
aI1761
aI541
aI309
aI246
aI147
aI1269
aI313
aI8
aI24
aI2689
aI2635
aI2690
aI2691
aI2692
aI3
aI465
aI458
aI23
aI40
aI54
aI1268
aI55
aI980
aI199
aa(lp148
I22
aI8
aI37
aI1
aI2
aI566
aI385
aI1288
aI2693
aI587
aI153
aI351
aI465
aI2407
aI2694
aI479
aI390
aI570
aI2035
aI436
aI1
aI33
aI907
aI37
aI1
aI969
aI8
aI478
aI566
aI587
aI2695
aI15
aI2389
aI1168
aI75
aI23
aI63
aI178
aI1289
aI656
aI2401
aI15
aI2696
aI1168
aI75
aI23
aI1665
aI178
aI570
aI163
aI2217
aa(lp149
I22
aI17
aI107
aI1
aI2
aI64
aI5
aI4
aI159
aI2697
aI18
aI802
aI1612
aI402
aI257
aI950
aI18
aI1497
aI2698
aI15
aI626
aI68
aI478
aI315
aI782
aI806
aI2699
aI15
aI2697
aI71
aI602
aI885
aI75
aI626
aI2244
aI2697
aI602
aI392
aI1
aI67
aI68
aI75
aI2697
aI1
aI333
aI1261
aI75
aI67
aI68
aI127
aI629
aI2700
aI273
aI75
aI1071
aI412
aI1
aI75
aI380
aI2701
aI2702
aI2697
aI75
aI2703
aI1168
aI2704
aa(lp150
I375
aI84
aI1556
aI1762
aI240
aI153
aI1632
aI169
aI1453
aI8
aI2705
aI1354
aI163
aI2706
aI102
aI695
aI2707
aI2585
aI2586
aI17
aI102
aI381
aI2583
aI1217
aI33
aI284
aI79
aI514
aI989
aI2708
aI375
aI84
aI28
aI391
aI1913
aI240
aI246
aI163
aI646
aI85
aI169
aI1453
aI978
aI227
aI19
aI3
aI398
aI186
aI175
aI8
aI2709
aI1067
aI465
aI294
aI163
aI2710
aI147
aI2711
aI1616
aI147
aI1570
aI765
aI8
aI2712
aI169
aI629
aI2540
aI1018
aI990
aI2713
aI169
aI1155
aI2714
aI169
aI3
aa(lp151
I764
aI391
aI1554
aI233
aI609
aI93
aI266
aI2715
aa(lp152
I1
aI2
aI64
aI3
aI4
aI48
aI422
aI895
aI896
aI2716
aI525
aI2639
aI256
aI25
aI618
aI1006
aI947
aI107
aI2717
aI15
aI154
aI40
aI1
aI36
aI39
aI525
aI257
aI2718
aI1204
aI620
aI2229
aI1155
aI808
aI525
aI22
aI422
aI2716
aI525
aI2719
aI810
aI2720
aI1721
aI2721
aI2722
aI35
aI879
aI2723
aI2013
aI1
aI33
aI34
aI35
aI39
aI2231
aI8
aI1131
aI822
aI23
aI2724
aI178
aa(lp153
I1
aI2
aI64
aI3
aI4
aI5
aI6
aI246
aI26
aI27
aI839
aI29
aI8
aI17
aI585
aI675
aI2695
aI15
aI626
aI1
aI33
aI907
aI3
aI287
aI36
aI37
aI885
aI8
aI38
aI950
aI1120
aI8
aI37
aI1120
aI974
aI465
aI977
aI2725
aI22
aI885
aI8
aI2726
aI169
aI1
aI3
aI17
aI585
aI33
aI1471
aI677
aI358
aI359
aI947
aI675
aa(lp154
I383
aI76
aI547
aI84
aI83
aI1659
aI2727
aI1173
aI1041
aI867
aI819
aI463
aI2163
aI1184
aI2728
aI2729
aI2730
aI2731
aI2732
aI1646
aI2733
aI2734
aI234
aI8
aI241
aI2735
aI1018
aI754
aI81
aI24
aI2736
aI439
aI2737
aI2738
aI1865
aI2739
aI2740
aI2741
aI2742
aI1202
aI2743
aI2744
aI1865
aI2745
aI2746
aI1
aI2
aI2747
aI2748
aI1041
aI66
aI333
aI653
aI2749
aI2750
aI8
aI2306
aI537
aI8
aI1041
aI1376
aI2751
aI839
aI463
aI8
aI796
aI2113
aI463
aI994
aI269
aI1120
aI2045
aI839
aI1128
aI8
aI24
aI10
aI217
aI1201
aI1202
aI879
aI2025
aI241
aI1178
aI2751
aI2752
aI8
aI24
aI1417
aI911
aI2025
aI241
aI2753
aI754
aI2420
aI2732
aI2754
aI8
aI907
aI277
aI2400
aI2755
aI35
aa(lp155
I22
aI2756
aI18
aI3
aI4
aI48
aI160
aI2120
aI15
aI75
aI2757
aI2758
aI845
aI2649
aI2759
aI1661
aI1321
aI2760
aI15
aI22
aI23
aI2761
aI186
aI175
aI1383
aI191
aI859
aI1288
aI1081
aI147
aI1177
aI388
aI75
aI281
aI199
aI2756
aI48
aI28
aI15
aI75
aI2757
aI1899
aI15
aI22
aI23
aI156
aI4
aI859
aI248
aI1717
aI2756
aI2762
aI1273
aI132
aI777
aI372
aI8
aI375
aI1350
aI1274
aI2763
aI2756
aI1160
aI1616
aI178
aI669
aI2093
aI238
aI537
aI8
aI18
aI1252
aa(lp156
I987
aI2764
aI2634
aI2551
aI390
aI802
aI2765
aI1
aI2
aI2766
aI2767
aI2768
aI2769
aI81
aI2634
aI66
aI649
aI361
aI2770
aI25
aI88
aI1
aI2771
aI22
aI8
aI115
aI151
aI973
aI15
aI2772
aI672
aI1540
aI656
aI586
aI523
aI2231
aI8
aI1131
aI1350
aI289
aI1038
aI1734
aI2773
aI2774
aI2410
aI27
aI29
aI100
aI1
aI31
aI1675
aI188
aI778
aI2775
aa(lp157
I128
aI854
aI2776
aI892
aI720
aI525
aI1055
aI845
aI2777
aI169
aI1666
aI2778
aI2779
aI1784
aI649
aI2780
aI395
aI1011
aI1029
aI2346
aI2781
aI2782
aI1913
aI2696
aI2783
aI2784
aI2785
aI2786
aI10
aI1039
aI256
aI2787
aI101
aI2788
aI2789
aI1016
aI2790
aI158
aI292
aI127
aI2791
aI2330
aI431
aI1055
aI2574
aI321
aI860
aI2792
aI1784
aI1324
aI2793
aI505
aI2794
aI2795
aI101
aI222
aI656
aI2796
aI522
aI2062
aI2797
aI163
aI1939
aI1913
aI674
aI2648
aI340
aI303
aI2648
aI2798
aI2799
aI674
aI1055
aI163
aI521
aI312
aI2800
aI2801
aI1039
aI2802
aI2803
aI2804
aI1670
aI1696
aI1011
aI15
aI190
aI674
aI656
aI2805
aI2806
aI1556
aI952
aI2797
aI2807
aI522
aI619
aI2282
aI476
aI2808
aI696
aI2809
aI892
aI1600
aI2797
aI2810
aI439
aI1939
aI1913
aI2787
aI2811
aI1946
aI1196
aI1543
aI163
aI42
aI434
aa(lp158
I1
aI2
aI64
aI34
aI35
aI802
aI487
aI8
aI107
aI3
aI48
aI885
aI895
aI896
aI794
aI229
aI16
aI808
aI585
aI64
aI809
aI810
aI942
aI2812
aI15
aI2813
aI2814
aI375
aI2815
aI1623
aI2816
aI2817
aI2818
aI2819
aI1321
aI2820
aI2821
aI2522
aI2822
aI1460
aI5
aI159
aI2823
aI469
aI2824
aI2825
aI375
aI345
aI2826
aI1344
aI6
aI2827
aI967
aI1834
aI1460
aI1637
aI15
aI796
aI709
aI256
aI819
aa(lp159
I1
aI2
aI241
aI1875
aI655
aI80
aI2827
aI8
aI340
aI1235
aI24
aI29
aI1
aI26
aI27
aI30
aI31
aI32
aI31
aI555
aI8
aI22
aI107
aI47
aI1051
aI80
aI2268
aI585
aI308
aI2268
aI340
aI1235
aI259
aI340
aI1234
aI1748
aI2410
aI27
aI8
aI315
aI1875
aI655
aI80
aI2828
aI169
aI2829
aI2830
aI2028
aI2831
aI2832
aI1155
aI67
aI213
aI1
aI880
aI2833
aI232
aI2058
aI1081
aI1168
aI1671
aI631
aI2058
aI915
aI49
aI454
aI2834
aI3
aI56
aI107
aI1513
aI1
aI969
aI375
aI8
aI287
aI36
aI880
aI2835
aI474
aI2030
aI80
aI169
aI2836
aI1048
aI2837
aI1232
aI88
aI2838
aI2839
aI2840
aa(lp160
I915
aI105
aI1
aI2
aI71
aI862
aI107
aI346
aI138
aI599
aI2841
aI20
aI1079
aI37
aI8
aI2842
aI2645
aI2843
aI1784
aI2086
aI2844
aI1784
aI33
aI10
aI217
aI2845
aI147
aI1
aI1068
aI75
aI624
aI31
aI1390
aI2846
aI867
aI473
aI1064
aI2847
aI2848
aa(lp161
I22
aI537
aI8
aI18
aI1616
aI178
aI238
aI2756
aI18
aI2849
aI282
aI283
aI4
aI537
aI75
aI1317
aI246
aI147
aI2224
aI840
aI68
aI310
aI107
aI764
aI480
aI266
aI2850
aI314
aI388
aI537
aI320
aI1761
aI3
aI1040
aI2851
aI2852
aI1125
aI8
aI102
aI695
aI2853
aI2854
aa(lp162
I128
aI157
aI287
aI648
aI56
aI2
aI150
aI989
aI1086
aI18
aI5
aI4
aI310
aI969
aI8
aI21
aI2855
aI15
aI626
aI68
aI1086
aI390
aI157
aI223
aI42
aI199
aI287
aI1761
aI946
aI2856
aI2857
aI169
aI2858
aI8
aI1131
aI2859
aI2860
aI537
aI8
aI18
aI1
aI2
aI64
aa(lp163
I1204
aI572
aI2620
aI1741
aI2861
aI223
aI28
aI163
aI1442
aI2862
aI2518
aI76
aI2579
aI2863
aI1306
aI2408
aI105
aI375
aI1064
aI247
aI2864
aI102
aI1812
aI247
aI2865
aI171
aI3
aI235
aI256
aI572
aI720
aI2866
aI147
aI289
aI163
aI1064
aI514
aI1367
aI4
aI506
aI235
aI256
aI2867
aI1135
aI290
aI246
aI147
aI2407
aI1204
aI572
aI965
aa(lp164
I796
aI2868
aI8
aI375
aI2166
aI1
aI2
aI3
aI4
aI5
aI159
aI969
aI8
aI21
aI107
aI33
aI429
aI430
aI37
aI313
aI1472
aI8
aI2045
aI171
aI22
aI145
aI262
aI178
aI315
aI976
aI653
aI174
aI15
aI969
aI806
aI287
aI198
aI273
aI8
aI141
aI1
aI1959
aI186
aI175
aI22
aI157
aI287
aI383
aI1
aI2869
aI583
aI2
aI84
aI625
aI1576
aI1633
aI1991
aI585
aI2756
aI2672
aI537
aI8
aI18
aa(lp165
I180
aI2870
aI1331
aI2871
aI190
aI998
aI2872
aI2873
aI2874
aI84
aI584
aI2875
aI637
aI1815
aI2876
aI190
aI2877
aI2878
aI266
aI2150
aI162
aI2767
aI2879
aI2880
aI2881
aI1646
aI190
aI2882
aI213
aI439
aI2883
aI2884
aI2876
aI439
aI1902
aI3
aI436
aI270
aI320
aI2191
aI2885
aI2870
aa(lp166
I981
aI2886
aI2887
aI1915
aI566
aI1491
aI1498
aI2594
aI396
aI1517
aI199
aI646
aI2888
aI2889
aI285
aI537
aI8
aI2096
aI669
aI1616
aI178
aI2093
aI238
aI2756
aI793
aI2890
aI1433
aI324
aa(lp167
I915
aI221
aI1
aI2
aI64
aI5
aI2891
aI6
aI1307
aI2892
aI229
aI772
aI323
aI1
aI18
aI157
aI388
aI2893
aI15
aI107
aI3
aI4
aI154
aI40
aI1
aI788
aI769
aI80
aI287
aI6
aI67
aI68
aI2427
aI21
aI72
aI229
aI323
aI1
aI323
aI1
aI287
aI134
aI2894
aI15
aI229
aI120
aI2895
aI15
aI333
aI308
aI2896
aI2892
aI186
aI1252
aI2897
aI1
aI2
aI37
aI313
aI8
aI323
aI1
aI72
aI1484
aI389
aI2898
aI1991
aI150
aI8
aI585
aI2899
aI107
aI33
aI34
aI35
aa(lp168
I987
aI301
aI2032
aI8
aI1067
aI289
aI413
aI147
aI223
aI163
aI2900
aI1256
aI290
aI147
aI1317
aI2605
aI84
aI36
aI1184
aI986
aI977
aI1193
aI1564
aI2901
aI92
aI2902
aI253
aI2902
aI2903
aI2904
aI2905
aI855
aI2906
aI1064
aI10
aI1783
aI2907
aI2908
aI2909
aI10
aI151
aI1667
aI946
aI102
aI246
aI223
aI807
aI199
aI332
aI1354
aI1042
aI138
aI665
aI431
aI8
aI967
aI223
aI199
aI2910
aI1422
aI46
aI1
aI2
aI977
aI479
aI2911
aI438
aI31
aI1503
aI585
aI880
aI1741
aI1616
aI474
aI1581
aI2912
aI27
aI977
aI479
aI2913
aI31
aI585
aI2914
aI2447
aI7
aI199
aI646
aI47
aI1688
aI141
aI120
aI167
aI2100
aI340
aI163
aa(lp169
I981
aI2886
aI2887
aI1915
aI566
aI1491
aI1498
aI2594
aI396
aI1517
aI199
aI646
aI2888
aI2889
aI285
aI537
aI8
aI2096
aI669
aI1616
aI178
aI2093
aI238
aI2756
aI793
aI2890
aI1433
aI324
aa(lp170
I1
aI2
aI64
aI8
aI151
aI3
aI153
aI2693
aI569
aI1025
aI163
aI646
aI252
aI2915
aI1235
aI663
aI946
aI160
aI2916
aI1
aI33
aI34
aI35
aI566
aI569
aI1363
aI15
aI232
aI1168
aI75
aI570
aI340
aI410
aI1803
aI1289
aI569
aI961
aI15
aI1316
aI1168
aI75
aI630
aI570
aI1245
aa(lp171
I1
aI2
aI796
aI1267
aI2856
aI550
aI2917
aI2918
aI10
aI217
aI219
aI2919
aI2920
aI220
aI889
aI230
aI599
aI1
aI521
aI2921
aI15
aI93
aI56
aI2715
aI223
aI163
aI1064
aI2922
aI2715
aI2923
aa(lp172
I1
aI2
aI3
aI4
aI54
aI1051
aI2831
aI2030
aI655
aI2832
aI114
aI849
aI8
aI186
aI175
aI455
aI452
aI2924
aI1
aI3
aI2831
aI655
aI80
aI2483
aI449
aI2925
aI1155
aI8
aI750
aI823
aI169
aI1496
aI1056
aI478
aI3
aI487
aI2926
aI8
aI102
aI22
aI107
aI880
aI2833
aI479
aI232
aI2058
aI2832
aI1081
aI1168
aI631
aI2058
aa(lp173
I1
aI2
aI409
aI318
aI125
aI580
aI137
aI8
aI2927
aI2928
aI39
aI858
aI976
aI2521
aI3
aI2929
aI22
aI579
aI465
aI156
aI153
aI340
aI103
aI2930
aI137
aI128
aI2911
aI8
aI315
aI2927
aI1
aI33
aI34
aI35
aI22
aI40
aI248
aI1
aI280
aI2931
aI1237
aI871
aI585
aI137
aI607
aI137
aI8
aI37
aI1
aI2932
aI1
aI2557
aI2558
aI349
aI2933
aI80
aI2934
aI2935
aI603
aI601
aI2645
aa(lp174
I222
aI42
aI434
aI1564
aI1042
aI792
aI2936
aI2937
aI2938
aI2939
aI2940
aI557
aI190
aI2941
aI2942
aI2943
aI933
aI107
aI2944
aI2628
aI657
aI1320
aI947
aI2945
aI1334
aI933
aI2946
aI476
aI345
aI2947
aI944
aI1322
aI1542
aI1622
aI1049
aI2948
aI2949
aI178
aI1323
aI1082
aI657
aI1320
aI330
aI137
aI1326
aI625
aI1334
aI18
aI191
aI439
aI1
aI2
aI8
aI37
aI190
aI2
aI21
aI384
aa(lp175
I1
aI2
aI3
aI4
aI54
aI1051
aI2831
aI2030
aI655
aI2832
aI114
aI849
aI8
aI186
aI175
aI455
aI452
aI2924
aI1
aI3
aI2831
aI655
aI80
aI2483
aI449
aI2925
aI1155
aI8
aI750
aI823
aI169
aI1496
aI1056
aI478
aI3
aI487
aI2926
aI8
aI102
aI22
aI107
aI880
aI2833
aI479
aI232
aI2058
aI2832
aI1081
aI1168
aI631
aI2058
aa(lp176
I45
aI2950
aI2951
aI1731
aI572
aI769
aI929
aI1046
aI103
aI334
aI375
aI22
aI165
aI525
aI422
aI1747
aI1748
aI107
aI24
aI2952
aI165
aI21
aI487
aI606
aI425
aI25
aI20
aI18
aI1612
aI262
aI247
aI2953
aI1462
aI332
aI2954
aI2955
aI284
aI840
aI2956
aI810
aI1158
aI1159
aI2005
aI690
aI2957
aI2660
aI333
aI2371
aI906
aI10
aI217
aI463
aI180
aI19
aI2958
aI15
aI2959
aI1530
aI822
aI1607
aI1561
aI15
aI1492
aI45
aI2
aI463
aI289
aI273
aI2960
aI174
aI147
aI198
aI512
aI773
aI442
aI281
aI2961
aI2962
aI2163
aI1056
aI652
aI1492
aI2963
aI330
aa(lp177
I22
aI2964
aI8
aI2645
aI107
aI1484
aI1
aI2
aI614
aI523
aI2930
aI1
aI8
aI137
aI587
aI128
aI479
aI1284
aI163
aI37
aI588
aI2645
aI107
aI587
aI290
aI15
aI22
aI1366
aI599
aI2438
aI1
aI2965
aI223
aI239
aI8
aI39
aI598
aI466
aI137
aI1
aI486
aI487
aI8
aI39
aI151
aI588
aI543
aI1009
aI487
aI71
aa(lp178
I915
aI326
aI10
aI2488
aI294
aI1071
aI2966
aI2967
aI132
aI1
aI2
aI2516
aI39
aI150
aI585
aI165
aI22
aI335
aI2968
aI137
aI28
aI2969
aI150
aI8
aI346
aI1
aI427
aI2934
aI22
aI8
aI39
aI149
aI72
aI1
aa(lp179
I666
aI475
aI2970
aI2971
aI266
aI2240
aI1041
aI2972
aI1802
aI2973
aI2036
aI1517
aI443
aI428
aI479
aI2080
aI2974
aI798
aI845
aI770
aI1628
aI93
aI1267
aI107
aI2975
aI2976
aI550
aI2977
aI4
aI2978
aI681
aI475
aI706
aI2979
aI64
aI10
aI217
aI56
aI770
aI2980
aI21
aI96
aI1267
aI107
aI2304
aI315
aI428
aI2978
aI681
aI475
aI487
aI2981
aI201
aI186
aI706
aI2979
aI93
aI648
aI2982
aI2123
aI967
aI439
aI1898
aI2983
aI2522
aI2984
aI824
aI2985
aI274
aI986
aI2986
aa(lp180
I2987
aI685
aI1040
aI1
aI2988
aI2989
aI547
aI2990
aI2991
aI2992
aI512
aI1
aI8
aI1782
aI2993
aI2790
aI1543
aI245
aI291
aI2994
aI22
aI1462
aI2527
aI431
aI2194
aI1038
aI892
aI736
aI1675
aI2859
aI2995
aI2996
aI2997
aI2998
aI2999
aI3000
aI2604
aI481
aI1
aI396
aI1802
aI1
aI2
aI8
aI375
aI3001
aI1743
aI432
aI1773
aa(lp181
I22
aI137
aI28
aI8
aI10
aI2488
aI39
aI149
aI862
aI149
aI137
aI1
aI2
aI346
aI20
aI2558
aI3002
aI375
aI2551
aI22
aI31
aI624
aI3003
aI8
aI861
aI2165
aI856
aI612
aI1040
aI1558
aI712
aI911
aI315
aI581
aI2966
aI2967
aI132
aI1
aI2516
aI653
aI39
aI10
aI2488
aI1987
aI8
aI466
aI72
aI1
aI281
aI239
aI333
aI37
aI8
aI150
aI3004
aI679
aI1040
aI1
aI22
aI580
aI624
aI3005
aI336
aI867
aI3006
aI2488
aI918
aa(lp182
I889
aI149
aI550
aI1123
aI223
aI2303
aI8
aI10
aI217
aI907
aI879
aI3007
aI3008
aI4
aI2776
aI3007
aI585
aI280
aI3009
aI3010
aI764
aI37
aI3011
aI182
aI1913
aI2776
aI3012
aI3013
aI76
aI1788
aI768
aI1554
aI273
aI149
aI3014
aI3015
aI92
aI37
aI28
aI585
aI3011
aI1734
aI88
aI149
aI1206
aI550
aI165
aI915
aI149
aI2301
aI3
aI8
aI638
aI158
aI150
aI151
aI550
aI858
aI442
aI3016
aI22
aI1071
aI3017
aI1686
aI522
aI2929
aI149
aI1484
aI1
aI2
aI1593
aI3018
aI39
aI839
aI8
aI2163
aI39
aI40
aI22
aI839
aI585
aI72
aI466
aI712
aI107
aI1484
aI947
aI2112
aI72
aI3019
aI3020
aI3021
aI3022
aI3023
aI3024
aI3025
aI766
aI22
aI149
aI3
aI2339
aI3026
aI783
aI24
aI137
aI859
aI3027
aI134
aI2866
aI15
aI39
aI70
aI572
aI3028
aa(lp183
I22
aI2756
aI18
aI3
aI4
aI458
aI3029
aI783
aI39
aI839
aI910
aI149
aI8
aI72
aI3030
aI3025
aI766
aI3019
aI3020
aI3021
aI3022
aI3023
aI3024
aI1761
aI309
aI150
aI8
aI1149
aI22
aI8
aI10
aI217
aI907
aI879
aI3007
aI3008
aI1484
aI3031
aI3032
aI3019
aI1201
aI3033
aI947
aI107
aI2756
aI72
aI2672
aI8
aI151
aI3034
aI486
aI372
aI3
aI465
aI458
aI38
aI40
aI39
aI8
aI1718
aI783
aI599
aa(lp184
I154
aI1439
aI121
aI3035
aI3036
aI1193
aI3037
aI1280
aI391
aI1229
aI3038
aI8
aI115
aI3039
aI292
aI273
aI1660
aI163
aI646
aI2346
aI604
aI3040
aI469
aI220
aI166
aI147
aI1009
aI3041
aI1064
aI3038
aI3042
aI84
aI1267
aI383
aI1378
aI892
aI158
aI3043
aI188
aI1633
aI153
aI3036
aI96
aI3038
aI3044
aI3045
aI265
aI147
aI1815
aI2531
aI1177
aI3046
aI3047
aI3048
aI3049
aI2793
aI2321
aI2517
aI3050
aI431
aI3051
aI121
aI2555
aI3052
aI3053
aI3054
aI2732
aI3055
aI2789
aI2432
aI2321
aI315
aI19
aI3056
aI3057
aa(lp185
I394
aI395
aI10
aI217
aI68
aI291
aI1782
aI292
aI303
aI248
aI566
aI297
aI404
aI285
aI23
aI289
aI3058
aI2487
aI199
aI285
aI23
aI190
aI68
aI291
aI315
aI2538
aI390
aI2487
aI199
aI22
aI167
aI285
aI399
aI96
aI400
aI380
aI1797
aI147
aI3059
aI178
aI75
aI3060
aI178
aI75
aI393
aI2569
aI1306
aI3061
aI2113
aI147
aI3062
aI15
aI75
aI3063
aI15
aI75
aI22
aI1366
aI408
aI187
aI409
aI1276
aI232
aI411
aI412
aI2708
aI239
aI2217
aa(lp186
I22
aI323
aI1
aI18
aI3
aI4
aI54
aI155
aI156
aI23
aI1562
aI2410
aI27
aI1244
aI15
aI617
aI89
aI3064
aI17
aI1920
aI64
aI3065
aI21
aI622
aI22
aI585
aI37
aI2410
aI27
aI313
aI40
aI478
aI3
aI1
aI2
aI64
aI466
aI107
aI287
aI36
aI37
aI2074
aI2410
aI27
aI2392
aa(lp187
I404
aI285
aI23
aI68
aI10
aI217
aI68
aI291
aI1782
aI650
aI303
aI248
aI199
aI285
aI23
aI190
aI68
aI291
aI380
aI479
aI391
aI28
aI199
aI42
aI291
aI566
aI4
aI22
aI167
aI273
aI75
aI48
aI285
aI96
aI400
aI1362
aI408
aI380
aI1196
aI392
aI147
aI643
aI3066
aI178
aI75
aI2484
aI397
aI2485
aI1306
aI22
aI167
aI2569
aI380
aI3067
aI262
aI147
aI167
aI3068
aI15
aI22
aI1366
aI408
aI187
aI409
aI1583
aI232
aI411
aI412
aI2708
aI1583
aI2635
aa(lp188
I1
aI2
aI64
aI3
aI4
aI592
aI159
aI233
aI10
aI8
aI1959
aI186
aI175
aI24
aI25
aI3069
aI390
aI8
aI3070
aI205
aI3071
aI704
aI1475
aI2970
aI100
aI1476
aI2883
aI3072
aI3073
aI1
aI270
aI791
aI792
aI3
aI1915
aI1675
aI3074
aI128
aI631
aI935
aI1606
aI617
aI1
aI315
aI1565
aI310
aI8
aI2924
aI2023
aI452
aI3075
aI3076
aI3077
aI100
aI1959
aI1475
aI3
aI679
aI1040
aI1
aI496
aI381
aI792
aI1
aI2
aI1
aI72
aI3078
aI8
aI3079
aI228
aI345
aa(lp189
I222
aI479
aI391
aI1042
aI1252
aI273
aI2565
aI75
aI48
aI285
aI1362
aI408
aI1261
aI360
aI190
aI68
aI291
aI199
aI340
aI2306
aI2635
aI431
aI404
aI285
aI23
aI380
aI292
aI10
aI217
aI68
aI291
aI128
aI466
aI566
aI1367
aI4
aI10
aI217
aI291
aI3
aI273
aI404
aI75
aI380
aI2074
aI147
aI953
aI178
aI75
aI2567
aI296
aI292
aI2566
aI178
aI75
aI120
aI199
aI340
aI76
aI413
aa(lp190
I202
aI3080
aI3081
aI3082
aI3083
aI1479
aI3084
aI1433
aI161
aI940
aI18
aI3085
aI793
aI76
aI3086
aI683
aI1201
aI3033
aI107
aI3087
aI64
aI3
aI4
aI333
aI625
aI3088
aI241
aI1802
aI1483
aI3089
aI391
aI3090
aI1802
aI1533
aI3091
aI1896
aI186
aI3092
aI1898
aI1898
aI2831
aI1
aI2
aI22
aI241
aI3087
aI388
aI402
aI3093
aI3094
aI3095
aI3096
aI107
aI3097
aI3098
aI3099
aI3
aI3100
aI3101
aI2301
aI1802
aI1533
aI478
aI1104
aI1785
aI1556
aI3102
aa(lp191
I22
aI1
aI18
aI3
aI4
aI287
aI6
aI885
aI772
aI256
aI26
aI235
aI3103
aI585
aI675
aI1471
aI677
aI3104
aI15
aI22
aI26
aI37
aI1
aI2
aI64
aI36
aI39
aI38
aI950
aa(lp192
I2196
aI3105
aI284
aI3106
aI68
aI253
aI3107
aI250
aI273
aI75
aI48
aI285
aI1362
aI408
aI284
aI566
aI297
aI42
aI68
aI291
aI566
aI4
aI22
aI10
aI217
aI68
aI291
aI3
aI167
aI285
aI399
aI289
aI2696
aI147
aI3108
aI297
aI340
aI1044
aI2635
aI292
aI2636
aI178
aI75
aI22
aI289
aI390
aI487
aI223
aI170
aI199
aI1104
aI411
aI1306
aI1835
aI1011
aI279
aI3109
aI3110
aI266
aI3111
aI1442
aa(lp193
I222
aI233
aI163
aI3112
aI3113
aI3114
aI1016
aI1058
aI375
aI39
aI2251
aI2060
aI1788
aI1866
aI3115
aI101
aI367
aI3116
aI3117
aI162
aI3118
aI3119
aI552
aI25
aI552
aI854
aI3120
aI39
aI367
aI591
aI134
aI657
aI1350
aI340
aI3121
aI2304
aI39
aI3122
aI3123
aI24
aI3124
aI1177
aI100
aI387
aI1788
aI3125
aI709
aI3126
aI1325
aI3
aI3127
aI3128
aI3129
aI3130
aI3131
aI3132
aI380
aI3133
aI3134
aI3135
aI559
aI2060
aI769
aI2797
aI1542
aI1939
aI3114
aI3
aI3136
aI3137
aI134
aI1259
aI657
aI1788
aI3138
aI3139
aa(lp194
I394
aI395
aI2229
aI1348
aI286
aI68
aI253
aI288
aI380
aI1279
aI2217
aI199
aI2148
aI664
aI2863
aI288
aI68
aI253
aI1206
aI130
aI2491
aI840
aI608
aI130
aI1352
aI1067
aI1664
aI2866
aI22
aI10
aI217
aI68
aI291
aI566
aI4
aI167
aI285
aI399
aI68
aI273
aI75
aI2565
aI48
aI285
aI1362
aI408
aI1261
aI75
aI380
aI1363
aI147
aI199
aI340
aI1664
aI2635
aI292
aI2239
aI178
aI75
aI1350
aI487
aI289
aI422
aI199
aI3001
aI411
aI3140
aI1835
aI1011
aI279
aI1297
aI190
aI68
aI291
aI285
aI389
aI399
aI380
aI1451
aI147
aI292
aI3141
aI15
aI75
aI478
aI487
aI1306
aI28
aI199
aI291
aa(lp195
I582
aI25
aI3142
aI1071
aI3143
aI235
aI256
aI247
aI2865
aI171
aI3144
aI547
aI3145
aI1306
aI572
aI442
aI1658
aI245
aI3146
aI3147
aI3148
aI258
aI17
aI121
aI88
aI3149
aI251
aI3150
aI333
aI333
aI1369
aI3151
aI3152
aI428
aI3153
aI2599
aI235
aI333
aI802
aI3149
aI333
aI1288
aI2696
aI15
aI672
aI1252
aI144
aI2306
aI3154
aI24
aI3155
aI892
aI1119
aI235
aI236
aI237
aI297
aI22
aI171
aI487
aI251
aI3156
aI3157
aI649
aI241
aI3149
aI333
aI672
aI223
aI199
aa(lp196
I394
aI1354
aI267
aI252
aI68
aI253
aI2859
aI591
aI1946
aI286
aI68
aI253
aI288
aI1598
aI1556
aI286
aI312
aI2574
aI569
aI22
aI10
aI217
aI68
aI291
aI566
aI4
aI285
aI389
aI68
aI187
aI380
aI1803
aI147
aI292
aI3158
aI178
aI75
aI199
aI410
aI2106
aa(lp197
I915
aI1504
aI3159
aI3160
aI1794
aI33
aI3161
aI505
aI42
aI3162
aI1504
aI1614
aI720
aI3163
aI3164
aI3165
aI3166
aI3167
aI550
aI3168
aI254
aI3169
aI1115
aI128
aI3170
aI3171
aI3172
aI758
aI3173
aI3174
aI3175
aI3168
aI248
aI3176
aI3177
aI1321
aI3178
aI3179
aI3180
aI196
aI284
aa(lp198
I869
aI3181
aI2112
aI442
aI586
aI1482
aI3182
aI3183
aI3184
aI3185
aI3186
aI21
aI872
aI3187
aI1011
aI2261
aI315
aI292
aI3188
aI3189
aI3190
aI1184
aI892
aI3189
aI3190
aI315
aI3189
aI769
aI3191
aI3184
aI3192
aI3181
aI1055
aI22
aI2112
aI476
aI550
aI3181
aI1460
aI24
aI2007
aI1341
aI3193
aI237
aI119
aI620
aI1056
aI2578
aI3181
aI3184
aI3144
aI277
aI278
aI3194
aI3195
aI3196
aI1056
aI281
aI2224
aI2391
aI107
aI439
aI1
aI2
aI3197
aI165
aI1552
aI42
aI487
aI358
aI359
aI375
aI171
aa(lp199
I17
aI585
aI675
aI156
aI4
aI310
aI839
aI8
aI1
aI2
aI3198
aI15
aI287
aI950
aI1451
aI3199
aI8
aI10
aI2162
aI221
aI17
aI33
aI1471
aI677
aI853
aI3200
aI1
aI3201
aI3202
aI3203
aI29
aI1
aI3204
aI44
aI3205
aI32
aI31
aI8
aI3206
aI30
aI31
aI8
aI3207
aI1424
aI1
aI39
aI1451
aI8
aI3208
aI17
aI3
aI17
aI950
aI1451
aI8
aI10
aI2162
aI221
aI653
aI654
aI163
aI942
aI1037
aI2339
aI358
aI359
aI675
aI8
aI638
aI950
aI585
aI1959
aI39
aI22
aI8
aI155
aI950
aI1
aI17
aI72
aI3209
aI8
aI1363
aI175
aa(lp200
I1
aI2
aI64
aI3
aI153
aI1
aI39
aI80
aI72
aI310
aI3210
aI80
aI2817
aI1993
aI257
aI3211
aI1041
aI80
aI20
aI1718
aI599
aI1
aI39
aI80
aI3
aI3210
aI822
aI23
aI1196
aI74
aI15
aI1815
aI24
aI1993
aI3212
aI3213
aI1606
aI3214
aI1606
aI1194
aI273
aI17
aa(lp201
I3215
aI3216
aI1496
aI856
aI475
aI277
aI278
aI465
aI650
aI3217
aI1335
aI471
aI998
aI1816
aI10
aI217
aI84
aI584
aI223
aI239
aI92
aI400
aI1578
aI3218
aI463
aI1497
aI1939
aI3216
aI3219
aI367
aI3220
aI287
aI118
aI1699
aI3221
aI2163
aI1042
aI3222
aI1022
aI3223
aI9
aI3224
aI1403
aI1788
aI3225
aI3220
aI3226
aI3
aI1939
aI3216
aI3227
aI3228
aI3229
aI26
aI186
aI175
aI1598
aI1788
aI3230
aI212
aI839
aI1178
aI3231
aI3232
aI3233
aI1539
aI506
aI3234
aI1554
aI492
aI1788
aI2195
aI463
aa(lp202
I889
aI119
aI882
aI223
aI199
aI679
aI1040
aI1
aI496
aI381
aI681
aI475
aI1
aI2
aI442
aI1376
aI3235
aI1672
aI822
aI1229
aI152
aI3236
aI8
aI393
aI873
aI3237
aI1
aI2204
aI1505
aI223
aI239
aI2087
aI1213
aI183
aI3238
aI2267
aI162
aI81
aI169
aI3239
aI523
aI3240
aI3241
aI3242
aI793
aI3237
aI3243
aI8
aI2991
aI625
aI3244
aI1318
aI367
aI1462
aI3245
aI2795
aI132
aI2740
aa(lp203
I3097
aI989
aI3
aI3246
aI3247
aI3248
aI3144
aI226
aI3249
aI226
aI478
aI1104
aI1851
aI330
aI459
aI1052
aI7
aI8
aI2865
aI171
aI24
aI10
aI149
aI165
aI103
aI3250
aI3251
aI550
aI92
aI1215
aI101
aI279
aI332
aI3252
aI1531
aI169
aI3253
aI1748
aI15
aI149
aI8
aI3159
aI3254
aI3255
aI3256
aI3257
aI1417
aI67
aI3258
aI847
aI1497
aI253
aI505
aI2396
aI2205
aI3259
aI586
aI149
aI80
aI187
aI3260
aI3261
aI720
aI3262
aI3155
aI48
aa(lp204
I1
aI2
aI64
aI543
aI475
aI1463
aI1735
aI2407
aI333
aI4
aI161
aI163
aI760
aI107
aI287
aI308
aI2231
aI8
aI425
aI3263
aI102
aI128
aI1324
aI3264
aI3265
aI695
aI10
aI217
aI679
aI1040
aI1
aI496
aI381
aI681
aI475
aI2207
aI8
aI107
aI3
aI656
aI1671
aI75
aI287
aI272
aI3266
aI161
aI422
aI163
aI128
aI3265
aI481
aI1
aI315
aI3
aI107
aI333
aI308
aI2231
aI8
aI3267
aI10
aI169
aI1235
aa(lp205
I1203
aI1718
aI2645
aI1237
aI266
aI1
aI2
aI3
aI4
aI287
aI2795
aI1451
aI3268
aI229
aI1686
aI3269
aI459
aI22
aI2207
aI8
aI107
aI1045
aI37
aI2568
aI3268
aI188
aI1052
aI631
aI232
aI315
aI3
aI2694
aI23
aI3270
aI977
aI188
aI465
aI3271
aI656
aI290
aI1168
aI75
aI630
aI570
aI22
aI1135
aI2795
aI859
aI3155
aI3268
aI1135
aI107
aI459
aI3272
aI1
aI3
aa(lp206
I3273
aI590
aI81
aI3274
aI1490
aI522
aI3275
aI3276
aI819
aI272
aI273
aI8
aI2345
aI10
aI70
aI2360
aI586
aI1048
aI3277
aI182
aI273
aI2672
aI2752
aI839
aI523
aI8
aI1130
aI8
aI115
aI1131
aI151
aI248
aI880
aI70
aI22
aI28
aI107
aI2345
aI3278
aI246
aI1168
aI2058
aI3277
aI88
aI223
aI638
aI1809
aI2058
aa(lp207
I222
aI390
aI391
aI1741
aI42
aI199
aI96
aI482
aI3279
aI2036
aI1517
aI664
aI2
aI3280
aI2228
aI145
aI2093
aI22
aI218
aI21
aI107
aI10
aI217
aI263
aI42
aI839
aI1628
aI1267
aI3281
aI3282
aI3283
aI3284
aI1731
aI226
aI1131
aI186
aI1731
aI21
aI22
aI3285
aI1731
aI3284
aI226
aI1131
aI1498
aI2347
aI171
aI230
aI1688
aI178
aI1588
aI630
aI1011
aI1267
aI3281
aa(lp208
I915
aI284
aI514
aI3286
aI391
aI998
aI859
aI2225
aI66
aI182
aI80
aI188
aI3144
aI1315
aI998
aI1777
aI998
aI3287
aI1039
aI1790
aI1009
aI345
aI841
aI1304
aI186
aI998
aI448
aI22
aI514
aI248
aI1071
aI1961
aI3288
aI1592
aI3289
aI66
aI976
aI2748
aI88
aI476
aI3290
aI2225
aI66
aI80
aI188
aI22
aI3286
aI391
aI859
aI918
aI1961
aI3288
aI3
aI188
aI3291
aI552
aI239
aI1946
aI924
aI1206
aI918
aI553
aI2806
aI3286
aI1315
aI188
aI318
aI3286
aI3292
aI486
aI998
aI303
aI88
aI643
aI375
aI3293
aI28
aI2487
aI88
aI1777
aI998
aI997
aI998
aI3294
aI3286
aI391
aI1309
aI998
aI3295
aI3286
aI391
aI186
aa(lp209
I22
aI823
aI28
aI239
aI646
aI3296
aI3297
aI1
aI1201
aI1202
aI88
aI3298
aI1114
aI3299
aI379
aI3300
aI3301
aI3247
aI3302
aI42
aI1735
aI3303
aI475
aI235
aI256
aI375
aI22
aI469
aI156
aI1044
aI287
aI3285
aI39
aI235
aI256
aI107
aI102
aI3304
aI696
aI3305
aI1707
aI3306
aI1569
aI1083
aI482
aI1331
aI749
aa(lp210
I22
aI323
aI1
aI18
aI3
aI153
aI287
aI159
aI3307
aI419
aI1805
aI1806
aI3307
aI44
aI3308
aI15
aI796
aI9
aI22
aI3309
aI8
aI277
aI2400
aI213
aI2453
aI3307
aI419
aI1
aI115
aI39
aI1
aI2
aI64
aI323
aI1
aI3
aI521
aI453
aI178
aI145
aI163
aa(lp211
I2004
aI2005
aI675
aI3
aI4
aI5
aI310
aI170
aI26
aI27
aI1243
aI1309
aI466
aI412
aI1196
aI3310
aI15
aI2004
aI33
aI2007
aI1422
aI810
aI8
aI358
aI359
aI947
aI675
aI26
aI27
aI1503
aI3311
aI8
aI141
aI1
aI2
aI33
aI34
aI35
aI839
aI585
aI3312
aI213
aI22
aI42
aI1792
aI1793
aI75
aI2004
aI380
aI1081
aI1168
aI3313
aI10
aI217
aI68
aI291
aa(lp212
I22
aI463
aI1787
aI281
aI163
aI977
aI429
aI430
aI2461
aI3314
aI3315
aI3316
aI2163
aI1510
aI3317
aI471
aI103
aI165
aI1045
aI2364
aI662
aI2740
aI2529
aI209
aI22
aI463
aI1649
aI3318
aI2501
aI749
aI3319
aI2711
aI3320
aI419
aI845
aI3321
aI25
aI429
aI430
aI28
aI604
aI336
aI1376
aI3314
aI3315
aI3316
aI3155
aI3322
aI625
aI3323
aI1335
aI463
aI22
aI165
aI103
aI646
aI211
aI3324
aI1476
aI331
aI3325
aI3326
aI1369
aI3327
aI3328
aI3329
aI3330
aI3331
aI3332
aI3333
aI257
aI1677
aI3334
aI3335
aI2870
aI1574
aI277
aI278
aI3333
aI478
aI2540
aI3336
aI1335
aI3337
aI3338
aI174
aI176
aI2058
aI2021
aI246
aI807
aI80
aI1442
aI2306
aI2228
aI3339
aI3340
aI1372
aI283
aI3321
aI1482
aI3341
aI3342
aI463
aI3343
aI3344
aI1165
aI1056
aa(lp213
I2538
aI3345
aI3346
aI64
aI3347
aI44
aI1321
aI3348
aI2952
aI2117
aI3
aI947
aI318
aI1464
aI1145
aI3349
aI3350
aI2447
aI3351
aI1321
aI20
aI1718
aI599
aa(lp214
I22
aI1506
aI547
aI625
aI3352
aI3353
aI1116
aI1117
aI1123
aI3354
aI22
aI3355
aI150
aI8
aI1948
aI165
aI449
aI3356
aI2574
aI3357
aI2503
aI2789
aI3358
aI3359
aI3360
aI3361
aI3362
aI15
aI1082
aI3363
aI439
aI3364
aI3365
aI3366
aI1231
aI1193
aI3367
aI3367
aI1552
aI449
aI1174
aI8
aI725
aI1307
aI169
aI1803
aI3368
aI3369
aI3370
aI2339
aI303
aI3371
aI2052
aI1052
aI115
aI24
aI8
aI39
aI3100
aI839
aI1128
aI8
aI64
aa(lp215
I2987
aI3372
aI1130
aI946
aI675
aI1484
aI2756
aI18
aI537
aI8
aI18
aI3373
aI3
aI1130
aI361
aI3061
aI107
aI2756
aI1071
aI361
aI68
aI19
aI2724
aI178
aI241
aI191
aI653
aI96
aI1125
aI751
aI238
aI222
aI4
aI552
aI2756
aI71
aI3374
aI865
aI1130
aI157
aI468
aI3375
aI282
aI283
aa(lp216
I1024
aI3376
aI3377
aI743
aI744
aI748
aI935
aI3378
aI283
aI1505
aI3379
aI3380
aI3381
aI3238
aI3382
aI3383
aI3384
aI745
aI2417
aI2046
aI3385
aI3386
aI24
aI3387
aI439
aI3388
aI1041
aI3389
aI3390
aI92
aI2196
aI3155
aI748
aI807
aI245
aI628
aI3391
aI3392
aI1204
aI22
aI892
aI1646
aI745
aI3393
aI66
aI78
aI3376
aI3377
aI3394
aI64
aI3395
aI188
aI3391
aI235
aI10
aI217
aI257
aI3391
aI235
aI2021
aI3396
aI80
aa(lp217
I17
aI585
aI675
aI5
aI159
aI973
aI8
aI1120
aI442
aI974
aI1
aI2
aI64
aI3397
aI15
aI1
aI6
aI28
aI26
aI27
aI170
aI29
aI8
aI167
aI3398
aI169
aI37
aI38
aI950
aI22
aI23
aI653
aI438
aI585
aI977
aI340
aI161
aI163
aI22
aI412
aI19
aI1
aI1274
aI796
aI8
aI967
aI24
aI1
aI149
aI2410
aI37
aI313
aI8
aI72
aI107
aI128
aI1510
aI17
aI585
aI358
aI359
aI947
aI675
aI5
aI159
aI885
aI8
aI1
aI2695
aI15
aI1
aI68
aI380
aI3399
aI1168
aI3400
aI17
aI585
aI2130
aI3401
aI1168
aI3402
aa(lp218
I1
aI2
aI64
aI3
aI4
aI460
aI946
aI375
aI3403
aI263
aI1041
aI80
aI375
aI221
aI2641
aI2643
aI1
aI3
aI263
aI1041
aI80
aI2430
aI39
aI375
aI228
aI190
aI37
aI2641
aI287
aI648
aI107
aI822
aI23
aI2866
aI178
aI1
aI75
aI380
aI3404
aI3405
aI1
aI3
aI287
aI460
aI946
aI788
aI769
aI3406
aI80
aI375
aI2418
aI1502
aI71
aI482
aI2641
aI2649
aI353
aI22
aI3407
aI107
aI782
aI1
aI2
aI550
aa(lp219
I3292
aI486
aI998
aI3408
aI3409
aI998
aI1442
aI3410
aI2642
aI1365
aI262
aI1271
aI2291
aI1492
aI1376
aI3411
aI3412
aI3413
aI2028
aI10
aI217
aI1658
aI3408
aI3409
aI1492
aI2028
aI10
aI217
aI2291
aI1232
aI1178
aI1492
aI1175
aI602
aI400
aI1659
aI1277
aI2038
aI2512
aI165
aI3414
aI101
aI397
aI22
aI2407
aI2165
aI1668
aI1298
aI493
aI819
aI78
aI823
aI10
aI217
aI223
aI239
aI1045
aI2686
aI226
aI3415
aI859
aI1175
aI3416
aI194
aI414
aI92
aI465
aI1735
aI2165
aI317
aI653
aI560
aI161
aI76
aI2317
aI2642
aI141
aI764
aI226
aI3325
aI1376
aI2268
aI2876
aI2486
aI171
aI1304
aI186
aI998
aI2924
aI2168
aI3417
aI998
aI114
aI3418
aI1286
aI493
aI455
aI194
aI3419
aI998
aI317
aI1119
aI2593
aI1562
aa(lp220
I764
aI3420
aI3421
aI3422
aI8
aI151
aI20
aI577
aI764
aI2462
aI3423
aI190
aI3144
aI419
aI3424
aI1962
aI706
aI8
aI3425
aI550
aI3426
aI3427
aI3420
aI3421
aI428
aI25
aI1475
aI3153
aI8
aI1743
aI1686
aI1872
aI92
aI481
aI3427
aI3428
aI1576
aI3429
aI2065
aI3430
aI2859
aI684
aI3431
aI880
aa(lp221
I1204
aI2084
aI102
aI3432
aI3433
aI1321
aI3434
aI1204
aI3435
aI1460
aI3
aI54
aI55
aI3436
aI102
aI3437
aI3438
aI1321
aI2240
aI3325
aI114
aI3439
aI3440
aI3441
aI1718
aI599
aI3442
aI51
aI3443
aI3444
aI3445
aI1321
aI3
aI54
aI3446
aI2678
aI1320
aI819
aI3447
aI1665
aI178
aI85
aI2970
aI3448
aI3317
aI160
aI1233
aI178
aa(lp222
I42
aI845
aI93
aI796
aI583
aI186
aI216
aI486
aI21
aI770
aI218
aI21
aI107
aI3449
aI3450
aI3451
aI10
aI217
aI3263
aI266
aI229
aI2038
aI231
aI74
aI15
aI220
aI486
aI21
aI1267
aI1055
aI25
aI3452
aI226
aI10
aI217
aI1407
aI1009
aI583
aI266
aI2311
aI93
aI2065
aI216
aI1131
aI93
aI10
aI217
aI3453
aI3454
aI226
aI277
aI278
aI19
aI3455
aI21
aa(lp223
I22
aI1269
aI18
aI107
aI25
aI171
aI2919
aI157
aI1321
aI1911
aI650
aI1024
aI333
aI428
aI56
aI655
aI84
aI1267
aI4
aI5
aI159
aI1434
aI1816
aI64
aI1515
aI15
aI626
aI1434
aI1816
aI33
aI3456
aI2714
aI3457
aI1173
aI3458
aI84
aI102
aI272
aI3459
aI1615
aI362
aI375
aI84
aI288
aI3460
aa(lp224
I529
aI1501
aI3461
aI840
aI2035
aI22
aI3462
aI998
aI102
aI2881
aI3463
aI3464
aI3465
aI375
aI84
aI426
aI3466
aI3467
aI1492
aI529
aI80
aI1746
aI3468
aI186
aI175
aI3469
aI2177
aI3470
aI3471
aI3472
aI3473
aI1099
aI1592
aI3474
aI10
aI529
aI1501
aI3475
aI2863
aI289
aI2576
aI3476
aI3477
aI3478
aI3479
aI3477
aI529
aI3479
aI420
aI9
aI1243
aI1309
aI840
aI2035
aa(lp225
I537
aI8
aI3
aI169
aI606
aI287
aI288
aI290
aI147
aI390
aI570
aI458
aI102
aI3480
aI3481
aI375
aI84
aI471
aI606
aI1671
aI1155
aI169
aI1968
aI301
aI2709
aI169
aI1067
aI288
aI294
aI262
aI147
aI402
aI147
aI537
aI665
aI1510
aI3
aI3482
aI3483
aI49
aI1
aI2
aI64
aI487
aI8
aI107
aI171
aI3
aI223
aI239
aI169
aI606
aI632
aI288
aI361
aI2106
aI147
aI570
aI252
aI340
aI296
aI231
aI606
aI1671
aI169
aI8
aI186
aI175
aI360
aI422
aI223
aI170
aI239
aI1064
aI2624
aI84
aI804
aa(lp226
I1
aI2
aI64
aI34
aI35
aI487
aI1312
aI8
aI151
aI48
aI3484
aI1422
aI1
aI115
aI3362
aI15
aI626
aI21
aI343
aI16
aI17
aI51
aI358
aI359
aI459
aI1
aI3
aI287
aI712
aI316
aI148
aI115
aI36
aI37
aI38
aI40
aa(lp227
I22
aI323
aI1
aI18
aI159
aI2045
aI8
aI1130
aI8
aI115
aI1131
aI2696
aI178
aI796
aI1991
aI2166
aI8
aI115
aI712
aI22
aI157
aI88
aI323
aI1
aI1106
aI1130
aI71
aI1711
aI178
aI323
aI1
aI68
aI134
aI3485
aI178
aI626
aI323
aI1
aI653
aI1038
aI15
aI806
aI19
aI157
aa(lp228
I2150
aI1396
aI1011
aI1115
aI802
aI3486
aI3124
aI199
aI2
aI3487
aI199
aI3488
aI3489
aI3490
aI199
aI3491
aI1104
aI1788
aI837
aI254
aI141
aI3492
aI3493
aI917
aI199
aI1011
aI802
aI1592
aI3472
aa(lp229
I36
aI1357
aI20
aI266
aI1359
aI286
aI68
aI253
aI288
aI394
aI395
aI2130
aI199
aI340
aI76
aI413
aI10
aI217
aI68
aI291
aI190
aI68
aI291
aI566
aI4
aI22
aI96
aI400
aI566
aI273
aI75
aI2565
aI48
aI285
aI1362
aI408
aI1261
aI75
aI380
aI413
aI147
aI292
aI2566
aI178
aI75
aI2567
aI296
aI292
aI2568
aI178
aI75
aI120
aI296
aI199
aI1250
aI2569
aI566
aI285
aI389
aI380
aI262
aI147
aI292
aI2570
aI15
aI75
aI2571
aI15
aI297
aI340
aI2572
aa(lp230
I222
aI685
aI679
aI680
aI3494
aI585
aI459
aI3495
aI675
aI3496
aI320
aI279
aI481
aI680
aI2622
aI358
aI359
aI475
aI682
aI1
aI2
aI141
aI96
aI10
aI8
aI676
aI677
aI1901
aI1417
aI1051
aI3497
aI3498
aI3499
aI590
aI3500
aI375
aI22
aI583
aI481
aI680
aI3018
aI1
aI1629
aI2451
aI2930
aI3501
aI658
aI523
aI298
aI223
aI1044
aI481
aI3499
aI1554
aI1
aI3169
aI3
aI3170
aI1926
aI230
aI8
aI1763
aI3502
aI23
aI266
aI80
aa(lp231
I1
aI2
aI64
aI790
aI569
aI630
aI570
aI375
aI2384
aI84
aI360
aI107
aI3115
aI388
aI585
aI634
aI22
aI569
aI961
aI15
aI1316
aI1168
aI75
aI3503
aI3504
aI2808
aI2695
aI15
aI2389
aI1168
aI75
aI163
aI2217
aI1
aI33
aI34
aI35
aI3
aI606
aI360
aI246
aI147
aI3505
aI178
aI1
aI1911
aI1036
aI15
aI3506
aI611
aI634
aI1180
aI476
aI459
aI3507
aI3508
aI681
aI20
aI1498
aI3
aI3506
aI465
aI22
aI107
aI1244
aI178
aI611
aI2753
aI859
aI634
aI1180
aI8
aI459
aI340
aI163
aI22
aI107
aI606
aI1671
aI1155
aI169
aI1968
aI301
aI2709
aI169
aI1067
aI360
aI1081
aI147
aI570
aI163
aI2217
aI1289
aI107
aI231
aI294
aI361
aI1451
aI147
aa(lp232
I1
aI2
aI89
aI616
aI617
aI1269
aI18
aI3226
aI552
aI27
aI1268
aI8
aI313
aI412
aI76
aI340
aI1
aI158
aI1268
aI3509
aI186
aI175
aa(lp233
I1
aI2
aI89
aI616
aI617
aI1269
aI18
aI3226
aI552
aI27
aI1268
aI8
aI313
aI412
aI76
aI340
aI1
aI158
aI1268
aI3509
aI186
aI175
aa(lp234
I1
aI2
aI3
aI4
aI5
aI6
aI7
aI8
aI9
aI10
aI11
aI12
aI13
aI14
aI15
aI16
aI17
aI18
aI19
aI16
aI20
aI21
aI22
aI23
aI24
aI25
aI26
aI27
aI28
aI29
aI1
aI8
aI28
aI30
aI31
aI8
aI25
aI32
aI31
aI8
aI1
aI33
aI34
aI35
aI36
aI37
aI8
aI38
aI39
aI40
aI16
aI17
aI41
aI42
aI8
aI25
aI43
aI44
aI25
aI45
aI46
aI47
aI48
aI1
aI49
aI3
aa(lp235
I10
aI2488
aI2489
aI180
aI10
aI2488
aI2490
aI212
aI986
aI1499
aI1
aI2
aI3
aI4
aI807
aI8
aI165
aI751
aI2491
aI2492
aI649
aI1365
aI262
aI1113
aI24
aI2493
aI1
aI10
aI2488
aI1
aI10
aI2488
aI1
aI737
aI188
aI839
aI29
aI42
aI26
aI27
aI8
aI422
aI1
aI8
aI10
aI2488
aI213
aI24
aI42
aI149
aI8
aI160
aI2494
aI318
aI1496
aI1266
aI107
aI3
aI375
aI2495
aI212
aI2496
aI2497
aI18
aI2495
aI80
aI690
aI2497
aI907
aI802
aI463
aI153
aI2498
aI1042
aI1245
aI1209
aI1210
aI463
aI2499
aI2051
aI771
aI2500
aI42
aI1006
aI2495
aI317
aI2501
aI153
aI463
aI2502
aI1316
aI2503
aI2032
aI2492
aI1832
aI205
aI1791
aI2195
aI2504
aI438
aI3
aI2505
aI2506
aI49
aI802
aI493
aI1238
aI1239
aI1350
aI187
aI21
aI792
aI2507
aI2354
aI2508
aI317
aI1011
aI1492
aI2509
aI1178
aI738
aI37
aI10
aI486
aI2495
aI2163
aI37
aI2495
aI2510
aI2511
aI463
aI10
aI11
aI2511
aI25
aI807
aI463
aI865
aI130
aI1413
aI2512
aI1006
aI1178
aI2497
aI219
aI301
aI2513
aI738
aI1006
aI1178
aI2032
aI1209
aI1210
aI22
aI10
aI348
aI1329
aI2497
aI80
aI24
aI335
aI2514
aI2515
aI1498
aI400
aI1178
aI2516
aI2517
aI333
aI2518
aI1619
aI2519
aI2520
aI2521
aI802
aI375
aI84
aI1239
aI1217
aI22
aI1239
aI187
aI21
aI18
aI84
aI39
aI3
aI4
aI1055
aI2522
aI201
aI2523
aI2524
aI1413
aI2525
aI2526
aI383
aI107
aI2527
aI1619
aI2520
aI2528
aI2529
aI2529
aI2530
aI2531
aI1238
aI505
aI486
aI493
aI84
aI2522
aI2524
aI204
aI84
aI2517
aI80
aI685
aI1985
aI1389
aI292
aI1689
aI2528
aI2529
aI1155
aI672
aI21
aI1179
aI994
aI2532
aI84
aI39
aI2533
aI2534
aI1707
aI605
aI2535
aI79
aI107
aI375
aI84
aI3
aI2536
aI2537
aI187
aI21
aI792
aI1443
aI1173
aI1838
aI1742
aI1177
aI629
aI1120
aI552
aI2538
aI1376
aI375
aI1377
aI1344
aI1993
aI1286
aI2195
aI2539
aI233
aI147
aI1741
aI2540
aI2541
aI253
aI1240
aI1241
aI2542
aI2098
aI23
aI1173
aI1993
aI493
aI1512
aI486
aI80
aI2164
aI1344
aI2543
aI2025
aI2544
aI1344
aI2545
aI1201
aI1202
aI2
aI1344
aI2546
aI234
aI1672
aI1360
aI998
aI2547
aI723
aI590
aI281
aI997
aI998
aI3
aI4
aI672
aI2548
aI2225
aI66
aI85
aI1748
aI2215
aI1672
aI391
aI1376
aI1816
aI55
aI1179
aI994
aI2549
aI1113
aI315
aI85
aI1748
aI2215
aI1672
aI101
aI1005
aI1257
aI1258
aa.