(lp0
(lp1
I915
aI916
aI917
aI239
aa(lp2
I439
aI18466
aI0
aI590
aI1214
aI3317
aI18643
aI0
aI340
aI486
aI1854
aI1217
aI1042
aI223
aI1474
aI130
aI2491
aI2075
aI608
aI389
aI1067
aI1113
aI3111
aI2458
aI191
aI68
aI266
aI2527
aI1787
aI869
aI389
aI1067
aI543
aI68
aI266
aI765
aI2128
aI0
aI1320
aI1361
aI428
aI1916
aI947
aI2375
aI1627
aI92
aI8651
aI1045
aI4067
aI13293
aI340
aI353
aI1067
aI2711
aI315
aI11174
aI8525
aI2407
aI436
aI18
aI656
aI776
aI361
aI1114
aI9068
aI309
aI1486
aI625
aI625
aa(lp3
I282
aI283
aI1010
aI1265
aI396
aI570
aI312
aI399
aI1627
aI4
aI3563
aI3564
aI18767
aI656
aI351
aI5788
aI4749
aI1459
aI2128
aI8905
aI3459
aI1915
aI91
aI68
aI2066
aI191
aI626
aI712
aI653
aI654
aI223
aI239
aI385
aI387
aI695
aI3
aI6
aI411
aI191
aI637
aI432
aa.