(lp0
(lp1
I1206
aI916
aI917
aI1260
aI823
aI239
aa(lp2
I1206
aI916
aI917
aI1260
aI823
aI239
aI918
aI19931
aI4375
aI19932
aI936
aI919
aI920
aI4405
aI5633
aI51
aI19933
aI926
aI19934
aI6816
aI936
aI924
aI4255
aI64
aI4425
aI51
aI19935
aI19936
aI5006
aI51
aI5137
aI4296
aI64
aI7727
aI420
aI5929
aI51
aI5991
aI9009
aI7879
aI64
aI6315
aI6356
aI19937
aI51
aI857
aI190
aI4284
aI4249
aI4340
aI64
aI4385
aI64
aI4412
aI64
aI4422
aI3091
aI64
aI4348
aI3202
aI4670
aI51
aI2105
aI1966
aI19938
aI8110
aI19939
aI1140
aI64
aI7258
aI51
aI1712
aI64
aI19940
aI4228
aI936
aI2692
aI4874
aI19941
aI64
aI5788
aI4249
aI4920
aI19942
aI4228
aI3627
aI6614
aI5280
aI5302
aI64
aI8165
aI51
aI473
aI13647
aI1935
aI64
aI4282
aI525
aI4416
aI4408
aI4409
aI19943
aI19944
aI4700
aI9
aI19945
aI4310
aI1298
aI493
aI819
aI7221
aI19946
aI684
aI4984
aI926
aI19934
aI1743
aI19947
aI4284
aI338
aI19948
aI115
aI19949
aI256
aI19950
aI4760
aI7496
aI4396
aI4284
aI4894
aI5869
aI5891
aI5892
aI4249
aI5994
aI51
aI816
aI64
aI6143
aI51
aI6146
aI4284
aI4249
aI7879
aI3571
aI19951
aI983
aI936
aI64
aI6375
aI64
aI6381
aI4700
aI3627
aI19952
aI1389
aI1041
aI1066
aI19953
aI926
aI51
aI15491
aI4399
aI51
aI9799
aI5302
aI5491
aI685
aI1558
aI7432
aI5784
aI19954
aI19955
aI51
aI5795
aI51
aI5801
aI934
aI7946
aI64
aI6375
aI19956
aI19957
aI9937
aI64
aI5126
aI51
aa(lp3
I1206
aI916
aI917
aI1260
aI823
aI239
aI918
aI4532
aI4809
aI4396
aI51
aI484
aI483
aI934
aI6646
aI51
aI924
aI4255
aI64
aI4629
aI4399
aI51
aI7399
aI51
aI5804
aI4249
aI934
aI5902
aI936
aI64
aI228
aI5920
aI4348
aI857
aI19958
aI934
aI19959
aI915
aI1558
aI51
aI4556
aI8157
aI4396
aI934
aI1499
aI8110
aI13878
aI15125
aI19960
aI64
aI3862
aI934
aI907
aI4396
aI4920
aI934
aI473
aI1417
aI2249
aI934
aI4919
aI4249
aI4920
aI934
aI19961
aI4399
aI64
aI7547
aI51
aI2415
aI256
aI64
aI6106
aI262
aI2943
aI64
aI1066
aI15773
aI51
aa(lp4
I4255
aI64
aI1041
aI943
aI1683
aI865
aI479
aI15347
aI8368
aI2156
aI9077
aI3500
aI22
aI107
aI315
aI625
aI19962
aI2517
aI19963
aI19964
aI8368
aI465
aI6
aI8368
aI3500
aI207
aI88
aI19965
aI1686
aI161
aI163
aI22
aI207
aI2277
aI831
aI552
aI3181
aI383
aI4017
aI60
aI639
aI17762
aI19966
aI234
aI15
aI892
aI186
aI175
aI8336
aI2156
aI9077
aI3500
aI266
aI8368
aI76
aI1782
aI361
aI1748
aI15
aI422
aI163
aI4255
aI2301
aI3
aa(lp5
I223
aI239
aI5741
aI5742
aI1667
aI42
aI1122
aI25
aI16971
aI947
aI1460
aI19967
aI8644
aI1535
aI348
aI3790
aI8507
aI102
aI3556
aI22
aI10
aI348
aI5942
aI19967
aI5421
aI19967
aI917
aI190
aI68
aI291
aI1010
aI187
aI19968
aI19969
aI1249
aa(lp6
I4255
aI64
aI14313
aI44
aI15006
aI93
aI10
aI217
aI219
aI479
aI220
aI235
aI256
aI107
aI54
aI19970
aI967
aI9863
aI10872
aI8739
aI230
aI231
aI807
aI15
aa(lp7
I22
aI10
aI217
aI68
aI291
aI566
aI4
aI273
aI75
aI48
aI285
aI1362
aI408
aI199
aI340
aI1365
aI232
aI289
aI4157
aI15
aI292
aI293
aI22
aI10
aI167
aI2717
aI147
aI296
aI292
aI120
aI199
aI2217
aI22
aI96
aI400
aI3
aI1396
aI579
aI3317
aI292
aI4158
aI15
aI75
aI1464
aI285
aI399
aI48
aI285
aI191
aI1362
aI408
aI1289
aI1486
aI167
aI4159
aI15
aI75
aI2593
aI232
aI22
aI248
aI1366
aI4155
aI4156
aI262
aI147
aI167
aI75
aI917
aI96
aI400
aI315
aI199
aI340
aI1365
aI232
aI190
aI68
aI291
aI566
aI285
aI23
aI1068
aI380
aI4160
aI15
aI75
aI292
aI167
aI4161
aI15
aI289
aI1741
aI262
aI147
aI296
aI292
aI167
aI566
aI297
aI340
aI2593
aI232
aI915
aI285
aI23
aI23
aI2565
aI68
aI4162
aI859
aI3107
aI253
aI68
aI288
aI1042
aI394
aI625
aI587
aI68
aI853
aI252
aI253
aI3143
aI1347
aI1018
aI607
aI695
aI3469
aI96
aI207
aI285
aI389
aI4163
aI4164
aI1018
aI1354
aI191
aI3190
aI68
aI266
aI1306
aI3187
aI1217
aI845
aI1306
aI285
aI389
aI287
aI4165
aI0
aI695
aI1021
aI3469
aI845
aI4166
aI75
aI48
aI285
aI3189
aI4163
aI458
aI75
aI3822
aI2458
aI853
aI212
aI128
aI1306
aI266
aI394
aI3863
aI408
aI399
aI320
aI4167
aI4168
aI4169
aI1237
aI253
aI259
aI1613
aI401
aI285
aI389
aI4165
aI22
aI3143
aI2277
aI10
aI4170
aI284
aI163
aI609
aI4171
aI388
aI285
aI389
aI480
aI1350
aI1214
aI2090
aI664
aI394
aI3746
aI976
aI2714
aI4172
aI24
aI314
aI2686
aI2093
aI2158
aI348
aI158
aI241
aI68
aI352
aI3406
aI3088
aI285
aI389
aI1366
aI76
aI431
aI1741
aI4173
aI2867
aI1217
aI845
aI1383
aI191
aI586
aI394
aI4174
aI884
aI309
aI1128
aI4175
aI76
aI315
aI4176
aI4177
aI1366
aI222
aI4178
aI695
aI1627
aI121
aI631
aI394
aI2584
aI856
aI4179
aI657
aI1274
aI22
aI273
aI75
aI285
aI399
aI1464
aI191
aI167
aI2485
aI291
aI100
aI802
aI1239
aI348
aI4180
aI22
aI1206
aI96
aI400
aI68
aI2574
aI1214
aI977
aI285
aI399
aI168
aI75
aI284
aI297
aI4181
aI389
aI348
aI550
aI4182
aI4183
aI4184
aI4185
aI4186
aI4187
aI4188
aI4189
aI51
aI4190
aI4191
aI4192
aI4193
aI4194
aI4195
aI4196
aI4197
aI2808
aI4198
aI4199
aI4200
aI51
aI4201
aI4202
aI1772
aI554
aI4203
aI4204
aI4205
aI1920
aI51
aI4206
aI4207
aI2538
aI3345
aI4208
aI4209
aI4210
aI4211
aI986
aI739
aI4212
aI4213
aI4214
aI4215
aI4216
aI4217
aI493
aI1460
aI4218
aI4219
aI4220
aI3655
aI4221
aI4222
aI4223
aI4224
aI1777
aI493
aI21
aI4225
aI4226
aI4227
aI4228
aI4229
aI915
aI4230
aI4231
aI4232
aI4233
aI4229
aI1546
aI4234
aI4235
aI4236
aI64
aI4237
aI4238
aI4239
aI4240
aI2817
aI4241
aI4242
aI337
aI64
aI4243
aI4244
aI4245
aI4246
aI4247
aI4248
aI4245
aI4249
aI4250
aI4251
aI4252
aI21
aI64
aI4253
aI4254
aI4255
aI64
aI4256
aI4257
aI2642
aI425
aI4258
aI4259
aI4188
aI4260
aI4261
aI4262
aI4188
aI4263
aI64
aI4264
aI4265
aI4266
aI4267
aI64
aI4268
aI621
aI4269
aI305
aI4270
aI4267
aI4271
aI4272
aI4273
aI4270
aI4274
aI4275
aI894
aI4188
aI4276
aI2
aI4277
aI4278
aI4279
aI51
aI4280
aI4281
aI4282
aI967
aI4283
aI4188
aI4282
aI4284
aI4249
aI4285
aI4286
aI4282
aI554
aI934
aI4287
aI4288
aI4282
aI673
aI51
aI4289
aI4290
aI4282
aI1802
aI4291
aI4292
aI4282
aI235
aI4293
aI4294
aI4295
aI4282
aI792
aI4296
aI4297
aI4298
aI4282
aI358
aI359
aI622
aI2231
aI4299
aI4282
aI4300
aI4301
aI4302
aI4303
aI4304
aI4282
aI944
aI934
aI4305
aI4306
aI4282
aI4307
aI4307
aI4308
aI4309
aI4282
aI3441
aI4310
aI4229
aI915
aI4311
aI4312
aI4313
aI4314
aI51
aI4315
aI4316
aI190
aI4317
aI934
aI4318
aI4319
aI190
aI4228
aI21
aI4320
aI4321
aI190
aI1869
aI4301
aI4322
aI4323
aI4324
aI51
aI4325
aI4326
aI4327
aI4328
aI4329
aI4330
aI4331
aI944
aI4332
aI4333
aI4334
aI64
aI4335
aI4336
aI4337
aI51
aI4338
aI4339
aI4340
aI64
aI4341
aI4342
aI1176
aI64
aI4343
aI4344
aI1176
aI64
aI4345
aI4346
aI4347
aI4348
aI4349
aI4350
aI4351
aI4352
aI4353
aI4354
aI4355
aI51
aI4356
aI4357
aI4358
aI4359
aI934
aI4360
aI4361
aI4362
aI51
aI4363
aI4364
aI4365
aI51
aI4366
aI4367
aI2379
aI2380
aI4368
aI4369
aI1766
aI1777
aI1676
aI4370
aI4371
aI4372
aI64
aI4373
aI4374
aI4375
aI486
aI936
aI4376
aI4377
aI4378
aI4379
aI4380
aI4381
aI4382
aI861
aI4383
aI4384
aI4385
aI64
aI4386
aI4387
aI4388
aI933
aI4389
aI4390
aI1476
aI1243
aI1352
aI4391
aI4392
aI1273
aI947
aI51
aI4393
aI4394
aI1239
aI4395
aI4396
aI4397
aI4398
aI1579
aI4399
aI64
aI4400
aI4401
aI1579
aI4402
aI4403
aI4404
aI919
aI920
aI4405
aI4406
aI4407
aI4408
aI4409
aI51
aI4410
aI4411
aI4412
aI64
aI4413
aI4414
aI4415
aI4416
aI152
aI4417
aI4418
aI4419
aI4415
aI1460
aI4420
aI4421
aI4422
aI3091
aI64
aI4423
aI4424
aI4425
aI51
aI4426
aI4427
aI4428
aI4429
aI51
aI4430
aI4431
aI4432
aI4396
aI4284
aI934
aI4433
aI4434
aI1418
aI4348
aI4435
aI4436
aI4437
aI25
aI51
aI4438
aI4439
aI4440
aI4441
aI4442
aI4443
aI4188
aI4444
aI64
aI4445
aI4446
aI1784
aI1417
aI51
aI4447
aI4448
aI1784
aI10
aI801
aI4449
aI4450
aI1784
aI10
aI217
aI4451
aI4452
aI1784
aI927
aI3433
aI4453
aI4454
aI4455
aI51
aI4456
aI4457
aI4458
aI1784
aI4442
aI915
aI4459
aI4460
aI4458
aI447
aI4442
aI1899
aI4461
aI4462
aI1784
aI64
aI4463
aI4464
aI1992
aI447
aI4442
aI4465
aI4466
aI324
aI4467
aI3847
aI4468
aI4469
aI4470
aI4471
aI64
aI4472
aI4473
aI4474
aI4228
aI4475
aI4476
aI4477
aI63
aI4474
aI2
aI4478
aI4479
aI279
aI4480
aI934
aI4481
aI4482
aI279
aI64
aI4483
aI4484
aI4485
aI447
aI4442
aI4486
aI4487
aI4488
aI3658
aI4489
aI4490
aI499
aI1579
aI51
aI4491
aI4492
aI4493
aI51
aI4494
aI4495
aI4496
aI934
aI64
aI4497
aI4498
aI4499
aI51
aI4500
aI4501
aI4502
aI21
aI4442
aI4503
aI4504
aI4505
aI4228
aI4506
aI4507
aI4508
aI2352
aI51
aI4509
aI4510
aI4511
aI1552
aI4512
aI4513
aI2080
aI2081
aI51
aI4514
aI4515
aI2159
aI4516
aI1718
aI4517
aI4518
aI2159
aI4271
aI4519
aI4520
aI4521
aI2159
aI2220
aI927
aI4522
aI4523
aI4524
aI2470
aI4525
aI4526
aI3563
aI3564
aI388
aI1352
aI4527
aI4528
aI1446
aI107
aI4529
aI4530
aI4531
aI4532
aI51
aI4533
aI4534
aI4535
aI4218
aI186
aI4536
aI4537
aI4535
aI64
aI4538
aI4539
aI4540
aI4541
aI4542
aI4543
aI4544
aI4545
aI4546
aI4547
aI1993
aI4548
aI4549
aI4550
aI1993
aI4551
aI4442
aI4552
aI4553
aI3861
aI64
aI4554
aI4555
aI4556
aI3627
aI4396
aI4557
aI4558
aI1935
aI4559
aI936
aI4560
aI4561
aI4562
aI51
aI4563
aI4564
aI4565
aI4566
aI64
aI4567
aI4568
aI4569
aI834
aI4570
aI4571
aI4572
aI1243
aI4293
aI4573
aI4574
aI4575
aI64
aI4576
aI4577
aI4578
aI51
aI4579
aI4580
aI4581
aI4582
aI64
aI4583
aI4584
aI4052
aI2831
aI4442
aI4585
aI4586
aI4587
aI114
aI4588
aI4589
aI4590
aI933
aI4396
aI4229
aI915
aI4591
aI4592
aI4593
aI3181
aI4594
aI4595
aI4596
aI3034
aI486
aI4597
aI4598
aI4599
aI64
aI4600
aI4601
aI4602
aI4603
aI934
aI4604
aI4605
aI425
aI485
aI4606
aI4607
aI425
aI712
aI934
aI4608
aI4609
aI4610
aI51
aI4611
aI4612
aI897
aI4249
aI183
aI4613
aI4614
aI2937
aI4615
aI4616
aI4617
aI4618
aI626
aI345
aI947
aI4619
aI4620
aI4621
aI4622
aI4623
aI3948
aI64
aI4624
aI4625
aI4626
aI51
aI4627
aI4628
aI4629
aI4630
aI51
aI4631
aI4632
aI929
aI930
aI4633
aI4634
aI4635
aI1784
aI4636
aI4188
aI3670
aI182
aI4637
aI4638
aI4639
aI4640
aI51
aI4641
aI4642
aI4643
aI3497
aI4644
aI4645
aI4188
aI4643
aI3497
aI4646
aI1558
aI4647
aI4648
aI4643
aI1505
aI51
aI4649
aI4650
aI4643
aI1505
aI4651
aI4652
aI4653
aI4654
aI4655
aI1784
aI4656
aI4657
aI4655
aI4658
aI4659
aI1546
aI4660
aI4661
aI4655
aI4658
aI4662
aI1546
aI4663
aI4664
aI4655
aI3441
aI4258
aI4665
aI4666
aI4667
aI51
aI4668
aI4669
aI4670
aI51
aI4671
aI4672
aI4673
aI1284
aI4674
aI4675
aI4676
aI4677
aI936
aI64
aI4678
aI4679
aI3566
aI51
aI4680
aI4681
aI1195
aI51
aI4682
aI4683
aI2105
aI1966
aI4684
aI4685
aI4686
aI51
aI4687
aI4688
aI4689
aI499
aI4690
aI4691
aI4692
aI4693
aI51
aI4694
aI4695
aI4696
aI4396
aI4284
aI934
aI4697
aI4698
aI4699
aI64
aI4700
aI934
aI4701
aI4702
aI4703
aI2354
aI51
aI4704
aI4705
aI2952
aI165
aI944
aI4706
aI4707
aI3367
aI3367
aI4708
aI4709
aI4710
aI1534
aI4711
aI4712
aI1534
aI4713
aI4714
aI166
aI4715
aI4716
aI1534
aI4659
aI3678
aI4714
aI4717
aI4718
aI165
aI802
aI51
aI4719
aI4720
aI4721
aI944
aI64
aI4722
aI4723
aI4724
aI525
aI64
aI4725
aI4726
aI4727
aI1628
aI4728
aI4188
aI4729
aI934
aI4730
aI4731
aI4732
aI21
aI64
aI4733
aI4734
aI4735
aI20
aI51
aI4736
aI4737
aI421
aI1869
aI4738
aI4739
aI4740
aI4741
aI4742
aI934
aI4743
aI4744
aI3582
aI2470
aI4745
aI4746
aI4747
aI4748
aI4749
aI4750
aI4751
aI4752
aI934
aI4753
aI4754
aI4755
aI303
aI2808
aI4756
aI4757
aI4755
aI4758
aI1788
aI4759
aI4188
aI4755
aI4760
aI4761
aI4762
aI4763
aI3897
aI4396
aI114
aI4764
aI4765
aI4766
aI64
aI4767
aI4768
aI4662
aI3450
aI4769
aI4770
aI4771
aI4228
aI4772
aI4773
aI4774
aI4399
aI4775
aI4776
aI229
aI4777
aI4778
aI4779
aI4780
aI4307
aI4781
aI4782
aI4188
aI4783
aI4784
aI1491
aI51
aI4785
aI4786
aI1491
aI4787
aI4228
aI4788
aI4789
aI1491
aI4790
aI4791
aI4792
aI4793
aI4794
aI4795
aI4796
aI4797
aI4798
aI64
aI4799
aI4800
aI4801
aI64
aI4802
aI4803
aI3263
aI4804
aI4805
aI4806
aI3263
aI4221
aI4807
aI4808
aI3263
aI4809
aI4396
aI4810
aI4811
aI3263
aI529
aI4812
aI4813
aI4814
aI4228
aI4815
aI4816
aI4817
aI1784
aI4818
aI4819
aI4820
aI4821
aI4822
aI51
aI4606
aI4823
aI997
aI1784
aI4824
aI4825
aI997
aI51
aI4826
aI4827
aI1484
aI920
aI51
aI4828
aI4829
aI4830
aI1491
aI51
aI4831
aI4832
aI1783
aI107
aI4833
aI4834
aI1783
aI936
aI64
aI4835
aI4836
aI1783
aI83
aI4837
aI4838
aI4839
aI1758
aI936
aI64
aI4840
aI4188
aI4841
aI64
aI4842
aI4843
aI4844
aI1320
aI4845
aI4846
aI4847
aI4228
aI64
aI4848
aI4849
aI4850
aI51
aI4851
aI4852
aI4853
aI934
aI4229
aI1546
aI1609
aI4188
aI4854
aI4855
aI506
aI4856
aI4857
aI4858
aI4859
aI4300
aI4860
aI915
aI4861
aI4862
aI4859
aI1869
aI4863
aI4864
aI4865
aI4866
aI4867
aI934
aI4868
aI4869
aI4870
aI64
aI4871
aI2231
aI2954
aI51
aI4872
aI4873
aI4874
aI1901
aI841
aI4875
aI4876
aI4874
aI4877
aI4878
aI4879
aI4880
aI4874
aI604
aI4249
aI4881
aI4882
aI4883
aI4228
aI64
aI4884
aI4885
aI4886
aI4804
aI934
aI4887
aI4888
aI4889
aI4890
aI4891
aI4892
aI4893
aI4894
aI934
aI4895
aI4896
aI4897
aI51
aI4898
aI4899
aI4900
aI51
aI4901
aI4902
aI4903
aI4904
aI4905
aI4906
aI4907
aI64
aI4908
aI4909
aI3869
aI3870
aI4197
aI4910
aI1199
aI4911
aI4912
aI934
aI4913
aI4914
aI4915
aI4916
aI51
aI4917
aI4918
aI4919
aI4249
aI4920
aI4921
aI4922
aI1298
aI493
aI819
aI64
aI4923
aI4924
aI4925
aI4804
aI934
aI4926
aI4927
aI4928
aI51
aI4929
aI4930
aI4931
aI64
aI4932
aI4933
aI4934
aI942
aI64
aI4935
aI4936
aI4937
aI4938
aI4939
aI4940
aI4941
aI64
aI4942
aI4943
aI1145
aI4662
aI4787
aI4944
aI4945
aI1145
aI1661
aI4946
aI4947
aI4948
aI4331
aI4229
aI915
aI4949
aI4950
aI4951
aI1869
aI1784
aI4952
aI4953
aI4954
aI1920
aI4955
aI4956
aI4957
aI64
aI4958
aI4959
aI4960
aI51
aI4961
aI4962
aI299
aI4655
aI934
aI4963
aI4964
aI299
aI300
aI934
aI64
aI4965
aI4966
aI4967
aI64
aI4968
aI4969
aI4970
aI4971
aI4972
aI4973
aI936
aI64
aI4974
aI4975
aI4976
aI51
aI4977
aI4978
aI4976
aI4795
aI4267
aI4979
aI4980
aI4654
aI4976
aI4795
aI4981
aI4982
aI4983
aI4984
aI4249
aI934
aI4985
aI4986
aI4987
aI4988
aI4989
aI4990
aI4991
aI4906
aI4992
aI4993
aI4994
aI4995
aI64
aI4996
aI4997
aI4998
aI936
aI4999
aI5000
aI1733
aI5001
aI5002
aI5003
aI2612
aI2613
aI934
aI5004
aI5005
aI5006
aI51
aI5007
aI5008
aI5009
aI64
aI5010
aI5011
aI5012
aI64
aI5013
aI5014
aI1557
aI915
aI1140
aI64
aI5015
aI5016
aI5017
aI64
aI5018
aI5019
aI5020
aI21
aI64
aI5021
aI2232
aI1095
aI5022
aI5023
aI5024
aI2238
aI5025
aI1483
aI934
aI5026
aI5027
aI5028
aI5029
aI1095
aI4442
aI5030
aI5031
aI5032
aI51
aI5033
aI5034
aI5035
aI5036
aI5037
aI5038
aI51
aI5039
aI5040
aI5041
aI51
aI5042
aI5043
aI5044
aI51
aI5045
aI5046
aI5047
aI114
aI5048
aI5049
aI1712
aI64
aI5050
aI5051
aI5052
aI1896
aI5053
aI4188
aI5054
aI51
aI5055
aI5056
aI5057
aI51
aI5058
aI5059
aI1556
aI841
aI20
aI5060
aI5061
aI5062
aI64
aI5063
aI5064
aI5065
aI554
aI51
aI5066
aI5067
aI5065
aI525
aI634
aI5068
aI5069
aI5070
aI5065
aI802
aI5068
aI5071
aI5072
aI5073
aI51
aI5074
aI5075
aI130
aI4809
aI5068
aI5076
aI5077
aI5078
aI130
aI1799
aI4760
aI5079
aI5080
aI5081
aI5082
aI5083
aI5084
aI51
aI5085
aI5086
aI5087
aI5088
aI5089
aI5090
aI479
aI1784
aI5091
aI64
aI5092
aI5093
aI479
aI967
aI51
aI5094
aI5095
aI479
aI2025
aI51
aI5096
aI5097
aI479
aI165
aI5098
aI5099
aI5100
aI5101
aI479
aI5102
aI4440
aI5103
aI5104
aI479
aI4738
aI39
aI5105
aI5106
aI479
aI5107
aI4659
aI5108
aI1546
aI5109
aI5110
aI479
aI5111
aI4348
aI5112
aI5113
aI479
aI900
aI5114
aI5115
aI479
aI5116
aI5117
aI5118
aI5119
aI479
aI3627
aI2401
aI4714
aI5120
aI5121
aI479
aI3627
aI51
aI5122
aI5123
aI479
aI13
aI1784
aI5124
aI5125
aI479
aI5126
aI51
aI5127
aI5128
aI5129
aI20
aI5130
aI4259
aI5131
aI4738
aI5132
aI5133
aI5134
aI2470
aI5135
aI5136
aI5137
aI107
aI5138
aI5139
aI5140
aI4228
aI5141
aI5142
aI905
aI5143
aI5144
aI5145
aI5146
aI936
aI64
aI5147
aI5148
aI5149
aI51
aI5150
aI5151
aI5152
aI51
aI5153
aI5154
aI5152
aI3847
aI107
aI5155
aI5156
aI5157
aI21
aI4229
aI915
aI5158
aI5159
aI1532
aI1533
aI934
aI5160
aI5161
aI5162
aI5163
aI5164
aI5165
aI5166
aI21
aI64
aI5167
aI5168
aI2023
aI2407
aI1352
aI5169
aI4188
aI5170
aI1920
aI5171
aI5172
aI5170
aI1389
aI5173
aI5174
aI5175
aI5176
aI3399
aI4188
aI5177
aI5178
aI64
aI5179
aI5180
aI5178
aI5181
aI5182
aI5183
aI1352
aI4282
aI4296
aI5184
aI5185
aI5186
aI887
aI675
aI5187
aI5188
aI1154
aI64
aI5189
aI4188
aI5190
aI64
aI5191
aI5192
aI5193
aI10
aI5194
aI5195
aI1802
aI5196
aI5197
aI5198
aI1802
aI3546
aI5199
aI5200
aI1802
aI1483
aI934
aI5201
aI5202
aI1802
aI2973
aI64
aI5203
aI5204
aI1802
aI1533
aI51
aI5205
aI5206
aI1802
aI5207
aI51
aI5208
aI5209
aI5210
aI2352
aI4229
aI915
aI5211
aI5212
aI5213
aI19
aI934
aI5214
aI5215
aI902
aI939
aI5216
aI5217
aI5218
aI5219
aI5220
aI5221
aI1460
aI934
aI5222
aI5223
aI5221
aI5224
aI5225
aI5226
aI2924
aI1352
aI64
aI5227
aI5228
aI5229
aI934
aI5230
aI5231
aI5232
aI712
aI4442
aI5233
aI5234
aI5235
aI5236
aI5237
aI1628
aI3669
aI5238
aI5239
aI1628
aI3669
aI5076
aI5240
aI5241
aI1628
aI5001
aI1352
aI1218
aI5242
aI3092
aI1377
aI5243
aI4662
aI5244
aI5245
aI3092
aI1377
aI1558
aI4662
aI5246
aI5247
aI1970
aI5248
aI64
aI5249
aI5250
aI1970
aI1909
aI3345
aI5251
aI5252
aI1970
aI841
aI5253
aI5254
aI5255
aI5256
aI5257
aI5258
aI3749
aI5259
aI934
aI5260
aI5261
aI5262
aI83
aI4837
aI5263
aI5264
aI3361
aI5265
aI934
aI5266
aI5267
aI5268
aI5269
aI64
aI5270
aI5271
aI940
aI4282
aI1784
aI5272
aI5273
aI5274
aI940
aI5275
aI1243
aI5276
aI5277
aI940
aI941
aI4655
aI5278
aI5279
aI940
aI5280
aI4738
aI5281
aI5282
aI1955
aI5283
aI751
aI5284
aI5285
aI5286
aI5287
aI5288
aI5289
aI5290
aI4934
aI51
aI5291
aI5292
aI3512
aI51
aI5293
aI5294
aI3877
aI51
aI5295
aI5296
aI5297
aI1460
aI5298
aI2292
aI5299
aI2973
aI64
aI5300
aI5301
aI939
aI5302
aI4218
aI51
aI5303
aI5304
aI939
aI5305
aI5001
aI5306
aI5307
aI5308
aI1571
aI64
aI5309
aI5310
aI5311
aI51
aI5312
aI5313
aI1893
aI5314
aI1546
aI934
aI5315
aI5316
aI5317
aI934
aI5318
aI5319
aI5320
aI21
aI1242
aI5321
aI5322
aI934
aI5323
aI5324
aI5325
aI5326
aI934
aI5327
aI5328
aI2586
aI447
aI4442
aI5329
aI5330
aI2586
aI447
aI5076
aI5331
aI305
aI5332
aI5333
aI5334
aI5335
aI5336
aI64
aI5337
aI5338
aI5339
aI5340
aI5341
aI5342
aI203
aI51
aI5343
aI5344
aI5345
aI5346
aI5347
aI5348
aI5349
aI51
aI5350
aI5351
aI5352
aI5287
aI5353
aI5354
aI5355
aI4749
aI934
aI5356
aI5357
aI5358
aI1558
aI679
aI934
aI5359
aI5360
aI5361
aI64
aI5362
aI5363
aI5364
aI934
aI5365
aI5366
aI5367
aI51
aI5368
aI5369
aI5370
aI51
aI4229
aI915
aI5371
aI5372
aI303
aI2808
aI4516
aI621
aI5373
aI5374
aI303
aI2808
aI4516
aI2988
aI5375
aI2953
aI303
aI1669
aI2808
aI5376
aI5377
aI5378
aI303
aI1669
aI4063
aI1352
aI5379
aI5380
aI5381
aI936
aI64
aI5382
aI5383
aI3297
aI652
aI5384
aI5385
aI5386
aI537
aI8
aI51
aI5387
aI5388
aI5389
aI2817
aI4442
aI5390
aI5391
aI525
aI5392
aI64
aI5393
aI5394
aI525
aI748
aI3504
aI5395
aI5396
aI5397
aI51
aI4700
aI5398
aI5399
aI5400
aI64
aI5401
aI5402
aI5403
aI18
aI5404
aI5405
aI5406
aI5407
aI934
aI5408
aI2231
aI2078
aI4228
aI5409
aI5410
aI879
aI936
aI64
aI5411
aI5412
aI4877
aI1041
aI4229
aI915
aI5413
aI5414
aI3091
aI2645
aI64
aI5415
aI5416
aI5417
aI64
aI5418
aI5419
aI5420
aI5421
aI5422
aI5423
aI5424
aI4249
aI934
aI5425
aI5426
aI3438
aI4249
aI934
aI5427
aI5428
aI3438
aI5429
aI1055
aI64
aI5430
aI5431
aI5432
aI5433
aI21
aI5434
aI5435
aI5436
aI21
aI64
aI5437
aI5438
aI5439
aI102
aI64
aI5440
aI5441
aI2142
aI4218
aI4442
aI5442
aI5443
aI5444
aI5445
aI934
aI5446
aI5447
aI5448
aI2352
aI936
aI5449
aI5450
aI5451
aI5452
aI5453
aI5454
aI4640
aI3387
aI5455
aI5456
aI5457
aI5458
aI64
aI5459
aI5460
aI5461
aI2808
aI5462
aI5463
aI5464
aI51
aI5465
aI5466
aI218
aI21
aI5467
aI5468
aI4228
aI375
aI5469
aI5470
aI5471
aI4228
aI5472
aI934
aI5473
aI5474
aI4228
aI5475
aI51
aI5476
aI5477
aI5478
aI1920
aI64
aI1609
aI4188
aI5479
aI5480
aI1552
aI5481
aI5482
aI5483
aI51
aI5484
aI5485
aI2507
aI3612
aI51
aI5486
aI5487
aI5488
aI51
aI5489
aI5490
aI685
aI1558
aI5491
aI934
aI5492
aI5493
aI2692
aI2692
aI5494
aI5495
aI2692
aI1484
aI64
aI5496
aI5497
aI5498
aI64
aI5499
aI5500
aI5501
aI64
aI5502
aI5503
aI2354
aI5504
aI51
aI5505
aI5506
aI903
aI165
aI4249
aI4920
aI5507
aI5508
aI903
aI4396
aI4284
aI5509
aI5510
aI5511
aI936
aI64
aI5512
aI5513
aI5514
aI3861
aI525
aI5515
aI5516
aI5517
aI934
aI5518
aI5519
aI5520
aI934
aI5521
aI5522
aI5523
aI51
aI5524
aI5525
aI5523
aI303
aI2808
aI5526
aI5527
aI5523
aI5528
aI5529
aI5530
aI5523
aI4267
aI4271
aI927
aI4645
aI2238
aI5531
aI5001
aI934
aI5532
aI5533
aI5534
aI5176
aI5535
aI51
aI5536
aI5537
aI5538
aI4228
aI64
aI5539
aI5540
aI5541
aI5542
aI51
aI5543
aI5544
aI5545
aI2578
aI5546
aI5547
aI5548
aI3408
aI493
aI5549
aI5550
aI5551
aI585
aI5552
aI5553
aI5554
aI107
aI5555
aI5556
aI5557
aI1456
aI64
aI5558
aI5559
aI1581
aI2912
aI1533
aI27
aI5560
aI5561
aI5562
aI4894
aI2817
aI5563
aI5564
aI5565
aI18
aI5566
aI5567
aI2501
aI340
aI64
aI5568
aI5569
aI5570
aI4228
aI64
aI5571
aI5572
aI5573
aI506
aI5574
aI5575
aI5576
aI2384
aI91
aI5577
aI5578
aI5579
aI5580
aI4296
aI5581
aI2663
aI5582
aI5583
aI5584
aI5585
aI5586
aI5587
aI4399
aI51
aI5588
aI5589
aI5590
aI5591
aI5592
aI5593
aI4115
aI4114
aI5076
aI5594
aI5595
aI4115
aI4114
aI934
aI5596
aI5597
aI861
aI64
aI22
aI5598
aI5599
aI824
aI802
aI5600
aI5601
aI5602
aI5603
aI936
aI64
aI5604
aI5605
aI3510
aI51
aI5606
aI5607
aI2754
aI51
aI5608
aI5609
aI5610
aI5611
aI5612
aI5613
aI5614
aI444
aI2317
aI936
aI64
aI5615
aI5616
aI103
aI943
aI944
aI5617
aI5618
aI5619
aI5620
aI934
aI5621
aI5622
aI3992
aI51
aI5623
aI5624
aI5625
aI5626
aI5627
aI1731
aI107
aI5628
aI5629
aI5630
aI51
aI5631
aI5632
aI5633
aI51
aI22
aI5634
aI5635
aI5636
aI2646
aI5637
aI5638
aI5639
aI21
aI5640
aI5641
aI5642
aI5643
aI5644
aI5645
aI5646
aI64
aI5647
aI5648
aI2415
aI256
aI64
aI5649
aI5650
aI5651
aI447
aI4442
aI5652
aI5653
aI5654
aI5655
aI5656
aI5657
aI5654
aI5655
aI4860
aI1546
aI5658
aI5659
aI5654
aI5655
aI5660
aI5661
aI2231
aI5662
aI51
aI5663
aI5664
aI5665
aI64
aI5666
aI5667
aI5668
aI5669
aI4301
aI4714
aI915
aI5670
aI5671
aI5672
aI5673
aI299
aI5674
aI5675
aI306
aI5676
aI5340
aI5677
aI5678
aI1
aI51
aI5679
aI5680
aI4041
aI506
aI4042
aI5681
aI5682
aI1610
aI3677
aI51
aI5683
aI5684
aI5685
aI51
aI5686
aI5687
aI5688
aI5689
aI4442
aI5690
aI5691
aI5692
aI64
aI5693
aI5694
aI76
aI652
aI944
aI5695
aI5696
aI5697
aI51
aI5698
aI5699
aI5700
aI64
aI5701
aI5702
aI3595
aI64
aI5703
aI5704
aI5705
aI930
aI2231
aI5706
aI5707
aI5708
aI5709
aI5710
aI1975
aI51
aI5711
aI5712
aI3547
aI3548
aI5713
aI5714
aI5715
aI64
aI5716
aI5717
aI5718
aI51
aI5719
aI5720
aI5721
aI64
aI5722
aI5723
aI5724
aI18
aI5725
aI5726
aI5727
aI5728
aI5729
aI5730
aI5731
aI1784
aI51
aI5732
aI5733
aI5734
aI944
aI934
aI5735
aI5736
aI5737
aI107
aI5738
aI5739
aI2985
aI1058
aI934
aI5740
aI4188
aI5741
aI5742
aI934
aI5743
aI5744
aI5745
aI5746
aI5747
aI5748
aI622
aI4818
aI5749
aI5750
aI5751
aI5748
aI622
aI5752
aI915
aI1312
aI5753
aI5754
aI5748
aI3709
aI675
aI5755
aI5756
aI208
aI1352
aI64
aI5757
aI5758
aI5759
aI738
aI2808
aI5760
aI2592
aI5759
aI4197
aI5761
aI5762
aI5763
aI5759
aI5764
aI675
aI5765
aI3634
aI5759
aI5107
aI64
aI927
aI5766
aI5767
aI5759
aI5768
aI4271
aI927
aI5769
aI5770
aI5771
aI585
aI5772
aI5773
aI5774
aI998
aI64
aI5775
aI5776
aI5777
aI4399
aI934
aI5778
aI5779
aI5780
aI51
aI5781
aI5782
aI5783
aI5784
aI4429
aI5785
aI5786
aI5787
aI5788
aI5789
aI5790
aI5791
aI5792
aI20
aI64
aI5793
aI5794
aI5795
aI51
aI5796
aI5797
aI5798
aI425
aI51
aI5799
aI5800
aI5801
aI934
aI5802
aI5803
aI5804
aI4249
aI934
aI5805
aI5806
aI2671
aI51
aI2817
aI5807
aI5808
aI3872
aI5809
aI934
aI5810
aI5811
aI3872
aI3873
aI21
aI5812
aI5813
aI5814
aI5815
aI5600
aI5816
aI5817
aI3697
aI1799
aI5818
aI5819
aI5820
aI4228
aI64
aI5821
aI5822
aI1102
aI64
aI5823
aI5824
aI5825
aI4193
aI64
aI5826
aI5827
aI5828
aI51
aI5829
aI5800
aI802
aI165
aI51
aI5830
aI5831
aI802
aI5832
aI5833
aI5834
aI802
aI5835
aI5836
aI5837
aI802
aI80
aI5838
aI5839
aI4395
aI5840
aI64
aI5841
aI233
aI4395
aI5842
aI64
aI5843
aI5844
aI4395
aI1204
aI2470
aI5845
aI5846
aI4395
aI5847
aI4442
aI5848
aI5849
aI5850
aI5851
aI5852
aI5853
aI5854
aI4348
aI5855
aI934
aI5856
aI5857
aI5858
aI4348
aI64
aI5859
aI5860
aI5861
aI51
aI5862
aI5863
aI3744
aI51
aI5864
aI5865
aI5866
aI21
aI5867
aI5868
aI3281
aI1661
aI5869
aI5870
aI5871
aI10
aI4282
aI5872
aI64
aI1352
aI5873
aI5874
aI10
aI5875
aI1095
aI114
aI5876
aI5877
aI10
aI217
aI175
aI5878
aI5879
aI5880
aI5881
aI3847
aI934
aI5882
aI5883
aI5881
aI4749
aI51
aI5884
aI5885
aI10
aI51
aI2817
aI4442
aI5886
aI5887
aI5888
aI5889
aI4860
aI5890
aI4188
aI5891
aI5892
aI4249
aI5893
aI5894
aI5891
aI75
aI51
aI5895
aI5896
aI5897
aI64
aI5898
aI5899
aI5900
aI64
aI1377
aI1546
aI5901
aI4188
aI5902
aI102
aI5903
aI5904
aI5905
aI102
aI5906
aI5907
aI2042
aI41
aI64
aI5908
aI5909
aI5910
aI1920
aI51
aI5911
aI5912
aI5913
aI5914
aI2987
aI4442
aI5915
aI5916
aI5917
aI64
aI5918
aI5919
aI228
aI5920
aI4348
aI5921
aI5922
aI3478
aI5065
aI51
aI5923
aI5924
aI3478
aI5001
aI5925
aI5926
aI3511
aI51
aI5927
aI5928
aI5929
aI51
aI5930
aI5931
aI5932
aI51
aI5933
aI5934
aI5935
aI5936
aI4442
aI5937
aI5938
aI5939
aI5305
aI4249
aI5940
aI5941
aI5939
aI5942
aI2817
aI5943
aI5944
aI5945
aI51
aI5946
aI5947
aI5948
aI5949
aI4267
aI5761
aI5950
aI5951
aI5952
aI5948
aI4760
aI5953
aI5954
aI4188
aI5948
aI4267
aI2808
aI5376
aI5955
aI1308
aI5948
aI5956
aI5957
aI5958
aI5959
aI5948
aI3433
aI4267
aI5957
aI1038
aI5960
aI5948
aI5961
aI1671
aI4267
aI5856
aI5962
aI5948
aI5963
aI4063
aI5964
aI5965
aI5948
aI1150
aI5966
aI5967
aI5968
aI525
aI51
aI5969
aI5970
aI5971
aI5972
aI5973
aI5974
aI5975
aI3710
aI5976
aI5977
aI5978
aI3514
aI51
aI5979
aI5980
aI3514
aI1135
aI64
aI5981
aI5982
aI901
aI4804
aI934
aI5983
aI5984
aI5985
aI51
aI5986
aI5987
aI5988
aI4396
aI1095
aI5989
aI5990
aI1482
aI5991
aI4228
aI5992
aI5993
aI5994
aI18
aI5995
aI5996
aI3455
aI21
aI64
aI5997
aI5998
aI5999
aI2817
aI6000
aI6001
aI6002
aI64
aI6003
aI6004
aI6005
aI2352
aI2973
aI6006
aI4188
aI6007
aI4399
aI107
aI6008
aI6009
aI6010
aI3669
aI51
aI6011
aI6012
aI2166
aI6013
aI6014
aI6015
aI6016
aI6017
aI6018
aI6019
aI1243
aI1552
aI6020
aI6021
aI1243
aI4396
aI4284
aI6022
aI6023
aI1243
aI6024
aI6025
aI6026
aI6027
aI6028
aI6029
aI6030
aI3703
aI6031
aI64
aI6032
aI6033
aI1740
aI6034
aI51
aI6035
aI6036
aI6037
aI1733
aI934
aI6038
aI6039
aI6040
aI114
aI6041
aI6042
aI6043
aI5421
aI6044
aI6045
aI6046
aI4662
aI6047
aI6048
aI6049
aI3710
aI934
aI6050
aI6051
aI6052
aI51
aI6053
aI6054
aI6055
aI229
aI6056
aI6057
aI2000
aI4275
aI6058
aI1788
aI6059
aI6060
aI6061
aI929
aI51
aI6062
aI6063
aI6061
aI4249
aI4920
aI934
aI6064
aI6065
aI6066
aI6067
aI934
aI6068
aI6069
aI892
aI4399
aI51
aI6070
aI6071
aI6072
aI6073
aI3247
aI3247
aI2242
aI6074
aI6075
aI6076
aI64
aI6077
aI6078
aI6079
aI51
aI6080
aI6081
aI3940
aI943
aI944
aI6082
aI6083
aI6084
aI944
aI51
aI6085
aI6086
aI816
aI64
aI6087
aI6088
aI6089
aI6090
aI51
aI6091
aI6092
aI6093
aI1483
aI934
aI6094
aI6095
aI1158
aI1159
aI4296
aI6096
aI6097
aI1158
aI6098
aI6099
aI6100
aI1526
aI4352
aI6101
aI6102
aI6103
aI51
aI712
aI6104
aI6105
aI6106
aI262
aI2943
aI6107
aI6108
aI6109
aI841
aI4083
aI6110
aI6111
aI6112
aI4738
aI4310
aI6113
aI6114
aI6115
aI2931
aI6116
aI6117
aI6118
aI107
aI6119
aI6120
aI6121
aI6122
aI64
aI6123
aI6124
aI3174
aI4352
aI934
aI6125
aI6126
aI2779
aI20
aI51
aI6127
aI6128
aI6129
aI51
aI6130
aI6131
aI1626
aI39
aI6132
aI6133
aI3598
aI6098
aI6134
aI6135
aI6136
aI506
aI6137
aI64
aI6138
aI6139
aI1792
aI6140
aI51
aI6141
aI6142
aI6143
aI51
aI6144
aI6145
aI6146
aI1095
aI4249
aI934
aI6147
aI6148
aI6149
aI936
aI64
aI6150
aI6151
aI3657
aI6152
aI6153
aI6154
aI6155
aI936
aI51
aI6156
aI6157
aI2639
aI1533
aI27
aI6158
aI6159
aI6160
aI51
aI6161
aI6162
aI6163
aI1125
aI6164
aI6165
aI5143
aI51
aI6166
aI6167
aI370
aI4296
aI64
aI6168
aI6169
aI6170
aI1920
aI64
aI6171
aI6172
aI6173
aI4310
aI934
aI1902
aI6174
aI6175
aI6173
aI4310
aI10
aI6176
aI6177
aI6178
aI1496
aI4714
aI2470
aI6179
aI6180
aI6181
aI1822
aI4249
aI4920
aI6182
aI6183
aI4043
aI6058
aI4275
aI64
aI6184
aI4188
aI4043
aI6185
aI4197
aI6186
aI6187
aI4043
aI6188
aI2808
aI6189
aI6190
aI4043
aI6188
aI6185
aI6191
aI4188
aI4043
aI6155
aI64
aI3745
aI6192
aI6193
aI6194
aI18
aI6195
aI849
aI6196
aI64
aI6197
aI6198
aI6199
aI6200
aI934
aI6201
aI6202
aI6203
aI51
aI6204
aI6205
aI6206
aI5942
aI4442
aI6207
aI6208
aI6209
aI6210
aI934
aI6211
aI6212
aI500
aI933
aI2817
aI6213
aI6214
aI3862
aI934
aI6215
aI6216
aI1590
aI1591
aI6217
aI6218
aI6219
aI800
aI6220
aI51
aI6221
aI6222
aI6223
aI4228
aI2817
aI6224
aI6225
aI6226
aI21
aI5855
aI6227
aI6228
aI6229
aI2643
aI4442
aI6230
aI6231
aI5991
aI3433
aI6232
aI6233
aI168
aI4188
aI6234
aI51
aI6235
aI6236
aI6237
aI3160
aI934
aI6238
aI6239
aI6240
aI6241
aI6242
aI6243
aI6244
aI4700
aI5076
aI6245
aI6246
aI6247
aI4396
aI1095
aI6248
aI6249
aI6250
aI188
aI6251
aI6252
aI6253
aI4228
aI51
aI6254
aI6255
aI6256
aI6257
aI934
aI6258
aI6259
aI6260
aI936
aI64
aI6261
aI6262
aI6263
aI4296
aI64
aI6264
aI6265
aI3408
aI6266
aI6267
aI290
aI6268
aI6269
aI6270
aI6271
aI64
aI6272
aI6273
aI6274
aI51
aI6275
aI6276
aI6277
aI21
aI64
aI6278
aI6279
aI6280
aI6281
aI6282
aI1829
aI6283
aI51
aI6284
aI6285
aI6286
aI64
aI6287
aI6288
aI6286
aI64
aI5076
aI6289
aI6290
aI6291
aI51
aI6292
aI6293
aI2853
aI64
aI6294
aI6295
aI6296
aI64
aI6297
aI6298
aI2115
aI6299
aI1243
aI51
aI6300
aI6301
aI6302
aI6303
aI51
aI6304
aI6305
aI6306
aI51
aI6307
aI6308
aI6309
aI51
aI6310
aI6311
aI6312
aI4700
aI934
aI6313
aI6314
aI6315
aI51
aI6316
aI6317
aI6318
aI2817
aI6319
aI6320
aI1776
aI955
aI2817
aI6321
aI6322
aI3594
aI934
aI2817
aI6323
aI6324
aI4867
aI493
aI51
aI6325
aI6326
aI2986
aI6327
aI934
aI6328
aI6329
aI348
aI1243
aI6330
aI6331
aI6332
aI215
aI4274
aI6333
aI6334
aI80
aI51
aI4228
aI6335
aI6336
aI6337
aI802
aI6338
aI6339
aI6340
aI6341
aI10
aI4442
aI6342
aI6343
aI6344
aI934
aI6345
aI6346
aI6347
aI64
aI6348
aI6349
aI6350
aI64
aI6351
aI6352
aI3293
aI6353
aI4229
aI915
aI6354
aI6355
aI6356
aI1784
aI51
aI6357
aI6358
aI1908
aI6359
aI6360
aI6361
aI2624
aI4228
aI64
aI6362
aI6363
aI2624
aI6364
aI4229
aI1546
aI6365
aI6366
aI6367
aI6368
aI4442
aI6369
aI6370
aI6371
aI6367
aI6368
aI4442
aI6372
aI6373
aI6374
aI6375
aI64
aI6376
aI6377
aI6378
aI51
aI4442
aI6379
aI6380
aI6381
aI4700
aI4229
aI915
aI6382
aI6383
aI6384
aI64
aI6385
aI6386
aI2285
aI1784
aI934
aI6387
aI6388
aI420
aI934
aI6389
aI6390
aI420
aI6391
aI4878
aI6392
aI6393
aI1315
aI998
aI6394
aI6395
aI1315
aI4396
aI51
aI6396
aI6397
aI6398
aI499
aI6399
aI6400
aI6398
aI4399
aI6401
aI6402
aI6398
aI6173
aI4310
aI6403
aI6404
aI3077
aI1352
aI64
aI6405
aI6406
aI319
aI936
aI4229
aI915
aI6407
aI6408
aI6409
aI18
aI6410
aI6411
aI2205
aI379
aI934
aI6412
aI6413
aI242
aI1243
aI6414
aI6415
aI242
aI1460
aI934
aI6416
aI6417
aI3873
aI1055
aI6418
aI6419
aI6420
aI1093
aI6421
aI6422
aI6423
aI10
aI5875
aI6424
aI6425
aI6426
aI6427
aI955
aI51
aI6428
aI6429
aI6430
aI5869
aI6431
aI6432
aI6433
aI1491
aI64
aI6434
aI6435
aI497
aI6436
aI51
aI6437
aI6438
aI6439
aI634
aI6440
aI6441
aI6442
aI6443
aI1784
aI64
aI6444
aI6445
aI2689
aI388
aI944
aI6446
aI6447
aI3700
aI91
aI6448
aI6449
aI922
aI20
aI6450
aI6451
aI6452
aI51
aI6453
aI6454
aI6455
aI51
aI6456
aI6457
aI6458
aI936
aI64
aI6459
aI6460
aI6461
aI1491
aI6462
aI6463
aI6464
aI51
aI6465
aI6466
aI6467
aI1552
aI6468
aI6469
aI6470
aI20
aI51
aI6471
aI6472
aI6473
aI2158
aI3678
aI6474
aI6475
aI6476
aI4399
aI6477
aI6478
aI6479
aI64
aI6480
aI6481
aI6482
aI4906
aI6483
aI4442
aI6484
aI6485
aI6486
aI5448
aI64
aI6487
aI6488
aI6489
aI1205
aI6490
aI6491
aI6489
aI1628
aI64
aI6492
aI6493
aI6494
aI64
aI5855
aI934
aI6495
aI6496
aI6497
aI64
aI6498
aI6499
aI6500
aI64
aI6501
aI6502
aI866
aI936
aI64
aI6503
aI6504
aI866
aI3658
aI6505
aI6506
aI866
aI5001
aI934
aI6507
aI6508
aI6509
aI64
aI6510
aI6511
aI22
aI6512
aI4296
aI64
aI6513
aI6514
aI6515
aI1896
aI51
aI6516
aI6517
aI3513
aI51
aI6518
aI6519
aI6520
aI64
aI6521
aI6522
aI1551
aI934
aI6523
aI6524
aI391
aI3090
aI64
aI6525
aI6526
aI391
aI3090
aI4714
aI379
aI6527
aI6528
aI391
aI62
aI934
aI22
aI6529
aI6530
aI6531
aI6532
aI51
aI6533
aI6534
aI6535
aI2854
aI1609
aI4188
aI6536
aI6537
aI51
aI6538
aI6539
aI6540
aI51
aI6541
aI6542
aI6543
aI934
aI6544
aI6545
aI6546
aI51
aI6547
aI6548
aI5584
aI201
aI6549
aI64
aI6550
aI6551
aI2107
aI2108
aI6552
aI6553
aI6554
aI3292
aI486
aI493
aI1251
aI6555
aI6556
aI6557
aI51
aI6558
aI6559
aI6560
aI3272
aI6561
aI6562
aI6563
aI4399
aI934
aI6564
aI6565
aI6566
aI6567
aI1609
aI4188
aI6568
aI6569
aI51
aI4661
aI6570
aI84
aI51
aI6571
aI6572
aI6573
aI5340
aI64
aI6574
aI6575
aI6576
aI934
aI6577
aI6578
aI6579
aI51
aI6580
aI6581
aI3753
aI64
aI6582
aI6583
aI6584
aI1095
aI4249
aI934
aI6585
aI6586
aI6587
aI51
aI6588
aI6589
aI6590
aI4193
aI64
aI6591
aI6592
aI6593
aI51
aI1609
aI4188
aI168
aI6594
aI3932
aI3435
aI51
aI6595
aI6596
aI6594
aI3932
aI841
aI64
aI6597
aI6598
aI1304
aI18
aI6599
aI6600
aI6601
aI20
aI6602
aI6603
aI6604
aI64
aI6605
aI6606
aI2826
aI6607
aI6372
aI6608
aI6609
aI2826
aI447
aI4442
aI6610
aI6611
aI3627
aI3957
aI51
aI6612
aI6613
aI3627
aI6614
aI51
aI6615
aI6616
aI3627
aI4284
aI934
aI6617
aI6618
aI3627
aI1243
aI51
aI6619
aI6620
aI6621
aI20
aI6622
aI6623
aI2149
aI51
aI6624
aI6625
aI2149
aI4714
aI915
aI4860
aI6626
aI6627
aI186
aI51
aI6628
aI6629
aI6630
aI1273
aI39
aI6631
aI6632
aI186
aI6633
aI6634
aI6635
aI186
aI6636
aI4429
aI6637
aI6638
aI186
aI5869
aI51
aI6639
aI6640
aI186
aI2759
aI6641
aI6642
aI1389
aI51
aI4700
aI6643
aI6644
aI1389
aI1041
aI51
aI5762
aI6645
aI6646
aI51
aI6647
aI6648
aI6646
aI6649
aI51
aI6650
aI6651
aI6652
aI51
aI6653
aI6654
aI6655
aI107
aI6656
aI6657
aI1312
aI6658
aI51
aI6659
aI6660
aI6661
aI21
aI64
aI6662
aI6663
aI6664
aI51
aI6665
aI6666
aI6667
aI51
aI6668
aI6669
aI6670
aI64
aI6671
aI6672
aI6673
aI51
aI6674
aI6675
aI6676
aI186
aI64
aI6677
aI6678
aI1341
aI4652
aI51
aI6679
aI6680
aI2626
aI6681
aI934
aI6682
aI6683
aI2626
aI6684
aI6685
aI6686
aI6687
aI6688
aI2626
aI6684
aI6685
aI2817
aI6689
aI6690
aI6691
aI4228
aI64
aI6692
aI6693
aI6694
aI4787
aI64
aI6695
aI6696
aI6697
aI51
aI6698
aI6699
aI617
aI944
aI6700
aI4188
aI6701
aI4655
aI934
aI6702
aI6703
aI6704
aI107
aI64
aI6705
aI6706
aI6707
aI64
aI6708
aI6709
aI6710
aI5047
aI6711
aI6712
aI6713
aI933
aI51
aI6714
aI6715
aI4060
aI944
aI64
aI6716
aI6717
aI6718
aI934
aI6719
aI6720
aI483
aI484
aI934
aI6721
aI6722
aI3090
aI3499
aI934
aI6723
aI6724
aI907
aI3601
aI4249
aI6725
aI6726
aI3441
aI39
aI6727
aI6728
aI6729
aI926
aI4760
aI6730
aI6731
aI4566
aI64
aI6732
aI6733
aI100
aI6734
aI934
aI6735
aI6736
aI100
aI6734
aI4714
aI915
aI6737
aI6738
aI6739
aI5107
aI6740
aI6741
aI5280
aI4396
aI5302
aI6742
aI3059
aI5280
aI3627
aI51
aI6743
aI6744
aI3944
aI6745
aI6746
aI6747
aI6748
aI6749
aI4442
aI6750
aI1199
aI6751
aI51
aI6752
aI6753
aI6754
aI934
aI6755
aI6756
aI6757
aI6758
aI6759
aI6760
aI51
aI6761
aI6762
aI6763
aI51
aI6764
aI6765
aI6766
aI6767
aI64
aI6768
aI6769
aI2177
aI4296
aI64
aI6770
aI6771
aI6772
aI6773
aI4442
aI6774
aI4188
aI6775
aI51
aI6776
aI6777
aI6778
aI944
aI6779
aI6780
aI6781
aI936
aI6782
aI6783
aI6784
aI4399
aI6785
aI6786
aI6787
aI18
aI6788
aI6789
aI6790
aI51
aI4700
aI6791
aI6792
aI6793
aI6794
aI496
aI6795
aI6796
aI6797
aI934
aI1609
aI4282
aI6798
aI6799
aI6800
aI4193
aI6801
aI6802
aI3442
aI51
aI6803
aI6804
aI6805
aI51
aI6806
aI6807
aI6808
aI51
aI6809
aI6810
aI6811
aI1896
aI6812
aI6813
aI6811
aI4395
aI384
aI6814
aI6815
aI6816
aI936
aI64
aI6817
aI6818
aI6819
aI6820
aI6821
aI6822
aI76
aI6823
aI3746
aI412
aa(lp8
I798
aI22
aI10
aI217
aI68
aI291
aI566
aI4
aI285
aI389
aI380
aI9524
aI9525
aI75
aI1294
aI147
aI4151
aI297
aI340
aI1569
aI232
aI285
aI389
aI273
aI75
aI48
aI285
aI191
aI1362
aI408
aa(lp9
I22
aI10
aI217
aI68
aI291
aI566
aI4
aI273
aI75
aI48
aI285
aI1362
aI408
aI289
aI1120
aI15
aI1741
aI262
aI147
aI199
aI340
aI1664
aI232
aI978
aI289
aI9363
aI15
aI75
aI298
aI294
aI566
aI296
aI199
aI22
aI190
aI68
aI291
aI315
aI566
aI294
aI4
aI273
aI75
aI48
aI285
aI1362
aI408
aI297
aI22
aI2569
aI3
aI1366
aI360
aI232
aI15
aI75
aI1313
aI147
aI167
aI9364
aI15
aI75
aI222
aI223
aI28
aI199
aI2569
aI1366
aI294
aI1486
aI292
aI303
aI2160
aI15
aI75
aI1365
aI232
aI1872
aa(lp10
I22
aI10
aI217
aI68
aI291
aI566
aI4
aI273
aI75
aI48
aI285
aI1362
aI408
aI199
aI340
aI1044
aI232
aI207
aI9365
aI15
aI75
aI1727
aI147
aI9366
aI15
aI75
aI22
aI294
aI298
aI105
aI289
aI296
aI297
aI22
aI248
aI1366
aI4155
aI2137
aI262
aI147
aI167
aI75
aI917
aI96
aI400
aa(lp11
I1206
aI916
aI917
aI1260
aI823
aI239
aI1330
aI164
aI918
aI1783
aI83
aI4837
aI13964
aI51
aI7469
aI2817
aI5633
aI51
aI6093
aI4284
aI6256
aI6257
aI934
aI6427
aI955
aI51
aI186
aI4954
aI936
aa(lp12
I22
aI10
aI217
aI68
aI291
aI566
aI4
aI273
aI75
aI48
aI285
aI1362
aI408
aI2485
aI297
aI340
aI1330
aI232
aI360
aI1083
aI15
aI6827
aI147
aI9400
aI15
aI9401
aI15
aI2306
aI885
aI22
aI10
aI1366
aI2700
aI4003
aI147
aI167
aI75
aI917
aI96
aI400
aa(lp13
I806
aI4255
aI64
aI14313
aI44
aI624
aI348
aI291
aI1194
aI74
aI15
aI1627
aI8802
aI965
aI9817
aI9818
aI934
aa(lp14
I67
aI68
aI19971
aI64
aI14313
aI44
aI37
aI1462
aI3579
aI19972
aI1204
aI3103
aI188
aI624
aI241
aI1984
aI15
aI67
aI75
aI19973
aI9889
aI64
aI19974
aI1721
aI10850
aI266
aI2999
aI1460
aI241
aI25
aI15
aI67
aI75
aI679
aI1040
aI789
aI348
aI51
aa(lp15
I1206
aI916
aI917
aI1260
aI823
aI239
aI1510
aI3415
aI3194
aI918
aI3655
aI19975
aI5633
aI51
aa(lp16
I22
aI10
aI217
aI68
aI291
aI566
aI4
aI273
aI75
aI48
aI285
aI1362
aI408
aI207
aI3832
aI15
aI807
aI147
aI9404
aI15
aI199
aI340
aI1510
aI232
aI22
aI248
aI1366
aI4155
aI4003
aI262
aI147
aI167
aI75
aI917
aI96
aI400
aI478
aI315
aI566
aI4
aI2485
aI297
aI273
aI75
aI48
aI285
aI1362
aI408
aI190
aI68
aI291
aI294
aI453
aI15
aI402
aI147
aI9405
aI15
aI1044
aI232
aI1486
aI167
aI2717
aI15
aa(lp17
I9137
aI4652
aI17386
aI804
aI4255
aI64
aI1459
aI3500
aI256
aI10150
aI256
aI1460
aI9598
aI2135
aI320
aI817
aI586
aI3386
aI19962
aI19962
aI798
aI3969
aI1108
aI1237
aI1052
aI1946
aI3500
aI11478
aI18602
aI10231
aI889
aI8368
aI1478
aI560
aI121
aI10086
aI107
aI2150
aI3
aI8368
aI33
aI19976
aI10062
aI11478
aI607
aI258
aI353
aI76
aI648
aI1754
aa(lp18
I22
aI10
aI217
aI68
aI291
aI3
aI4
aI285
aI389
aI207
aI9410
aI15
aI75
aI2485
aI297
aI340
aI76
aI232
aI22
aI96
aI400
aI3
aI3317
aI285
aI389
aI167
aI9411
aI15
aI75
aI2247
aI147
aI167
aI9404
aI15
aI75
aI285
aI399
aI1510
aI232
aI579
aI3317
aa(lp19
I22
aI643
aI977
aI285
aI23
aI10
aI217
aI68
aI291
aI380
aI2062
aI293
aI1042
aI1044
aI96
aI400
aI566
aI4
aI22
aI291
aI3
aI9423
aI15
aI75
aI48
aI285
aI1362
aI408
aI187
aI409
aI1583
aI232
aI411
aI187
aI1583
aI2635
aI1350
aI289
aI3978
aI15
aI75
aI1561
aI147
aI296
aI9424
aa(lp20
I22
aI10
aI217
aI68
aI291
aI566
aI4
aI285
aI389
aI289
aI1561
aI15
aI75
aI2485
aI297
aI340
aI1276
aI392
aI22
aI96
aI400
aI3
aI3317
aI285
aI389
aI167
aI9425
aI15
aI75
aI2113
aI147
aI9426
aI15
aI75
aI285
aI399
aI1583
aI232
aI579
aI3317
aa(lp21
I22
aI19977
aI18
aI226
aI19978
aI18
aI1041
aI943
aI1683
aI865
aI19979
aI19980
aI3386
aI19981
aI505
aI3500
aI15162
aI19977
aI47
aI6
aI19981
aI19982
aI427
aI19983
aI5421
aI18
aI19984
aI865
aI2584
aI2899
aI8368
aI24
aI11411
aI47
aI3144
aI2331
aI88
aI19985
aI11239
aI68
aI19977
aI33
aI2115
aI9611
aI44
aI380
aI402
aI1363
aI147
aI19986
aI75
aI19977
aI315
aI459
aI1460
aI2420
aI4255
aI64
aI19963
aI19981
aa(lp22
I75
aI4255
aI64
aI943
aI1321
aI674
aI1460
aI24
aI19963
aI360
aI2710
aI147
aI4
aI1041
aI943
aI1683
aI10152
aI2082
aI865
aI107
aI19987
aI19988
aI8368
aI19989
aI22
aI10352
aI19990
aI19991
aI943
aI11461
aI3738
aI2082
aI918
aI865
aI11470
aI89
aI19988
aI3
aI107
aI2301
aI19992
aI19993
aI22
aI10352
aI625
aI1791
aI970
aI1368
aI2229
aI1206
aI10152
aI9995
aI22
aI107
aI33
aI14313
aI44
aI465
aI649
aI6
aI19994
aI163
aI4255
aI68
aI360
aI18939
aI19995
aI75
aa(lp23
I915
aI916
aI917
aI239
aI918
aI7333
aI64
aI2692
aI2692
aI167
aI4594
aI4310
aI64
aa(lp24
I22
aI10
aI217
aI68
aI291
aI566
aI285
aI389
aI289
aI2894
aI15
aI75
aI199
aI340
aI1365
aI232
aI1306
aI3716
aI15
aI75
aI1350
aI2700
aI2137
aI262
aI147
aI75
aI917
aI96
aI400
aI285
aI389
aI365
aI3717
aI15
aI128
aI365
aI285
aI389
aI3718
aI1368
aI167
aI1396
aI273
aI3719
aI1976
aI22
aI1396
aI273
aI442
aI163
aI303
aI298
aI129
aI3720
aI15
aI75
aI1464
aI285
aa(lp25
I4255
aI64
aI153
aI550
aI2177
aI3470
aI17631
aI792
aI681
aI475
aI4255
aI798
aI60
aI9863
aI10872
aI8739
aI9863
aI17783
aI3500
aI10150
aI256
aI1460
aI481
aI17631
aI649
aI3123
aI4255
aI33
aI14313
aI44
aI2906
aI804
aI652
aI792
aI681
aI37
aI1498
aI1042
aI19996
aa(lp26
I4255
aI64
aI14313
aI44
aI1321
aI19997
aI1460
aI1782
aI40
aI10958
aI19998
aI64
aI841
aI19999
aI159
aI16478
aI7211
aI3658
aI107
aI4255
aI18055
aI10631
aI1718
aI4670
aI2005
aI64
aI277
aI278
aI186
aI4670
aI51
aI1782
aI40
aI6340
aI933
aI934
aI159
aI6340
aI805
aI20000
aI80
aI1657
aI1762
aI1713
aI213
aI10631
aI1718
aa(lp27
I22
aI10
aI217
aI68
aI291
aI566
aI4
aI273
aI75
aI48
aI285
aI1362
aI408
aI360
aI2866
aI147
aI3717
aI15
aI2485
aI297
aI340
aI2593
aI232
aI22
aI273
aI3739
aI15
aI1276
aI392
aI296
aI566
aI3317
aI22
aI294
aI479
aI1042
aI1330
aI22
aI3740
aI1214
aI1021
aI220
aI207
aI3741
aI15
aI75
aI285
aI399
aI190
aI182
aI3742
aI107
aI273
aI75
aI1464
aI285
aI2565
aI48
aI1362
aI1261
aI360
aI3743
aI15
aI560
aI482
aI987
aI3744
aI2828
aI294
aI2496
aI3745
aI285
aI399
aI856
aI54
aI107
aI482
aI3744
aI18
aI3746
aI55
aI3744
aI48
aI2496
aI3745
aI285
aI286
aI482
aI287
aI2387
aa(lp28
I20001
aI10878
aI1321
aI102
aI10421
aI1484
aI114
aI3
aI1782
aI40
aI20002
aI20001
aI287
aI310
aI37
aI1273
aI20003
aI9862
aI20004
aI3075
aI616
aI617
aI20001
aI20002
aI625
aI10268
aI15711
aI1484
aI114
aI1718
aI599
aI13459
aI2333
aI21
aI447
aI1344
aI3
aI5
aI6
aI2395
aI1496
aI771
aI6173
aI20005
aI447
aI18504
aI15
aI3079
aI15
aI626
aa(lp29
I22
aI273
aI75
aI48
aI285
aI10
aI217
aI68
aI291
aI1362
aI408
aI380
aI3108
aI297
aI340
aI1569
aI392
aI164
aI15
aI1307
aI147
aI3747
aI15
aI3716
aI15
aI1365
aI232
aI96
aI400
aI566
aI4
aI22
aI1366
aI315
aI2620
aI296
aI297
aI22
aI289
aI3719
aI1976
aI36
aI163
aI1366
aI288
aI22
aI248
aI1366
aI442
aI3194
aI2711
aI3720
aI15
aI75
aI129
aI1289
aI3748
aI15
aI75
aI340
aI2584
aI1872
aa(lp30
I22
aI273
aI75
aI48
aI285
aI408
aI20006
aI20007
aI10
aI217
aI68
aI291
aI380
aI1516
aI397
aI2485
aI297
aI658
aI292
aI303
aI96
aI400
aI566
aI4
aI22
aI285
aI399
aI1223
aI480
aI11050
aI1361
aI266
aI1011
aI191
aI340
aI297
aI20008
aI15
aI75
aI1350
aI289
aI1665
aI147
aI20009
aI15
aI75
aI566
aI296
aI297
aI1018
aI285
aI389
aI2130
aI12674
aI147
aI1042
aI1044
aI1366
aI1010
aI284
aI2407
aa(lp31
I1206
aI916
aI917
aI1260
aI823
aI239
aI410
aI1562
aI918
aI12290
aI7111
aI936
aI1420
aI2175
aI2808
aI3678
aI13964
aI51
aI19385
aI64
aI139
aI4284
aI934
aI6427
aI955
aI51
aI20010
aI51
aI6816
aI936
aI924
aI4214
aI1558
aI4652
aI934
aI4255
aI64
aI190
aI967
aI4337
aI51
aI4425
aI51
aI734
aI2352
aI4535
aI64
aI7083
aI4984
aI264
aI1975
aI934
aI19934
aI3478
aI5001
aI6470
aI923
aI51
aI3090
aI3499
aI934
aI8139
aI64
aI857
aI337
aI20011
aI4310
aI6870
aI51
aI4385
aI64
aI4508
aI2352
aI1712
aI64
aI5057
aI51
aI902
aI1243
aI5268
aI1040
aI1040
aI64
aI5406
aI5407
aI934
aI5881
aI20012
aI6037
aI1733
aI6199
aI175
aI1312
aI3435
aI51
aI8125
aI5761
aI64
aI3944
aI4284
aI51
aI8165
aI51
aI473
aI20013
aI18704
aI51
aI2080
aI3297
aI51
aI7221
aI201
aI201
aI684
aI4984
aI926
aI19934
aI64
aI6005
aI20014
aI20015
aI64
aI6049
aI20016
aI51
aI6170
aI5302
aI64
aI6302
aI6303
aI51
aI1066
aI3861
aI64
aI20017
aI16415
aI20018
aI256
aI19950
aI4760
aI64
aI19954
aI19955
aI51
aI4915
aa(lp32
I22
aI10
aI217
aI68
aI291
aI566
aI4
aI273
aI75
aI48
aI285
aI1362
aI408
aI360
aI3108
aI297
aI340
aI410
aI232
aI1637
aI15
aI4003
aI262
aI147
aI9507
aI15
aI22
aI10
aI167
aI2700
aI4003
aI262
aI147
aI75
aI917
aI96
aI400
aI22
aI294
aI3719
aI2584
aI9508
aI289
aI404
aI285
aI399
aa(lp33
I987
aI1354
aI279
aI141
aI408
aI273
aI75
aI10
aI217
aI68
aI20019
aI107
aI48
aI285
aI1362
aI408
aI3718
aI20020
aI1731
aI96
aI400
aI566
aI4
aI22
aI291
aI3
aI1044
aI392
aI285
aI399
aI9087
aI147
aI20021
aI15
aI75
aI207
aI12768
aI15
aI199
aI1181
aI1042
aI1583
aI232
aI1872
aI1366
aI19675
aI15
aa(lp34
I1354
aI1065
aI267
aI587
aI286
aI68
aI1107
aI14918
aI2282
aI141
aI408
aI199
aI75
aI253
aI36
aI1306
aI1350
aI1976
aI2148
aI1366
aI1367
aI4
aI10
aI217
aI68
aI291
aI190
aI68
aI291
aI167
aI273
aI75
aI48
aI285
aI1362
aI408
aI199
aI340
aI1066
aI1664
aI885
aI1622
aI285
aI389
aI1366
aI859
aI9846
aI8324
aI75
aI917
aI291
aI2943
aI1968
aI398
aI4165
aI1065
aa(lp35
I22
aI75
aI4255
aI64
aI380
aI2106
aI147
aI3107
aI107
aI76
aI310
aI10616
aI10
aI1460
aI459
aI4255
aI75
aI380
aI9715
aI20022
aI10
aI217
aI68
aI291
aI695
aI3
aI3107
aI4255
aI33
aI14313
aI44
aI320
aI310
aI3140
aI13895
aI9356
aI3
aI239
aI287
aI134
aI1451
aI178
aI159
aI75
aI2649
aI943
aI1321
aI13896
aI20023
aI47
aI4255
aI121
aI864
aI2093
aI3107
aI266
aI388
aI176
aI178
aI4037
aI105
aI5421
aI107
aI128
aI631
aI4255
aI3
aI10
aI8368
aI19989
aI20024
aI20025
aI865
aI23
aI2924
aI20025
aI465
aI56
aI1460
aI4255
aa(lp36
I4255
aI64
aI14313
aI44
aI5421
aI19991
aI1460
aI353
aI20026
aI4790
aI458
aI3234
aI40
aI20026
aI4790
aI55
aI1273
aI4255
aI9863
aI10872
aI375
aI228
aI1901
aI345
aI864
aI1058
aI1361
aI10362
aI1131
aI237
aI10
aI217
aI156
aI10062
aI220
aI616
aI617
aI1124
aI2112
aa(lp37
I22
aI273
aI75
aI48
aI285
aI1362
aI408
aI380
aI199
aI340
aI1510
aI2635
aI10
aI217
aI190
aI68
aI291
aI566
aI4
aI1065
aI1911
aI654
aI13170
aI1756
aI241
aI1237
aI121
aI2859
aI68
aI253
aI286
aI68
aI393
aI96
aI400
aI1366
aI20027
aI15
aI75
aI2866
aI147
aI17645
aI15
aI1686
aI1044
aI393
aI190
aI68
aI291
aI1366
aI10078
aI15
aI1637
aI147
aI2113
aI15
aI22
aI1366
aI167
aI2485
aI42
aI291
aI2121
aI859
aI285
aI389
aI297
aa(lp38
I22
aI802
aI12071
aI20028
aI810
aI20029
aI20030
aI19565
aI4088
aI10
aI217
aI93
aI220
aI230
aI231
aI1803
aI15
aI20029
aI14578
aI1042
aI143
aI220
aI20031
aI1042
aI1872
aa(lp39
I1297
aI479
aI14475
aI248
aI2144
aI1324
aI1546
aI4652
aI3749
aI107
aI1822
aI158
aI1627
aI475
aI134
aI3143
aI478
aI1079
aI479
aI391
aI107
aI10282
aI134
aI387
aI20032
aI475
aI134
aI972
aI400
aI3738
aI10705
aI3740
aI1959
aI204
aa(lp40
I4255
aI64
aI486
aI1467
aI1321
aI9863
aI10872
aI256
aI1460
aI3
aI4
aI333
aI1838
aI1726
aI1039
aI166
aI147
aI1055
aI2282
aI28
aI163
aI318
aI422
aI1326
aI589
aI1459
aI509
aI4255
aI606
aI11159
aI178
aI248
aI1265
aI163
aI3
aI287
aI653
aI3756
aI880
aI10608
aI15
aI10011
aI75
aI657
aI396
aI570
aI572
aI2214
aI632
aI653
aI246
aI15
aI880
aI630
aI570
aI22
aI107
aI33
aI14313
aI44
aI318
aI1326
aI194
aI13878
aI13879
aI9
aI228
aI897
aI958
aI75
aI4255
aI360
aI10929
aI20033
aa(lp41
I8309
aI765
aI20034
aI2691
aI3470
aI20035
aI20036
aI64
aI1723
aI107
aI383
aI3144
aI28
aI163
aI646
aI180
aI2574
aI196
aI505
aI8925
aI28
aI10
aI245
aI1866
aI1574
aI1667
aI203
aI20037
aI1802
aI12526
aI682
aI552
aI2217
aI4255
aI64
aI2989
aI169
aI20038
aI110
aI20039
aI20040
aI2314
aI867
aI119
aI424
aI1056
aI2574
aI2713
aI2781
aI978
aI11606
aI1498
aI25
aI3
aI481
aI20035
aI381
aI681
aI475
aI20036
aI1006
aI1464
aa(lp42
I4255
aI64
aI1459
aI3500
aI20041
aI1460
aI3
aI4
aI8303
aI20042
aI6655
aI64
aI1619
aI482
aI2163
aI314
aI1718
aI15593
aI4255
aI476
aI156
aI22
aI282
aI283
aI1080
aI566
aI4
aI20042
aI6655
aI1078
aI4255
aI2093
aI4255
aI3
aI8303
aI976
aI1619
aI20043
aI482
aI2673
aI389
aI220
aI287
aI3946
aI1658
aI1762
aI587
aI626
aI157
aI287
aI1658
aI22
aI2673
aI15593
aI4255
aI20042
aI6655
aI10554
aI20044
aI4255
aI49
aI3
aI1206
aI1367
aI4255
aI1324
aI20042
aI6655
aI1071
aI1324
aI1217
aI15374
aI4255
aI3
aI3265
aI4255
aI75
aI380
aI4126
aI1168
aI4
aI20045
aI20042
aI6655
aI68
aI380
aI1725
aI1168
aI20046
aa(lp43
I1206
aI916
aI917
aI1260
aI823
aI239
aI918
aa(lp44
I918
aa(lp45
I4255
aI64
aI3
aI4
aI1838
aI2457
aI1039
aI8589
aI4756
aI589
aI587
aI9266
aI8633
aI1576
aI145
aI22
aI1838
aI664
aI880
aI3271
aI3756
aI656
aI361
aI1727
aI15
aI8932
aI1168
aI75
aI651
aI2624
aI20047
aI64
aI8601
aI4255
aI476
aI850
aI145
aI223
aI163
aI796
aI37
aI1476
aI11005
aI345
aI92
aI840
aI1429
aI8687
aI20048
aI353
aI2967
aI23
aI2407
aI4255
aI14313
aI44
aI3
aI2214
aI880
aI320
aI3406
aI390
aI396
aI630
aI570
aI128
aI2605
aI4255
aI587
aI13726
aI15
aa(lp46
I1206
aI916
aI917
aI1260
aI823
aI239
aa(lp47
I20049
aI2035
aI68
aI266
aI1104
aI8680
aI2748
aI10
aI303
aI273
aI75
aI48
aI285
aI1362
aI408
aI380
aI390
aI397
aI199
aI10
aI217
aI68
aI291
aI190
aI68
aI291
aI3
aI4
aI1064
aI1065
aI266
aI613
aI20050
aI478
aI280
aI3105
aI394
aI1065
aI1565
aI587
aI2565
aI68
aI2707
aI14918
aI6
aI180
aI103
aI75
aI853
aI212
aI644
aI1224
aI1065
aI625
aI591
aI506
aI1354
aI1024
aI286
aI213
aI439
aI998
aI1784
aI69
aa(lp48
I2828
aI943
aI10728
aI610
aI284
aI163
aI459
aI19413
aI3675
aI90
aI1571
aI20051
aI20052
aI2339
aI20053
aI10422
aI10724
aI395
aI8849
aI1919
aI8370
aI1542
aI706
aI1722
aI107
aI459
aI91
aI2220
aI20051
aI1961
aI8370
aI977
aI10
aI818
aI1517
aI943
aI10728
aa(lp49
I1206
aI916
aI917
aI1260
aI823
aI239
aI410
aI1561
aa(lp50
I1206
aI916
aI917
aI1260
aI823
aI239
aI918
aI3655
aI19975
aI51
aI13647
aI1935
aI64
aI4375
aI486
aI936
aI4455
aI51
aI4934
aI942
aI64
aI5162
aI5163
aI51
aI7415
aI1041
aI51
aI13964
aI51
aI19385
aI64
aI5633
aI51
aI5991
aI9009
aI934
aI924
aI4255
aI64
aI190
aI967
aI64
aI4337
aI51
aI4425
aI51
aI2080
aI2081
aI51
aI2080
aI3297
aI51
aI12865
aI91
aI7083
aI64
aI4689
aI7086
aI1783
aI936
aI4853
aI934
aI2954
aI51
aI20054
aI51
aI20055
aI4296
aI20056
aI19934
aI3678
aI64
aI20057
aI4399
aI51
aI1975
aI934
aI19934
aI3478
aI5001
aI20058
aI51
aI7879
aI64
aI6271
aI64
aI2853
aI5326
aI5376
aI64
aI6315
aI51
aI6398
aI6173
aI4310
aI934
aI20010
aI51
aI3627
aI4284
aI934
aI186
aI175
aI3435
aI51
aI20059
aI20014
aI21
aI15821
aI934
aI886
aI486
aI3614
aI857
aI12198
aI64
aI190
aI375
aI4416
aI8964
aI4296
aI4385
aI64
aI4562
aI51
aI2105
aI1966
aI64
aI4699
aI64
aI1298
aI998
aI64
aI5006
aI51
aI1712
aI64
aI5406
aI5407
aI934
aI19941
aI64
aI5718
aI51
aI5777
aI5302
aI64
aI802
aI20060
aI1552
aI64
aI5881
aI5784
aI51
aI6146
aI4284
aI4249
aI934
aI983
aI936
aI64
aI6344
aI934
aI6409
aI51
aI19942
aI4228
aI51
aI3753
aI64
aI3627
aI6614
aI51
aI6784
aI4399
aI51
aI473
aI190
aI12531
aI51
aI20013
aI18704
aI51
aI4408
aI4409
aI51
aI17036
aI19950
aI64
aI4870
aI64
aI4984
aI4249
aI934
aI5994
aI51
aI6005
aI20014
aI20015
aI64
aI6199
aI3671
aI51
aI20061
aI51
aI677
aI8102
aI4399
aI51
aI1066
aI7111
aI936
aI64
aI15773
aI51
aI6391
aI4399
aI64
aI19954
aI19955
aI51
aI4915
aI7879
aI2578
aI4310
aI497
aI6436
aI51
aI9937
aI64
aI20062
aI1552
aI64
aI8093
aI51
aa(lp51
I22
aI2
aI20063
aI20064
aI10
aI217
aI20065
aI6992
aI20066
aI10
aI217
aI459
aI2919
aI1055
aI10
aI20067
aI2982
aI186
aI175
aI22
aI1267
aI1055
aI10917
aI3455
aI1267
aI1342
aI1998
aI266
aI400
aI220
aI230
aI231
aI246
aI15
aI233
aI15
aa(lp52
I4046
aI96
aI1383
aI71
aI608
aI20068
aI1802
aI1533
aI3944
aI223
aI288
aI348
aI291
aI1194
aI17300
aI10
aI2144
aI335
aI625
aI431
aI3629
aI71
aI11455
aI557
aI18
aI345
aI1542
aI2144
aI1128
aI2096
aI391
aI71
aI9970
aI822
aI823
aI2082
aI2943
aI18
aI3572
aI1146
aI10
aI335
aI2344
aI222
aI479
aI391
aI3678
aI1658
aI96
aI71
aI1078
aI1011
aI11102
aI13367
aI3500
aI1354
aI18
aI475
aI883
aI625
aI20069
aI2540
aI2144
aI624
aI476
aI2144
aI324
aI1409
aa(lp53
I1206
aI916
aI917
aI1260
aI823
aI239
aI918
aI4351
aI5972
aI51
aI4375
aI486
aI936
aI12290
aI4925
aI2249
aI934
aI4934
aI942
aI64
aI4984
aI4249
aI934
aI5162
aI5163
aI51
aI902
aI20070
aI51
aI13964
aI51
aI7469
aI2817
aI2692
aI2692
aI19385
aI64
aI20057
aI4399
aI51
aI5633
aI51
aI5642
aI5643
aI139
aI4284
aI934
aI6256
aI6257
aI51
aI186
aI4954
aI936
aI2817
aI14638
aI934
aI924
aI4214
aI1558
aI4652
aI934
aI4255
aI64
aI6876
aI3847
aI64
aI190
aI967
aI64
aI4337
aI51
aI4425
aI51
aI4470
aI4471
aI64
aI19935
aI19936
aI2080
aI3297
aI51
aI4535
aI64
aI4562
aI51
aI4565
aI4566
aI64
aI7083
aI64
aI10015
aI4809
aI4396
aI17036
aI19950
aI4853
aI934
aI20055
aI3678
aI64
aI20056
aI19934
aI3678
aI64
aI3992
aI51
aI1975
aI934
aI19934
aI64
aI5777
aI5302
aI64
aI3478
aI5001
aI20058
aI51
aI6129
aI51
aI6170
aI5302
aI64
aI7879
aI64
aI6398
aI6173
aI4310
aI6470
aI923
aI51
aI6576
aI934
aI20010
aI51
aI20071
aI21
aI20072
aI21
aI20059
aI2352
aI21
aI3090
aI3499
aI934
aI8139
aI64
aI857
aI20073
aI934
aI12198
aI64
aI190
aI375
aI4416
aI190
aI4284
aI4249
aI64
aI4340
aI64
aI8964
aI4296
aI64
aI4422
aI3091
aI64
aI4670
aI51
aI2105
aI1966
aI64
aI1499
aI8110
aI51
aI5006
aI51
aI5017
aI64
aI7258
aI51
aI1712
aI64
aI5057
aI51
aI5361
aI64
aI5406
aI5407
aI934
aI2692
aI4874
aI64
aI19941
aI64
aI5715
aI64
aI5718
aI51
aI5737
aI934
aI64
aI802
aI20060
aI20074
aI5881
aI20012
aI51
aI5999
aI2817
aI6240
aI6241
aI983
aI936
aI64
aI19942
aI4228
aI51
aI3753
aI64
aI3627
aI6614
aI51
aI6784
aI4399
aI51
aI473
aI190
aI12531
aI51
aI190
aI525
aI4416
aI4408
aI4409
aI51
aI4870
aI64
aI5514
aI3861
aI525
aI5565
aI51
aI5570
aI4228
aI64
aI11688
aI19934
aI51
aI8832
aI5994
aI51
aI6199
aI3671
aI51
aI7879
aI3571
aI950
aI51
aI1066
aI4531
aI4532
aI51
aI15491
aI4399
aI51
aI15773
aI51
aI8582
aI64
aI5041
aI51
aI5580
aI64
aI7337
aI51
aI6391
aI4399
aI64
aI19954
aI19955
aI51
aI4915
aI5665
aI64
aI3547
aI3548
aI51
aI6089
aI6090
aI51
aI5143
aI51
aI901
aI7879
aI5047
aI9937
aI64
aI8413
aI11632
aI64
aI8093
aI51
aI907
aI19945
aI4249
aI2929
aI20075
aI51
aa(lp54
I4255
aI1321
aI19963
aI19964
aI8368
aI5
aI159
aI20076
aI5421
aI5211
aI15
aI308
aI943
aI3386
aI3500
aI2526
aI4255
aI2065
aI777
aI5421
aI23
aI460
aI375
aI223
aI163
aI625
aI20077
aI3346
aI20076
aI318
aI1464
aI459
aI1460
aI3386
aI3500
aI2526
aI4255
aI3
aI22
aI107
aI465
aI54
aI55
aI340
aI1396
aI4255
aI33
aI14313
aI44
aI3
aI287
aI292
aI1727
aI147
aI2401
aI147
aI55
aI253
aI804
aI459
aI2540
aI630
aI570
aI1235
aI20076
aI33
aI3347
aI44
aa(lp55
I4255
aI1321
aI19963
aI3
aI1041
aI943
aI1683
aI1160
aI10435
aI3386
aI19989
aI19988
aI8179
aI22
aI10352
aI1554
aI107
aI1410
aI2574
aI943
aI20078
aI8368
aI162
aI19989
aI22
aI1267
aI315
aI1554
aI10961
aI333
aI625
aI3244
aI19988
aI3614
aI586
aI1741
aI3807
aI1361
aI439
aI20024
aI589
aI1459
aI8179
aI4255
aI33
aI14313
aI44
aI47
aI6
aI19988
aI19980
aI744
aI3386
aI19989
aI20024
aa(lp56
I22
aI1041
aI943
aI1683
aI181
aI3500
aI258
aI3386
aI9190
aI162
aI20079
aI10437
aI3111
aI1794
aI10872
aI459
aI1460
aI10529
aI3
aI4
aI22
aI20080
aI10872
aI3406
aI186
aI175
aI2538
aI1204
aI8408
aI33
aI2115
aI17002
aI44
aI266
aI2090
aI20081
aI190
aI1097
aI8384
aI11271
aI110
aI9559
aI3111
aI20079
aa(lp57
I4255
aI64
aI3559
aI186
aI3
aI153
aI1783
aI1413
aI2378
aI2559
aI976
aI10412
aI2747
aI1410
aI423
aI4255
aI943
aI3559
aI2256
aI609
aI9152
aI17103
aI9721
aI1389
aI10412
aI924
aI11563
aI751
aI232
aI15
aI3560
aI20160
aI8563
aI4255
aI20161
aI930
aI22
aI2032
aI20162
aI12956
aI1915
aI1267
aI3
aa(lp58
I22
aI943
aI20082
aI589
aI20083
aI1397
aI11468
aI804
aI566
aI924
aI1184
aI9813
aI56
aI2538
aI8259
aI67
aI362
aI3969
aI22
aI1184
aI281
aI845
aI20084
aI11107
aI328
aI2748
aI943
aI476
aI5193
aI8368
aI1361
aI449
aI11468
aI20085
aI20086
aa(lp59
I798
aI1803
aI107
aI566
aI1803
aI4255
aI12780
aI12781
aI1276
aI77
aI8601
aI8603
aI23
aI20148
aI20149
aI3504
aI64
aI20150
aI20151
aI75
aI656
aI2046
aI17216
aI23
aI20152
aI20153
aI3504
aI64
aI20154
aI20155
aI75
aI656
aI14256
aI570
aI248
aI166
aI199
aI163
aI2217
aI166
aI199
aI1155
aa(lp60
I798
aI22
aI10
aI217
aI68
aI291
aI566
aI4
aI285
aI389
aI207
aI9087
aI147
aI4151
aI297
aI340
aI2593
aI392
aI285
aI389
aI273
aI75
aI48
aI285
aI191
aI1362
aI408
aa(lp61
I798
aI22
aI10
aI217
aI68
aI291
aI3
aI4
aI285
aI389
aI207
aI1984
aI15
aI75
aI2113
aI147
aI4151
aI297
aI340
aI1365
aI232
aI285
aI389
aI273
aI75
aI48
aI285
aI191
aI1362
aI408
aa(lp62
I4255
aI64
aI3
aI153
aI602
aI11861
aI1041
aI943
aI1683
aI6
aI20089
aI1295
aI147
aI186
aI175
aI8368
aI19966
aI20090
aI9959
aI4017
aI22
aI943
aI107
aI1627
aI231
aI453
aI15
aI9959
aI9559
aI387
aI171
aI163
aI3
aI1324
aI459
aI3578
aI266
aI399
aa(lp63
I22
aI20042
aI18
aI943
aI1321
aI317
aI3285
aI816
aI64
aI3
aI4
aI2693
aI656
aI380
aI571
aI23
aI2714
aI1288
aI3229
aI579
aI20042
aI33
aI17582
aI1721
aI3
aI3504
aI587
aI3683
aI14895
aI147
aI16835
aI15
aI8458
aI1168
aI75
aI1246
aI15
aI413
aI1168
aI75
aI297
aI163
aI646
aa(lp64
I1206
aI916
aI917
aI1260
aI823
aI239
aI2593
aI3415
aI918
aI12290
aI186
aI20091
aI936
aI2817
aI13964
aI51
aI6816
aI936
aI64
aI139
aI4284
aI934
aI924
aI4214
aI1558
aI4652
aI934
aI19385
aI64
aI4255
aI64
aI20092
aI20093
aI64
aI4337
aI51
aI7547
aI51
aI4425
aI51
aI5633
aI51
aI4470
aI4471
aI64
aI2042
aI41
aI64
aI2080
aI3297
aI51
aI7727
aI20094
aI51
aI7083
aI64
aI6129
aI51
aI17051
aI4804
aI934
aI1609
aI2981
aI64
aI6271
aI64
aI4853
aI934
aI6315
aI51
aI5038
aI51
aI1315
aI6173
aI4310
aI934
aI5073
aI51
aI6470
aI923
aI51
aI5137
aI4296
aI64
aI8096
aI51
aI7333
aI64
aI15821
aI934
aI5367
aI51
aI8139
aI64
aI857
aI20073
aI934
aI5448
aI20014
aI936
aI64
aI4282
aI3218
aI4416
aI64
aI2415
aI256
aI64
aI4340
aI64
aI5792
aI51
aI8964
aI4296
aI64
aI5783
aI4249
aI4920
aI934
aI9271
aI3671
aI4396
aI934
aI4809
aI20060
aI2470
aI64
aI4488
aI20095
aI64
aI10
aI6049
aI20016
aI51
aI12385
aI915
aI1558
aI51
aI6274
aI51
aI626
aI4282
aI19934
aI64
aI6309
aI51
aI4686
aI51
aI983
aI936
aI64
aI421
aI20096
aI20097
aI20098
aI6509
aI64
aI4870
aI64
aI3753
aI64
aI7227
aI20096
aI20097
aI20098
aI3627
aI6614
aI51
aI5006
aI51
aI6784
aI4399
aI51
aI7258
aI51
aI473
aI20099
aI19955
aI51
aI5570
aI4228
aI64
aI4282
aI525
aI4416
aI51
aI5820
aI4228
aI64
aI936
aI20013
aI18704
aI51
aI20100
aI4218
aI934
aI4408
aI4228
aI51
aI5994
aI51
aI4496
aI64
aI6005
aI20014
aI20015
aI64
aI1298
aI493
aI819
aI64
aI6146
aI4284
aI4249
aI934
aI7221
aI19946
aI684
aI934
aI6170
aI5302
aI64
aI1733
aI4708
aI6199
aI3671
aI51
aI1743
aI19947
aI4284
aI934
aI945
aI51
aI5054
aI51
aI6302
aI6303
aI51
aI3847
aI841
aI923
aI51
aI7925
aI51
aI20101
aI19940
aI6375
aI64
aI5478
aI3438
aI4396
aI4284
aI934
aI6573
aI936
aI64
aI5498
aI64
aI6604
aI64
aI11791
aI20102
aI51
aI1066
aI4196
aI4284
aI51
aI5801
aI934
aI4388
aI1322
aI64
aI9755
aI1861
aI5243
aI934
aI21
aI15491
aI4399
aI51
aI5828
aI51
aI4928
aI51
aI5143
aI51
aI901
aI4984
aI926
aI19934
aI64
aI7879
aI20103
aI4310
aI64
aI13518
aI5126
aI51
aI20104
aI19950
aI4760
aI64
aI5491
aI685
aI1558
aI934
aI6593
aI51
aI10
aI3547
aI3548
aI51
aI20105
aI51
aI5795
aI51
aI668
aI5084
aI51
aa(lp65
I798
aI22
aI248
aI1366
aI4155
aI4156
aI262
aI147
aI167
aI75
aI917
aI96
aI400
aI2569
aI285
aI23
aI315
aI292
aI303
aa(lp66
I4470
aI4471
aI3
aI4
aI865
aI1041
aI943
aI1683
aI1459
aI1802
aI89
aI19962
aI8368
aI20106
aI22
aI107
aI315
aI3
aI602
aI865
aI266
aI1802
aI943
aI1437
aI1276
aI233
aI20106
aI476
aI4255
aI128
aI1044
aI130
aI334
aI867
aI1160
aI238
aI4255
aI1571
aI4470
aI4471
aI650
aI2001
aI20107
aI625
aI1802
aI89
aI20106
aI4255
aI3
aI1802
aI770
aI333
aI625
aI1122
aI943
aa(lp67
I22
aI1041
aI943
aI1683
aI4
aI351
aI4255
aI5421
aI107
aI93
aI19963
aI2254
aI13485
aI943
aI884
aI723
aI586
aI8404
aI1049
aI865
aI205
aI353
aI36
aI723
aI19963
aI11634
aI9573
aI10516
aI20108
aI4111
aI608
aI614
aI1496
aI235
aI353
aI3115
aI3498
aI915
aI20109
aI204
aI1498
aI20110
aI188
aI15256
aI11398
aI804
aI10352
aa(lp68
I191
aI20087
aI845
aI9
aI1093
aI107
aI977
aI20088
aI199
aI1184
aI2215
aI75
aI68
aI11681
aI375
aI10435
aI91
aI353
aI10
aI221
aI227
aI550
aI11681
aI68
aI1256
aI198
aI479
aI552
aI187
aI92
aI10
aI107
aI75
aI1498
aI1056
aI20087
aI1165
aI910
aI20087
aI475
aI2958
aI15
aI20087
aI626
aI506
aI3099
aI800
aI11628
aI107
aI2848
aI1325
aI11681
aI465
aI614
aI569
aI134
aI804
aI20087
aI1433
aa(lp69
I22
aI20111
aI590
aI694
aI695
aI1078
aI4470
aI4471
aI22
aI9318
aI3500
aI256
aI107
aI1397
aI777
aI478
aI3822
aI492
aI1693
aI1754
aI3820
aI3986
aI9807
aI432
aI92
aI752
aI1946
aI20112
aI20113
aI20114
aI22
aI20115
aI107
aI550
aI2551
aI3250
aI3500
aI256
aI8192
aI1306
aI1576
aI288
aI23
aI20116
aI1460
aI266
aa(lp70
I4255
aI64
aI19117
aI20117
aI2322
aI2817
aI89
aI616
aI617
aI625
aI6
aI19997
aI1460
aI2322
aI22
aI1718
aI2165
aI599
aI19117
aI672
aI20117
aI21
aI20118
aI2679
aI586
aI531
aI20119
aI270
aI1459
aI1460
aI783
aI1502
aI616
aI617
aI22
aI20117
aI21
aI625
aI235
aI256
aI1460
aI9790
aI1896
aI4120
aI2445
aI4255
aI33
aI14313
aI44
aI459
aI15270
aI1460
aI3500
aI10150
aI256
aI12013
aI3392
aa(lp71
I75
aI20120
aI91
aI64
aI380
aI392
aI147
aI4
aI1049
aI865
aI796
aI328
aI107
aI110
aI8368
aI67
aI3334
aI3392
aI20120
aI3
aI287
aI308
aI152
aI4017
aI328
aI586
aI110
aI3386
aI20079
aI20121
aI20122
aI22
aI107
aI33
aI14227
aI677
aI3
aI287
aI2747
aI616
aI11107
aI328
aI4255
aI64
aI943
aI20090
aI586
aI75
aI20120
aI380
aI1803
aI1562
aI2121
aI187
aa(lp72
I1206
aI916
aI917
aI1260
aI823
aI239
aI918
aI19931
aI919
aI920
aI1275
aI4934
aI942
aI13964
aI20057
aI4399
aI5633
aI5642
aI5643
aI6136
aI6137
aI5991
aI9009
aI6816
aI936
aI924
aI4255
aI190
aI967
aI4375
aI486
aI20123
aI19935
aI19936
aI7083
aI10015
aI4399
aI5006
aI20054
aI7879
aI6356
aI19937
aI20071
aI21
aI20072
aI21
aI20059
aI3932
aI20014
aI21
aI15821
aI857
aI20073
aI13647
aI1935
aI190
aI4284
aI4249
aI4340
aI64
aI4385
aI4412
aI2105
aI1966
aI7227
aI20096
aI20097
aI20124
aI7258
aI1712
aI5057
aI20125
aI923
aI2692
aI4874
aI20126
aI923
aI17501
aI3297
aI5718
aI5788
aI4249
aI6037
aI20127
aI9858
aI21
aI4282
aI19942
aI4228
aI3627
aI6614
aI186
aI175
aI3435
aI5280
aI5302
aI473
aI6870
aI4351
aI18704
aI4388
aI933
aI4870
aI7221
aI201
aI201
aI684
aI1743
aI19947
aI4284
aI5478
aI3438
aI4396
aI4284
aI5498
aI5820
aI4228
aI6005
aI20014
aI20015
aI6143
aI6146
aI4284
aI4249
aI7879
aI3571
aI950
aI6302
aI6303
aI6375
aI1066
aI19953
aI926
aI5580
aI5084
aI5491
aI685
aI1558
aI3547
aI3548
aI5795
aI5801
aI20128
aI19950
aI4760
aI2124
aI393
aI5429
aI6587
aI5126
aI51
aI2929
aI15491
aI4399
aI7337
aI20129
aI668
aI3624
aI20070
aa(lp73
I798
aI71
aI16073
aI4488
aI18
aI153
aI865
aI107
aI482
aI452
aI20130
aI21
aI447
aI22
aI10
aI107
aI2624
aa(lp74
I798
aI869
aI281
aI587
aI16073
aI4488
aI18
aI3173
aI439
aI1439
aI637
aI764
aI42
aI20131
aI943
aI3386
aI20132
aI20133
aa(lp75
I4255
aI14313
aI44
aI215
aI1267
aI72
aI15006
aI1628
aI21
aI10
aI217
aI219
aI479
aI266
aI19963
aI11634
aI2767
aI8368
aI342
aI19981
aI1035
aI231
aI2046
aI15
aI174
aI15
aI22
aI970
aI298
aI552
aI1041
aI943
aI1683
aI865
aI19963
aI11634
aI586
aa(lp76
I19963
aI14964
aI2767
aI8368
aI19981
aI865
aI4
aI1041
aI943
aI1683
aI11634
aI586
aI3386
aI20134
aI819
aI22
aI865
aI11937
aI4255
aI1321
aI19963
aI1442
aI9832
aI266
aI2982
aI8341
aI258
aI1834
aI10855
aI19963
aI602
aI623
aI865
aI8368
aI3500
aI20135
aI9552
aI3392
aI943
aI586
aI11634
aI8368
aI1629
aI845
aI1926
aI15162
aa(lp77
I5587
aI4399
aI51
aI2009
aI5531
aI487
aI5001
aI137
aI5
aI159
aI170
aI14789
aI9645
aI170
aI5346
aI1802
aI1802
aI1483
aI934
aI2410
aI3444
aI264
aI1326
aI333
aI1052
aI866
aI1718
aI783
aI599
aI914
aI229
aI64
aI1596
aI3
aI287
aI159
aI212
aI1617
aI15
aI1377
aI1546
aI11499
aI75
aI68
aI22
aI10137
aI859
aI246
aI147
aI107
aI1377
aI1546
aI75
aI1068
aI1521
aI15
aa(lp78
I798
aI68
aI1397
aI1680
aI390
aI2487
aI8614
aI4
aI343
aI8224
aI294
aI1011
aI998
aI1071
aa(lp79
I798
aI22
aI9863
aI10872
aI102
aI240
aI1782
aI262
aI178
aI23
aI161
aI163
aI76
aI120
aI212
aI804
aI2574
aI884
aI783
aI3807
aI3438
aI289
aI17783
aI20136
aI9286
aa(lp80
I798
aI22
aI10
aI217
aI68
aI291
aI566
aI4
aI285
aI389
aI2787
aI392
aI147
aI4151
aI297
aI340
aI1276
aI232
aI285
aI389
aI273
aI75
aI48
aI285
aI191
aI1362
aI408
aa(lp81
I798
aI1803
aI107
aI566
aI1803
aI4255
aI64
aI12780
aI12781
aI2306
aI77
aI8601
aI8603
aI23
aI20137
aI20138
aI3504
aI64
aI20139
aI20140
aI12813
aI23
aI20141
aI20142
aI3504
aI64
aI20143
aI20144
aI75
aI656
aI8282
aI4255
aI651
aI16073
aI4488
aI71
aI1330
aI1562
aI20145
aI482
aI20130
aI447
aa(lp82
I22
aI10
aI217
aI68
aI291
aI566
aI4
aI273
aI75
aI48
aI285
aI191
aI1362
aI408
aI289
aI146
aI15
aI75
aI295
aI1741
aI6824
aI262
aI147
aI199
aI340
aI1569
aI885
aI22
aI10
aI293
aI292
aI289
aI1556
aI3061
aI1306
aI4157
aI15
aI75
aI2717
aI147
aI199
aI340
aI1365
aI232
aI22
aI96
aI400
aI3
aI2584
aI579
aI3317
aI3748
aI15
aI75
aI1464
aI285
aI399
aI1289
aI1486
aI167
aI4158
aI15
aI75
aI296
aI292
aI293
aI1365
aI232
aI22
aI248
aI1366
aI4155
aI4156
aI262
aI147
aI167
aI75
aI917
aI96
aI400
aI2569
aI285
aI23
aI294
aI315
aI297
aI340
aI1569
aI885
aI190
aI68
aI291
aI3
aI273
aI75
aI48
aI285
aI294
aI6825
aI6826
aI15
aI75
aI1350
aI1366
aI859
aI294
aI1741
aI6827
aI262
aI147
aI292
aI293
aI1365
aI232
aI566
aI297
aI22
aI1365
aI232
aI167
aI1486
aI2160
aI15
aI75
aI915
aI285
aI23
aI23
aI2565
aI68
aI4162
aI859
aI3107
aI253
aI68
aI288
aI1042
aI6828
aI625
aI587
aI68
aI853
aI212
aI252
aI253
aI22
aI273
aI75
aI285
aI399
aI1464
aI191
aI167
aI2485
aI291
aI802
aI1239
aI348
aI4180
aI859
aI285
aI389
aI297
aI607
aI695
aI3469
aI96
aI207
aI285
aI389
aI4163
aI4164
aI1018
aI1354
aI191
aI3190
aI68
aI266
aI1306
aI3187
aI1217
aI845
aI1306
aI285
aI389
aI287
aI4165
aI0
aI695
aI1021
aI3469
aI845
aI4166
aI75
aI48
aI285
aI3189
aI4163
aI458
aI75
aI3822
aI2458
aI853
aI212
aI128
aI1306
aI266
aI394
aI3863
aI408
aI399
aI320
aI4167
aI4168
aI4169
aI1237
aI253
aI259
aI1613
aI401
aI285
aI389
aI4165
aI388
aI1366
aI480
aI6829
aI609
aI22
aI3143
aI2277
aI10
aI4170
aI284
aI163
aI609
aI4171
aI388
aI285
aI389
aI480
aI1350
aI1214
aI2090
aI664
aI394
aI3746
aI976
aI2714
aI4172
aI24
aI314
aI2686
aI2093
aI2158
aI348
aI158
aI241
aI68
aI352
aI3406
aI3088
aI4177
aI1366
aI76
aI431
aI1741
aI4173
aI2867
aI1217
aI845
aI1383
aI191
aI586
aI394
aI4174
aI884
aI309
aI1128
aI4175
aI76
aI315
aI4176
aI1366
aI222
aI4178
aI695
aI1627
aI121
aI631
aI394
aI2584
aI856
aI6830
aI657
aI1274
aI22
aI1206
aI96
aI400
aI68
aI2574
aI1214
aI977
aI285
aI399
aI168
aI75
aI284
aI297
aI4181
aI389
aI348
aI550
aI6831
aI4182
aI6832
aI4193
aI1377
aI915
aI6833
aI6834
aI4189
aI51
aI6835
aI4190
aI4192
aI4193
aI6836
aI4194
aI4196
aI4197
aI2808
aI6837
aI4198
aI4196
aI4197
aI6838
aI1242
aI6839
aI4196
aI39
aI4271
aI5117
aI6840
aI6841
aI4200
aI51
aI6842
aI4201
aI1772
aI554
aI6843
aI4203
aI4205
aI6844
aI1797
aI4475
aI6845
aI4188
aI4205
aI1920
aI51
aI6846
aI4206
aI2538
aI3345
aI4208
aI6847
aI4209
aI6848
aI21
aI6849
aI6850
aI4211
aI986
aI739
aI6851
aI4212
aI4214
aI4215
aI6852
aI4216
aI493
aI1460
aI4218
aI6853
aI4219
aI3655
aI4221
aI4222
aI6854
aI4223
aI1777
aI493
aI21
aI6855
aI4225
aI4227
aI4228
aI4229
aI915
aI6856
aI4230
aI4232
aI4233
aI4229
aI1546
aI6857
aI4234
aI4236
aI64
aI6858
aI4237
aI4239
aI4240
aI2817
aI6859
aI4241
aI6860
aI242
aI51
aI6861
aI6862
aI337
aI337
aI6863
aI6864
aI4245
aI4246
aI6865
aI4247
aI4245
aI4249
aI6866
aI4250
aI4255
aI64
aI6867
aI4256
aI4266
aI4267
aI64
aI4268
aI6868
aI6869
aI4269
aI4270
aI4267
aI4271
aI3634
aI4272
aI6870
aI18
aI6871
aI6872
aI6873
aI934
aI4282
aI6874
aI6875
aI6876
aI64
aI6877
aI6878
aI6879
aI51
aI6880
aI6881
aI4279
aI51
aI6882
aI4280
aI4282
aI967
aI6883
aI4283
aI4282
aI4284
aI4249
aI6884
aI4285
aI4282
aI554
aI934
aI6885
aI4287
aI4282
aI673
aI51
aI6886
aI4289
aI4282
aI1802
aI4472
aI4291
aI4282
aI235
aI4293
aI1609
aI4188
aI4294
aI4282
aI525
aI1460
aI6887
aI6888
aI4282
aI792
aI4296
aI6889
aI4297
aI4282
aI944
aI934
aI6890
aI4305
aI4282
aI4307
aI4307
aI6891
aI4308
aI4282
aI3441
aI4310
aI4229
aI915
aI6892
aI4311
aI4282
aI3601
aI1055
aI1609
aI4188
aI6893
aI4313
aI4314
aI51
aI6894
aI4315
aI190
aI6895
aI6896
aI6897
aI190
aI4317
aI934
aI6898
aI4318
aI190
aI4228
aI21
aI6899
aI4320
aI190
aI1869
aI4301
aI6900
aI4322
aI4324
aI51
aI6901
aI4325
aI4327
aI6902
aI4328
aI4330
aI4331
aI944
aI6903
aI4332
aI4334
aI64
aI6904
aI4335
aI4337
aI51
aI6905
aI4338
aI1176
aI64
aI6906
aI4343
aI1176
aI64
aI6907
aI4345
aI4347
aI4348
aI6908
aI4349
aI6909
aI64
aI6910
aI6911
aI4351
aI4352
aI6912
aI4353
aI4355
aI51
aI6913
aI4356
aI4358
aI4359
aI934
aI6914
aI4360
aI3134
aI1483
aI6915
aI6916
aI6917
aI936
aI64
aI6918
aI6919
aI3517
aI6920
aI6921
aI6922
aI2379
aI2380
aI6923
aI4368
aI1766
aI1777
aI1676
aI6924
aI4370
aI4372
aI64
aI6925
aI4373
aI6926
aI64
aI6927
aI6928
aI4375
aI486
aI936
aI6929
aI4376
aI6930
aI21
aI64
aI6931
aI6932
aI4378
aI936
aI64
aI6933
aI4380
aI1273
aI947
aI51
aI6934
aI4393
aI1713
aI4396
aI183
aI2647
aI6935
aI1579
aI4402
aI6936
aI4403
aI6937
aI4399
aI51
aI6938
aI4188
aI919
aI920
aI4405
aI6939
aI4406
aI4408
aI4409
aI51
aI6940
aI4410
aI4415
aI4416
aI152
aI6941
aI6942
aI4418
aI4415
aI1460
aI6943
aI4420
aI6944
aI51
aI6945
aI6946
aI4422
aI3091
aI64
aI6947
aI4423
aI4425
aI51
aI6948
aI4426
aI4428
aI4429
aI51
aI6949
aI4430
aI4432
aI4396
aI4284
aI934
aI6950
aI4433
aI1418
aI4348
aI6951
aI4435
aI4437
aI25
aI51
aI6952
aI4438
aI4440
aI4441
aI4442
aI166
aI4443
aI4444
aI64
aI6953
aI4445
aI1784
aI1417
aI51
aI6954
aI4447
aI1784
aI1417
aI4714
aI915
aI2231
aI6955
aI1784
aI10
aI801
aI6956
aI4449
aI1784
aI10
aI217
aI6957
aI4451
aI1784
aI927
aI3433
aI6958
aI4453
aI4455
aI51
aI6959
aI4456
aI2041
aI21
aI64
aI6960
aI4528
aI4462
aI1784
aI64
aI6961
aI4463
aI1992
aI447
aI4442
aI6962
aI4465
aI324
aI4467
aI3847
aI6963
aI4468
aI4470
aI4471
aI64
aI6964
aI4472
aI4474
aI2
aI6965
aI4478
aI6966
aI64
aI6967
aI6968
aI279
aI4480
aI934
aI6969
aI4481
aI4485
aI447
aI4442
aI6970
aI4486
aI4488
aI3658
aI6971
aI4489
aI499
aI1579
aI51
aI6972
aI4491
aI4493
aI51
aI6973
aI4494
aI4496
aI934
aI64
aI6974
aI4497
aI4499
aI51
aI6975
aI4500
aI4505
aI4228
aI6976
aI4506
aI4508
aI2352
aI2958
aI6977
aI6978
aI4508
aI2352
aI51
aI6979
aI4509
aI4511
aI1552
aI6980
aI4512
aI734
aI2352
aI934
aI6981
aI6982
aI2080
aI2081
aI51
aI6983
aI4514
aI2159
aI4271
aI4519
aI6984
aI4520
aI2159
aI2220
aI927
aI6985
aI4522
aI4524
aI2470
aI6986
aI4525
aI3563
aI3564
aI388
aI1352
aI6987
aI4527
aI1446
aI107
aI6988
aI4529
aI4531
aI4532
aI51
aI6989
aI4533
aI6990
aI6991
aI6992
aI6993
aI6994
aI4535
aI4218
aI5749
aI6995
aI6996
aI4535
aI4218
aI186
aI2292
aI4536
aI4535
aI64
aI6997
aI4538
aI6998
aI4804
aI934
aI6999
aI7000
aI7001
aI64
aI7002
aI7003
aI194
aI1352
aI64
aI7004
aI7005
aI4540
aI4541
aI7006
aI4542
aI4544
aI4545
aI7007
aI4546
aI7008
aI2352
aI1791
aI4442
aI7009
aI7010
aI1993
aI4551
aI4442
aI7011
aI4552
aI1993
aI4551
aI5076
aI7012
aI7013
aI1935
aI4559
aI936
aI7014
aI4560
aI4562
aI51
aI7015
aI4563
aI4565
aI4566
aI64
aI7016
aI4567
aI4569
aI834
aI7017
aI4570
aI4569
aI1920
aI7018
aI7019
aI4572
aI1243
aI4293
aI7020
aI4573
aI4575
aI64
aI7021
aI4576
aI4578
aI51
aI7022
aI4579
aI4581
aI4582
aI64
aI7023
aI4583
aI4052
aI2831
aI4442
aI7024
aI4585
aI4587
aI114
aI7025
aI4588
aI4593
aI3181
aI4594
aI7026
aI4595
aI3034
aI486
aI7027
aI4597
aI4599
aI64
aI7028
aI4600
aI7029
aI107
aI7030
aI7031
aI4602
aI4603
aI934
aI7032
aI4604
aI425
aI485
aI7033
aI4606
aI425
aI712
aI934
aI7034
aI4608
aI4610
aI51
aI7035
aI4611
aI897
aI4249
aI183
aI7036
aI4613
aI7037
aI5340
aI7038
aI4188
aI2937
aI4615
aI4616
aI7039
aI4617
aI626
aI345
aI947
aI7040
aI4619
aI7041
aI7042
aI64
aI7043
aI7044
aI7045
aI459
aI7046
aI4188
aI4621
aI7047
aI4622
aI7048
aI936
aI64
aI7049
aI7050
aI3948
aI64
aI7051
aI4624
aI4626
aI51
aI7052
aI4627
aI7053
aI51
aI7054
aI7055
aI4629
aI4630
aI51
aI7056
aI4631
aI7057
aI51
aI7058
aI7059
aI3670
aI182
aI7060
aI4637
aI4639
aI4640
aI51
aI7061
aI4641
aI789
aI7062
aI51
aI7063
aI7064
aI4643
aI3497
aI4646
aI1558
aI7065
aI4647
aI4643
aI1505
aI51
aI7066
aI4649
aI4643
aI1505
aI4651
aI4652
aI7067
aI4653
aI4655
aI1784
aI7068
aI4656
aI4655
aI4658
aI4659
aI1546
aI7069
aI4660
aI4655
aI4658
aI4662
aI1546
aI7070
aI4663
aI4655
aI3441
aI4258
aI7071
aI4665
aI4667
aI51
aI7072
aI4668
aI4670
aI51
aI7073
aI4671
aI4673
aI1284
aI4674
aI7074
aI4675
aI4677
aI936
aI64
aI7075
aI4678
aI3566
aI51
aI7076
aI4680
aI1195
aI51
aI7077
aI4682
aI2105
aI1966
aI7078
aI4684
aI7079
aI51
aI7080
aI7081
aI4686
aI51
aI7082
aI4687
aI7083
aI64
aI4756
aI7084
aI4689
aI499
aI7085
aI4690
aI4689
aI7086
aI7087
aI7088
aI4692
aI4693
aI51
aI7089
aI4694
aI4699
aI64
aI4700
aI934
aI7090
aI4701
aI4703
aI2354
aI51
aI7091
aI4704
aI2952
aI165
aI944
aI7092
aI4706
aI3367
aI3367
aI4708
aI7093
aI4709
aI1534
aI7094
aI4711
aI1534
aI4713
aI4714
aI166
aI7095
aI4715
aI1534
aI4659
aI1067
aI7096
aI7097
aI4188
aI1534
aI4659
aI3678
aI4714
aI7098
aI4717
aI165
aI802
aI51
aI7099
aI4719
aI7100
aI4348
aI7101
aI7102
aI4721
aI944
aI64
aI7103
aI4722
aI4724
aI525
aI64
aI7104
aI4725
aI4122
aI7105
aI64
aI7106
aI7107
aI4729
aI934
aI7108
aI4730
aI4732
aI21
aI64
aI7109
aI4733
aI4735
aI20
aI51
aI7110
aI4736
aI7111
aI936
aI64
aI7112
aI7113
aI421
aI1869
aI4738
aI7114
aI4739
aI7115
aI51
aI7116
aI7117
aI3582
aI934
aI7118
aI4743
aI3582
aI2470
aI7119
aI4745
aI4747
aI4748
aI4749
aI7120
aI4750
aI4752
aI934
aI7121
aI4753
aI3114
aI1041
aI4228
aI7122
aI7123
aI4755
aI4760
aI4761
aI7124
aI4762
aI3897
aI4396
aI114
aI7125
aI4764
aI4766
aI64
aI7126
aI4767
aI4771
aI4228
aI7127
aI4772
aI229
aI4777
aI7128
aI4778
aI4780
aI4307
aI4781
aI4442
aI7129
aI4188
aI4784
aI1491
aI51
aI7130
aI4785
aI1491
aI4787
aI4228
aI7131
aI4788
aI4793
aI4794
aI4795
aI7132
aI4796
aI4798
aI64
aI7133
aI4799
aI7134
aI7135
aI7136
aI4188
aI4801
aI64
aI7137
aI4802
aI3263
aI4804
aI7138
aI4805
aI3263
aI4221
aI7139
aI4807
aI3263
aI4809
aI4396
aI7140
aI4810
aI3263
aI529
aI7141
aI4812
aI3263
aI944
aI7142
aI7143
aI4817
aI1784
aI4818
aI4819
aI7144
aI4820
aI4817
aI7145
aI4659
aI4714
aI262
aI7146
aI4188
aI4822
aI51
aI7147
aI4606
aI997
aI1784
aI7148
aI4824
aI997
aI51
aI7149
aI4826
aI4817
aI7150
aI4594
aI51
aI7151
aI7152
aI1484
aI920
aI51
aI7153
aI4828
aI4830
aI1491
aI51
aI7154
aI4831
aI1783
aI936
aI64
aI7155
aI4835
aI1783
aI83
aI4837
aI7156
aI4838
aI1758
aI936
aI64
aI5120
aI4840
aI4841
aI64
aI7157
aI4842
aI4844
aI1320
aI7158
aI4845
aI4847
aI4228
aI64
aI7159
aI4848
aI4850
aI51
aI7160
aI4851
aI7161
aI934
aI7162
aI7163
aI4853
aI934
aI4229
aI1546
aI7164
aI4188
aI4853
aI934
aI4229
aI915
aI7165
aI4188
aI7166
aI804
aI64
aI7167
aI7168
aI4855
aI4856
aI7169
aI4857
aI4859
aI1869
aI7170
aI4863
aI4865
aI4866
aI4867
aI934
aI7171
aI4868
aI2954
aI51
aI7172
aI4872
aI4874
aI1901
aI841
aI7173
aI4875
aI4874
aI4877
aI4878
aI7174
aI4879
aI4874
aI3624
aI1095
aI7175
aI7176
aI4874
aI604
aI4249
aI7177
aI4881
aI4883
aI4228
aI64
aI7178
aI4884
aI7179
aI1094
aI934
aI7180
aI7181
aI4886
aI4804
aI934
aI7182
aI4887
aI4893
aI4894
aI934
aI7183
aI4895
aI911
aI1903
aI7184
aI7185
aI4897
aI51
aI7186
aI4898
aI7187
aI51
aI7188
aI7189
aI920
aI3181
aI4193
aI7190
aI7191
aI920
aI1802
aI51
aI7192
aI7193
aI4903
aI7194
aI4904
aI4906
aI4907
aI64
aI7195
aI4908
aI4912
aI934
aI7196
aI4913
aI4915
aI4916
aI51
aI7197
aI4917
aI7198
aI20
aI7199
aI7200
aI4919
aI4249
aI4920
aI7201
aI4921
aI1298
aI493
aI819
aI64
aI7202
aI4923
aI7203
aI51
aI290
aI7204
aI7205
aI51
aI7206
aI7207
aI4925
aI4804
aI934
aI7208
aI4926
aI4928
aI51
aI7209
aI4929
aI4931
aI64
aI7210
aI4932
aI7211
aI1460
aI7212
aI7213
aI4937
aI4938
aI7214
aI4939
aI4941
aI64
aI7215
aI4942
aI1145
aI4662
aI4787
aI7216
aI4944
aI1145
aI1661
aI7217
aI4946
aI4948
aI4331
aI4229
aI915
aI7218
aI4949
aI4951
aI1869
aI1784
aI7219
aI4952
aI4957
aI64
aI7220
aI4958
aI7221
aI201
aI201
aI684
aI7222
aI7223
aI4960
aI51
aI7224
aI4961
aI299
aI4655
aI934
aI7225
aI4963
aI299
aI300
aI934
aI64
aI7226
aI4965
aI7227
aI4300
aI634
aI7228
aI7229
aI7230
aI4967
aI64
aI7231
aI4968
aI4970
aI7232
aI4971
aI4973
aI936
aI64
aI7233
aI4974
aI4976
aI51
aI7234
aI4977
aI4976
aI4795
aI4197
aI7235
aI4188
aI7236
aI6089
aI5001
aI7237
aI7238
aI4984
aI4249
aI934
aI7239
aI4985
aI4987
aI4988
aI7240
aI4989
aI7241
aI1387
aI2026
aI4992
aI7242
aI4993
aI7243
aI102
aI7244
aI7245
aI4995
aI64
aI7246
aI4996
aI4998
aI936
aI7247
aI4999
aI1733
aI5001
aI7248
aI5002
aI2612
aI2613
aI934
aI7249
aI5004
aI5006
aI51
aI7250
aI5007
aI5009
aI64
aI7251
aI5010
aI4804
aI2854
aI944
aI7252
aI7253
aI7254
aI51
aI7255
aI4188
aI5025
aI1483
aI934
aI7256
aI5026
aI5028
aI5029
aI1095
aI4442
aI7257
aI5030
aI7258
aI51
aI7259
aI7260
aI5032
aI51
aI7261
aI5033
aI5035
aI7262
aI5036
aI5041
aI51
aI7263
aI5042
aI1712
aI64
aI7264
aI5050
aI7265
aI51
aI7266
aI7267
aI5052
aI1896
aI7268
aI5053
aI5057
aI51
aI7269
aI5058
aI7270
aI51
aI4229
aI915
aI7271
aI7272
aI2410
aI4662
aI64
aI7273
aI7274
aI5065
aI554
aI51
aI7275
aI5066
aI5065
aI525
aI634
aI5068
aI7276
aI5069
aI5065
aI802
aI5068
aI7277
aI5071
aI5065
aI5472
aI400
aI7278
aI7279
aI5065
aI3293
aI51
aI4257
aI7280
aI5073
aI51
aI7281
aI5074
aI130
aI4809
aI5068
aI5076
aI7282
aI5077
aI130
aI1799
aI4760
aI7283
aI5079
aI5081
aI7284
aI5082
aI5084
aI51
aI7285
aI5085
aI5087
aI5088
aI7286
aI5089
aI7287
aI64
aI3254
aI7288
aI7289
aI479
aI1784
aI5091
aI64
aI7290
aI5092
aI479
aI967
aI51
aI7291
aI5094
aI479
aI3470
aI7292
aI1726
aI6417
aI7293
aI479
aI425
aI712
aI7294
aI7295
aI479
aI2025
aI51
aI7296
aI5096
aI479
aI165
aI5098
aI5099
aI7297
aI5100
aI479
aI5102
aI4440
aI7298
aI5103
aI479
aI4738
aI39
aI7299
aI5105
aI479
aI20
aI1352
aI7300
aI7301
aI479
aI5107
aI4659
aI5108
aI1546
aI7302
aI5109
aI479
aI5111
aI4348
aI7303
aI5112
aI479
aI900
aI7304
aI5114
aI479
aI345
aI4301
aI7305
aI7306
aI479
aI5116
aI5117
aI2663
aI5118
aI479
aI3627
aI2401
aI4714
aI7307
aI5120
aI479
aI3627
aI51
aI7308
aI5122
aI479
aI5126
aI51
aI7309
aI5127
aI7310
aI51
aI7311
aI7312
aI5131
aI4738
aI7313
aI5132
aI5134
aI2470
aI7314
aI5135
aI5137
aI107
aI7315
aI5138
aI5140
aI4228
aI7316
aI5141
aI905
aI5143
aI7317
aI5144
aI5146
aI4379
aI7318
aI5147
aI5152
aI3847
aI107
aI7319
aI5155
aI5157
aI21
aI4229
aI915
aI7320
aI5158
aI1532
aI1533
aI934
aI7321
aI5160
aI5162
aI5163
aI7322
aI5164
aI5166
aI21
aI64
aI7323
aI5167
aI2023
aI2407
aI1352
aI1072
aI5169
aI5170
aI7324
aI3448
aI1609
aI4188
aI7325
aI5170
aI1920
aI7326
aI5171
aI5178
aI64
aI7327
aI5179
aI1352
aI4282
aI4296
aI7328
aI5184
aI7329
aI936
aI64
aI7330
aI7331
aI5186
aI887
aI675
aI7332
aI5187
aI7333
aI934
aI64
aI7334
aI7335
aI1154
aI64
aI7336
aI5189
aI7337
aI51
aI7338
aI7339
aI5190
aI64
aI7340
aI5191
aI5193
aI10
aI7341
aI5194
aI1802
aI3546
aI7342
aI5199
aI1802
aI1483
aI934
aI7343
aI5201
aI1802
aI2973
aI64
aI7344
aI4188
aI1802
aI1533
aI51
aI7345
aI5205
aI1802
aI6173
aI5001
aI7346
aI7347
aI1802
aI5207
aI51
aI7348
aI5208
aI1802
aI3293
aI51
aI7349
aI7350
aI7351
aI64
aI7352
aI7353
aI7354
aI64
aI7355
aI7356
aI5213
aI19
aI934
aI7357
aI5214
aI902
aI939
aI7358
aI5216
aI5218
aI7359
aI5219
aI5221
aI1460
aI934
aI7360
aI5222
aI5221
aI5224
aI6935
aI5225
aI2924
aI6820
aI7361
aI5227
aI5229
aI934
aI7362
aI5230
aI5232
aI712
aI4442
aI7363
aI5233
aI5235
aI7364
aI5236
aI1628
aI2808
aI4063
aI4652
aI7365
aI7366
aI1628
aI3669
aI7367
aI5238
aI1628
aI3669
aI5076
aI7368
aI5240
aI1628
aI1669
aI1352
aI1038
aI7369
aI3092
aI1377
aI5243
aI4662
aI7370
aI5244
aI3092
aI1377
aI1558
aI4662
aI7371
aI5246
aI1970
aI5248
aI64
aI7372
aI5249
aI1970
aI1909
aI3345
aI7373
aI5251
aI1970
aI841
aI5253
aI7374
aI5254
aI5256
aI7375
aI5257
aI5262
aI83
aI4837
aI7376
aI5263
aI3361
aI5265
aI934
aI7377
aI5266
aI940
aI4282
aI1784
aI5272
aI7378
aI5273
aI940
aI5275
aI1243
aI7379
aI5276
aI940
aI941
aI4655
aI7380
aI5278
aI940
aI5280
aI4738
aI7381
aI5281
aI1955
aI5283
aI751
aI7382
aI5284
aI5286
aI5287
aI7383
aI5288
aI5290
aI4934
aI51
aI7384
aI5291
aI272
aI21
aI64
aI7385
aI7386
aI2407
aI1352
aI3646
aI3077
aI7387
aI4188
aI3512
aI51
aI7388
aI5293
aI3877
aI51
aI7389
aI5295
aI5299
aI2973
aI64
aI7390
aI5300
aI939
aI5305
aI5001
aI7391
aI5306
aI5317
aI934
aI7392
aI5318
aI2586
aI447
aI4442
aI7393
aI5329
aI2586
aI447
aI5076
aI7394
aI5331
aI5332
aI5333
aI7395
aI5334
aI5336
aI64
aI7396
aI5337
aI5339
aI5340
aI7397
aI5341
aI203
aI51
aI7398
aI5343
aI7399
aI51
aI7400
aI7401
aI5345
aI5346
aI7402
aI5347
aI7403
aI1483
aI7404
aI7405
aI235
aI256
aI585
aI7406
aI7407
aI5355
aI4749
aI934
aI7408
aI5356
aI5358
aI1558
aI679
aI934
aI7409
aI5359
aI7410
aI7411
aI7412
aI7413
aI5361
aI64
aI7414
aI5362
aI7415
aI1041
aI51
aI7416
aI7417
aI5364
aI934
aI7418
aI5365
aI5367
aI51
aI7419
aI5368
aI5370
aI51
aI7420
aI915
aI7421
aI5371
aI303
aI2808
aI4516
aI6868
aI6554
aI5373
aI303
aI2808
aI4516
aI4519
aI3906
aI7422
aI5381
aI936
aI64
aI7423
aI5382
aI3297
aI652
aI5384
aI7424
aI5385
aI537
aI8
aI51
aI7425
aI5387
aI5389
aI2817
aI4442
aI7426
aI5390
aI525
aI5392
aI64
aI7427
aI5393
aI525
aI384
aI2833
aI4860
aI7428
aI7429
aI525
aI748
aI3504
aI7430
aI5395
aI5397
aI51
aI4700
aI7431
aI5398
aI7432
aI4749
aI934
aI7433
aI7434
aI5400
aI64
aI7435
aI5401
aI429
aI430
aI7436
aI4442
aI7437
aI7438
aI5403
aI18
aI7439
aI5404
aI5406
aI5407
aI934
aI7440
aI5408
aI771
aI7441
aI7442
aI7443
aI2078
aI4228
aI7444
aI5409
aI879
aI936
aI64
aI7445
aI5411
aI7446
aI4640
aI4818
aI166
aI7447
aI4188
aI7448
aI7449
aI51
aI7450
aI7451
aI5417
aI64
aI7452
aI5418
aI7453
aI167
aI7454
aI7369
aI7455
aI7456
aI64
aI7457
aI7458
aI5424
aI4249
aI934
aI7459
aI5425
aI7460
aI936
aI7461
aI7462
aI3438
aI4249
aI7463
aI7464
aI6782
aI2231
aI3438
aI5429
aI1055
aI64
aI7465
aI5430
aI5432
aI5433
aI21
aI7466
aI5434
aI5436
aI21
aI64
aI7467
aI5437
aI2142
aI4218
aI4442
aI7468
aI5442
aI7469
aI861
aI7470
aI7471
aI5444
aI5445
aI934
aI7472
aI5446
aI5451
aI5452
aI7473
aI5453
aI4640
aI3387
aI5455
aI7474
aI5456
aI4228
aI3480
aI51
aI1609
aI4188
aI7475
aI7476
aI7477
aI64
aI7478
aI7479
aI5461
aI2808
aI7480
aI5462
aI7481
aI64
aI7482
aI7483
aI5464
aI51
aI7484
aI5465
aI218
aI21
aI7485
aI5467
aI1702
aI4249
aI934
aI1609
aI4188
aI7486
aI7487
aI7488
aI7489
aI4228
aI375
aI5469
aI7490
aI5470
aI4228
aI7491
aI51
aI7492
aI7493
aI4228
aI5472
aI934
aI7494
aI5473
aI4228
aI5475
aI51
aI7495
aI5476
aI7496
aI4396
aI1095
aI934
aI7497
aI7498
aI7499
aI585
aI934
aI7500
aI7501
aI5483
aI51
aI7502
aI5484
aI2756
aI51
aI7503
aI7504
aI2507
aI3612
aI51
aI7505
aI5486
aI2094
aI7506
aI7507
aI1352
aI7508
aI7509
aI685
aI1558
aI5491
aI934
aI7510
aI5492
aI2692
aI2692
aI7511
aI5494
aI2692
aI1484
aI64
aI7512
aI5496
aI5498
aI64
aI7513
aI5499
aI5501
aI64
aI7514
aI5502
aI2354
aI5504
aI51
aI7515
aI5505
aI903
aI165
aI4249
aI4920
aI7516
aI5507
aI903
aI4396
aI4284
aI7517
aI5509
aI903
aI4249
aI183
aI7518
aI7519
aI5511
aI936
aI64
aI1748
aI5512
aI5514
aI3861
aI525
aI7520
aI5515
aI5517
aI934
aI7521
aI5518
aI5520
aI934
aI7522
aI5521
aI5523
aI51
aI7523
aI5524
aI5523
aI5528
aI7524
aI5529
aI5523
aI5768
aI4910
aI7525
aI7526
aI5531
aI5001
aI934
aI7527
aI5532
aI7528
aI51
aI7529
aI5536
aI5538
aI4228
aI64
aI7530
aI5539
aI5541
aI5542
aI51
aI7531
aI5543
aI5545
aI2578
aI7532
aI5546
aI5548
aI3408
aI493
aI7533
aI5549
aI7534
aI7535
aI7536
aI7537
aI5554
aI107
aI7538
aI5555
aI1581
aI2912
aI1533
aI27
aI7539
aI5560
aI5565
aI18
aI7540
aI5566
aI2501
aI340
aI64
aI7541
aI5568
aI5570
aI4228
aI64
aI7542
aI5571
aI7543
aI64
aI1609
aI4188
aI7544
aI5573
aI5574
aI7545
aI5575
aI2384
aI91
aI7546
aI5577
aI7547
aI51
aI7548
aI7549
aI5579
aI5580
aI4296
aI7550
aI5581
aI5587
aI4399
aI51
aI7551
aI5588
aI7552
aI7553
aI4714
aI2981
aI7554
aI4188
aI7555
aI7556
aI7557
aI4115
aI4114
aI5076
aI7558
aI5594
aI4115
aI4114
aI934
aI7559
aI5596
aI861
aI7560
aI7561
aI5598
aI824
aI802
aI5600
aI7562
aI5601
aI5603
aI936
aI64
aI7563
aI5604
aI769
aI488
aI7564
aI7565
aI3510
aI51
aI7566
aI5606
aI2754
aI51
aI7567
aI5608
aI5610
aI5611
aI5612
aI7568
aI5613
aI444
aI2317
aI936
aI64
aI7569
aI5615
aI3624
aI2501
aI5976
aI7570
aI7571
aI5625
aI7572
aI5626
aI1731
aI107
aI7573
aI5628
aI7574
aI7575
aI51
aI7576
aI7577
aI5630
aI51
aI7578
aI5631
aI7579
aI7580
aI4442
aI7581
aI7582
aI5642
aI5643
aI7583
aI5644
aI3247
aI915
aI7584
aI107
aI7585
aI7586
aI5646
aI64
aI7587
aI5647
aI7588
aI64
aI7589
aI7590
aI2415
aI256
aI64
aI7591
aI5649
aI5651
aI447
aI4442
aI7592
aI5652
aI5654
aI5655
aI7593
aI5656
aI5654
aI5655
aI4860
aI1546
aI7594
aI5658
aI5654
aI5655
aI5660
aI7595
aI5661
aI5654
aI5655
aI4860
aI7596
aI7597
aI5662
aI51
aI7598
aI5663
aI5668
aI5669
aI4301
aI4714
aI915
aI2246
aI5670
aI7599
aI7600
aI7601
aI7602
aI5672
aI5673
aI299
aI7603
aI5674
aI306
aI5676
aI5340
aI7604
aI5677
aI1
aI51
aI7605
aI5679
aI4041
aI4042
aI7606
aI5681
aI1610
aI7607
aI2817
aI7608
aI7609
aI1610
aI3677
aI51
aI7610
aI5683
aI5685
aI51
aI7611
aI5686
aI5692
aI64
aI7612
aI5693
aI7613
aI4399
aI7614
aI7615
aI76
aI652
aI944
aI7616
aI5695
aI5697
aI51
aI7617
aI5698
aI5700
aI64
aI7618
aI5701
aI3595
aI64
aI7619
aI5703
aI5707
aI5708
aI7620
aI5709
aI1975
aI51
aI7621
aI5711
aI3547
aI3548
aI7622
aI5713
aI5715
aI64
aI7623
aI5716
aI5718
aI51
aI7624
aI5719
aI7625
aI51
aI4700
aI934
aI1609
aI4188
aI7626
aI7627
aI51
aI7628
aI7629
aI7630
aI51
aI7631
aI7632
aI5721
aI64
aI7633
aI5722
aI5731
aI1784
aI51
aI7634
aI5732
aI7635
aI51
aI7636
aI7637
aI5734
aI944
aI934
aI7638
aI5735
aI5737
aI107
aI7639
aI5738
aI2985
aI1058
aI934
aI7640
aI5740
aI7641
aI51
aI7642
aI7643
aI5741
aI5742
aI934
aI7644
aI5743
aI5745
aI7645
aI5746
aI5748
aI622
aI4818
aI5749
aI7646
aI5750
aI5748
aI622
aI5752
aI915
aI6549
aI7647
aI5753
aI5759
aI738
aI2808
aI7648
aI5760
aI5759
aI4197
aI5761
aI6386
aI5762
aI5759
aI5107
aI64
aI927
aI7649
aI5766
aI5759
aI5768
aI4271
aI927
aI7650
aI5769
aI5759
aI5956
aI2808
aI7651
aI7652
aI5759
aI7653
aI7654
aI7655
aI7656
aI2231
aI7657
aI1987
aI64
aI7658
aI7659
aI7660
aI5869
aI7661
aI4188
aI5774
aI998
aI64
aI7662
aI5775
aI5777
aI1920
aI7663
aI5778
aI5783
aI5784
aI4429
aI5785
aI7664
aI5786
aI5788
aI4249
aI183
aI7665
aI5790
aI7666
aI51
aI7667
aI7668
aI5792
aI20
aI64
aI7669
aI5793
aI5795
aI51
aI7670
aI5796
aI7671
aI7672
aI7673
aI7674
aI5798
aI425
aI51
aI7675
aI5799
aI5801
aI934
aI7676
aI5802
aI5804
aI4249
aI934
aI7677
aI5805
aI7678
aI6372
aI1429
aI7679
aI7680
aI2671
aI51
aI2817
aI7681
aI5807
aI3872
aI7682
aI934
aI7683
aI5810
aI3872
aI3873
aI21
aI7684
aI5812
aI1102
aI64
aI7685
aI5823
aI7686
aI1352
aI7687
aI7688
aI5825
aI4193
aI64
aI7689
aI5826
aI7690
aI936
aI7420
aI915
aI7691
aI7692
aI802
aI165
aI51
aI7693
aI5830
aI802
aI7694
aI7695
aI7696
aI802
aI5832
aI7697
aI5833
aI802
aI2715
aI51
aI7698
aI7699
aI802
aI80
aI7700
aI5838
aI4395
aI660
aI4396
aI7701
aI7702
aI4395
aI5840
aI64
aI1609
aI4188
aI5841
aI4395
aI1204
aI2470
aI7703
aI5845
aI4395
aI5847
aI4442
aI7704
aI5848
aI5850
aI5851
aI7705
aI5852
aI5858
aI4348
aI64
aI7706
aI5859
aI5861
aI51
aI7707
aI5862
aI3744
aI51
aI7708
aI5864
aI5866
aI21
aI7709
aI5867
aI959
aI4249
aI934
aI7710
aI7711
aI10
aI4282
aI6658
aI934
aI7259
aI7712
aI10
aI5875
aI1095
aI114
aI7713
aI5876
aI10
aI11
aI1920
aI7714
aI2120
aI10
aI333
aI1799
aI7715
aI7716
aI10
aI217
aI175
aI5878
aI7717
aI5879
aI5881
aI3847
aI934
aI7718
aI5882
aI5881
aI4749
aI51
aI7719
aI5884
aI10
aI51
aI2817
aI4442
aI7720
aI5886
aI5891
aI5892
aI4249
aI7721
aI5893
aI5891
aI75
aI51
aI7722
aI5895
aI5900
aI64
aI1377
aI1546
aI7723
aI5901
aI5902
aI102
aI7724
aI5903
aI2042
aI41
aI64
aI7725
aI5908
aI5910
aI1920
aI51
aI7726
aI5911
aI7727
aI420
aI934
aI7728
aI7729
aI5913
aI5914
aI7730
aI7440
aI5915
aI5917
aI64
aI7731
aI5918
aI228
aI5920
aI4348
aI7732
aI5921
aI3478
aI5001
aI7733
aI5925
aI3511
aI51
aI7734
aI5927
aI5929
aI51
aI7735
aI5930
aI5932
aI51
aI3646
aI5933
aI7736
aI5934
aI5936
aI4442
aI7737
aI5937
aI5939
aI5305
aI4249
aI7738
aI5940
aI5939
aI5942
aI2817
aI7739
aI5943
aI5945
aI51
aI7740
aI5946
aI5948
aI5949
aI4760
aI7741
aI7742
aI4188
aI5948
aI5949
aI4267
aI5957
aI7743
aI7744
aI5948
aI4760
aI7741
aI4267
aI7745
aI5954
aI5948
aI4267
aI4516
aI1352
aI7746
aI3985
aI5948
aI4267
aI5957
aI1352
aI2953
aI5958
aI5948
aI5961
aI4760
aI7741
aI7747
aI4188
aI5948
aI5961
aI4267
aI5957
aI7748
aI1038
aI5948
aI5961
aI5963
aI4267
aI7749
aI5856
aI7750
aI4296
aI64
aI7751
aI4188
aI7752
aI51
aI7753
aI7754
aI5971
aI5972
aI7755
aI5973
aI3514
aI1135
aI64
aI7756
aI5981
aI901
aI4804
aI934
aI7757
aI5983
aI5988
aI4396
aI1095
aI7758
aI5989
aI1482
aI5991
aI4228
aI1560
aI5992
aI3455
aI21
aI64
aI7759
aI5997
aI6002
aI64
aI7760
aI6003
aI7761
aI1166
aI7762
aI7763
aI7764
aI6007
aI4399
aI107
aI7765
aI6008
aI6010
aI3669
aI51
aI7766
aI6011
aI6016
aI6017
aI7767
aI6018
aI1243
aI1552
aI7768
aI6020
aI1243
aI4396
aI4284
aI7769
aI6022
aI1243
aI6024
aI6025
aI7770
aI6026
aI6028
aI7771
aI6029
aI3703
aI6031
aI64
aI5063
aI6032
aI1740
aI6034
aI51
aI7772
aI6035
aI1740
aI6034
aI51
aI5076
aI7773
aI7774
aI6037
aI1733
aI934
aI7775
aI6038
aI6043
aI5421
aI7776
aI6044
aI6046
aI4662
aI7777
aI6047
aI512
aI7778
aI7779
aI7780
aI6055
aI229
aI7781
aI6056
aI2000
aI4275
aI6058
aI1788
aI7782
aI6059
aI2000
aI4275
aI6058
aI6868
aI7783
aI7784
aI6061
aI4249
aI4920
aI934
aI7785
aI6064
aI6066
aI6067
aI934
aI7786
aI6068
aI6072
aI6073
aI3247
aI3247
aI2242
aI7787
aI6074
aI6076
aI64
aI7788
aI6077
aI6079
aI51
aI7789
aI6080
aI7790
aI7791
aI7792
aI7793
aI3940
aI943
aI944
aI7794
aI6082
aI816
aI64
aI7795
aI6087
aI6089
aI6090
aI51
aI7796
aI6091
aI6093
aI1483
aI934
aI7797
aI6094
aI1158
aI1159
aI4296
aI7798
aI6096
aI1158
aI6098
aI7799
aI6099
aI1526
aI4352
aI7800
aI6101
aI7801
aI7802
aI7803
aI7804
aI6103
aI51
aI712
aI7805
aI6104
aI6106
aI262
aI2943
aI7806
aI6107
aI6109
aI841
aI4083
aI7807
aI6110
aI6112
aI4738
aI4310
aI7808
aI6113
aI6115
aI2931
aI7809
aI6116
aI6121
aI6122
aI64
aI7810
aI6123
aI2779
aI20
aI51
aI7811
aI6127
aI7812
aI60
aI934
aI7813
aI7814
aI1626
aI39
aI7815
aI6132
aI3598
aI6098
aI7816
aI6134
aI6136
aI6137
aI64
aI7817
aI6138
aI1792
aI6140
aI51
aI7818
aI6141
aI6146
aI1095
aI4249
aI934
aI7819
aI6147
aI6149
aI936
aI64
aI7820
aI6150
aI3657
aI6152
aI7821
aI6153
aI7822
aI4228
aI64
aI7823
aI7824
aI2639
aI1533
aI27
aI7825
aI6158
aI6160
aI51
aI7826
aI6161
aI6163
aI1125
aI7827
aI6164
aI5143
aI51
aI7828
aI6166
aI370
aI4296
aI64
aI7829
aI6168
aI6170
aI1920
aI64
aI7830
aI6171
aI6173
aI4310
aI934
aI1902
aI7831
aI6174
aI1496
aI4714
aI2470
aI7832
aI6179
aI6181
aI1822
aI4249
aI4920
aI7833
aI6182
aI4043
aI6058
aI4275
aI64
aI7834
aI6184
aI4043
aI5872
aI4271
aI7694
aI7835
aI1748
aI4043
aI6185
aI4197
aI7836
aI6186
aI4043
aI6188
aI2808
aI7837
aI6189
aI4043
aI6188
aI6185
aI168
aI6191
aI4043
aI6155
aI4271
aI7838
aI6192
aI6194
aI18
aI7839
aI6195
aI6196
aI64
aI7840
aI6197
aI6199
aI6200
aI934
aI7841
aI6201
aI7842
aI4218
aI51
aI7843
aI7844
aI7845
aI2808
aI1352
aI7846
aI6782
aI6206
aI5942
aI4442
aI7847
aI6207
aI6209
aI6210
aI934
aI7848
aI6211
aI500
aI933
aI2817
aI7849
aI6213
aI7850
aI51
aI7851
aI7852
aI3862
aI934
aI7853
aI6215
aI800
aI6220
aI51
aI7854
aI6221
aI7855
aI1661
aI7856
aI7857
aI6223
aI4228
aI2817
aI7858
aI6224
aI6226
aI21
aI5855
aI7859
aI6227
aI6229
aI2643
aI4442
aI7860
aI6230
aI5991
aI3433
aI6232
aI7861
aI4188
aI168
aI6234
aI51
aI7862
aI6235
aI6237
aI6237
aI7863
aI7864
aI6237
aI3160
aI934
aI7865
aI6238
aI7866
aI7867
aI1038
aI7288
aI6240
aI6241
aI7868
aI6242
aI6244
aI4700
aI5076
aI7869
aI6245
aI6244
aI7870
aI4700
aI4651
aI7871
aI4188
aI1860
aI3155
aI4228
aI7872
aI7873
aI6247
aI4396
aI1095
aI7874
aI6248
aI6250
aI188
aI7875
aI6251
aI6253
aI4228
aI51
aI7876
aI6254
aI6256
aI6257
aI934
aI7877
aI6258
aI6260
aI936
aI64
aI7878
aI6261
aI7879
aI2578
aI7880
aI7881
aI6263
aI4296
aI64
aI7882
aI6264
aI3408
aI6266
aI6267
aI290
aI6268
aI7883
aI6269
aI6271
aI64
aI7884
aI6272
aI7885
aI7886
aI64
aI7887
aI5762
aI6274
aI51
aI7888
aI6275
aI7889
aI114
aI64
aI7890
aI7891
aI7892
aI80
aI7893
aI7894
aI1829
aI6283
aI51
aI7895
aI6284
aI6286
aI64
aI7896
aI6287
aI6286
aI64
aI5076
aI7897
aI6289
aI2853
aI64
aI7898
aI6294
aI277
aI2400
aI4396
aI1095
aI7899
aI7900
aI277
aI7901
aI7791
aI3408
aI7902
aI7903
aI6296
aI64
aI7904
aI6297
aI2115
aI6299
aI4399
aI5302
aI7905
aI7906
aI2115
aI6299
aI1243
aI51
aI7907
aI6300
aI6302
aI6303
aI51
aI7908
aI6304
aI6306
aI51
aI7909
aI6307
aI6309
aI51
aI7910
aI6310
aI6312
aI4700
aI934
aI7911
aI6313
aI6315
aI51
aI7912
aI6316
aI6318
aI2817
aI7913
aI6319
aI5224
aI1713
aI7914
aI7915
aI454
aI5472
aI934
aI7916
aI7917
aI1776
aI955
aI2817
aI849
aI6321
aI3594
aI934
aI2817
aI7918
aI6323
aI7919
aI4399
aI7920
aI7921
aI4867
aI493
aI51
aI7922
aI6325
aI2986
aI6327
aI934
aI7923
aI6328
aI348
aI1243
aI7924
aI6330
aI6332
aI215
aI4274
aI7400
aI6333
aI7925
aI51
aI7420
aI915
aI7926
aI7927
aI80
aI51
aI4228
aI7928
aI6335
aI983
aI936
aI64
aI7929
aI7930
aI6337
aI802
aI7931
aI6338
aI6340
aI6341
aI10
aI4442
aI7932
aI6342
aI6344
aI934
aI7933
aI6345
aI6347
aI64
aI7934
aI6348
aI6350
aI64
aI7935
aI6351
aI3293
aI6353
aI4229
aI915
aI7936
aI6354
aI6356
aI1784
aI51
aI7937
aI6357
aI1908
aI6359
aI7938
aI6360
aI7939
aI51
aI7940
aI7941
aI2624
aI7942
aI51
aI7369
aI7943
aI2624
aI6364
aI4229
aI1546
aI7944
aI6365
aI6367
aI6368
aI4442
aI6369
aI7945
aI6370
aI7946
aI5429
aI51
aI7947
aI7948
aI7949
aI7950
aI6376
aI6378
aI51
aI4442
aI7951
aI6379
aI6381
aI4700
aI4229
aI915
aI7952
aI6382
aI6384
aI64
aI7953
aI6385
aI2285
aI1784
aI934
aI7954
aI6387
aI420
aI934
aI7955
aI6389
aI420
aI6391
aI7956
aI7957
aI6392
aI1315
aI998
aI7958
aI6394
aI6398
aI499
aI7959
aI6399
aI6398
aI6173
aI4310
aI7960
aI6403
aI3077
aI1352
aI64
aI7961
aI6405
aI6409
aI18
aI7962
aI6410
aI242
aI967
aI3363
aI7963
aI7964
aI242
aI1243
aI7965
aI6414
aI242
aI1460
aI934
aI7966
aI6416
aI7967
aI64
aI7968
aI7969
aI6423
aI10
aI5875
aI6424
aI7970
aI6425
aI6427
aI7971
aI7972
aI7973
aI6427
aI955
aI51
aI7974
aI6428
aI6430
aI5869
aI7975
aI6431
aI6433
aI1491
aI64
aI7976
aI6434
aI497
aI6436
aI51
aI7977
aI6437
aI6439
aI634
aI6440
aI7978
aI6441
aI999
aI934
aI64
aI7979
aI7980
aI999
aI1095
aI51
aI5177
aI7981
aI7982
aI4749
aI934
aI7983
aI7984
aI6443
aI1784
aI64
aI7985
aI6444
aI2689
aI388
aI944
aI7986
aI6446
aI7987
aI5340
aI4228
aI7988
aI7989
aI4310
aI7990
aI934
aI7991
aI7992
aI3700
aI91
aI7993
aI6448
aI6452
aI51
aI7994
aI6453
aI6455
aI51
aI7995
aI6456
aI3652
aI1352
aI64
aI7996
aI7997
aI6458
aI936
aI64
aI7998
aI6459
aI7999
aI64
aI8000
aI8001
aI6464
aI51
aI8002
aI6465
aI6467
aI1552
aI8003
aI6468
aI6470
aI20
aI51
aI8004
aI6471
aI6473
aI2158
aI3678
aI8005
aI6474
aI6476
aI4399
aI8006
aI6477
aI6479
aI64
aI8007
aI6480
aI6489
aI1628
aI8008
aI8009
aI8010
aI6489
aI1628
aI64
aI8011
aI6492
aI6494
aI64
aI5855
aI934
aI8012
aI6495
aI6497
aI64
aI8013
aI6498
aI6500
aI64
aI8014
aI6501
aI866
aI936
aI64
aI8015
aI6503
aI866
aI3658
aI8016
aI6505
aI866
aI5001
aI934
aI8017
aI6507
aI6509
aI64
aI8018
aI6510
aI3418
aI1352
aI64
aI8019
aI8020
aI22
aI6512
aI4296
aI64
aI8021
aI6513
aI6515
aI1896
aI51
aI8022
aI6516
aI6520
aI64
aI8023
aI6521
aI1551
aI934
aI8024
aI6523
aI391
aI3090
aI64
aI8025
aI6525
aI391
aI3090
aI4714
aI3470
aI8026
aI8027
aI391
aI3090
aI4714
aI379
aI8028
aI6527
aI391
aI62
aI934
aI22
aI8029
aI6529
aI8030
aI934
aI8031
aI8032
aI6531
aI6532
aI51
aI8033
aI6533
aI6540
aI51
aI8034
aI6541
aI6543
aI934
aI8035
aI6544
aI5584
aI201
aI6549
aI64
aI8036
aI6550
aI1240
aI4700
aI1609
aI4188
aI8037
aI6560
aI3272
aI8038
aI6561
aI6563
aI4399
aI934
aI8039
aI6564
aI6566
aI6567
aI8040
aI4188
aI84
aI51
aI8041
aI6571
aI6573
aI5340
aI64
aI8042
aI6574
aI6576
aI934
aI8043
aI6577
aI1458
aI936
aI8044
aI8045
aI6579
aI51
aI8046
aI6580
aI8047
aI4399
aI51
aI8048
aI8049
aI3753
aI64
aI8050
aI6582
aI6584
aI1095
aI4249
aI934
aI8051
aI6585
aI6587
aI51
aI8052
aI6588
aI6590
aI4193
aI64
aI8053
aI6591
aI6594
aI3932
aI3435
aI51
aI8054
aI6595
aI6594
aI3932
aI841
aI64
aI8055
aI6597
aI1304
aI18
aI8056
aI6599
aI8057
aI1389
aI4208
aI8058
aI5986
aI6601
aI20
aI8059
aI6602
aI8060
aI64
aI8061
aI8062
aI6604
aI64
aI8063
aI6605
aI2826
aI6098
aI6372
aI8064
aI6608
aI2826
aI447
aI4442
aI8065
aI6610
aI3627
aI3957
aI51
aI8066
aI6612
aI3627
aI6614
aI51
aI8067
aI6615
aI3627
aI51
aI8068
aI8069
aI3627
aI4284
aI934
aI8070
aI6617
aI3627
aI1243
aI51
aI8071
aI6619
aI3627
aI866
aI4551
aI8072
aI8073
aI6621
aI20
aI8074
aI6622
aI2149
aI51
aI8075
aI6624
aI2149
aI4714
aI915
aI4860
aI8076
aI6626
aI186
aI1273
aI39
aI8077
aI6631
aI186
aI6636
aI4429
aI8078
aI6637
aI186
aI5869
aI51
aI8079
aI6639
aI186
aI2759
aI8080
aI6641
aI8081
aI51
aI8082
aI8083
aI1389
aI8084
aI8085
aI6643
aI6646
aI51
aI8086
aI6647
aI6646
aI6649
aI51
aI8087
aI6650
aI6652
aI51
aI8088
aI6653
aI6655
aI107
aI8089
aI6656
aI6661
aI21
aI64
aI8090
aI6662
aI6664
aI51
aI8091
aI6665
aI6667
aI51
aI8092
aI6668
aI8093
aI51
aI8094
aI8095
aI8096
aI51
aI8097
aI8098
aI6670
aI64
aI8099
aI6671
aI6673
aI51
aI8100
aI6674
aI1341
aI4652
aI51
aI8101
aI6679
aI8102
aI4399
aI8103
aI2626
aI6684
aI6685
aI4267
aI8104
aI8105
aI6694
aI4787
aI64
aI8106
aI6695
aI6697
aI51
aI8107
aI6698
aI617
aI944
aI8108
aI6700
aI8109
aI8110
aI8111
aI8112
aI6701
aI4655
aI934
aI8113
aI6702
aI6704
aI107
aI64
aI8114
aI6705
aI8115
aI4111
aI8116
aI8117
aI4060
aI944
aI64
aI8118
aI6716
aI6718
aI934
aI8119
aI6719
aI483
aI484
aI934
aI8120
aI6721
aI3090
aI3499
aI934
aI8121
aI6723
aI907
aI3601
aI4249
aI8122
aI6725
aI3441
aI39
aI8123
aI6727
aI6729
aI926
aI4760
aI8124
aI6730
aI8125
aI266
aI64
aI8126
aI8127
aI4566
aI64
aI8128
aI6732
aI100
aI6734
aI934
aI8129
aI6735
aI6739
aI5107
aI8130
aI6740
aI841
aI107
aI64
aI8131
aI8132
aI5280
aI4396
aI5302
aI2635
aI6742
aI5280
aI3627
aI51
aI8133
aI6743
aI3944
aI6745
aI8134
aI6746
aI6751
aI51
aI8135
aI6752
aI6757
aI8136
aI6758
aI6760
aI51
aI8137
aI6761
aI6763
aI51
aI8138
aI6764
aI8139
aI64
aI6750
aI8140
aI6766
aI6767
aI64
aI8141
aI6768
aI2177
aI4296
aI64
aI8142
aI6770
aI6772
aI6773
aI4442
aI8143
aI6774
aI6775
aI51
aI8144
aI6776
aI6778
aI944
aI8145
aI6779
aI6784
aI4399
aI8146
aI6785
aI6784
aI6173
aI4310
aI6693
aI8147
aI6787
aI18
aI8148
aI6788
aI6790
aI51
aI4700
aI8149
aI6791
aI8150
aI64
aI8151
aI4816
aI8152
aI712
aI64
aI8153
aI8154
aI6797
aI934
aI1609
aI4282
aI8155
aI6798
aI8156
aI8157
aI1899
aI4229
aI1546
aI8158
aI8159
aI3442
aI51
aI8160
aI6803
aI6805
aI51
aI8161
aI6806
aI6808
aI51
aI8162
aI6809
aI6811
aI1896
aI8163
aI6812
aI6811
aI4395
aI384
aI8164
aI6814
aI8165
aI51
aI8166
aI8167
aI76
aI6823
aI3746
aI412
aa(lp83
I4255
aI64
aI14313
aI44
aI550
aI9137
aI20146
aI792
aI681
aI475
aI8397
aI1040
aI20147
aI381
aI560
aI410
aI262
aI22
aI235
aI256
aI107
aI3
aI481
aI20146
aI481
aI20147
aI287
aI2387
aI2177
aI3470
aI17631
aa(lp84
I4470
aI4471
aI64
aI3
aI130
aI326
aI3993
aI20156
aI31
aI181
aI547
aI107
aI581
aI865
aI6
aI1802
aI1122
aI2001
aI19962
aI8368
aI22
aI2001
aI4255
aI64
aI862
aI4470
aI4471
aI1252
aI346
aI107
aI9698
aI42
aI9598
aI4255
aI72
aI856
aI20106
aI20157
aI20158
aI8739
aI915
aI2420
aI31
aI4255
aI624
aI20107
aI424
aI64
aI3993
aI223
aI199
aI4255
aI3
aI287
aI334
aI970
aa(lp85
I915
aI916
aI917
aI239
aI918
aI190
aI5305
aI19945
aI934
aI20159
aI64
aI5633
aI51
aI2042
aI41
aI64
aa(lp86
I36
aI1357
aI20
aI266
aI1359
aI286
aI68
aI253
aI288
aI394
aI395
aI2130
aI199
aI340
aI76
aI413
aI10
aI217
aI68
aI291
aI190
aI68
aI291
aI566
aI4
aI22
aI96
aI400
aI566
aI273
aI75
aI2565
aI48
aI285
aI1362
aI408
aI1261
aI75
aI380
aI413
aI147
aI292
aI2566
aI178
aI75
aI2567
aI296
aI292
aI2568
aI178
aI75
aI120
aI296
aI199
aI1250
aI2569
aI566
aI285
aI389
aI380
aI262
aI147
aI292
aI2570
aI15
aI75
aI2571
aI15
aI297
aI340
aI2572
aa(lp87
I798
aI22
aI10
aI217
aI68
aI291
aI566
aI4
aI285
aI389
aI199
aI340
aI1583
aI232
aI289
aI9042
aI15
aI75
aI8458
aI147
aI292
aI9043
aI15
aI75
aa(lp88
I798
aI22
aI10
aI217
aI68
aI291
aI566
aI4
aI285
aI389
aI380
aI9044
aI15
aI75
aI1256
aI807
aI147
aI199
aI340
aI1044
aI232
aI292
aI293
aI285
aI389
aI273
aI75
aI48
aI285
aI191
aI1362
aI408
aa(lp89
I798
aI1803
aI107
aI566
aI1803
aI4255
aI64
aI12780
aI12781
aI1569
aI1083
aI8601
aI8603
aI23
aI20163
aI20164
aI3504
aI64
aI20165
aI20166
aI75
aI656
aI1295
aI12860
aI23
aI20167
aI20168
aI3504
aI64
aI20169
aI20170
aI75
aI656
aI13452
aa(lp90
I798
aI22
aI10
aI217
aI68
aI291
aI566
aI4
aI285
aI389
aI294
aI9091
aI15
aI75
aI2216
aI147
aI4151
aI297
aI340
aI410
aI807
aI285
aI389
aI273
aI75
aI48
aI285
aI191
aI1362
aI408
aa(lp91
I798
aI22
aI802
aI1239
aI348
aI4180
aI4
aI566
aI2120
aI147
aI289
aI285
aI389
aI395
aI187
aI9050
aI348
aI802
aI266
aI114
aI839
aI239
aI340
aI9051
aa(lp92
I798
aI22
aI802
aI1239
aI348
aI4180
aI4
aI566
aI294
aI1466
aI147
aI285
aI389
aI395
aI187
aI9050
aI348
aI802
aI266
aI114
aI839
aI239
aI340
aI76
aI232
aa(lp93
I798
aI22
aI10
aI217
aI68
aI291
aI566
aI4
aI285
aI389
aI2130
aI290
aI147
aI292
aI9052
aI15
aI75
aI579
aI3317
aI76
aI232
aa(lp94
I798
aI1803
aI107
aI566
aI1803
aI4255
aI64
aI12780
aI12781
aI1044
aI1083
aI1872
aI8601
aI23
aI20171
aI20172
aI3504
aI64
aI20173
aI20174
aI75
aI656
aI233
aI14256
aI664
aI17999
aI20175
aI1502
aI4255
aI3015
aI770
aI16073
aI4488
aI51
aI964
aI15169
aI1496
aI107
aI1330
aI265
aI8601
aI664
aI10
aI425
aI1683
aI2083
aa(lp95
I798
aI22
aI10
aI217
aI68
aI291
aI566
aI4
aI285
aI389
aI294
aI295
aI199
aI340
aI1510
aI807
aI1782
aI292
aI293
aI199
aI340
aI1044
aI232
aI478
aI360
aI9053
aI75
aI4154
aI262
aI147
aa(lp96
I4255
aI64
aI333
aI460
aI375
aI625
aI9863
aI17783
aI20077
aI3346
aI2251
aI2517
aI3386
aI20176
aI24
aI10150
aI2526
aI20177
aI3703
aI22
aI107
aI489
aI1106
aI75
aI10
aI699
aI187
aI612
aI2538
aI1204
aI8408
aI64
aI4255
aI191
aI18272
aI22
aI19997
aI186
aI23
aI20178
aI15
aI223
aI163
aI396
aI4255
aI167
aI3978
aI178
aI4255
aI33
aI14313
aI44
aI3
aI352
aI287
aI383
aI289
aI13323
aI656
aI2407
aI943
aI186
aI361
aI1081
aI147
aI606
aI232
aI147
aI22
aI37
aI840
aI1114
aI1407
aI2517
aI23
aI2130
aI232
aI147
aI223
aI163
aI19997
aI606
aI360
aI1316
aI147
aa(lp97
I2295
aI20179
aI15389
aI744
aI20180
aI110
aI11847
aI287
aI280
aI11634
aI8368
aI20181
aI8898
aI13639
aI92
aI191
aI12371
aI542
aI15372
aI102
aI10022
aI267
aI589
aI280
aI309
aI1064
aI190
aI741
aI20182
aI1794
aI9733
aI1036
aI15
aI11634
aI1631
aI387
aI223
aI163
aI1316
aI147
aI1638
aI22
aI11878
aI643
aI20183
aI8368
aI24
aI19963
aI20184
aI20185
aI2743
aI1225
aa.